
adafruittest.elf:     file format elf32-pic30

Disassembly of section .aivt._AltADC1Interrupt:

0000012e <.aivt._AltADC1Interrupt>:
 12e:	d0 21 00    	nop       
Disassembly of section .aivt._AltAddressError:

00000108 <.aivt._AltAddressError>:
 108:	d0 21 00    	nop       
Disassembly of section .aivt._AltCNInterrupt:

0000013a <.aivt._AltCNInterrupt>:
 13a:	d0 21 00    	nop       
Disassembly of section .aivt._AltCRCInterrupt:

0000019a <.aivt._AltCRCInterrupt>:
 19a:	d0 21 00    	nop       
Disassembly of section .aivt._AltCTMUInterrupt:

000001ae <.aivt._AltCTMUInterrupt>:
 1ae:	d0 21 00    	nop       
Disassembly of section .aivt._AltCompInterrupt:

00000138 <.aivt._AltCompInterrupt>:
 138:	d0 21 00    	nop       
Disassembly of section .aivt._AltIC1Interrupt:

00000116 <.aivt._AltIC1Interrupt>:
 116:	d0 21 00    	nop       
Disassembly of section .aivt._AltIC2Interrupt:

0000011e <.aivt._AltIC2Interrupt>:
 11e:	d0 21 00    	nop       
Disassembly of section .aivt._AltIC3Interrupt:

0000015e <.aivt._AltIC3Interrupt>:
 15e:	d0 21 00    	nop       
Disassembly of section .aivt._AltIC4Interrupt:

00000160 <.aivt._AltIC4Interrupt>:
 160:	d0 21 00    	nop       
Disassembly of section .aivt._AltIC5Interrupt:

00000162 <.aivt._AltIC5Interrupt>:
 162:	d0 21 00    	nop       
Disassembly of section .aivt._AltIC6Interrupt:

00000164 <.aivt._AltIC6Interrupt>:
 164:	d0 21 00    	nop       
Disassembly of section .aivt._AltIC7Interrupt:

00000140 <.aivt._AltIC7Interrupt>:
 140:	d0 21 00    	nop       
Disassembly of section .aivt._AltIC8Interrupt:

00000142 <.aivt._AltIC8Interrupt>:
 142:	d0 21 00    	nop       
Disassembly of section .aivt._AltIC9Interrupt:

000001ce <.aivt._AltIC9Interrupt>:
 1ce:	d0 21 00    	nop       
Disassembly of section .aivt._AltINT0Interrupt:

00000114 <.aivt._AltINT0Interrupt>:
 114:	d0 21 00    	nop       
Disassembly of section .aivt._AltINT1Interrupt:

0000013c <.aivt._AltINT1Interrupt>:
 13c:	d0 21 00    	nop       
Disassembly of section .aivt._AltINT2Interrupt:

0000014e <.aivt._AltINT2Interrupt>:
 14e:	d0 21 00    	nop       
Disassembly of section .aivt._AltINT3Interrupt:

0000017e <.aivt._AltINT3Interrupt>:
 17e:	d0 21 00    	nop       
Disassembly of section .aivt._AltINT4Interrupt:

00000180 <.aivt._AltINT4Interrupt>:
 180:	d0 21 00    	nop       
Disassembly of section .aivt._AltInterrupt14:

00000130 <.aivt._AltInterrupt14>:
 130:	d0 21 00    	nop       
Disassembly of section .aivt._AltInterrupt15:

00000132 <.aivt._AltInterrupt15>:
 132:	d0 21 00    	nop       
Disassembly of section .aivt._AltInterrupt21:

0000013e <.aivt._AltInterrupt21>:
 13e:	d0 21 00    	nop       
Disassembly of section .aivt._AltInterrupt24:

00000144 <.aivt._AltInterrupt24>:
 144:	d0 21 00    	nop       
Disassembly of section .aivt._AltInterrupt34:

00000158 <.aivt._AltInterrupt34>:
 158:	d0 21 00    	nop       
Disassembly of section .aivt._AltInterrupt35:

0000015a <.aivt._AltInterrupt35>:
 15a:	d0 21 00    	nop       
Disassembly of section .aivt._AltInterrupt36:

0000015c <.aivt._AltInterrupt36>:
 15c:	d0 21 00    	nop       
Disassembly of section .aivt._AltInterrupt4:

0000011c <.aivt._AltInterrupt4>:
 11c:	d0 21 00    	nop       
Disassembly of section .aivt._AltInterrupt46:

00000170 <.aivt._AltInterrupt46>:
 170:	d0 21 00    	nop       
Disassembly of section .aivt._AltInterrupt47:

00000172 <.aivt._AltInterrupt47>:
 172:	d0 21 00    	nop       
Disassembly of section .aivt._AltInterrupt48:

00000174 <.aivt._AltInterrupt48>:
 174:	d0 21 00    	nop       
Disassembly of section .aivt._AltInterrupt51:

0000017a <.aivt._AltInterrupt51>:
 17a:	d0 21 00    	nop       
Disassembly of section .aivt._AltInterrupt52:

0000017c <.aivt._AltInterrupt52>:
 17c:	d0 21 00    	nop       
Disassembly of section .aivt._AltInterrupt55:

00000182 <.aivt._AltInterrupt55>:
 182:	d0 21 00    	nop       
Disassembly of section .aivt._AltInterrupt56:

00000184 <.aivt._AltInterrupt56>:
 184:	d0 21 00    	nop       
Disassembly of section .aivt._AltInterrupt57:

00000186 <.aivt._AltInterrupt57>:
 186:	d0 21 00    	nop       
Disassembly of section .aivt._AltInterrupt58:

00000188 <.aivt._AltInterrupt58>:
 188:	d0 21 00    	nop       
Disassembly of section .aivt._AltInterrupt59:

0000018a <.aivt._AltInterrupt59>:
 18a:	d0 21 00    	nop       
Disassembly of section .aivt._AltInterrupt60:

0000018c <.aivt._AltInterrupt60>:
 18c:	d0 21 00    	nop       
Disassembly of section .aivt._AltInterrupt61:

0000018e <.aivt._AltInterrupt61>:
 18e:	d0 21 00    	nop       
Disassembly of section .aivt._AltInterrupt63:

00000192 <.aivt._AltInterrupt63>:
 192:	d0 21 00    	nop       
Disassembly of section .aivt._AltInterrupt64:

00000194 <.aivt._AltInterrupt64>:
 194:	d0 21 00    	nop       
Disassembly of section .aivt._AltInterrupt68:

0000019c <.aivt._AltInterrupt68>:
 19c:	d0 21 00    	nop       
Disassembly of section .aivt._AltInterrupt69:

0000019e <.aivt._AltInterrupt69>:
 19e:	d0 21 00    	nop       
Disassembly of section .aivt._AltInterrupt70:

000001a0 <.aivt._AltInterrupt70>:
 1a0:	d0 21 00    	nop       
Disassembly of section .aivt._AltInterrupt71:

000001a2 <.aivt._AltInterrupt71>:
 1a2:	d0 21 00    	nop       
Disassembly of section .aivt._AltInterrupt73:

000001a6 <.aivt._AltInterrupt73>:
 1a6:	d0 21 00    	nop       
Disassembly of section .aivt._AltInterrupt74:

000001a8 <.aivt._AltInterrupt74>:
 1a8:	d0 21 00    	nop       
Disassembly of section .aivt._AltInterrupt75:

000001aa <.aivt._AltInterrupt75>:
 1aa:	d0 21 00    	nop       
Disassembly of section .aivt._AltInterrupt76:

000001ac <.aivt._AltInterrupt76>:
 1ac:	d0 21 00    	nop       
Disassembly of section .aivt._AltInterrupt78:

000001b0 <.aivt._AltInterrupt78>:
 1b0:	d0 21 00    	nop       
Disassembly of section .aivt._AltInterrupt79:

000001b2 <.aivt._AltInterrupt79>:
 1b2:	d0 21 00    	nop       
Disassembly of section .aivt._AltInterrupt80:

000001b4 <.aivt._AltInterrupt80>:
 1b4:	d0 21 00    	nop       
Disassembly of section .aivt._AltLVDInterrupt:

000001a4 <.aivt._AltLVDInterrupt>:
 1a4:	d0 21 00    	nop       
Disassembly of section .aivt._AltMI2C1Interrupt:

00000136 <.aivt._AltMI2C1Interrupt>:
 136:	d0 21 00    	nop       
Disassembly of section .aivt._AltMI2C2Interrupt:

00000178 <.aivt._AltMI2C2Interrupt>:
 178:	d0 21 00    	nop       
Disassembly of section .aivt._AltMI2C3Interrupt:

000001be <.aivt._AltMI2C3Interrupt>:
 1be:	d0 21 00    	nop       
Disassembly of section .aivt._AltMathError:

0000010c <.aivt._AltMathError>:
 10c:	d0 21 00    	nop       
Disassembly of section .aivt._AltOC1Interrupt:

00000118 <.aivt._AltOC1Interrupt>:
 118:	d0 21 00    	nop       
Disassembly of section .aivt._AltOC2Interrupt:

00000120 <.aivt._AltOC2Interrupt>:
 120:	d0 21 00    	nop       
Disassembly of section .aivt._AltOC3Interrupt:

00000146 <.aivt._AltOC3Interrupt>:
 146:	d0 21 00    	nop       
Disassembly of section .aivt._AltOC4Interrupt:

00000148 <.aivt._AltOC4Interrupt>:
 148:	d0 21 00    	nop       
Disassembly of section .aivt._AltOC5Interrupt:

00000166 <.aivt._AltOC5Interrupt>:
 166:	d0 21 00    	nop       
Disassembly of section .aivt._AltOC6Interrupt:

00000168 <.aivt._AltOC6Interrupt>:
 168:	d0 21 00    	nop       
Disassembly of section .aivt._AltOC7Interrupt:

0000016a <.aivt._AltOC7Interrupt>:
 16a:	d0 21 00    	nop       
Disassembly of section .aivt._AltOC8Interrupt:

0000016c <.aivt._AltOC8Interrupt>:
 16c:	d0 21 00    	nop       
Disassembly of section .aivt._AltOC9Interrupt:

000001cc <.aivt._AltOC9Interrupt>:
 1cc:	d0 21 00    	nop       
Disassembly of section .aivt._AltOscillatorFail:

00000106 <.aivt._AltOscillatorFail>:
 106:	d0 21 00    	nop       
Disassembly of section .aivt._AltPMPInterrupt:

0000016e <.aivt._AltPMPInterrupt>:
 16e:	d0 21 00    	nop       
Disassembly of section .aivt._AltRTCCInterrupt:

00000190 <.aivt._AltRTCCInterrupt>:
 190:	d0 21 00    	nop       
Disassembly of section .aivt._AltReservedTrap0:

00000104 <.aivt._AltReservedTrap0>:
 104:	d0 21 00    	nop       
Disassembly of section .aivt._AltReservedTrap5:

0000010e <.aivt._AltReservedTrap5>:
 10e:	d0 21 00    	nop       
Disassembly of section .aivt._AltReservedTrap6:

00000110 <.aivt._AltReservedTrap6>:
 110:	d0 21 00    	nop       
Disassembly of section .aivt._AltReservedTrap7:

00000112 <.aivt._AltReservedTrap7>:
 112:	d0 21 00    	nop       
Disassembly of section .aivt._AltSI2C1Interrupt:

00000134 <.aivt._AltSI2C1Interrupt>:
 134:	d0 21 00    	nop       
Disassembly of section .aivt._AltSI2C2Interrupt:

00000176 <.aivt._AltSI2C2Interrupt>:
 176:	d0 21 00    	nop       
Disassembly of section .aivt._AltSI2C3Interrupt:

000001bc <.aivt._AltSI2C3Interrupt>:
 1bc:	d0 21 00    	nop       
Disassembly of section .aivt._AltSPI1ErrInterrupt:

00000126 <.aivt._AltSPI1ErrInterrupt>:
 126:	d0 21 00    	nop       
Disassembly of section .aivt._AltSPI1Interrupt:

00000128 <.aivt._AltSPI1Interrupt>:
 128:	d0 21 00    	nop       
Disassembly of section .aivt._AltSPI2ErrInterrupt:

00000154 <.aivt._AltSPI2ErrInterrupt>:
 154:	d0 21 00    	nop       
Disassembly of section .aivt._AltSPI2Interrupt:

00000156 <.aivt._AltSPI2Interrupt>:
 156:	d0 21 00    	nop       
Disassembly of section .aivt._AltSPI3ErrInterrupt:

000001c8 <.aivt._AltSPI3ErrInterrupt>:
 1c8:	d0 21 00    	nop       
Disassembly of section .aivt._AltSPI3Interrupt:

000001ca <.aivt._AltSPI3Interrupt>:
 1ca:	d0 21 00    	nop       
Disassembly of section .aivt._AltStackError:

0000010a <.aivt._AltStackError>:
 10a:	d0 21 00    	nop       
Disassembly of section .aivt._AltT1Interrupt:

0000011a <.aivt._AltT1Interrupt>:
 11a:	d0 21 00    	nop       
Disassembly of section .aivt._AltT2Interrupt:

00000122 <.aivt._AltT2Interrupt>:
 122:	d0 21 00    	nop       
Disassembly of section .aivt._AltT3Interrupt:

00000124 <.aivt._AltT3Interrupt>:
 124:	d0 21 00    	nop       
Disassembly of section .aivt._AltT4Interrupt:

0000014a <.aivt._AltT4Interrupt>:
 14a:	d0 21 00    	nop       
Disassembly of section .aivt._AltT5Interrupt:

0000014c <.aivt._AltT5Interrupt>:
 14c:	d0 21 00    	nop       
Disassembly of section .aivt._AltU1ErrInterrupt:

00000196 <.aivt._AltU1ErrInterrupt>:
 196:	d0 21 00    	nop       
Disassembly of section .aivt._AltU1RXInterrupt:

0000012a <.aivt._AltU1RXInterrupt>:
 12a:	d0 21 00    	nop       
Disassembly of section .aivt._AltU1TXInterrupt:

0000012c <.aivt._AltU1TXInterrupt>:
 12c:	d0 21 00    	nop       
Disassembly of section .aivt._AltU2ErrInterrupt:

00000198 <.aivt._AltU2ErrInterrupt>:
 198:	d0 21 00    	nop       
Disassembly of section .aivt._AltU2RXInterrupt:

00000150 <.aivt._AltU2RXInterrupt>:
 150:	d0 21 00    	nop       
Disassembly of section .aivt._AltU2TXInterrupt:

00000152 <.aivt._AltU2TXInterrupt>:
 152:	d0 21 00    	nop       
Disassembly of section .aivt._AltU3ErrInterrupt:

000001b6 <.aivt._AltU3ErrInterrupt>:
 1b6:	d0 21 00    	nop       
Disassembly of section .aivt._AltU3RXInterrupt:

000001b8 <.aivt._AltU3RXInterrupt>:
 1b8:	d0 21 00    	nop       
Disassembly of section .aivt._AltU3TXInterrupt:

000001ba <.aivt._AltU3TXInterrupt>:
 1ba:	d0 21 00    	nop       
Disassembly of section .aivt._AltU4ErrInterrupt:

000001c2 <.aivt._AltU4ErrInterrupt>:
 1c2:	d0 21 00    	nop       
Disassembly of section .aivt._AltU4RXInterrupt:

000001c4 <.aivt._AltU4RXInterrupt>:
 1c4:	d0 21 00    	nop       
Disassembly of section .aivt._AltU4TXInterrupt:

000001c6 <.aivt._AltU4TXInterrupt>:
 1c6:	d0 21 00    	nop       
Disassembly of section .aivt._AltUSB1Interrupt:

000001c0 <.aivt._AltUSB1Interrupt>:
 1c0:	d0 21 00    	nop       
Disassembly of section .reset:

00000000 <.reset>:
   0:	10 11 04    	goto      0x1110 <__reset>
   2:	00 00 00 
Disassembly of section .text:

00001110 <__reset>:
    1110:	8f 83 20    	mov.w     #0x838, w15
    1112:	0e ff 27    	mov.w     #0x7ff0, w14
    1114:	0e 01 88    	mov.w     w14, 0x20
    1116:	00 00 00    	nop       
    1118:	00 00 20    	mov.w     #0x0, w0
    111a:	00 00 e0    	cp0.w     w0
    111c:	02 00 32    	bra       Z, 0x1122 <CORCON_RESET>
    111e:	00 01 20    	mov.w     #0x10, w0
    1120:	20 02 88    	mov.w     w0, 0x44

00001122 <CORCON_RESET>:
    1122:	14 00 07    	rcall     0x114c <__psv_init>
    1124:	77 00 07    	rcall     0x1214 <__crt_start_mode> <__crt_start_mode_normal>
    1126:	00 00 e0    	cp0.w     w0
    1128:	03 00 3a    	bra       NZ, 0x1130 <L11>
    112a:	80 1c 22    	mov.w     #0x21c8, w0
    112c:	01 00 20    	mov.w     #0x0, w1
    112e:	02 00 37    	bra       0x1134 <L21>

00001130 <L11>:
    1130:	00 00 20    	mov.w     #0x0, w0
    1132:	01 00 20    	mov.w     #0x0, w1

00001134 <L21>:
    1134:	81 0f 70    	ior.w     w0, w1, [w15]
    1136:	01 00 32    	bra       Z, 0x113a <L12>
    1138:	14 00 07    	rcall     0x1162 <__data_init> <__data_init_da>

0000113a <L12>:
    113a:	00 00 20    	mov.w     #0x0, w0
    113c:	00 00 e0    	cp0.w     w0
    113e:	02 00 32    	bra       Z, 0x1144 <L13>
    1140:	00 00 02    	call      0x0 <__DEFAULT_VECTOR-0x110c>
    1142:	00 00 00 

00001144 <L13>:
    1144:	c8 20 02    	call      0x20c8 <_main>
    1146:	00 00 00 
    1148:	00 40 da    	break     
    114a:	00 00 fe    	reset     

0000114c <__psv_init>:
    114c:	44 40 a9    	bclr.b    0x44, #0x2
    114e:	40 12 20    	mov.w     #0x124, w0
    1150:	00 00 e0    	cp0.w     w0
    1152:	03 00 32    	bra       Z, 0x115a <L14>
    1154:	00 20 20    	mov.w     #0x200, w0
    1156:	90 01 88    	mov.w     w0, 0x32
    1158:	44 40 a8    	bset.b    0x44, #0x2

0000115a <L14>:
    115a:	00 00 06    	return    

0000115c <__long_indirect_call>:
    115c:	8a 1f 78    	mov.w     w10, [w15++]
    115e:	8b 1f 78    	mov.w     w11, [w15++]
    1160:	00 00 06    	return    

00001162 <__data_init>:
    1162:	a1 02 88    	mov.w     w1, 0x54
    1164:	80 04 78    	mov.w     w0, w9
    1166:	00 00 eb    	clr.w     w0
    1168:	1f 00 37    	bra       0x11a8 <L41>

0000116a <L11>:
    116a:	e2 84 44    	add.w     w9, #0x2, w9
    116c:	54 a0 b4    	addc.w    0x54
    116e:	99 05 ba    	tblrdl.w  [w9], w11
    1170:	e2 84 44    	add.w     w9, #0x2, w9
    1172:	54 a0 b4    	addc.w    0x54
    1174:	99 06 ba    	tblrdl.w  [w9], w13
    1176:	e2 84 44    	add.w     w9, #0x2, w9
    1178:	54 a0 b4    	addc.w    0x54
    117a:	00 06 eb    	clr.w     w12
    117c:	47 6f de    	lsr.w     w13, #0x7, w14
    117e:	fd 07 b2    	and.w     #0x7f, w13
    1180:	ae 01 88    	mov.w     w14, 0x34
    1182:	63 6c e1    	cp.b      w13, #0x3
    1184:	03 00 3a    	bra       NZ, 0x118c <L21>
    1186:	ea ff 07    	rcall     0x115c <__long_indirect_call>
    1188:	00 00 eb    	clr.w     w0
    118a:	0e 00 37    	bra       0x11a8 <L41>

0000118c <L21>:
    118c:	60 6c e1    	cp.b      w13, #0x0
    118e:	08 00 3a    	bra       NZ, 0x11a0 <L22>

00001190 <L91>:
    1190:	00 4d eb    	clr.b     [w10]
    1192:	0a 05 e8    	inc.w     w10, w10
    1194:	02 00 39    	bra       NC, 0x119a <L81>
    1196:	34 20 ec    	inc.w     0x34
    1198:	0a f0 a0    	bset.w    w10, #0xf

0000119a <L81>:
    119a:	8b 05 e9    	dec.w     w11, w11
    119c:	f9 ff 3e    	bra       GTU, 0x1190 <L91>
    119e:	04 00 37    	bra       0x11a8 <L41>

000011a0 <L22>:
    11a0:	61 68 e1    	cp.w      w13, #0x1
    11a2:	01 00 32    	bra       Z, 0x11a6 <L31>
    11a4:	00 86 eb    	setm.w    w12

000011a6 <L31>:
    11a6:	0b 00 07    	rcall     0x11be <L13> <__memcpyd3extended>

000011a8 <L41>:
    11a8:	19 c7 ba    	tblrdh.b  [w9], w14
    11aa:	19 05 ba    	tblrdl.w  [w9], w10
    11ac:	0e 04 e0    	cp0.b     w14
    11ae:	03 00 3a    	bra       NZ, 0x11b6 <L12>
    11b0:	0a 00 e0    	cp0.w     w10
    11b2:	db ff 3a    	bra       NZ, 0x116a <L11>
    11b4:	00 00 06    	return    

000011b6 <L12>:
    11b6:	fe 07 b2    	and.w     #0x7f, w14
    11b8:	ae 02 88    	mov.w     w14, 0x54
    11ba:	8a 04 78    	mov.w     w10, w9
    11bc:	f5 ff 37    	bra       0x11a8 <L41>

000011be <L13>:
    11be:	0c d0 a3    	btst.c    w12, #0xd
    11c0:	e2 0f 4d    	addc.w    w10, #0x2, [w15]
    11c2:	1c 00 39    	bra       NC, 0x11fc <L23>
    11c4:	89 02 78    	mov.w     w9, w5
    11c6:	35 4d ba    	tblrdl.b  [w5++], [w10]
    11c8:	0a 05 e8    	inc.w     w10, w10
    11ca:	02 00 39    	bra       NC, 0x11d0 <L32>
    11cc:	34 20 ec    	inc.w     0x34
    11ce:	0a f0 a0    	bset.w    w10, #0xf

000011d0 <L32>:
    11d0:	8b 05 e9    	dec.w     w11, w11
    11d2:	0f 00 32    	bra       Z, 0x11f2 <L42>
    11d4:	25 4d ba    	tblrdl.b  [w5--], [w10]
    11d6:	0a 05 e8    	inc.w     w10, w10
    11d8:	02 00 39    	bra       NC, 0x11de <L33>
    11da:	34 20 ec    	inc.w     0x34
    11dc:	0a f0 a0    	bset.w    w10, #0xf

000011de <L33>:
    11de:	8b 05 e9    	dec.w     w11, w11
    11e0:	08 00 32    	bra       Z, 0x11f2 <L42>
    11e2:	0c 00 e0    	cp0.w     w12
    11e4:	06 00 32    	bra       Z, 0x11f2 <L42>
    11e6:	15 cd ba    	tblrdh.b  [w5], [w10]
    11e8:	0a 05 e8    	inc.w     w10, w10
    11ea:	02 00 39    	bra       NC, 0x11f0 <L34>
    11ec:	34 20 ec    	inc.w     0x34
    11ee:	0a f0 a0    	bset.w    w10, #0xf

000011f0 <L34>:
    11f0:	8b 05 e9    	dec.w     w11, w11

000011f2 <L42>:
    11f2:	89 84 e8    	inc2.w    w9, w9
    11f4:	54 a0 b4    	addc.w    0x54
    11f6:	0b 00 e0    	cp0.w     w11
    11f8:	e2 ff 3a    	bra       NZ, 0x11be <L13> <__memcpyd3extended>
    11fa:	00 00 06    	return    

000011fc <L23>:
    11fc:	99 02 ba    	tblrdl.w  [w9], w5
    11fe:	05 5d 78    	mov.b     w5, [w10++]
    1200:	8b 05 e9    	dec.w     w11, w11
    1202:	f7 ff 32    	bra       Z, 0x11f2 <L42>
    1204:	c8 2a de    	lsr.w     w5, #0x8, w5
    1206:	05 5d 78    	mov.b     w5, [w10++]
    1208:	8b 05 e9    	dec.w     w11, w11
    120a:	f3 ff 32    	bra       Z, 0x11f2 <L42>
    120c:	0c 00 e0    	cp0.w     w12
    120e:	f1 ff 32    	bra       Z, 0x11f2 <L42>
    1210:	19 dd ba    	tblrdh.b  [w9], [w10++]
    1212:	ee ff 37    	bra       0x11f0 <L34>

00001214 <__crt_start_mode>:
    1214:	00 00 05    	retlw.w   #0x0, w0

00001216 <___subsf3>:
    1216:	03 f0 a2    	btg.w     w3, #0xf

00001218 <___addsf3>:
    1218:	88 9f be    	mov.d     w8, [w15++]
    121a:	8a 9f be    	mov.d     w10, [w15++]
    121c:	8c 1f 78    	mov.w     w12, [w15++]
    121e:	f6 00 07    	rcall     0x140c <__funpack2>
    1220:	fd 00 33    	bra       N, 0x141c <__fPropagateNaN>
    1222:	64 50 e1    	cp.w      w10, #0x4
    1224:	4f 00 32    	bra       Z, 0x12c4 <aisinfinite>

00001226 <checkspecialb>:
    1226:	64 20 e1    	cp.w      w4, #0x4
    1228:	52 00 32    	bra       Z, 0x12ce <return2>
    122a:	03 82 6c    	xor.w     w9, w3, w4
    122c:	07 00 3b    	bra       NN, 0x123c <getsign>
    122e:	09 05 d0    	sl.w      w9, w10
    1230:	03 06 d0    	sl.w      w3, w12
    1232:	82 0f 54    	sub.w     w8, w2, [w15]
    1234:	0c 06 5d    	subb.w    w10, w12, w12
    1236:	02 00 39    	bra       NC, 0x123c <getsign>
    1238:	02 00 32    	bra       Z, 0x123e <gotsign>
    123a:	89 01 78    	mov.w     w9, w3

0000123c <getsign>:
    123c:	03 06 78    	mov.w     w3, w12

0000123e <gotsign>:
    123e:	85 82 55    	sub.w     w11, w5, w5
    1240:	04 00 3d    	bra       GE, 0x124a <expcanonical>
    1242:	00 03 fd    	exch      w0, w6
    1244:	81 03 fd    	exch      w1, w7
    1246:	85 02 ea    	neg.w     w5, w5
    1248:	8b 85 42    	add.w     w5, w11, w11

0000124a <expcanonical>:
    124a:	84 0f 72    	ior.w     w4, w4, [w15]
    124c:	02 00 3b    	bra       NN, 0x1252 <nonegate>
    124e:	60 00 10    	subr.w    w0, #0x0, w0
    1250:	e0 80 18    	subbr.w   w1, #0x0, w1

00001252 <nonegate>:
    1252:	60 11 b8    	mul.uu    w2, #0x0, w2
    1254:	00 05 eb    	clr.w     w10
    1256:	7a 28 e1    	cp.w      w5, #0x1a
    1258:	0a 00 39    	bra       NC, 0x126e <aligniter>
    125a:	06 00 78    	mov.w     w6, w0
    125c:	c7 5d dd    	sl.w      w11, #0x7, w11
    125e:	f7 07 b2    	and.w     #0x7f, w7
    1260:	87 80 75    	ior.w     w11, w7, w1
    1262:	2d 00 37    	bra       0x12be <signoff>

00001264 <align>:
    1264:	82 81 71    	ior.w     w3, w2, w3
    1266:	0a 01 78    	mov.w     w10, w2
    1268:	61 05 60    	and.w     w0, #0x1, w10
    126a:	81 80 d1    	asr.w     w1, w1
    126c:	00 80 d3    	rrc.w     w0, w0

0000126e <aligniter>:
    126e:	85 02 e9    	dec.w     w5, w5
    1270:	f9 ff 3b    	bra       NN, 0x1264 <align>

00001272 <aligned>:
    1272:	06 04 40    	add.w     w0, w6, w8
    1274:	87 84 48    	addc.w    w1, w7, w9
    1276:	02 00 3b    	bra       NN, 0x127c <normalizesum>
    1278:	60 04 14    	subr.w    w8, #0x0, w8
    127a:	e0 84 1c    	subbr.w   w9, #0x0, w9

0000127c <normalizesum>:
    127c:	09 88 a3    	btst.z    w9, #0x8
    127e:	07 00 32    	bra       Z, 0x128e <checknormal>
    1280:	8a 81 71    	ior.w     w3, w10, w3
    1282:	82 81 71    	ior.w     w3, w2, w3
    1284:	61 01 64    	and.w     w8, #0x1, w2
    1286:	89 04 d1    	lsr.w     w9, w9
    1288:	08 84 d3    	rrc.w     w8, w8
    128a:	8b 05 e8    	inc.w     w11, w11
    128c:	17 00 37    	bra       0x12bc <round>

0000128e <checknormal>:
    128e:	09 78 a3    	btst.z    w9, #0x7
    1290:	13 00 3a    	bra       NZ, 0x12b8 <discardguard>

00001292 <underflow>:
    1292:	0b 00 e0    	cp0.w     w11
    1294:	13 00 34    	bra       LE, 0x12bc <round>
    1296:	8b 05 e9    	dec.w     w11, w11
    1298:	08 04 44    	add.w     w8, w8, w8
    129a:	89 84 4c    	addc.w    w9, w9, w9
    129c:	0a 44 74    	ior.b     w8, w10, w8
    129e:	09 78 a3    	btst.z    w9, #0x7
    12a0:	0d 00 3a    	bra       NZ, 0x12bc <round>

000012a2 <normalizeloop>:
    12a2:	0b 00 e0    	cp0.w     w11
    12a4:	07 00 34    	bra       LE, 0x12b4 <normalizeexit>
    12a6:	8b 05 e9    	dec.w     w11, w11
    12a8:	08 04 44    	add.w     w8, w8, w8
    12aa:	89 84 4c    	addc.w    w9, w9, w9
    12ac:	01 00 3a    	bra       NZ, 0x12b0 <normalizetest>
    12ae:	0b 00 20    	mov.w     #0x0, w11

000012b0 <normalizetest>:
    12b0:	09 78 a3    	btst.z    w9, #0x7
    12b2:	f7 ff 32    	bra       Z, 0x12a2 <normalizeloop>

000012b4 <normalizeexit>:
    12b4:	00 01 eb    	clr.w     w2
    12b6:	02 00 37    	bra       0x12bc <round>

000012b8 <discardguard>:
    12b8:	82 81 71    	ior.w     w3, w2, w3
    12ba:	0a 01 78    	mov.w     w10, w2

000012bc <round>:
    12bc:	6c 00 07    	rcall     0x1396 <__fpack>

000012be <signoff>:
    12be:	0c f0 a7    	btsc.w    w12, #0xf
    12c0:	01 f0 a0    	bset.w    w1, #0xf
    12c2:	b5 00 37    	bra       0x142e <__fbopExit>

000012c4 <aisinfinite>:
    12c4:	64 20 e1    	cp.w      w4, #0x4
    12c6:	02 00 3a    	bra       NZ, 0x12cc <return8>
    12c8:	83 8f 6c    	xor.w     w9, w3, [w15]
    12ca:	b5 00 33    	bra       N, 0x1436 <__fbopReturnNaN>

000012cc <return8>:
    12cc:	08 01 be    	mov.d     w8, w2

000012ce <return2>:
    12ce:	02 00 be    	mov.d     w2, w0
    12d0:	ae 00 37    	bra       0x142e <__fbopExit>

000012d2 <___divsf3>:
    12d2:	88 9f be    	mov.d     w8, [w15++]
    12d4:	8a 9f be    	mov.d     w10, [w15++]
    12d6:	8c 1f 78    	mov.w     w12, [w15++]
    12d8:	99 00 07    	rcall     0x140c <__funpack2>
    12da:	a0 00 33    	bra       N, 0x141c <__fPropagateNaN>
    12dc:	03 86 6c    	xor.w     w9, w3, w12
    12de:	64 50 e1    	cp.w      w10, #0x4
    12e0:	2e 00 32    	bra       Z, 0x133e <aisinfinite>
    12e2:	64 20 e1    	cp.w      w4, #0x4
    12e4:	33 00 32    	bra       Z, 0x134c <returnZero>
    12e6:	61 50 e1    	cp.w      w10, #0x1
    12e8:	2f 00 32    	bra       Z, 0x1348 <aiszero>
    12ea:	61 20 e1    	cp.w      w4, #0x1
    12ec:	31 00 32    	bra       Z, 0x1350 <returnInf>

000012ee <finitenonzero>:
    12ee:	85 85 55    	sub.w     w11, w5, w11
    12f0:	eb 07 b0    	add.w     #0x7e, w11
    12f2:	09 00 20    	mov.w     #0x0, w9
    12f4:	08 04 20    	mov.w     #0x40, w8
    12f6:	05 00 37    	bra       0x1302 <diventry>

000012f8 <divnext>:
    12f8:	08 04 44    	add.w     w8, w8, w8
    12fa:	89 84 4c    	addc.w    w9, w9, w9
    12fc:	0a 00 31    	bra       C, 0x1312 <divdone> <formsticky>

000012fe <divloop>:
    12fe:	06 03 43    	add.w     w6, w6, w6
    1300:	87 83 4b    	addc.w    w7, w7, w7

00001302 <diventry>:
    1302:	00 01 53    	sub.w     w6, w0, w2
    1304:	81 81 5b    	subb.w    w7, w1, w3
    1306:	f8 ff 33    	bra       N, 0x12f8 <divnext>
    1308:	02 03 be    	mov.d     w2, w6
    130a:	08 00 a0    	bset.w    w8, #0x0
    130c:	08 04 44    	add.w     w8, w8, w8
    130e:	89 84 4c    	addc.w    w9, w9, w9
    1310:	f6 ff 39    	bra       NC, 0x12fe <divloop>

00001312 <divdone>:
    1312:	c6 39 dd    	sl.w      w7, #0x6, w3
    1314:	83 01 73    	ior.w     w6, w3, w3
    1316:	01 00 32    	bra       Z, 0x131a <stickyok>
    1318:	13 00 20    	mov.w     #0x1, w3

0000131a <stickyok>:
    131a:	89 04 d1    	lsr.w     w9, w9
    131c:	08 84 d3    	rrc.w     w8, w8
    131e:	09 98 a3    	btst.z    w9, #0x9
    1320:	05 00 32    	bra       Z, 0x132c <guardused>
    1322:	08 00 a7    	btsc.w    w8, #0x0
    1324:	03 00 a0    	bset.w    w3, #0x0
    1326:	89 04 d1    	lsr.w     w9, w9
    1328:	08 84 d3    	rrc.w     w8, w8
    132a:	8b 05 e8    	inc.w     w11, w11

0000132c <guardused>:
    132c:	89 04 d1    	lsr.w     w9, w9
    132e:	08 84 d3    	rrc.w     w8, w8
    1330:	00 01 eb    	clr.w     w2
    1332:	02 81 d2    	rlc.w     w2, w2
    1334:	30 00 07    	rcall     0x1396 <__fpack>

00001336 <return0>:
    1336:	01 f0 a1    	bclr.w    w1, #0xf
    1338:	0c f0 a7    	btsc.w    w12, #0xf
    133a:	01 f0 a0    	bset.w    w1, #0xf
    133c:	78 00 37    	bra       0x142e <__fbopExit>

0000133e <aisinfinite>:
    133e:	64 20 e1    	cp.w      w4, #0x4
    1340:	7a 00 32    	bra       Z, 0x1436 <__fbopReturnNaN>

00001342 <return8>:
    1342:	08 01 be    	mov.d     w8, w2

00001344 <return2>:
    1344:	02 00 be    	mov.d     w2, w0
    1346:	f7 ff 37    	bra       0x1336 <return0>

00001348 <aiszero>:
    1348:	61 20 e1    	cp.w      w4, #0x1
    134a:	75 00 32    	bra       Z, 0x1436 <__fbopReturnNaN>

0000134c <returnZero>:
    134c:	60 00 b8    	mul.uu    w0, #0x0, w0
    134e:	f3 ff 37    	bra       0x1336 <return0>

00001350 <returnInf>:
    1350:	00 00 20    	mov.w     #0x0, w0
    1352:	01 f8 27    	mov.w     #0x7f80, w1
    1354:	f0 ff 37    	bra       0x1336 <return0>

00001356 <___eqsf2>:
    1356:	14 00 20    	mov.w     #0x1, w4
    1358:	b8 00 37    	bra       0x14ca <__fcompare>

0000135a <___fixunssfsi>:
    135a:	00 01 be    	mov.d     w0, w2
    135c:	42 00 07    	rcall     0x13e2 <__funpack>
    135e:	04 70 a7    	btsc.w    w4, #0x7
    1360:	03 f0 a1    	bclr.w    w3, #0xf
    1362:	03 f8 a3    	btst.z    w3, #0xf
    1364:	13 00 3a    	bra       NZ, 0x138c <returnzero>
    1366:	65 09 b1    	sub.w     #0x96, w5
    1368:	10 00 32    	bra       Z, 0x138a <exit>
    136a:	09 00 35    	bra       LT, 0x137e <shiftright>
    136c:	69 28 e1    	cp.w      w5, #0x9
    136e:	02 00 35    	bra       LT, 0x1374 <shiftleft>
    1370:	01 00 28    	mov.w     #0x8000, w1
    1372:	00 00 05    	retlw.w   #0x0, w0

00001374 <shiftleft>:
    1374:	00 00 40    	add.w     w0, w0, w0
    1376:	81 80 48    	addc.w    w1, w1, w1
    1378:	85 02 e9    	dec.w     w5, w5
    137a:	fc ff 3a    	bra       NZ, 0x1374 <shiftleft>
    137c:	00 00 06    	return    

0000137e <shiftright>:
    137e:	f8 8f 42    	add.w     w5, #0x18, [w15]
    1380:	05 00 35    	bra       LT, 0x138c <returnzero>

00001382 <shiftrightloop>:
    1382:	81 00 d1    	lsr.w     w1, w1
    1384:	00 80 d3    	rrc.w     w0, w0
    1386:	85 02 e8    	inc.w     w5, w5
    1388:	fc ff 3a    	bra       NZ, 0x1382 <shiftrightloop>

0000138a <exit>:
    138a:	00 00 06    	return    

0000138c <returnzero>:
    138c:	80 00 eb    	clr.w     w1
    138e:	00 00 05    	retlw.w   #0x0, w0

00001390 <___floatsisf>:
    1390:	4f 89 de    	asr.w     w1, #0xf, w2
    1392:	82 01 78    	mov.w     w2, w3
    1394:	b5 00 37    	bra       0x1500 <___floatdisf>

00001396 <__fpack>:
    1396:	81 00 20    	mov.w     #0x8, w1
    1398:	61 80 55    	sub.w     w11, #0x1, w0
    139a:	0b 00 3d    	bra       GE, 0x13b2 <notsubnormal>
    139c:	0b 00 20    	mov.w     #0x0, w11
    139e:	61 fe 2f    	mov.w     #0xffe6, w1
    13a0:	01 00 e1    	cp.w      w0, w1
    13a2:	1d 00 34    	bra       LE, 0x13de <zerosig>

000013a4 <subnormal>:
    13a4:	82 81 71    	ior.w     w3, w2, w3
    13a6:	61 01 64    	and.w     w8, #0x1, w2
    13a8:	89 04 d1    	lsr.w     w9, w9
    13aa:	08 84 d3    	rrc.w     w8, w8
    13ac:	00 00 e8    	inc.w     w0, w0
    13ae:	fa ff 3a    	bra       NZ, 0x13a4 <subnormal>
    13b0:	71 00 20    	mov.w     #0x7, w1

000013b2 <notsubnormal>:
    13b2:	61 00 64    	and.w     w8, #0x1, w0
    13b4:	03 00 70    	ior.w     w0, w3, w0
    13b6:	02 00 60    	and.w     w0, w2, w0
    13b8:	09 00 32    	bra       Z, 0x13cc <packupandgo>
    13ba:	61 04 44    	add.w     w8, #0x1, w8
    13bc:	e0 84 4c    	addc.w    w9, #0x0, w9
    13be:	09 88 a5    	btst.z    w9, w1
    13c0:	05 00 32    	bra       Z, 0x13cc <packupandgo>
    13c2:	8b 05 e8    	inc.w     w11, w11
    13c4:	68 08 e1    	cp.w      w1, #0x8
    13c6:	02 00 3a    	bra       NZ, 0x13cc <packupandgo>
    13c8:	89 04 d1    	lsr.w     w9, w9
    13ca:	08 84 d3    	rrc.w     w8, w8

000013cc <packupandgo>:
    13cc:	f2 0f 20    	mov.w     #0xff, w2
    13ce:	02 58 e1    	cp.w      w11, w2
    13d0:	05 00 3d    	bra       GE, 0x13dc <overflow>
    13d2:	c7 5d dd    	sl.w      w11, #0x7, w11
    13d4:	f9 07 b2    	and.w     #0x7f, w9
    13d6:	89 80 75    	ior.w     w11, w9, w1
    13d8:	08 00 78    	mov.w     w8, w0
    13da:	00 00 06    	return    

000013dc <overflow>:
    13dc:	0b f8 27    	mov.w     #0x7f80, w11

000013de <zerosig>:
    13de:	8b 00 78    	mov.w     w11, w1
    13e0:	00 00 05    	retlw.w   #0x0, w0

000013e2 <__funpack>:
    13e2:	c7 0a de    	lsr.w     w1, #0x7, w5
    13e4:	f1 07 b2    	and.w     #0x7f, w1
    13e6:	f5 0f b2    	and.w     #0xff, w5
    13e8:	08 00 32    	bra       Z, 0x13fa <zeroorsub>
    13ea:	e1 cf 42    	add.b     w5, #0x1, [w15]
    13ec:	02 00 32    	bra       Z, 0x13f2 <nanorinf>

000013ee <finitereturn>:
    13ee:	01 70 a0    	bset.w    w1, #0x7
    13f0:	24 00 05    	retlw.w   #0x2, w4

000013f2 <nanorinf>:
    13f2:	81 0f 70    	ior.w     w0, w1, [w15]
    13f4:	01 00 32    	bra       Z, 0x13f8 <infinite>
    13f6:	04 08 05    	retlw.w   #0x80, w4

000013f8 <infinite>:
    13f8:	44 00 05    	retlw.w   #0x4, w4

000013fa <zeroorsub>:
    13fa:	81 0f 70    	ior.w     w0, w1, [w15]
    13fc:	02 00 3a    	bra       NZ, 0x1402 <subnormal>
    13fe:	14 00 05    	retlw.w   #0x1, w4

00001400 <normalize>:
    1400:	85 02 e9    	dec.w     w5, w5

00001402 <subnormal>:
    1402:	00 00 40    	add.w     w0, w0, w0
    1404:	81 c0 48    	addc.b    w1, w1, w1
    1406:	fc ff 3b    	bra       NN, 0x1400 <normalize>
    1408:	01 70 a0    	bset.w    w1, #0x7
    140a:	24 00 05    	retlw.w   #0x2, w4

0000140c <__funpack2>:
    140c:	00 04 be    	mov.d     w0, w8
    140e:	e9 ff 07    	rcall     0x13e2 <__funpack>
    1410:	00 03 be    	mov.d     w0, w6
    1412:	04 05 be    	mov.d     w4, w10
    1414:	02 00 be    	mov.d     w2, w0
    1416:	e5 ff 07    	rcall     0x13e2 <__funpack>
    1418:	84 4f 75    	ior.b     w10, w4, [w15]
    141a:	00 00 06    	return    

0000141c <__fPropagateNaN>:
    141c:	02 00 be    	mov.d     w2, w0
    141e:	64 50 e1    	cp.w      w10, #0x4
    1420:	05 00 36    	bra       LEU, 0x142c <return0>
    1422:	64 20 e1    	cp.w      w4, #0x4
    1424:	02 00 36    	bra       LEU, 0x142a <return8>
    1426:	09 68 a3    	btst.z    w9, #0x6
    1428:	01 00 3a    	bra       NZ, 0x142c <return0>

0000142a <return8>:
    142a:	08 00 be    	mov.d     w8, w0

0000142c <return0>:
    142c:	01 60 a0    	bset.w    w1, #0x6

0000142e <__fbopExit>:
    142e:	4f 06 78    	mov.w     [--w15], w12
    1430:	4f 05 be    	mov.d     [--w15], w10
    1432:	4f 04 be    	mov.d     [--w15], w8
    1434:	00 00 06    	return    

00001436 <__fbopReturnNaN>:
    1436:	f0 ff 2f    	mov.w     #0xffff, w0
    1438:	f1 ff 27    	mov.w     #0x7fff, w1
    143a:	f9 ff 37    	bra       0x142e <__fbopExit>

0000143c <___mulsf3>:
    143c:	88 9f be    	mov.d     w8, [w15++]
    143e:	8a 9f be    	mov.d     w10, [w15++]
    1440:	8c 1f 78    	mov.w     w12, [w15++]
    1442:	e4 ff 07    	rcall     0x140c <__funpack2>
    1444:	eb ff 33    	bra       N, 0x141c <__fPropagateNaN>
    1446:	03 86 6c    	xor.w     w9, w3, w12
    1448:	64 50 e1    	cp.w      w10, #0x4
    144a:	24 00 32    	bra       Z, 0x1494 <aisinfinite>
    144c:	64 20 e1    	cp.w      w4, #0x4
    144e:	27 00 32    	bra       Z, 0x149e <bisinfinite>
    1450:	61 50 e1    	cp.w      w10, #0x1
    1452:	22 00 32    	bra       Z, 0x1498 <return8>
    1454:	61 20 e1    	cp.w      w4, #0x1
    1456:	21 00 32    	bra       Z, 0x149a <return2>
    1458:	8b 85 42    	add.w     w5, w11, w11
    145a:	eb 07 b1    	sub.w     #0x7e, w11
    145c:	01 34 b8    	mul.uu    w6, w1, w8
    145e:	00 3a b8    	mul.uu    w7, w0, w4
    1460:	08 04 42    	add.w     w4, w8, w8
    1462:	89 84 4a    	addc.w    w5, w9, w9
    1464:	01 3a b8    	mul.uu    w7, w1, w4
    1466:	00 30 b8    	mul.uu    w6, w0, w0
    1468:	88 80 40    	add.w     w1, w8, w1
    146a:	09 01 4a    	addc.w    w4, w9, w2
    146c:	04 00 33    	bra       N, 0x1476 <formsticky>
    146e:	00 00 40    	add.w     w0, w0, w0
    1470:	81 80 48    	addc.w    w1, w1, w1
    1472:	02 01 49    	addc.w    w2, w2, w2
    1474:	8b 05 e9    	dec.w     w11, w11

00001476 <formsticky>:
    1476:	c9 09 dd    	sl.w      w1, #0x9, w3
    1478:	83 01 70    	ior.w     w0, w3, w3
    147a:	01 00 32    	bra       Z, 0x147e <formRandSig>
    147c:	13 00 20    	mov.w     #0x1, w3

0000147e <formRandSig>:
    147e:	c8 14 de    	lsr.w     w2, #0x8, w9
    1480:	48 14 dd    	sl.w      w2, #0x8, w8
    1482:	47 09 de    	lsr.w     w1, #0x7, w2
    1484:	12 00 b2    	and.w     #0x1, w2
    1486:	c8 08 de    	lsr.w     w1, #0x8, w1
    1488:	08 84 70    	ior.w     w1, w8, w8
    148a:	85 ff 07    	rcall     0x1396 <__fpack>

0000148c <return0>:
    148c:	01 f0 a1    	bclr.w    w1, #0xf
    148e:	0c f0 a7    	btsc.w    w12, #0xf
    1490:	01 f0 a0    	bset.w    w1, #0xf
    1492:	cd ff 37    	bra       0x142e <__fbopExit>

00001494 <aisinfinite>:
    1494:	61 20 e1    	cp.w      w4, #0x1
    1496:	cf ff 32    	bra       Z, 0x1436 <__fbopReturnNaN>

00001498 <return8>:
    1498:	08 01 be    	mov.d     w8, w2

0000149a <return2>:
    149a:	02 00 be    	mov.d     w2, w0
    149c:	f7 ff 37    	bra       0x148c <return0>

0000149e <bisinfinite>:
    149e:	61 50 e1    	cp.w      w10, #0x1
    14a0:	fc ff 3a    	bra       NZ, 0x149a <return2>
    14a2:	c9 ff 37    	bra       0x1436 <__fbopReturnNaN>

000014a4 <___udivsi3>:
    14a4:	60 22 b8    	mul.uu    w4, #0x0, w4
    14a6:	06 02 20    	mov.w     #0x20, w6

000014a8 <nextbit>:
    14a8:	00 00 d0    	sl.w      w0, w0
    14aa:	81 80 d2    	rlc.w     w1, w1
    14ac:	04 82 d2    	rlc.w     w4, w4
    14ae:	85 82 d2    	rlc.w     w5, w5
    14b0:	00 00 a0    	bset.w    w0, #0x0
    14b2:	02 02 52    	sub.w     w4, w2, w4
    14b4:	83 82 5a    	subb.w    w5, w3, w5
    14b6:	03 00 31    	bra       C, 0x14be <iterate>
    14b8:	02 02 42    	add.w     w4, w2, w4
    14ba:	83 82 4a    	addc.w    w5, w3, w5
    14bc:	00 00 a1    	bclr.w    w0, #0x0

000014be <iterate>:
    14be:	06 03 e9    	dec.w     w6, w6
    14c0:	f3 ff 3a    	bra       NZ, 0x14a8 <nextbit>
    14c2:	00 00 06    	return    

000014c4 <___umodsi3>:
    14c4:	ef ff 07    	rcall     0x14a4 <___udivsi3>
    14c6:	04 00 be    	mov.d     w4, w0
    14c8:	00 00 06    	return    

000014ca <__fcompare>:
    14ca:	88 9f be    	mov.d     w8, [w15++]
    14cc:	8a 9f be    	mov.d     w10, [w15++]
    14ce:	84 1f 78    	mov.w     w4, [w15++]
    14d0:	9d ff 07    	rcall     0x140c <__funpack2>
    14d2:	4f 00 78    	mov.w     [--w15], w0
    14d4:	11 00 33    	bra       N, 0x14f8 <exit>
    14d6:	f0 ff 2f    	mov.w     #0xffff, w0
    14d8:	83 8f 6c    	xor.w     w9, w3, [w15]
    14da:	06 00 3b    	bra       NN, 0x14e8 <comparemag>
    14dc:	04 05 65    	and.w     w10, w4, w10
    14de:	0a 00 a7    	btsc.w    w10, #0x0
    14e0:	08 00 37    	bra       0x14f2 <returnEqual>
    14e2:	09 f0 a6    	btss.w    w9, #0xf
    14e4:	10 00 20    	mov.w     #0x1, w0
    14e6:	08 00 37    	bra       0x14f8 <exit>

000014e8 <comparemag>:
    14e8:	82 0f 54    	sub.w     w8, w2, [w15]
    14ea:	83 8f 5c    	subb.w    w9, w3, [w15]
    14ec:	03 00 39    	bra       NC, 0x14f4 <adjust>
    14ee:	10 00 20    	mov.w     #0x1, w0
    14f0:	01 00 3e    	bra       GTU, 0x14f4 <adjust>

000014f2 <returnEqual>:
    14f2:	00 00 20    	mov.w     #0x0, w0

000014f4 <adjust>:
    14f4:	09 f0 a7    	btsc.w    w9, #0xf
    14f6:	00 00 ea    	neg.w     w0, w0

000014f8 <exit>:
    14f8:	4f 05 be    	mov.d     [--w15], w10
    14fa:	4f 04 be    	mov.d     [--w15], w8
    14fc:	00 00 e0    	cp0.w     w0
    14fe:	00 00 06    	return    

00001500 <___floatdisf>:
    1500:	88 1f 78    	mov.w     w8, [w15++]
    1502:	03 04 78    	mov.w     w3, w8
    1504:	03 00 e0    	cp0.w     w3
    1506:	07 00 3d    	bra       GE, 0x1516 <notspecial>

00001508 <negative>:
    1508:	60 00 10    	subr.w    w0, #0x0, w0
    150a:	e0 80 18    	subbr.w   w1, #0x0, w1
    150c:	60 01 19    	subbr.w   w2, #0x0, w2
    150e:	e0 81 19    	subbr.w   w3, #0x0, w3
    1510:	02 00 3b    	bra       NN, 0x1516 <notspecial>
    1512:	01 f0 2d    	mov.w     #0xdf00, w1
    1514:	03 00 37    	bra       0x151c <return0>

00001516 <notspecial>:
    1516:	04 00 07    	rcall     0x1520 <___floatundisf>
    1518:	08 f0 a7    	btsc.w    w8, #0xf
    151a:	01 f0 a0    	bset.w    w1, #0xf

0000151c <return0>:
    151c:	4f 04 78    	mov.w     [--w15], w8
    151e:	00 00 06    	return    

00001520 <___floatundisf>:
    1520:	88 9f be    	mov.d     w8, [w15++]
    1522:	8a 9f be    	mov.d     w10, [w15++]
    1524:	00 82 70    	ior.w     w1, w0, w4
    1526:	04 02 71    	ior.w     w2, w4, w4
    1528:	04 82 71    	ior.w     w3, w4, w4
    152a:	26 00 32    	bra       Z, 0x1578 <return0>
    152c:	00 04 be    	mov.d     w0, w8
    152e:	02 00 be    	mov.d     w2, w0
    1530:	60 11 b8    	mul.uu    w2, #0x0, w2
    1532:	6b 09 20    	mov.w     #0x96, w11
    1534:	95 02 20    	mov.w     #0x29, w5
    1536:	01 82 cf    	ff1l      w1, w4
    1538:	0a 00 39    	bra       NC, 0x154e <fixshift>
    153a:	05 41 b1    	sub.b     #0x10, w5
    153c:	00 82 cf    	ff1l      w0, w4
    153e:	07 00 39    	bra       NC, 0x154e <fixshift>
    1540:	05 41 b1    	sub.b     #0x10, w5
    1542:	09 82 cf    	ff1l      w9, w4
    1544:	04 00 39    	bra       NC, 0x154e <fixshift>
    1546:	05 41 b1    	sub.b     #0x10, w5
    1548:	08 82 cf    	ff1l      w8, w4
    154a:	01 00 39    	bra       NC, 0x154e <fixshift>
    154c:	05 41 b1    	sub.b     #0x10, w5

0000154e <fixshift>:
    154e:	05 42 52    	sub.b     w4, w5, w4
    1550:	12 00 32    	bra       Z, 0x1576 <round>
    1552:	0a 00 3b    	bra       NN, 0x1568 <shiftleft>

00001554 <shiftright>:
    1554:	82 81 71    	ior.w     w3, w2, w3
    1556:	61 01 64    	and.w     w8, #0x1, w2
    1558:	81 00 d1    	lsr.w     w1, w1
    155a:	00 80 d3    	rrc.w     w0, w0
    155c:	89 84 d3    	rrc.w     w9, w9
    155e:	08 84 d3    	rrc.w     w8, w8
    1560:	8b 05 e8    	inc.w     w11, w11
    1562:	04 42 e8    	inc.b     w4, w4
    1564:	f7 ff 3a    	bra       NZ, 0x1554 <shiftright>
    1566:	07 00 37    	bra       0x1576 <round>

00001568 <shiftleft>:
    1568:	08 04 44    	add.w     w8, w8, w8
    156a:	89 84 4c    	addc.w    w9, w9, w9
    156c:	00 00 48    	addc.w    w0, w0, w0
    156e:	81 80 48    	addc.w    w1, w1, w1
    1570:	8b 05 e9    	dec.w     w11, w11
    1572:	04 42 e9    	dec.b     w4, w4
    1574:	f9 ff 3a    	bra       NZ, 0x1568 <shiftleft>

00001576 <round>:
    1576:	0f ff 07    	rcall     0x1396 <__fpack>

00001578 <return0>:
    1578:	4f 05 be    	mov.d     [--w15], w10
    157a:	4f 04 be    	mov.d     [--w15], w8
    157c:	00 00 06    	return    
Disassembly of section .application_ivt:

00001000 <__DEFAULT_VECTOR-0x10c>:
    1000:	10 11 04    	goto      0x1110 <__reset>
    1002:	00 00 00 
    1004:	d0 21 04    	goto      0x21d0 <__DefaultInterrupt>
    1006:	00 00 00 
    1008:	d0 21 04    	goto      0x21d0 <__DefaultInterrupt>
    100a:	00 00 00 
    100c:	d0 21 04    	goto      0x21d0 <__DefaultInterrupt>
    100e:	00 00 00 
    1010:	d0 21 04    	goto      0x21d0 <__DefaultInterrupt>
    1012:	00 00 00 
    1014:	d0 21 04    	goto      0x21d0 <__DefaultInterrupt>
    1016:	00 00 00 
    1018:	d0 21 04    	goto      0x21d0 <__DefaultInterrupt>
    101a:	00 00 00 
    101c:	d0 21 04    	goto      0x21d0 <__DefaultInterrupt>
    101e:	00 00 00 
    1020:	d0 21 04    	goto      0x21d0 <__DefaultInterrupt>
    1022:	00 00 00 
    1024:	d0 21 04    	goto      0x21d0 <__DefaultInterrupt>
    1026:	00 00 00 
    1028:	d0 21 04    	goto      0x21d0 <__DefaultInterrupt>
    102a:	00 00 00 
    102c:	d0 21 04    	goto      0x21d0 <__DefaultInterrupt>
    102e:	00 00 00 
    1030:	d0 21 04    	goto      0x21d0 <__DefaultInterrupt>
    1032:	00 00 00 
    1034:	d0 21 04    	goto      0x21d0 <__DefaultInterrupt>
    1036:	00 00 00 
    1038:	d0 21 04    	goto      0x21d0 <__DefaultInterrupt>
    103a:	00 00 00 
    103c:	d0 21 04    	goto      0x21d0 <__DefaultInterrupt>
    103e:	00 00 00 
    1040:	d0 21 04    	goto      0x21d0 <__DefaultInterrupt>
    1042:	00 00 00 
    1044:	d0 21 04    	goto      0x21d0 <__DefaultInterrupt>
    1046:	00 00 00 
    1048:	d0 21 04    	goto      0x21d0 <__DefaultInterrupt>
    104a:	00 00 00 
    104c:	d0 21 04    	goto      0x21d0 <__DefaultInterrupt>
    104e:	00 00 00 
    1050:	d0 21 04    	goto      0x21d0 <__DefaultInterrupt>
    1052:	00 00 00 
    1054:	d0 21 04    	goto      0x21d0 <__DefaultInterrupt>
    1056:	00 00 00 
    1058:	d0 21 04    	goto      0x21d0 <__DefaultInterrupt>
    105a:	00 00 00 
    105c:	d0 21 04    	goto      0x21d0 <__DefaultInterrupt>
    105e:	00 00 00 
    1060:	d0 21 04    	goto      0x21d0 <__DefaultInterrupt>
    1062:	00 00 00 
    1064:	d0 21 04    	goto      0x21d0 <__DefaultInterrupt>
    1066:	00 00 00 
    1068:	d0 21 04    	goto      0x21d0 <__DefaultInterrupt>
    106a:	00 00 00 
    106c:	d0 21 04    	goto      0x21d0 <__DefaultInterrupt>
    106e:	00 00 00 
    1070:	d0 21 04    	goto      0x21d0 <__DefaultInterrupt>
    1072:	00 00 00 
    1074:	d0 21 04    	goto      0x21d0 <__DefaultInterrupt>
    1076:	00 00 00 
    1078:	d0 21 04    	goto      0x21d0 <__DefaultInterrupt>
    107a:	00 00 00 
    107c:	d0 21 04    	goto      0x21d0 <__DefaultInterrupt>
    107e:	00 00 00 
    1080:	d0 21 04    	goto      0x21d0 <__DefaultInterrupt>
    1082:	00 00 00 
    1084:	d0 21 04    	goto      0x21d0 <__DefaultInterrupt>
    1086:	00 00 00 
    1088:	d0 21 04    	goto      0x21d0 <__DefaultInterrupt>
    108a:	00 00 00 
    108c:	d0 21 04    	goto      0x21d0 <__DefaultInterrupt>
    108e:	00 00 00 
    1090:	d0 21 04    	goto      0x21d0 <__DefaultInterrupt>
    1092:	00 00 00 
    1094:	d0 21 04    	goto      0x21d0 <__DefaultInterrupt>
    1096:	00 00 00 
    1098:	d0 21 04    	goto      0x21d0 <__DefaultInterrupt>
    109a:	00 00 00 
    109c:	d0 21 04    	goto      0x21d0 <__DefaultInterrupt>
    109e:	00 00 00 
    10a0:	d0 21 04    	goto      0x21d0 <__DefaultInterrupt>
    10a2:	00 00 00 
    10a4:	d0 21 04    	goto      0x21d0 <__DefaultInterrupt>
    10a6:	00 00 00 
    10a8:	d0 21 04    	goto      0x21d0 <__DefaultInterrupt>
    10aa:	00 00 00 
    10ac:	d0 21 04    	goto      0x21d0 <__DefaultInterrupt>
    10ae:	00 00 00 
    10b0:	d0 21 04    	goto      0x21d0 <__DefaultInterrupt>
    10b2:	00 00 00 
    10b4:	d0 21 04    	goto      0x21d0 <__DefaultInterrupt>
    10b6:	00 00 00 
    10b8:	d0 21 04    	goto      0x21d0 <__DefaultInterrupt>
    10ba:	00 00 00 
    10bc:	d0 21 04    	goto      0x21d0 <__DefaultInterrupt>
    10be:	00 00 00 
    10c0:	d0 21 04    	goto      0x21d0 <__DefaultInterrupt>
    10c2:	00 00 00 
    10c4:	d0 21 04    	goto      0x21d0 <__DefaultInterrupt>
    10c6:	00 00 00 
    10c8:	d0 21 04    	goto      0x21d0 <__DefaultInterrupt>
    10ca:	00 00 00 
    10cc:	d0 21 04    	goto      0x21d0 <__DefaultInterrupt>
    10ce:	00 00 00 
    10d0:	d0 21 04    	goto      0x21d0 <__DefaultInterrupt>
    10d2:	00 00 00 
    10d4:	d0 21 04    	goto      0x21d0 <__DefaultInterrupt>
    10d6:	00 00 00 
    10d8:	d0 21 04    	goto      0x21d0 <__DefaultInterrupt>
    10da:	00 00 00 
    10dc:	d0 21 04    	goto      0x21d0 <__DefaultInterrupt>
    10de:	00 00 00 
    10e0:	d0 21 04    	goto      0x21d0 <__DefaultInterrupt>
    10e2:	00 00 00 
    10e4:	d0 21 04    	goto      0x21d0 <__DefaultInterrupt>
    10e6:	00 00 00 
    10e8:	d0 21 04    	goto      0x21d0 <__DefaultInterrupt>
    10ea:	00 00 00 
    10ec:	d0 21 04    	goto      0x21d0 <__DefaultInterrupt>
    10ee:	00 00 00 
    10f0:	d0 21 04    	goto      0x21d0 <__DefaultInterrupt>
    10f2:	00 00 00 
    10f4:	d0 21 04    	goto      0x21d0 <__DefaultInterrupt>
    10f6:	00 00 00 
    10f8:	d0 21 04    	goto      0x21d0 <__DefaultInterrupt>
    10fa:	00 00 00 
    10fc:	d0 21 04    	goto      0x21d0 <__DefaultInterrupt>
    10fe:	00 00 00 
    1100:	d0 21 04    	goto      0x21d0 <__DefaultInterrupt>
    1102:	00 00 00 
    1104:	d0 21 04    	goto      0x21d0 <__DefaultInterrupt>
    1106:	00 00 00 
    1108:	d0 21 04    	goto      0x21d0 <__DefaultInterrupt>
    110a:	00 00 00 

0000110c <__DEFAULT_VECTOR>:
    110c:	d0 21 04    	goto      0x21d0 <__DefaultInterrupt>
    110e:	00 00 00 
Disassembly of section .ivt:

00000004 <.ivt>:
   4:	04 10 00    	nop       
   6:	08 10 00    	nop       
   8:	0c 10 00    	nop       
   a:	10 10 00    	nop       
   c:	14 10 00    	nop       
   e:	0c 11 00    	nop       
  10:	0c 11 00    	nop       
  12:	0c 11 00    	nop       
  14:	18 10 00    	nop       
  16:	1c 10 00    	nop       
  18:	20 10 00    	nop       
  1a:	24 10 00    	nop       
  1c:	0c 11 00    	nop       
  1e:	28 10 00    	nop       
  20:	2c 10 00    	nop       
  22:	30 10 00    	nop       
  24:	34 10 00    	nop       
  26:	38 10 00    	nop       
  28:	3c 10 00    	nop       
  2a:	40 10 00    	nop       
  2c:	44 10 00    	nop       
  2e:	48 10 00    	nop       
  30:	0c 11 00    	nop       
  32:	0c 11 00    	nop       
  34:	4c 10 00    	nop       
  36:	50 10 00    	nop       
  38:	54 10 00    	nop       
  3a:	58 10 00    	nop       
  3c:	5c 10 00    	nop       
  3e:	0c 11 00    	nop       
  40:	60 10 00    	nop       
  42:	64 10 00    	nop       
  44:	0c 11 00    	nop       
  46:	68 10 00    	nop       
  48:	6c 10 00    	nop       
  4a:	70 10 00    	nop       
  4c:	74 10 00    	nop       
  4e:	78 10 00    	nop       
  50:	7c 10 00    	nop       
  52:	80 10 00    	nop       
  54:	84 10 00    	nop       
  56:	88 10 00    	nop       
  58:	0c 11 00    	nop       
  5a:	0c 11 00    	nop       
  5c:	0c 11 00    	nop       
  5e:	8c 10 00    	nop       
  60:	90 10 00    	nop       
  62:	94 10 00    	nop       
  64:	98 10 00    	nop       
  66:	9c 10 00    	nop       
  68:	a0 10 00    	nop       
  6a:	a4 10 00    	nop       
  6c:	a8 10 00    	nop       
  6e:	ac 10 00    	nop       
  70:	0c 11 00    	nop       
  72:	0c 11 00    	nop       
  74:	0c 11 00    	nop       
  76:	b0 10 00    	nop       
  78:	b4 10 00    	nop       
  7a:	0c 11 00    	nop       
  7c:	0c 11 00    	nop       
  7e:	b8 10 00    	nop       
  80:	bc 10 00    	nop       
  82:	0c 11 00    	nop       
  84:	0c 11 00    	nop       
  86:	0c 11 00    	nop       
  88:	0c 11 00    	nop       
  8a:	0c 11 00    	nop       
  8c:	0c 11 00    	nop       
  8e:	0c 11 00    	nop       
  90:	c0 10 00    	nop       
  92:	0c 11 00    	nop       
  94:	0c 11 00    	nop       
  96:	c4 10 00    	nop       
  98:	c8 10 00    	nop       
  9a:	cc 10 00    	nop       
  9c:	0c 11 00    	nop       
  9e:	0c 11 00    	nop       
  a0:	0c 11 00    	nop       
  a2:	0c 11 00    	nop       
  a4:	d0 10 00    	nop       
  a6:	0c 11 00    	nop       
  a8:	0c 11 00    	nop       
  aa:	0c 11 00    	nop       
  ac:	0c 11 00    	nop       
  ae:	d4 10 00    	nop       
  b0:	0c 11 00    	nop       
  b2:	0c 11 00    	nop       
  b4:	0c 11 00    	nop       
  b6:	d8 10 00    	nop       
  b8:	dc 10 00    	nop       
  ba:	e0 10 00    	nop       
  bc:	e4 10 00    	nop       
  be:	e8 10 00    	nop       
  c0:	ec 10 00    	nop       
  c2:	f0 10 00    	nop       
  c4:	f4 10 00    	nop       
  c6:	f8 10 00    	nop       
  c8:	fc 10 00    	nop       
  ca:	00 11 00    	nop       
  cc:	04 11 00    	nop       
  ce:	08 11 00    	nop       
  d0:	0c 11 00    	nop       
  d2:	0c 11 00    	nop       
  d4:	0c 11 00    	nop       
  d6:	0c 11 00    	nop       
  d8:	0c 11 00    	nop       
  da:	0c 11 00    	nop       
  dc:	0c 11 00    	nop       
  de:	0c 11 00    	nop       
  e0:	0c 11 00    	nop       
  e2:	0c 11 00    	nop       
  e4:	0c 11 00    	nop       
  e6:	0c 11 00    	nop       
  e8:	0c 11 00    	nop       
  ea:	0c 11 00    	nop       
  ec:	0c 11 00    	nop       
  ee:	0c 11 00    	nop       
  f0:	0c 11 00    	nop       
  f2:	0c 11 00    	nop       
  f4:	0c 11 00    	nop       
  f6:	0c 11 00    	nop       
  f8:	0c 11 00    	nop       
  fa:	0c 11 00    	nop       
  fc:	0c 11 00    	nop       
  fe:	0c 11 00    	nop       
Disassembly of section .const:

0000957e <_numbertable>:
    957e:	3f 00       	.word 0x3f
    9580:	06 00       	.word 0x6
    9582:	5b 00       	.word 0x5b
    9584:	4f 00       	.word 0x4f
    9586:	66 00       	.word 0x66
    9588:	6d 00       	.word 0x6d
    958a:	7d 00       	.word 0x7d
    958c:	07 00       	.word 0x7
    958e:	7f 00       	.word 0x7f
    9590:	6f 00       	.word 0x6f
    9592:	77 00       	.word 0x77
    9594:	7c 00       	.word 0x7c
    9596:	39 00       	.word 0x39
    9598:	5e 00       	.word 0x5e
    959a:	79 00       	.word 0x79
    959c:	71 00       	.word 0x71

0000959e <_alphafonttable>:
    959e:	01 00       	.word 0x1
    95a0:	02 00       	.word 0x2
    95a2:	04 00       	.word 0x4
    95a4:	08 00       	.word 0x8
    95a6:	10 00       	.word 0x10
    95a8:	20 00       	.word 0x20
    95aa:	40 00       	.word 0x40
    95ac:	80 00       	.word 0x80
    95ae:	00 01       	.word 0x100
    95b0:	00 02       	.word 0x200
    95b2:	00 04       	.word 0x400
    95b4:	00 08       	.word 0x800
    95b6:	00 10       	.word 0x1000
    95b8:	00 20       	.word 0x2000
    95ba:	00 40       	.word 0x4000
    95bc:	00 80       	.word 0x8000
	...
    95ce:	c9 12       	.word 0x12c9
    95d0:	c0 15       	.word 0x15c0
    95d2:	f9 12       	.word 0x12f9
    95d4:	e3 00       	.word 0xe3
    95d6:	30 05       	.word 0x530
    95d8:	c8 12       	.word 0x12c8
    95da:	00 3a       	.word 0x3a00
    95dc:	00 17       	.word 0x1700
    95de:	00 00       	.word 0
    95e0:	06 00       	.word 0x6
    95e2:	20 02       	.word 0x220
    95e4:	ce 12       	.word 0x12ce
    95e6:	ed 12       	.word 0x12ed
    95e8:	24 0c       	.word 0xc24
    95ea:	5d 23       	.word 0x235d
    95ec:	00 04       	.word 0x400
    95ee:	00 24       	.word 0x2400
    95f0:	00 09       	.word 0x900
    95f2:	c0 3f       	.word 0x3fc0
    95f4:	c0 12       	.word 0x12c0
    95f6:	00 08       	.word 0x800
    95f8:	c0 00       	.word 0xc0
    95fa:	00 00       	.word 0
    95fc:	00 0c       	.word 0xc00
    95fe:	3f 0c       	.word 0xc3f
    9600:	06 00       	.word 0x6
    9602:	db 00       	.word 0xdb
    9604:	8f 00       	.word 0x8f
    9606:	e6 00       	.word 0xe6
    9608:	69 20       	.word 0x2069
    960a:	fd 00       	.word 0xfd
    960c:	07 00       	.word 0x7
    960e:	ff 00       	.word 0xff
    9610:	ef 00       	.word 0xef
    9612:	00 12       	.word 0x1200
    9614:	00 0a       	.word 0xa00
    9616:	00 24       	.word 0x2400
    9618:	c8 00       	.word 0xc8
    961a:	00 09       	.word 0x900
    961c:	83 10       	.word 0x1083
    961e:	bb 02       	.word 0x2bb
    9620:	f7 00       	.word 0xf7
    9622:	8f 12       	.word 0x128f
    9624:	39 00       	.word 0x39
    9626:	0f 12       	.word 0x120f
    9628:	f9 00       	.word 0xf9
    962a:	71 00       	.word 0x71
    962c:	bd 00       	.word 0xbd
    962e:	f6 00       	.word 0xf6
    9630:	00 12       	.word 0x1200
    9632:	1e 00       	.word 0x1e
    9634:	70 24       	.word 0x2470
    9636:	38 00       	.word 0x38
    9638:	36 05       	.word 0x536
    963a:	36 21       	.word 0x2136
    963c:	3f 00       	.word 0x3f
    963e:	f3 00       	.word 0xf3
    9640:	3f 20       	.word 0x203f
    9642:	f3 20       	.word 0x20f3
    9644:	ed 00       	.word 0xed
    9646:	01 12       	.word 0x1201
    9648:	3e 00       	.word 0x3e
    964a:	30 0c       	.word 0xc30
    964c:	36 28       	.word 0x2836
    964e:	00 2d       	.word 0x2d00
    9650:	00 15       	.word 0x1500
    9652:	09 0c       	.word 0xc09
    9654:	39 00       	.word 0x39
    9656:	00 21       	.word 0x2100
    9658:	0f 00       	.word 0xf
    965a:	03 0c       	.word 0xc03
    965c:	08 00       	.word 0x8
    965e:	00 01       	.word 0x100
    9660:	58 10       	.word 0x1058
    9662:	78 20       	.word 0x2078
    9664:	d8 00       	.word 0xd8
    9666:	8e 08       	.word 0x88e
    9668:	58 08       	.word 0x858
    966a:	71 00       	.word 0x71
    966c:	8e 04       	.word 0x48e
    966e:	70 10       	.word 0x1070
    9670:	00 10       	.word 0x1000
    9672:	0e 00       	.word 0xe
    9674:	00 36       	.word 0x3600
    9676:	30 00       	.word 0x30
    9678:	d4 10       	.word 0x10d4
    967a:	50 10       	.word 0x1050
    967c:	dc 00       	.word 0xdc
    967e:	70 01       	.word 0x170
    9680:	86 04       	.word 0x486
    9682:	50 00       	.word 0x50
    9684:	88 20       	.word 0x2088
    9686:	78 00       	.word 0x78
    9688:	1c 00       	.word 0x1c
    968a:	04 20       	.word 0x2004
    968c:	14 28       	.word 0x2814
    968e:	c0 28       	.word 0x28c0
    9690:	0c 20       	.word 0x200c
    9692:	48 08       	.word 0x848
    9694:	49 09       	.word 0x949
    9696:	00 12       	.word 0x1200
    9698:	89 24       	.word 0x2489
    969a:	20 05       	.word 0x520
    969c:	ff 3f       	.word 0x3fff

0000969e <_matrix_addr>:
    969e:	e0 e8       	.word 0xe8e0

0000969f <_bar_addr>:
	...

000096a0 <_alpha_addr>:
    96a0:	e0 00       	.word 0xe0
Disassembly of section .text:

000016a2 <_led_begin>:

};


void led_begin(_ADAFRUIT_LED* ptr, uint8_t addr){
    16a2:	04 00 fa    	lnk       #0x4
    16a4:	00 0f 78    	mov.w     w0, [w14]
    16a6:	21 47 98    	mov.b     w1, [w14+2]
  ptr->i2c_addr = addr;
    16a8:	1e 00 78    	mov.w     [w14], w0
    16aa:	ae 40 90    	mov.b     [w14+2], w1
    16ac:	01 50 98    	mov.b     w1, [w0+16]
	LED1 = 1;
    16ae:	dc e2 a8    	bset.b    0x2dc, #0x7
  i2c_start();
    16b0:	01 03 07    	rcall     0x1cb4 <_i2c_start> <.LFB2> <.LFE1>
  send_i2c_byte(ptr->i2c_addr);
    16b2:	1e 00 78    	mov.w     [w14], w0
    16b4:	00 50 90    	mov.b     [w0+16], w0
    16b6:	00 80 fb    	ze        w0, w0
    16b8:	4c 03 07    	rcall     0x1d52 <_send_i2c_byte> <.LFB5> <.LFE4>
  send_i2c_byte(0x21); // turn on oscillator
    16ba:	10 02 20    	mov.w     #0x21, w0
    16bc:	4a 03 07    	rcall     0x1d52 <_send_i2c_byte> <.LFB5> <.LFE4>
  reset_i2c_bus();
    16be:	2e 03 07    	rcall     0x1d1c <_reset_i2c_bus> <.LFB4> <.LFE3>
  led_blinkRate((_ADAFRUIT_LED *)ptr, HT16K33_BLINK_OFF);
    16c0:	80 40 eb    	clr.b     w1
    16c2:	1e 00 78    	mov.w     [w14], w0
    16c4:	1a 00 07    	rcall     0x16fa <_led_blinkRate> <.LFB2> <.LFE1>
  led_setBrightness((_ADAFRUIT_LED *)ptr,15); // set max brightness
    16c6:	f1 c0 b3    	mov.b     #0xf, w1
    16c8:	1e 00 78    	mov.w     [w14], w0
    16ca:	02 00 07    	rcall     0x16d0 <_led_setBrightness> <.LFB1> <.LFE0>
}
    16cc:	00 80 fa    	ulnk      
    16ce:	00 00 06    	return    

000016d0 <_led_setBrightness>:

void led_setBrightness(_ADAFRUIT_LED* ptr, uint8_t b){
    16d0:	04 00 fa    	lnk       #0x4
    16d2:	00 0f 78    	mov.w     w0, [w14]
    16d4:	21 47 98    	mov.b     w1, [w14+2]
  if (b > 15) b = 15;
    16d6:	2e 40 90    	mov.b     [w14+2], w0
    16d8:	ef 4f 50    	sub.b     w0, #0xf, [w15]
    16da:	02 00 36    	bra       LEU, 0x16e0 <.L3>
    16dc:	f0 c0 b3    	mov.b     #0xf, w0
    16de:	20 47 98    	mov.b     w0, [w14+2]

000016e0 <.L3>:
  i2c_start();
    16e0:	e9 02 07    	rcall     0x1cb4 <_i2c_start> <.LFB2> <.LFE1>
  send_i2c_byte(ptr->i2c_addr);
    16e2:	1e 00 78    	mov.w     [w14], w0
    16e4:	00 50 90    	mov.b     [w0+16], w0
    16e6:	00 80 fb    	ze        w0, w0
    16e8:	34 03 07    	rcall     0x1d52 <_send_i2c_byte> <.LFB5> <.LFE4>
  send_i2c_byte(HT16K33_CMD_BRIGHTNESS | b);
    16ea:	ae 40 90    	mov.b     [w14+2], w1
    16ec:	00 ce b3    	mov.b     #0xe0, w0
    16ee:	00 c0 70    	ior.b     w1, w0, w0
    16f0:	00 80 fb    	ze        w0, w0
    16f2:	2f 03 07    	rcall     0x1d52 <_send_i2c_byte> <.LFB5> <.LFE4>
  reset_i2c_bus();
    16f4:	13 03 07    	rcall     0x1d1c <_reset_i2c_bus> <.LFB4> <.LFE3>
}
    16f6:	00 80 fa    	ulnk      
    16f8:	00 00 06    	return    

000016fa <_led_blinkRate>:

void led_blinkRate(_ADAFRUIT_LED* ptr, uint8_t b){
    16fa:	04 00 fa    	lnk       #0x4
    16fc:	00 0f 78    	mov.w     w0, [w14]
    16fe:	21 47 98    	mov.b     w1, [w14+2]
  i2c_start();
    1700:	d9 02 07    	rcall     0x1cb4 <_i2c_start> <.LFB2> <.LFE1>
  send_i2c_byte(ptr->i2c_addr);
    1702:	1e 00 78    	mov.w     [w14], w0
    1704:	00 50 90    	mov.b     [w0+16], w0
    1706:	00 80 fb    	ze        w0, w0
    1708:	24 03 07    	rcall     0x1d52 <_send_i2c_byte> <.LFB5> <.LFE4>
  if (b > 3) b = 0; // turn off if not sure
    170a:	2e 40 90    	mov.b     [w14+2], w0
    170c:	e3 4f 50    	sub.b     w0, #0x3, [w15]
    170e:	02 00 36    	bra       LEU, 0x1714 <.L5>
    1710:	00 40 eb    	clr.b     w0
    1712:	20 47 98    	mov.b     w0, [w14+2]

00001714 <.L5>:
  send_i2c_byte(HT16K33_BLINK_CMD | HT16K33_BLINK_DISPLAYON | (b << 1));
    1714:	2e 40 90    	mov.b     [w14+2], w0
    1716:	00 80 fb    	ze        w0, w0
    1718:	00 00 40    	add.w     w0, w0, w0
    171a:	80 00 78    	mov.w     w0, w1
    171c:	10 08 20    	mov.w     #0x81, w0
    171e:	01 00 70    	ior.w     w0, w1, w0
    1720:	18 03 07    	rcall     0x1d52 <_send_i2c_byte> <.LFB5> <.LFE4>
  reset_i2c_bus();
    1722:	fc 02 07    	rcall     0x1d1c <_reset_i2c_bus> <.LFB4> <.LFE3>
}
    1724:	00 80 fa    	ulnk      
    1726:	00 00 06    	return    

00001728 <_led_writeDisplay>:

void led_writeDisplay(_ADAFRUIT_LED* ptr){
    1728:	04 00 fa    	lnk       #0x4
    172a:	10 07 98    	mov.w     w0, [w14+2]
  i2c_start();
    172c:	c3 02 07    	rcall     0x1cb4 <_i2c_start> <.LFB2> <.LFE1>
  send_i2c_byte(ptr->i2c_addr);
    172e:	1e 00 90    	mov.w     [w14+2], w0
    1730:	00 50 90    	mov.b     [w0+16], w0
    1732:	00 80 fb    	ze        w0, w0
    1734:	0e 03 07    	rcall     0x1d52 <_send_i2c_byte> <.LFB5> <.LFE4>
	send_i2c_byte(0x00); // Start at address 0
    1736:	00 00 eb    	clr.w     w0
    1738:	0c 03 07    	rcall     0x1d52 <_send_i2c_byte> <.LFB5> <.LFE4>
	uint8_t i;
  for (i=0; i<8; i++) {
    173a:	00 40 eb    	clr.b     w0
    173c:	00 4f 78    	mov.b     w0, [w14]
    173e:	0f 00 37    	bra       0x175e <.L7>

00001740 <.L8>:
    send_i2c_byte(ptr->displaybuffer[i] & 0xFF);
    1740:	1e 80 fb    	ze        [w14], w0
    1742:	9e 00 90    	mov.w     [w14+2], w1
    1744:	00 00 40    	add.w     w0, w0, w0
    1746:	61 00 78    	mov.w     [w1+w0], w0
    1748:	80 00 78    	mov.w     w0, w1
    174a:	f0 0f 20    	mov.w     #0xff, w0
    174c:	00 80 60    	and.w     w1, w0, w0
    174e:	01 03 07    	rcall     0x1d52 <_send_i2c_byte> <.LFB5> <.LFE4>
    send_i2c_byte(ptr->displaybuffer[i] >> 8);
    1750:	1e 80 fb    	ze        [w14], w0
    1752:	9e 00 90    	mov.w     [w14+2], w1
    1754:	00 00 40    	add.w     w0, w0, w0
    1756:	61 00 78    	mov.w     [w1+w0], w0
    1758:	48 00 de    	lsr.w     w0, #0x8, w0
    175a:	fb 02 07    	rcall     0x1d52 <_send_i2c_byte> <.LFB5> <.LFE4>
    175c:	1e 4f e8    	inc.b     [w14], [w14]

0000175e <.L7>:
    175e:	1e 40 78    	mov.b     [w14], w0
    1760:	e7 4f 50    	sub.b     w0, #0x7, [w15]
    1762:	ee ff 36    	bra       LEU, 0x1740 <.L8>
  }
  reset_i2c_bus();
    1764:	db 02 07    	rcall     0x1d1c <_reset_i2c_bus> <.LFB4> <.LFE3>
}
    1766:	00 80 fa    	ulnk      
    1768:	00 00 06    	return    

0000176a <_led_clear>:

void led_clear(_ADAFRUIT_LED* ptr){
    176a:	04 00 fa    	lnk       #0x4
    176c:	10 07 98    	mov.w     w0, [w14+2]
	uint8_t i;
	for (i=0; i<8; i++) {
    176e:	00 40 eb    	clr.b     w0
    1770:	00 4f 78    	mov.b     w0, [w14]
    1772:	07 00 37    	bra       0x1782 <.L10>

00001774 <.L11>:
    ptr->displaybuffer[i] = 0;
    1774:	1e 80 fb    	ze        [w14], w0
    1776:	9e 00 90    	mov.w     [w14+2], w1
    1778:	00 00 40    	add.w     w0, w0, w0
    177a:	00 80 40    	add.w     w1, w0, w0
    177c:	80 00 eb    	clr.w     w1
    177e:	01 08 78    	mov.w     w1, [w0]
    1780:	1e 4f e8    	inc.b     [w14], [w14]

00001782 <.L10>:
    1782:	1e 40 78    	mov.b     [w14], w0
    1784:	e7 4f 50    	sub.b     w0, #0x7, [w15]
    1786:	f6 ff 36    	bra       LEU, 0x1774 <.L11>
  }
}
    1788:	00 80 fa    	ulnk      
    178a:	00 00 06    	return    

0000178c <_alphanum_begin>:

// ALPHANUM ********************************************************************

void alphanum_begin(_ALPHANUM* ptr, uint8_t addr){
    178c:	04 00 fa    	lnk       #0x4
    178e:	00 0f 78    	mov.w     w0, [w14]
    1790:	21 47 98    	mov.b     w1, [w14+2]
  led_begin((_ADAFRUIT_LED *)ptr, addr); // Call super constructor
    1792:	1e 00 78    	mov.w     [w14], w0
    1794:	ae 40 90    	mov.b     [w14+2], w1
    1796:	85 ff 07    	rcall     0x16a2 <_led_begin> <.L0> <.LFB0> <.Ltext0>
}
    1798:	00 80 fa    	ulnk      
    179a:	00 00 06    	return    

0000179c <_alphanum_writeDigitRaw>:

void alphanum_writeDigitRaw(_ALPHANUM* ptr, uint8_t n, uint16_t bitmask){
    179c:	06 00 fa    	lnk       #0x6
    179e:	00 0f 78    	mov.w     w0, [w14]
    17a0:	21 47 98    	mov.b     w1, [w14+2]
    17a2:	22 07 98    	mov.w     w2, [w14+4]
  ptr->super.displaybuffer[n] = bitmask;
    17a4:	2e 40 90    	mov.b     [w14+2], w0
    17a6:	00 80 fb    	ze        w0, w0
    17a8:	9e 00 78    	mov.w     [w14], w1
    17aa:	00 00 40    	add.w     w0, w0, w0
    17ac:	00 80 40    	add.w     w1, w0, w0
    17ae:	ae 00 90    	mov.w     [w14+4], w1
    17b0:	01 08 78    	mov.w     w1, [w0]
}
    17b2:	00 80 fa    	ulnk      
    17b4:	00 00 06    	return    

000017b6 <_alphanum_writeDigitAscii>:

void alphanum_writeDigitAscii(_ALPHANUM* ptr, uint8_t n, uint8_t ascii, uint8_t dot){
    17b6:	08 00 fa    	lnk       #0x8
    17b8:	10 07 98    	mov.w     w0, [w14+2]
    17ba:	41 47 98    	mov.b     w1, [w14+4]
    17bc:	52 47 98    	mov.b     w2, [w14+5]
    17be:	63 47 98    	mov.b     w3, [w14+6]
  uint16_t font = alphafonttable[ascii];
    17c0:	5e 40 90    	mov.b     [w14+5], w0
    17c2:	00 80 fb    	ze        w0, w0
    17c4:	80 00 40    	add.w     w0, w0, w1
    17c6:	e0 59 29    	mov.w     #0x959e, w0
    17c8:	00 80 40    	add.w     w1, w0, w0
    17ca:	10 0f 78    	mov.w     [w0], [w14]
  ptr->super.displaybuffer[n] = font;
    17cc:	4e 40 90    	mov.b     [w14+4], w0
    17ce:	00 80 fb    	ze        w0, w0
    17d0:	9e 00 90    	mov.w     [w14+2], w1
    17d2:	00 00 40    	add.w     w0, w0, w0
    17d4:	00 80 40    	add.w     w1, w0, w0
    17d6:	1e 08 78    	mov.w     [w14], [w0]
  if (dot) ptr->super.displaybuffer[n] |= (1<<14);
    17d8:	6e 40 90    	mov.b     [w14+6], w0
    17da:	00 04 e0    	cp0.b     w0
    17dc:	0c 00 32    	bra       Z, 0x17f6 <.L14>
    17de:	4e 40 90    	mov.b     [w14+4], w0
    17e0:	00 80 fb    	ze        w0, w0
    17e2:	ce 40 90    	mov.b     [w14+4], w1
    17e4:	81 80 fb    	ze        w1, w1
    17e6:	1e 01 90    	mov.w     [w14+2], w2
    17e8:	81 80 40    	add.w     w1, w1, w1
    17ea:	e2 80 78    	mov.w     [w2+w1], w1
    17ec:	01 e0 a0    	bset.w    w1, #0xe
    17ee:	1e 01 90    	mov.w     [w14+2], w2
    17f0:	00 00 40    	add.w     w0, w0, w0
    17f2:	00 00 41    	add.w     w2, w0, w0
    17f4:	01 08 78    	mov.w     w1, [w0]

000017f6 <.L14>:
}
    17f6:	00 80 fa    	ulnk      
    17f8:	00 00 06    	return    

000017fa <_bargraph_begin>:

// 24 BARGRAPH *****************************************************************

void bargraph_begin(_BARGRAPH* ptr, uint8_t addr){
    17fa:	04 00 fa    	lnk       #0x4
    17fc:	00 0f 78    	mov.w     w0, [w14]
    17fe:	21 47 98    	mov.b     w1, [w14+2]
  led_begin((_ADAFRUIT_LED *)ptr, addr);
    1800:	1e 00 78    	mov.w     [w14], w0
    1802:	ae 40 90    	mov.b     [w14+2], w1
    1804:	4e ff 07    	rcall     0x16a2 <_led_begin> <.L0> <.LFB0> <.Ltext0>
}
    1806:	00 80 fa    	ulnk      
    1808:	00 00 06    	return    

0000180a <_bargraph_setBar>:

void bargraph_setBar(_BARGRAPH* ptr, uint8_t bar, uint8_t color){
    180a:	08 00 fa    	lnk       #0x8
    180c:	20 07 98    	mov.w     w0, [w14+4]
    180e:	61 47 98    	mov.b     w1, [w14+6]
    1810:	72 47 98    	mov.b     w2, [w14+7]
  uint16_t a, c;

  if (bar < 12)
    1812:	6e 40 90    	mov.b     [w14+6], w0
    1814:	eb 4f 50    	sub.b     w0, #0xb, [w15]
    1816:	07 00 3e    	bra       GTU, 0x1826 <.L18>
    c = bar / 4;
    1818:	6e 40 90    	mov.b     [w14+6], w0
    181a:	00 80 fb    	ze        w0, w0
    181c:	42 00 de    	lsr.w     w0, #0x2, w0
    181e:	00 40 78    	mov.b     w0, w0
    1820:	00 80 fb    	ze        w0, w0
    1822:	10 07 98    	mov.w     w0, [w14+2]
    1824:	08 00 37    	bra       0x1836 <.L19>

00001826 <.L18>:
  else
    c = (bar - 12) / 4;
    1826:	6e 40 90    	mov.b     [w14+6], w0
    1828:	00 80 fb    	ze        w0, w0
    182a:	6c 00 50    	sub.w     w0, #0xc, w0
    182c:	00 00 e0    	cp0.w     w0
    182e:	01 00 3d    	bra       GE, 0x1832 <.L20>
    1830:	63 00 40    	add.w     w0, #0x3, w0

00001832 <.L20>:
    1832:	42 80 de    	asr.w     w0, #0x2, w0
    1834:	10 07 98    	mov.w     w0, [w14+2]

00001836 <.L19>:

  a = bar % 4;
    1836:	6e 40 90    	mov.b     [w14+6], w0
    1838:	00 80 fb    	ze        w0, w0
    183a:	63 0f 60    	and.w     w0, #0x3, [w14]
  if (bar >= 12)
    183c:	6e 40 90    	mov.b     [w14+6], w0
    183e:	eb 4f 50    	sub.b     w0, #0xb, [w15]
    1840:	02 00 36    	bra       LEU, 0x1846 <.L21>
    a += 4;
    1842:	9e 00 78    	mov.w     [w14], w1
    1844:	64 8f 40    	add.w     w1, #0x4, [w14]

00001846 <.L21>:

  //Serial.print("Ano = "); Serial.print(a); Serial.print(" Cath = "); Serial.println(c);
  if (color == LED_RED) {
    1846:	7e 40 90    	mov.b     [w14+7], w0
    1848:	e1 4f 50    	sub.b     w0, #0x1, [w15]
    184a:	1d 00 3a    	bra       NZ, 0x1886 <.L22>
    // Turn on red LED.
    ptr->super.displaybuffer[c] |= _BV(a);
    184c:	ae 00 90    	mov.w     [w14+4], w1
    184e:	1e 00 90    	mov.w     [w14+2], w0
    1850:	00 00 40    	add.w     w0, w0, w0
    1852:	e1 00 78    	mov.w     [w1+w0], w1
    1854:	1e 00 78    	mov.w     [w14], w0
    1856:	12 00 20    	mov.w     #0x1, w2
    1858:	00 10 dd    	sl.w      w2, w0, w0
    185a:	81 00 70    	ior.w     w0, w1, w1
    185c:	2e 01 90    	mov.w     [w14+4], w2
    185e:	1e 00 90    	mov.w     [w14+2], w0
    1860:	00 00 40    	add.w     w0, w0, w0
    1862:	00 00 41    	add.w     w2, w0, w0
    1864:	01 08 78    	mov.w     w1, [w0]
    // Turn off green LED.
    ptr->super.displaybuffer[c] &= ~_BV(a+8);
    1866:	ae 00 90    	mov.w     [w14+4], w1
    1868:	1e 00 90    	mov.w     [w14+2], w0
    186a:	00 00 40    	add.w     w0, w0, w0
    186c:	e1 00 78    	mov.w     [w1+w0], w1
    186e:	1e 01 78    	mov.w     [w14], w2
    1870:	68 00 41    	add.w     w2, #0x8, w0
    1872:	12 00 20    	mov.w     #0x1, w2
    1874:	00 10 dd    	sl.w      w2, w0, w0
    1876:	00 80 ea    	com.w     w0, w0
    1878:	80 80 60    	and.w     w1, w0, w1
    187a:	2e 01 90    	mov.w     [w14+4], w2
    187c:	1e 00 90    	mov.w     [w14+2], w0
    187e:	00 00 40    	add.w     w0, w0, w0
    1880:	00 00 41    	add.w     w2, w0, w0
    1882:	01 08 78    	mov.w     w1, [w0]
    1884:	4c 00 37    	bra       0x191e <.L17>

00001886 <.L22>:
  } else if (color == LED_YELLOW) {
    1886:	7e 40 90    	mov.b     [w14+7], w0
    1888:	e2 4f 50    	sub.b     w0, #0x2, [w15]
    188a:	13 00 3a    	bra       NZ, 0x18b2 <.L24>
    // Turn on red and green LED.
    ptr->super.displaybuffer[c] |= _BV(a) | _BV(a+8);
    188c:	ae 00 90    	mov.w     [w14+4], w1
    188e:	1e 00 90    	mov.w     [w14+2], w0
    1890:	00 00 40    	add.w     w0, w0, w0
    1892:	e1 00 78    	mov.w     [w1+w0], w1
    1894:	1e 00 78    	mov.w     [w14], w0
    1896:	12 00 20    	mov.w     #0x1, w2
    1898:	00 11 dd    	sl.w      w2, w0, w2
    189a:	9e 01 78    	mov.w     [w14], w3
    189c:	68 80 41    	add.w     w3, #0x8, w0
    189e:	13 00 20    	mov.w     #0x1, w3
    18a0:	00 18 dd    	sl.w      w3, w0, w0
    18a2:	02 00 70    	ior.w     w0, w2, w0
    18a4:	81 00 70    	ior.w     w0, w1, w1
    18a6:	2e 01 90    	mov.w     [w14+4], w2
    18a8:	1e 00 90    	mov.w     [w14+2], w0
    18aa:	00 00 40    	add.w     w0, w0, w0
    18ac:	00 00 41    	add.w     w2, w0, w0
    18ae:	01 08 78    	mov.w     w1, [w0]
    18b0:	36 00 37    	bra       0x191e <.L17>

000018b2 <.L24>:
  } else if (color == LED_OFF) {
    18b2:	7e 40 90    	mov.b     [w14+7], w0
    18b4:	00 04 e0    	cp0.b     w0
    18b6:	14 00 3a    	bra       NZ, 0x18e0 <.L25>
    // Turn off red and green LED.
    ptr->super.displaybuffer[c] &= ~_BV(a) & ~_BV(a+8);
    18b8:	ae 00 90    	mov.w     [w14+4], w1
    18ba:	1e 00 90    	mov.w     [w14+2], w0
    18bc:	00 00 40    	add.w     w0, w0, w0
    18be:	e1 00 78    	mov.w     [w1+w0], w1
    18c0:	1e 00 78    	mov.w     [w14], w0
    18c2:	12 00 20    	mov.w     #0x1, w2
    18c4:	00 11 dd    	sl.w      w2, w0, w2
    18c6:	9e 01 78    	mov.w     [w14], w3
    18c8:	68 80 41    	add.w     w3, #0x8, w0
    18ca:	13 00 20    	mov.w     #0x1, w3
    18cc:	00 18 dd    	sl.w      w3, w0, w0
    18ce:	02 00 70    	ior.w     w0, w2, w0
    18d0:	00 80 ea    	com.w     w0, w0
    18d2:	80 80 60    	and.w     w1, w0, w1
    18d4:	2e 01 90    	mov.w     [w14+4], w2
    18d6:	1e 00 90    	mov.w     [w14+2], w0
    18d8:	00 00 40    	add.w     w0, w0, w0
    18da:	00 00 41    	add.w     w2, w0, w0
    18dc:	01 08 78    	mov.w     w1, [w0]
    18de:	1f 00 37    	bra       0x191e <.L17>

000018e0 <.L25>:
  } else if (color == LED_GREEN) {
    18e0:	7e 40 90    	mov.b     [w14+7], w0
    18e2:	e3 4f 50    	sub.b     w0, #0x3, [w15]
    18e4:	1c 00 3a    	bra       NZ, 0x191e <.L17>
    // Turn on green LED.
    ptr->super.displaybuffer[c] |= _BV(a+8);
    18e6:	ae 00 90    	mov.w     [w14+4], w1
    18e8:	1e 00 90    	mov.w     [w14+2], w0
    18ea:	00 00 40    	add.w     w0, w0, w0
    18ec:	e1 00 78    	mov.w     [w1+w0], w1
    18ee:	1e 01 78    	mov.w     [w14], w2
    18f0:	68 00 41    	add.w     w2, #0x8, w0
    18f2:	12 00 20    	mov.w     #0x1, w2
    18f4:	00 10 dd    	sl.w      w2, w0, w0
    18f6:	81 00 70    	ior.w     w0, w1, w1
    18f8:	2e 01 90    	mov.w     [w14+4], w2
    18fa:	1e 00 90    	mov.w     [w14+2], w0
    18fc:	00 00 40    	add.w     w0, w0, w0
    18fe:	00 00 41    	add.w     w2, w0, w0
    1900:	01 08 78    	mov.w     w1, [w0]
    // Turn off red LED.
    ptr->super.displaybuffer[c] &= ~_BV(a);
    1902:	ae 00 90    	mov.w     [w14+4], w1
    1904:	1e 00 90    	mov.w     [w14+2], w0
    1906:	00 00 40    	add.w     w0, w0, w0
    1908:	e1 00 78    	mov.w     [w1+w0], w1
    190a:	1e 00 78    	mov.w     [w14], w0
    190c:	12 00 20    	mov.w     #0x1, w2
    190e:	00 10 dd    	sl.w      w2, w0, w0
    1910:	00 80 ea    	com.w     w0, w0
    1912:	80 80 60    	and.w     w1, w0, w1
    1914:	2e 01 90    	mov.w     [w14+4], w2
    1916:	1e 00 90    	mov.w     [w14+2], w0
    1918:	00 00 40    	add.w     w0, w0, w0
    191a:	00 00 41    	add.w     w2, w0, w0
    191c:	01 08 78    	mov.w     w1, [w0]

0000191e <.L17>:
  }
}
    191e:	00 80 fa    	ulnk      
    1920:	00 00 06    	return    

00001922 <_write>:

// 7SEGMENT ********************************************************************

uint8_t write(_7SEGMENT* ptr, uint8_t c){
    1922:	06 00 fa    	lnk       #0x6
    1924:	10 07 98    	mov.w     w0, [w14+2]
    1926:	41 47 98    	mov.b     w1, [w14+4]

  uint8_t r = 0;
    1928:	00 40 eb    	clr.b     w0
    192a:	00 4f 78    	mov.b     w0, [w14]

  if (c == '\n') ptr->position = 0;
    192c:	4e 40 90    	mov.b     [w14+4], w0
    192e:	ea 4f 50    	sub.b     w0, #0xa, [w15]
    1930:	03 00 3a    	bra       NZ, 0x1938 <.L27>
    1932:	1e 00 90    	mov.w     [w14+2], w0
    1934:	80 40 eb    	clr.b     w1
    1936:	21 50 98    	mov.b     w1, [w0+18]

00001938 <.L27>:
  if (c == '\r') ptr->position = 0;
    1938:	4e 40 90    	mov.b     [w14+4], w0
    193a:	ed 4f 50    	sub.b     w0, #0xd, [w15]
    193c:	03 00 3a    	bra       NZ, 0x1944 <.L28>
    193e:	1e 00 90    	mov.w     [w14+2], w0
    1940:	80 40 eb    	clr.b     w1
    1942:	21 50 98    	mov.b     w1, [w0+18]

00001944 <.L28>:

  if ((c >= '0') && (c <= '9')) {
    1944:	ce 40 90    	mov.b     [w14+4], w1
    1946:	f0 c2 b3    	mov.b     #0x2f, w0
    1948:	80 cf 50    	sub.b     w1, w0, [w15]
    194a:	10 00 36    	bra       LEU, 0x196c <.L29>
    194c:	ce 40 90    	mov.b     [w14+4], w1
    194e:	90 c3 b3    	mov.b     #0x39, w0
    1950:	80 cf 50    	sub.b     w1, w0, [w15]
    1952:	0c 00 3e    	bra       GTU, 0x196c <.L29>
    sevseg_writeDigitNum(ptr, ptr->position, c-'0', 0);
    1954:	ce 40 90    	mov.b     [w14+4], w1
    1956:	00 cd b3    	mov.b     #0xd0, w0
    1958:	80 c0 40    	add.b     w1, w0, w1
    195a:	1e 00 90    	mov.w     [w14+2], w0
    195c:	20 50 90    	mov.b     [w0+18], w0
    195e:	80 41 eb    	clr.b     w3
    1960:	01 41 78    	mov.b     w1, w2
    1962:	80 40 78    	mov.b     w0, w1
    1964:	1e 00 90    	mov.w     [w14+2], w0
    1966:	25 00 07    	rcall     0x19b2 <_sevseg_writeDigitNum> <.LFB12> <.LFE11>
    r = 1;
    1968:	10 c0 b3    	mov.b     #0x1, w0
    196a:	00 4f 78    	mov.b     w0, [w14]

0000196c <.L29>:
  }

  ptr->position++;
    196c:	1e 00 90    	mov.w     [w14+2], w0
    196e:	20 50 90    	mov.b     [w0+18], w0
    1970:	80 40 e8    	inc.b     w0, w1
    1972:	1e 00 90    	mov.w     [w14+2], w0
    1974:	21 50 98    	mov.b     w1, [w0+18]
  if (ptr->position == 2) ptr->position++;
    1976:	1e 00 90    	mov.w     [w14+2], w0
    1978:	20 50 90    	mov.b     [w0+18], w0
    197a:	e2 4f 50    	sub.b     w0, #0x2, [w15]
    197c:	05 00 3a    	bra       NZ, 0x1988 <.L30>
    197e:	1e 00 90    	mov.w     [w14+2], w0
    1980:	20 50 90    	mov.b     [w0+18], w0
    1982:	80 40 e8    	inc.b     w0, w1
    1984:	1e 00 90    	mov.w     [w14+2], w0
    1986:	21 50 98    	mov.b     w1, [w0+18]

00001988 <.L30>:

  return r;
    1988:	1e 40 78    	mov.b     [w14], w0
}
    198a:	00 80 fa    	ulnk      
    198c:	00 00 06    	return    

0000198e <_sevseg_writeDigitRaw>:

void sevseg_writeDigitRaw(_7SEGMENT* ptr, uint8_t x, uint16_t bitmask){
    198e:	06 00 fa    	lnk       #0x6
    1990:	00 0f 78    	mov.w     w0, [w14]
    1992:	21 47 98    	mov.b     w1, [w14+2]
    1994:	22 07 98    	mov.w     w2, [w14+4]
  if (x > 4) return;
    1996:	2e 40 90    	mov.b     [w14+2], w0
    1998:	e4 4f 50    	sub.b     w0, #0x4, [w15]
    199a:	08 00 3e    	bra       GTU, 0x19ac <.L34>
  ptr->super.displaybuffer[x] = bitmask;
    199c:	2e 40 90    	mov.b     [w14+2], w0
    199e:	00 80 fb    	ze        w0, w0
    19a0:	9e 00 78    	mov.w     [w14], w1
    19a2:	00 00 40    	add.w     w0, w0, w0
    19a4:	00 80 40    	add.w     w1, w0, w0
    19a6:	ae 00 90    	mov.w     [w14+4], w1
    19a8:	01 08 78    	mov.w     w1, [w0]
    19aa:	01 00 37    	bra       0x19ae <.L31>

000019ac <.L34>:
    19ac:	00 00 00    	nop       

000019ae <.L31>:
}
    19ae:	00 80 fa    	ulnk      
    19b0:	00 00 06    	return    

000019b2 <_sevseg_writeDigitNum>:

void sevseg_writeDigitNum(_7SEGMENT* ptr, uint8_t x, uint8_t num, uint8_t dot){
    19b2:	08 00 fa    	lnk       #0x8
    19b4:	10 07 98    	mov.w     w0, [w14+2]
    19b6:	41 47 98    	mov.b     w1, [w14+4]
    19b8:	52 47 98    	mov.b     w2, [w14+5]
    19ba:	63 47 98    	mov.b     w3, [w14+6]
  if (x > 4) return;
    19bc:	4e 40 90    	mov.b     [w14+4], w0
    19be:	e4 4f 50    	sub.b     w0, #0x4, [w15]
    19c0:	11 00 3e    	bra       GTU, 0x19e4 <.L38>
	uint16_t zero = 0x0000;
    19c2:	00 00 eb    	clr.w     w0
    19c4:	00 0f 78    	mov.w     w0, [w14]
  sevseg_writeDigitRaw(ptr, x, (numbertable[num] | (dot << 7)));
    19c6:	5e 40 90    	mov.b     [w14+5], w0
    19c8:	00 80 fb    	ze        w0, w0
    19ca:	80 00 40    	add.w     w0, w0, w1
    19cc:	e0 57 29    	mov.w     #0x957e, w0
    19ce:	00 80 40    	add.w     w1, w0, w0
    19d0:	90 00 78    	mov.w     [w0], w1
    19d2:	6e 40 90    	mov.b     [w14+6], w0
    19d4:	00 80 fb    	ze        w0, w0
    19d6:	47 00 dd    	sl.w      w0, #0x7, w0
    19d8:	01 00 70    	ior.w     w0, w1, w0
    19da:	00 01 78    	mov.w     w0, w2
    19dc:	ce 40 90    	mov.b     [w14+4], w1
    19de:	1e 00 90    	mov.w     [w14+2], w0
    19e0:	d6 ff 07    	rcall     0x198e <_sevseg_writeDigitRaw> <.LFB11> <.LFE10>
    19e2:	01 00 37    	bra       0x19e6 <.L35>

000019e4 <.L38>:
    19e4:	00 00 00    	nop       

000019e6 <.L35>:
}
    19e6:	00 80 fa    	ulnk      
    19e8:	00 00 06    	return    

000019ea <_sevseg_drawColon>:

void sevseg_drawColon(_7SEGMENT* ptr, uint8_t state){
    19ea:	04 00 fa    	lnk       #0x4
    19ec:	00 0f 78    	mov.w     w0, [w14]
    19ee:	21 47 98    	mov.b     w1, [w14+2]
  if (state)
    19f0:	2e 40 90    	mov.b     [w14+2], w0
    19f2:	00 04 e0    	cp0.b     w0
    19f4:	04 00 32    	bra       Z, 0x19fe <.L40>
    ptr->super.displaybuffer[2] = 0x2;
    19f6:	1e 00 78    	mov.w     [w14], w0
    19f8:	21 00 20    	mov.w     #0x2, w1
    19fa:	21 00 98    	mov.w     w1, [w0+4]
    19fc:	03 00 37    	bra       0x1a04 <.L39>

000019fe <.L40>:
  else
    ptr->super.displaybuffer[2] = 0;
    19fe:	1e 00 78    	mov.w     [w14], w0
    1a00:	80 00 eb    	clr.w     w1
    1a02:	21 00 98    	mov.w     w1, [w0+4]

00001a04 <.L39>:
}
    1a04:	00 80 fa    	ulnk      
    1a06:	00 00 06    	return    

00001a08 <_sevseg_printNumber>:

void sevseg_printNumber(_7SEGMENT* ptr, long n, uint8_t base){
    1a08:	08 00 fa    	lnk       #0x8
    1a0a:	00 0f 78    	mov.w     w0, [w14]
    1a0c:	12 07 98    	mov.w     w2, [w14+2]
    1a0e:	23 07 98    	mov.w     w3, [w14+4]
    1a10:	61 47 98    	mov.b     w1, [w14+6]
  sevseg_printFloat(ptr, n, 0, base);
    1a12:	1e 00 90    	mov.w     [w14+2], w0
    1a14:	ae 00 90    	mov.w     [w14+4], w1
    1a16:	bc fc 07    	rcall     0x1390 <___floatsisf>
    1a18:	00 01 be    	mov.d     w0, w2
    1a1a:	6e 42 90    	mov.b     [w14+6], w4
    1a1c:	80 40 eb    	clr.b     w1
    1a1e:	1e 00 78    	mov.w     [w14], w0
    1a20:	02 00 07    	rcall     0x1a26 <_sevseg_printFloat> <.LFB15> <.LFE14>
}
    1a22:	00 80 fa    	ulnk      
    1a24:	00 00 06    	return    

00001a26 <_sevseg_printFloat>:

void sevseg_printFloat(_7SEGMENT* ptr, double n, uint8_t fracDigits, uint8_t base){
    1a26:	1c 00 fa    	lnk       #0x1c
    1a28:	88 1f 78    	mov.w     w8, [w15++]
    1a2a:	20 0f 98    	mov.w     w0, [w14+20]
    1a2c:	32 0f 98    	mov.w     w2, [w14+22]
    1a2e:	43 0f 98    	mov.w     w3, [w14+24]
    1a30:	21 5f 98    	mov.b     w1, [w14+26]
    1a32:	34 5f 98    	mov.b     w4, [w14+27]
  uint8_t numericDigits = 4;   // available digits on display
    1a34:	40 c0 b3    	mov.b     #0x4, w0
    1a36:	00 4f 78    	mov.b     w0, [w14]
  uint8_t isNegative = 0;  // true if the number is negative
    1a38:	00 40 eb    	clr.b     w0
    1a3a:	10 47 98    	mov.b     w0, [w14+1]

  // is the number negative?
  if(n < 0) {
    1a3c:	18 c0 b3    	mov.b     #0x1, w8
    1a3e:	60 11 b8    	mul.uu    w2, #0x0, w2
    1a40:	3e 08 90    	mov.w     [w14+22], w0
    1a42:	ce 08 90    	mov.w     [w14+24], w1
    1a44:	88 fc 07    	rcall     0x1356 <___eqsf2> <___lesf2> <___ltsf2>
    1a46:	00 00 e0    	cp0.w     w0
    1a48:	01 00 35    	bra       LT, 0x1a4c <.L44>
    1a4a:	00 44 eb    	clr.b     w8

00001a4c <.L44>:
    1a4c:	08 04 e0    	cp0.b     w8
    1a4e:	08 00 32    	bra       Z, 0x1a60 <.L45>
    isNegative = 1;  // need to draw sign later
    1a50:	10 c0 b3    	mov.b     #0x1, w0
    1a52:	10 47 98    	mov.b     w0, [w14+1]
    --numericDigits;    // the sign will take up one digit
    1a54:	1e 4f e9    	dec.b     [w14], [w14]
    n *= -1;            // pretend the number is positive
    1a56:	3e 08 90    	mov.w     [w14+22], w0
    1a58:	ce 08 90    	mov.w     [w14+24], w1
    1a5a:	01 f0 a2    	btg.w     w1, #0xf
    1a5c:	30 0f 98    	mov.w     w0, [w14+22]
    1a5e:	41 0f 98    	mov.w     w1, [w14+24]

00001a60 <.L45>:
  }

  // calculate the factor required to shift all fractional digits
  // into the integer part of the number
  double toIntFactor = 1.0;
    1a60:	00 00 20    	mov.w     #0x0, w0
    1a62:	01 f8 23    	mov.w     #0x3f80, w1
    1a64:	10 07 98    	mov.w     w0, [w14+2]
    1a66:	21 07 98    	mov.w     w1, [w14+4]
	int i = 0;
    1a68:	00 00 eb    	clr.w     w0
    1a6a:	30 07 98    	mov.w     w0, [w14+6]
  for(i = 0; i < fracDigits; ++i) toIntFactor *= base;
    1a6c:	00 00 eb    	clr.w     w0
    1a6e:	30 07 98    	mov.w     w0, [w14+6]
    1a70:	0d 00 37    	bra       0x1a8c <.L46>

00001a72 <.L47>:
    1a72:	3e 58 90    	mov.b     [w14+27], w0
    1a74:	00 80 fb    	ze        w0, w0
    1a76:	cf 80 de    	asr.w     w0, #0xf, w1
    1a78:	8b fc 07    	rcall     0x1390 <___floatsisf>
    1a7a:	00 01 be    	mov.d     w0, w2
    1a7c:	1e 00 90    	mov.w     [w14+2], w0
    1a7e:	ae 00 90    	mov.w     [w14+4], w1
    1a80:	dd fc 07    	rcall     0x143c <___mulsf3>
    1a82:	10 07 98    	mov.w     w0, [w14+2]
    1a84:	21 07 98    	mov.w     w1, [w14+4]
    1a86:	3e 00 90    	mov.w     [w14+6], w0
    1a88:	00 00 e8    	inc.w     w0, w0
    1a8a:	30 07 98    	mov.w     w0, [w14+6]

00001a8c <.L46>:
    1a8c:	2e 58 90    	mov.b     [w14+26], w0
    1a8e:	80 80 fb    	ze        w0, w1
    1a90:	3e 00 90    	mov.w     [w14+6], w0
    1a92:	80 8f 50    	sub.w     w1, w0, [w15]
    1a94:	ee ff 3c    	bra       GT, 0x1a72 <.L47>

  // create integer containing digits to display by applying
  // shifting factor and rounding adjustment
  uint32_t displayNumber = n * toIntFactor + 0.5;
    1a96:	1e 01 90    	mov.w     [w14+2], w2
    1a98:	ae 01 90    	mov.w     [w14+4], w3
    1a9a:	3e 08 90    	mov.w     [w14+22], w0
    1a9c:	ce 08 90    	mov.w     [w14+24], w1
    1a9e:	ce fc 07    	rcall     0x143c <___mulsf3>
    1aa0:	02 00 20    	mov.w     #0x0, w2
    1aa2:	03 f0 23    	mov.w     #0x3f00, w3
    1aa4:	b9 fb 07    	rcall     0x1218 <___addsf3>
    1aa6:	59 fc 07    	rcall     0x135a <___fixunssfsi>
    1aa8:	40 07 98    	mov.w     w0, [w14+8]
    1aaa:	51 07 98    	mov.w     w1, [w14+10]

  // calculate upper bound on displayNumber given
  // available digits on display
  uint32_t tooBig = 1;
    1aac:	10 00 20    	mov.w     #0x1, w0
    1aae:	01 00 20    	mov.w     #0x0, w1
    1ab0:	60 07 98    	mov.w     w0, [w14+12]
    1ab2:	71 07 98    	mov.w     w1, [w14+14]
  for(i = 0; i < numericDigits; ++i) tooBig *= base;
    1ab4:	00 00 eb    	clr.w     w0
    1ab6:	30 07 98    	mov.w     w0, [w14+6]
    1ab8:	15 00 37    	bra       0x1ae4 <.L48>

00001aba <.L49>:
    1aba:	3e 58 90    	mov.b     [w14+27], w0
    1abc:	00 80 fb    	ze        w0, w0
    1abe:	80 00 eb    	clr.w     w1
    1ac0:	7e 01 90    	mov.w     [w14+14], w2
    1ac2:	00 91 b9    	mul.ss    w2, w0, w2
    1ac4:	02 01 78    	mov.w     w2, w2
    1ac6:	ee 01 90    	mov.w     [w14+12], w3
    1ac8:	01 9a b9    	mul.ss    w3, w1, w4
    1aca:	84 01 78    	mov.w     w4, w3
    1acc:	03 01 41    	add.w     w2, w3, w2
    1ace:	ee 01 90    	mov.w     [w14+12], w3
    1ad0:	00 18 b8    	mul.uu    w3, w0, w0
    1ad2:	01 01 41    	add.w     w2, w1, w2
    1ad4:	82 00 78    	mov.w     w2, w1
    1ad6:	60 07 98    	mov.w     w0, [w14+12]
    1ad8:	71 07 98    	mov.w     w1, [w14+14]
    1ada:	60 07 98    	mov.w     w0, [w14+12]
    1adc:	71 07 98    	mov.w     w1, [w14+14]
    1ade:	3e 00 90    	mov.w     [w14+6], w0
    1ae0:	00 00 e8    	inc.w     w0, w0
    1ae2:	30 07 98    	mov.w     w0, [w14+6]

00001ae4 <.L48>:
    1ae4:	9e 80 fb    	ze        [w14], w1
    1ae6:	3e 00 90    	mov.w     [w14+6], w0
    1ae8:	80 8f 50    	sub.w     w1, w0, [w15]
    1aea:	e7 ff 3c    	bra       GT, 0x1aba <.L49>

  // if displayNumber is too large, try fewer fractional digits
  while(displayNumber >= tooBig) {
    1aec:	18 00 37    	bra       0x1b1e <.L50>

00001aee <.L51>:
    --fracDigits;
    1aee:	2e 58 90    	mov.b     [w14+26], w0
    1af0:	00 40 e9    	dec.b     w0, w0
    1af2:	20 5f 98    	mov.b     w0, [w14+26]
    toIntFactor /= base;
    1af4:	3e 58 90    	mov.b     [w14+27], w0
    1af6:	00 80 fb    	ze        w0, w0
    1af8:	cf 80 de    	asr.w     w0, #0xf, w1
    1afa:	4a fc 07    	rcall     0x1390 <___floatsisf>
    1afc:	00 01 be    	mov.d     w0, w2
    1afe:	1e 00 90    	mov.w     [w14+2], w0
    1b00:	ae 00 90    	mov.w     [w14+4], w1
    1b02:	e7 fb 07    	rcall     0x12d2 <___divsf3>
    1b04:	10 07 98    	mov.w     w0, [w14+2]
    1b06:	21 07 98    	mov.w     w1, [w14+4]
    displayNumber = n * toIntFactor + 0.5;
    1b08:	1e 01 90    	mov.w     [w14+2], w2
    1b0a:	ae 01 90    	mov.w     [w14+4], w3
    1b0c:	3e 08 90    	mov.w     [w14+22], w0
    1b0e:	ce 08 90    	mov.w     [w14+24], w1
    1b10:	95 fc 07    	rcall     0x143c <___mulsf3>
    1b12:	02 00 20    	mov.w     #0x0, w2
    1b14:	03 f0 23    	mov.w     #0x3f00, w3
    1b16:	80 fb 07    	rcall     0x1218 <___addsf3>
    1b18:	20 fc 07    	rcall     0x135a <___fixunssfsi>
    1b1a:	40 07 98    	mov.w     w0, [w14+8]
    1b1c:	51 07 98    	mov.w     w1, [w14+10]

00001b1e <.L50>:
    1b1e:	4e 01 90    	mov.w     [w14+8], w2
    1b20:	de 01 90    	mov.w     [w14+10], w3
    1b22:	6e 00 90    	mov.w     [w14+12], w0
    1b24:	fe 00 90    	mov.w     [w14+14], w1
    1b26:	80 0f 51    	sub.w     w2, w0, [w15]
    1b28:	81 8f 59    	subb.w    w3, w1, [w15]
    1b2a:	e1 ff 31    	bra       C, 0x1aee <.L51>
  }

  // did toIntFactor shift the decimal off the display?
  if (toIntFactor < 1) {
    1b2c:	18 c0 b3    	mov.b     #0x1, w8
    1b2e:	02 00 20    	mov.w     #0x0, w2
    1b30:	03 f8 23    	mov.w     #0x3f80, w3
    1b32:	1e 00 90    	mov.w     [w14+2], w0
    1b34:	ae 00 90    	mov.w     [w14+4], w1
    1b36:	0f fc 07    	rcall     0x1356 <___eqsf2> <___lesf2> <___ltsf2>
    1b38:	00 00 e0    	cp0.w     w0
    1b3a:	01 00 35    	bra       LT, 0x1b3e <.L52>
    1b3c:	00 44 eb    	clr.b     w8

00001b3e <.L52>:
    1b3e:	08 04 e0    	cp0.b     w8
    1b40:	03 00 32    	bra       Z, 0x1b48 <.L53> <.LBB2>
    sevseg_printError(ptr);
    1b42:	2e 08 90    	mov.w     [w14+20], w0
    1b44:	6c 00 07    	rcall     0x1c1e <_sevseg_printError> <.LFB16> <.LFE15>
    1b46:	68 00 37    	bra       0x1c18 <.L43> <.LBE2>

00001b48 <.L53>:
  } else {
    // otherwise, display the number
    int8_t displayPos = 4;
    1b48:	40 c0 b3    	mov.b     #0x4, w0
    1b4a:	00 57 98    	mov.b     w0, [w14+16]

    if (displayNumber)  //if displayNumber is not 0
    1b4c:	4e 00 90    	mov.w     [w14+8], w0
    1b4e:	de 00 90    	mov.w     [w14+10], w1
    1b50:	e0 0f 50    	sub.w     w0, #0x0, [w15]
    1b52:	e0 8f 58    	subb.w    w1, #0x0, [w15]
    1b54:	41 00 32    	bra       Z, 0x1bd8 <.L55> <.LBE3>

00001b56 <.LBB3>:
    {
			uint8_t i;
      for(i = 0; displayNumber || i <= fracDigits; ++i) {
    1b56:	00 40 eb    	clr.b     w0
    1b58:	10 57 98    	mov.b     w0, [w14+17]
    1b5a:	34 00 37    	bra       0x1bc4 <.L56>

00001b5c <.L60>:
        uint8_t displayDecimal = (fracDigits != 0 && i == fracDigits);
    1b5c:	2e 58 90    	mov.b     [w14+26], w0
    1b5e:	00 04 e0    	cp0.b     w0
    1b60:	06 00 32    	bra       Z, 0x1b6e <.L57>
    1b62:	9e 50 90    	mov.b     [w14+17], w1
    1b64:	2e 58 90    	mov.b     [w14+26], w0
    1b66:	80 cf 50    	sub.b     w1, w0, [w15]
    1b68:	02 00 3a    	bra       NZ, 0x1b6e <.L57>
    1b6a:	10 00 20    	mov.w     #0x1, w0
    1b6c:	01 00 37    	bra       0x1b70 <.L58>

00001b6e <.L57>:
    1b6e:	00 00 eb    	clr.w     w0

00001b70 <.L58>:
    1b70:	20 57 98    	mov.b     w0, [w14+18]
        sevseg_writeDigitNum(ptr, displayPos--, displayNumber % base, displayDecimal);
    1b72:	3e 58 90    	mov.b     [w14+27], w0
    1b74:	00 80 fb    	ze        w0, w0
    1b76:	80 00 eb    	clr.w     w1
    1b78:	4e 02 90    	mov.w     [w14+8], w4
    1b7a:	de 02 90    	mov.w     [w14+10], w5
    1b7c:	00 01 be    	mov.d     w0, w2
    1b7e:	04 00 be    	mov.d     w4, w0
    1b80:	a1 fc 07    	rcall     0x14c4 <___umodsi3>
    1b82:	80 40 78    	mov.b     w0, w1
    1b84:	0e 50 90    	mov.b     [w14+16], w0
    1b86:	0e 51 90    	mov.b     [w14+16], w2
    1b88:	02 41 e9    	dec.b     w2, w2
    1b8a:	02 57 98    	mov.b     w2, [w14+16]
    1b8c:	ae 51 90    	mov.b     [w14+18], w3
    1b8e:	01 41 78    	mov.b     w1, w2
    1b90:	80 40 78    	mov.b     w0, w1
    1b92:	2e 08 90    	mov.w     [w14+20], w0
    1b94:	0e ff 07    	rcall     0x19b2 <_sevseg_writeDigitNum> <.LFB12> <.LFE11>
        if(displayPos == 2) sevseg_writeDigitRaw(ptr, displayPos--, 0x00);
    1b96:	0e 50 90    	mov.b     [w14+16], w0
    1b98:	e2 4f 50    	sub.b     w0, #0x2, [w15]
    1b9a:	08 00 3a    	bra       NZ, 0x1bac <.L59>
    1b9c:	0e 50 90    	mov.b     [w14+16], w0
    1b9e:	8e 50 90    	mov.b     [w14+16], w1
    1ba0:	81 40 e9    	dec.b     w1, w1
    1ba2:	01 57 98    	mov.b     w1, [w14+16]
    1ba4:	00 01 eb    	clr.w     w2
    1ba6:	80 40 78    	mov.b     w0, w1
    1ba8:	2e 08 90    	mov.w     [w14+20], w0
    1baa:	f1 fe 07    	rcall     0x198e <_sevseg_writeDigitRaw> <.LFB11> <.LFE10>

00001bac <.L59>:
        displayNumber /= base;
    1bac:	3e 58 90    	mov.b     [w14+27], w0
    1bae:	00 80 fb    	ze        w0, w0
    1bb0:	80 00 eb    	clr.w     w1
    1bb2:	00 01 be    	mov.d     w0, w2
    1bb4:	4e 00 90    	mov.w     [w14+8], w0
    1bb6:	de 00 90    	mov.w     [w14+10], w1
    1bb8:	75 fc 07    	rcall     0x14a4 <___udivsi3>
    1bba:	40 07 98    	mov.w     w0, [w14+8]
    1bbc:	51 07 98    	mov.w     w1, [w14+10]

00001bbe <.LBE4>:
    1bbe:	1e 50 90    	mov.b     [w14+17], w0
    1bc0:	00 40 e8    	inc.b     w0, w0
    1bc2:	10 57 98    	mov.b     w0, [w14+17]

00001bc4 <.L56>:
    1bc4:	4e 00 90    	mov.w     [w14+8], w0
    1bc6:	de 00 90    	mov.w     [w14+10], w1
    1bc8:	e0 0f 50    	sub.w     w0, #0x0, [w15]
    1bca:	e0 8f 58    	subb.w    w1, #0x0, [w15]
    1bcc:	c7 ff 3a    	bra       NZ, 0x1b5c <.L60> <.LBB4>
    1bce:	9e 50 90    	mov.b     [w14+17], w1
    1bd0:	2e 58 90    	mov.b     [w14+26], w0
    1bd2:	80 cf 50    	sub.b     w1, w0, [w15]
    1bd4:	c3 ff 36    	bra       LEU, 0x1b5c <.L60> <.LBB4>
    1bd6:	09 00 37    	bra       0x1bea <.L61>

00001bd8 <.L55>:
      }
    }
    else {
      sevseg_writeDigitNum(ptr, displayPos--, 0, 0);
    1bd8:	0e 50 90    	mov.b     [w14+16], w0
    1bda:	8e 50 90    	mov.b     [w14+16], w1
    1bdc:	81 40 e9    	dec.b     w1, w1
    1bde:	01 57 98    	mov.b     w1, [w14+16]
    1be0:	80 41 eb    	clr.b     w3
    1be2:	00 41 eb    	clr.b     w2
    1be4:	80 40 78    	mov.b     w0, w1
    1be6:	2e 08 90    	mov.w     [w14+20], w0
    1be8:	e4 fe 07    	rcall     0x19b2 <_sevseg_writeDigitNum> <.LFB12> <.LFE11>

00001bea <.L61>:
    }

    // display negative sign if negative
    if(isNegative) sevseg_writeDigitRaw(ptr, displayPos--, 0x40);
    1bea:	1e 40 90    	mov.b     [w14+1], w0
    1bec:	00 04 e0    	cp0.b     w0
    1bee:	11 00 32    	bra       Z, 0x1c12 <.L63>
    1bf0:	0e 50 90    	mov.b     [w14+16], w0
    1bf2:	8e 50 90    	mov.b     [w14+16], w1
    1bf4:	81 40 e9    	dec.b     w1, w1
    1bf6:	01 57 98    	mov.b     w1, [w14+16]
    1bf8:	02 04 20    	mov.w     #0x40, w2
    1bfa:	80 40 78    	mov.b     w0, w1
    1bfc:	2e 08 90    	mov.w     [w14+20], w0
    1bfe:	c7 fe 07    	rcall     0x198e <_sevseg_writeDigitRaw> <.LFB11> <.LFE10>

    // clear remaining display positions
    while(displayPos >= 0) sevseg_writeDigitRaw(ptr, displayPos--, 0x00);
    1c00:	08 00 37    	bra       0x1c12 <.L63>

00001c02 <.L64>:
    1c02:	0e 50 90    	mov.b     [w14+16], w0
    1c04:	8e 50 90    	mov.b     [w14+16], w1
    1c06:	81 40 e9    	dec.b     w1, w1
    1c08:	01 57 98    	mov.b     w1, [w14+16]
    1c0a:	00 01 eb    	clr.w     w2
    1c0c:	80 40 78    	mov.b     w0, w1
    1c0e:	2e 08 90    	mov.w     [w14+20], w0
    1c10:	be fe 07    	rcall     0x198e <_sevseg_writeDigitRaw> <.LFB11> <.LFE10>

00001c12 <.L63>:
    1c12:	0e 50 90    	mov.b     [w14+16], w0
    1c14:	00 04 e0    	cp0.b     w0
    1c16:	f5 ff 3d    	bra       GE, 0x1c02 <.L64>

00001c18 <.L43>:
  }
}
    1c18:	4f 04 78    	mov.w     [--w15], w8
    1c1a:	00 80 fa    	ulnk      
    1c1c:	00 00 06    	return    

00001c1e <_sevseg_printError>:

void sevseg_printError(_7SEGMENT* ptr){
    1c1e:	04 00 fa    	lnk       #0x4
    1c20:	10 07 98    	mov.w     w0, [w14+2]
	uint8_t i;
  for(i = 0; i < SEVENSEG_DIGITS; ++i) {
    1c22:	00 40 eb    	clr.b     w0
    1c24:	00 4f 78    	mov.b     w0, [w14]
    1c26:	0b 00 37    	bra       0x1c3e <.L66>

00001c28 <.L69>:
    sevseg_writeDigitRaw(ptr, i, (i == 2 ? 0x00 : 0x40));
    1c28:	1e 40 78    	mov.b     [w14], w0
    1c2a:	e2 4f 50    	sub.b     w0, #0x2, [w15]
    1c2c:	02 00 3a    	bra       NZ, 0x1c32 <.L67>
    1c2e:	00 00 eb    	clr.w     w0
    1c30:	01 00 37    	bra       0x1c34 <.L68>

00001c32 <.L67>:
    1c32:	00 04 20    	mov.w     #0x40, w0

00001c34 <.L68>:
    1c34:	00 01 78    	mov.w     w0, w2
    1c36:	9e 40 78    	mov.b     [w14], w1
    1c38:	1e 00 90    	mov.w     [w14+2], w0
    1c3a:	a9 fe 07    	rcall     0x198e <_sevseg_writeDigitRaw> <.LFB11> <.LFE10>
    1c3c:	1e 4f e8    	inc.b     [w14], [w14]

00001c3e <.L66>:
    1c3e:	1e 40 78    	mov.b     [w14], w0
    1c40:	e4 4f 50    	sub.b     w0, #0x4, [w15]
    1c42:	f2 ff 36    	bra       LEU, 0x1c28 <.L69>
  }
}
    1c44:	00 80 fa    	ulnk      
    1c46:	00 00 06    	return    

00001c48 <_sevseg_writeColon>:


void sevseg_writeColon(_7SEGMENT* ptr){
    1c48:	02 00 fa    	lnk       #0x2
    1c4a:	00 0f 78    	mov.w     w0, [w14]
  /*
  Wire.beginTransmission(i2c_addr);
  Wire.write((uint8_t)0x04);

  Wire.write(displaybuffer[2] & 0xFF);
  Wire.write(displaybuffer[2] >> 8);

  Wire.endTransmission();
  */
  i2c_start();
    1c4c:	33 00 07    	rcall     0x1cb4 <_i2c_start> <.LFB2> <.LFE1>
  send_i2c_byte(ptr->super.i2c_addr);
    1c4e:	1e 00 78    	mov.w     [w14], w0
    1c50:	00 50 90    	mov.b     [w0+16], w0
    1c52:	00 80 fb    	ze        w0, w0
    1c54:	7e 00 07    	rcall     0x1d52 <_send_i2c_byte> <.LFB5> <.LFE4>
  send_i2c_byte((uint8_t)0x04); // start at address $02
    1c56:	40 00 20    	mov.w     #0x4, w0
    1c58:	7c 00 07    	rcall     0x1d52 <_send_i2c_byte> <.LFB5> <.LFE4>
  send_i2c_byte(ptr->super.displaybuffer[2] & 0xFF);
    1c5a:	1e 00 78    	mov.w     [w14], w0
    1c5c:	20 00 90    	mov.w     [w0+4], w0
    1c5e:	80 00 78    	mov.w     w0, w1
    1c60:	f0 0f 20    	mov.w     #0xff, w0
    1c62:	00 80 60    	and.w     w1, w0, w0
    1c64:	76 00 07    	rcall     0x1d52 <_send_i2c_byte> <.LFB5> <.LFE4>
  send_i2c_byte(ptr->super.displaybuffer[2] >> 8);
    1c66:	1e 00 78    	mov.w     [w14], w0
    1c68:	20 00 90    	mov.w     [w0+4], w0
    1c6a:	48 00 de    	lsr.w     w0, #0x8, w0
    1c6c:	72 00 07    	rcall     0x1d52 <_send_i2c_byte> <.LFB5> <.LFE4>
  reset_i2c_bus();
    1c6e:	56 00 07    	rcall     0x1d1c <_reset_i2c_bus> <.LFB4> <.LFE3>
}
    1c70:	00 80 fa    	ulnk      
    1c72:	00 00 06    	return    

00001c74 <_delay_by_nop>:
    1c74:	08 00 fa    	lnk       #0x8
    1c76:	20 07 98    	mov.w     w0, [w14+4]
    1c78:	31 07 98    	mov.w     w1, [w14+6]
    1c7a:	60 00 b8    	mul.uu    w0, #0x0, w0
    1c7c:	00 8f be    	mov.d     w0, [w14]
    1c7e:	05 00 37    	bra       0x1c8a <.L2>

00001c80 <.L3>:
    1c80:	00 00 00    	nop       
    1c82:	12 00 20    	mov.w     #0x1, w2
    1c84:	03 00 20    	mov.w     #0x0, w3
    1c86:	1e 0f 41    	add.w     w2, [w14], [w14]
    1c88:	5e 97 49    	addc.w    w3, [++w14], [w14--]

00001c8a <.L2>:
    1c8a:	2e 00 90    	mov.w     [w14+4], w0
    1c8c:	be 00 90    	mov.w     [w14+6], w1
    1c8e:	1e 01 be    	mov.d     [w14], w2
    1c90:	80 0f 51    	sub.w     w2, w0, [w15]
    1c92:	81 8f 59    	subb.w    w3, w1, [w15]
    1c94:	f5 ff 39    	bra       NC, 0x1c80 <.L3>
    1c96:	00 80 fa    	ulnk      
    1c98:	00 00 06    	return    

00001c9a <_i2c_init>:
    1c9a:	04 00 fa    	lnk       #0x4
    1c9c:	10 07 98    	mov.w     w0, [w14+2]
    1c9e:	1e 00 90    	mov.w     [w14+2], w0
    1ca0:	a0 13 88    	mov.w     w0, 0x274
    1ca2:	77 e2 a9    	bclr.b    0x277, #0x7
    1ca4:	77 22 a8    	bset.b    0x277, #0x1
    1ca6:	8e a0 a9    	bclr.b    0x8e, #0x5
    1ca8:	77 e2 a8    	bset.b    0x277, #0x7
    1caa:	80 13 80    	mov.w     0x270, w0
    1cac:	00 0f 78    	mov.w     w0, [w14]
    1cae:	36 00 07    	rcall     0x1d1c <_reset_i2c_bus> <.LFB4> <.LFE3>
    1cb0:	00 80 fa    	ulnk      
    1cb2:	00 00 06    	return    

00001cb4 <_i2c_start>:
    1cb4:	02 00 fa    	lnk       #0x2
    1cb6:	00 00 eb    	clr.w     w0
    1cb8:	00 0f 78    	mov.w     w0, [w14]
    1cba:	76 a2 a9    	bclr.b    0x276, #0x5
    1cbc:	a0 00 20    	mov.w     #0xa, w0
    1cbe:	01 00 20    	mov.w     #0x0, w1
    1cc0:	d9 ff 07    	rcall     0x1c74 <_delay_by_nop> <.L0> <.LFB0> <.LFE17> <.Letext0> <.Ltext0>
    1cc2:	76 02 a8    	bset.b    0x276, #0x0
    1cc4:	00 00 00    	nop       
    1cc6:	07 00 37    	bra       0x1cd6 <.L6>

00001cc8 <.L8>:
    1cc8:	10 00 20    	mov.w     #0x1, w0
    1cca:	01 00 20    	mov.w     #0x0, w1
    1ccc:	d3 ff 07    	rcall     0x1c74 <_delay_by_nop> <.L0> <.LFB0> <.LFE17> <.Letext0> <.Ltext0>
    1cce:	1e 0f e8    	inc.w     [w14], [w14]
    1cd0:	1e 00 78    	mov.w     [w14], w0
    1cd2:	f4 0f 50    	sub.w     w0, #0x14, [w15]
    1cd4:	05 00 3c    	bra       GT, 0x1ce0 <.L9>

00001cd6 <.L6>:
    1cd6:	b0 13 80    	mov.w     0x276, w0
    1cd8:	61 00 60    	and.w     w0, #0x1, w0
    1cda:	00 00 e0    	cp0.w     w0
    1cdc:	f5 ff 3a    	bra       NZ, 0x1cc8 <.L8>
    1cde:	01 00 37    	bra       0x1ce2 <.L7>

00001ce0 <.L9>:
    1ce0:	00 00 00    	nop       

00001ce2 <.L7>:
    1ce2:	20 00 20    	mov.w     #0x2, w0
    1ce4:	01 00 20    	mov.w     #0x0, w1
    1ce6:	c6 ff 07    	rcall     0x1c74 <_delay_by_nop> <.L0> <.LFB0> <.LFE17> <.Letext0> <.Ltext0>
    1ce8:	00 80 fa    	ulnk      
    1cea:	00 00 06    	return    

00001cec <_i2c_restart>:
    1cec:	02 00 fa    	lnk       #0x2
    1cee:	00 00 eb    	clr.w     w0
    1cf0:	00 0f 78    	mov.w     w0, [w14]
    1cf2:	76 22 a8    	bset.b    0x276, #0x1
    1cf4:	00 00 00    	nop       
    1cf6:	07 00 37    	bra       0x1d06 <.L11>

00001cf8 <.L13>:
    1cf8:	10 00 20    	mov.w     #0x1, w0
    1cfa:	01 00 20    	mov.w     #0x0, w1
    1cfc:	bb ff 07    	rcall     0x1c74 <_delay_by_nop> <.L0> <.LFB0> <.LFE17> <.Letext0> <.Ltext0>
    1cfe:	1e 0f e8    	inc.w     [w14], [w14]
    1d00:	1e 00 78    	mov.w     [w14], w0
    1d02:	f4 0f 50    	sub.w     w0, #0x14, [w15]
    1d04:	05 00 3c    	bra       GT, 0x1d10 <.L14>

00001d06 <.L11>:
    1d06:	b0 13 80    	mov.w     0x276, w0
    1d08:	62 00 60    	and.w     w0, #0x2, w0
    1d0a:	00 00 e0    	cp0.w     w0
    1d0c:	f5 ff 3a    	bra       NZ, 0x1cf8 <.L13>
    1d0e:	01 00 37    	bra       0x1d12 <.L12>

00001d10 <.L14>:
    1d10:	00 00 00    	nop       

00001d12 <.L12>:
    1d12:	20 00 20    	mov.w     #0x2, w0
    1d14:	01 00 20    	mov.w     #0x0, w1
    1d16:	ae ff 07    	rcall     0x1c74 <_delay_by_nop> <.L0> <.LFB0> <.LFE17> <.Letext0> <.Ltext0>
    1d18:	00 80 fa    	ulnk      
    1d1a:	00 00 06    	return    

00001d1c <_reset_i2c_bus>:
    1d1c:	02 00 fa    	lnk       #0x2
    1d1e:	00 00 eb    	clr.w     w0
    1d20:	00 0f 78    	mov.w     w0, [w14]
    1d22:	76 42 a8    	bset.b    0x276, #0x2
    1d24:	07 00 37    	bra       0x1d34 <.L16>

00001d26 <.L18>:
    1d26:	10 00 20    	mov.w     #0x1, w0
    1d28:	01 00 20    	mov.w     #0x0, w1
    1d2a:	a4 ff 07    	rcall     0x1c74 <_delay_by_nop> <.L0> <.LFB0> <.LFE17> <.Letext0> <.Ltext0>
    1d2c:	1e 0f e8    	inc.w     [w14], [w14]
    1d2e:	1e 00 78    	mov.w     [w14], w0
    1d30:	f4 0f 50    	sub.w     w0, #0x14, [w15]
    1d32:	05 00 3c    	bra       GT, 0x1d3e <.L19>

00001d34 <.L16>:
    1d34:	b0 13 80    	mov.w     0x276, w0
    1d36:	64 00 60    	and.w     w0, #0x4, w0
    1d38:	00 00 e0    	cp0.w     w0
    1d3a:	f5 ff 3a    	bra       NZ, 0x1d26 <.L18>
    1d3c:	01 00 37    	bra       0x1d40 <.L17>

00001d3e <.L19>:
    1d3e:	00 00 00    	nop       

00001d40 <.L17>:
    1d40:	76 62 a9    	bclr.b    0x276, #0x3
    1d42:	8e a0 a9    	bclr.b    0x8e, #0x5
    1d44:	78 e2 a9    	bclr.b    0x278, #0x7
    1d46:	79 42 a9    	bclr.b    0x279, #0x2
    1d48:	40 01 20    	mov.w     #0x14, w0
    1d4a:	01 00 20    	mov.w     #0x0, w1
    1d4c:	93 ff 07    	rcall     0x1c74 <_delay_by_nop> <.L0> <.LFB0> <.LFE17> <.Letext0> <.Ltext0>
    1d4e:	00 80 fa    	ulnk      
    1d50:	00 00 06    	return    

00001d52 <_send_i2c_byte>:
    1d52:	04 00 fa    	lnk       #0x4
    1d54:	10 07 98    	mov.w     w0, [w14+2]
    1d56:	00 00 00    	nop       

00001d58 <.L21>:
    1d58:	c0 13 80    	mov.w     0x278, w0
    1d5a:	61 00 60    	and.w     w0, #0x1, w0
    1d5c:	00 00 e0    	cp0.w     w0
    1d5e:	fc ff 3a    	bra       NZ, 0x1d58 <.L21>
    1d60:	8e a0 a9    	bclr.b    0x8e, #0x5
    1d62:	1e 00 90    	mov.w     [w14+2], w0
    1d64:	90 13 88    	mov.w     w0, 0x272
    1d66:	00 00 eb    	clr.w     w0
    1d68:	00 0f 78    	mov.w     w0, [w14]
    1d6a:	09 00 37    	bra       0x1d7e <.L22>

00001d6c <.L25>:
    1d6c:	c1 13 80    	mov.w     0x278, w1
    1d6e:	00 00 24    	mov.w     #0x4000, w0
    1d70:	00 80 60    	and.w     w1, w0, w0
    1d72:	00 00 e0    	cp0.w     w0
    1d74:	09 00 32    	bra       Z, 0x1d88 <.L29>
    1d76:	10 00 20    	mov.w     #0x1, w0
    1d78:	01 00 20    	mov.w     #0x0, w1
    1d7a:	7c ff 07    	rcall     0x1c74 <_delay_by_nop> <.L0> <.LFB0> <.LFE17> <.Letext0> <.Ltext0>
    1d7c:	1e 0f e8    	inc.w     [w14], [w14]

00001d7e <.L22>:
    1d7e:	30 1f 20    	mov.w     #0x1f3, w0
    1d80:	9e 00 78    	mov.w     [w14], w1
    1d82:	80 8f 50    	sub.w     w1, w0, [w15]
    1d84:	f3 ff 34    	bra       LE, 0x1d6c <.L25>
    1d86:	01 00 37    	bra       0x1d8a <.L24>

00001d88 <.L29>:
    1d88:	00 00 00    	nop       

00001d8a <.L24>:
    1d8a:	40 1f 20    	mov.w     #0x1f4, w0
    1d8c:	9e 00 78    	mov.w     [w14], w1
    1d8e:	80 8f 50    	sub.w     w1, w0, [w15]
    1d90:	02 00 3a    	bra       NZ, 0x1d96 <.L26>
    1d92:	10 c0 b3    	mov.b     #0x1, w0
    1d94:	0c 00 37    	bra       0x1dae <.L27>

00001d96 <.L26>:
    1d96:	c1 13 80    	mov.w     0x278, w1
    1d98:	00 00 28    	mov.w     #0x8000, w0
    1d9a:	00 80 60    	and.w     w1, w0, w0
    1d9c:	00 00 e0    	cp0.w     w0
    1d9e:	03 00 32    	bra       Z, 0x1da6 <.L28>
    1da0:	bd ff 07    	rcall     0x1d1c <_reset_i2c_bus> <.LFB4> <.LFE3>
    1da2:	10 c0 b3    	mov.b     #0x1, w0
    1da4:	04 00 37    	bra       0x1dae <.L27>

00001da6 <.L28>:
    1da6:	20 00 20    	mov.w     #0x2, w0
    1da8:	01 00 20    	mov.w     #0x0, w1
    1daa:	64 ff 07    	rcall     0x1c74 <_delay_by_nop> <.L0> <.LFB0> <.LFE17> <.Letext0> <.Ltext0>
    1dac:	00 40 eb    	clr.b     w0

00001dae <.L27>:
    1dae:	00 80 fa    	ulnk      
    1db0:	00 00 06    	return    

00001db2 <_i2c_read>:
    1db2:	04 00 fa    	lnk       #0x4
    1db4:	00 00 eb    	clr.w     w0
    1db6:	00 0f 78    	mov.w     w0, [w14]
    1db8:	00 40 eb    	clr.b     w0
    1dba:	20 47 98    	mov.b     w0, [w14+2]
    1dbc:	76 62 a8    	bset.b    0x276, #0x3
    1dbe:	05 00 37    	bra       0x1dca <.L31>

00001dc0 <.L33>:
    1dc0:	1e 0f e8    	inc.w     [w14], [w14]
    1dc2:	00 7d 20    	mov.w     #0x7d0, w0
    1dc4:	9e 00 78    	mov.w     [w14], w1
    1dc6:	80 8f 50    	sub.w     w1, w0, [w15]
    1dc8:	05 00 3c    	bra       GT, 0x1dd4 <.L34>

00001dca <.L31>:
    1dca:	c0 13 80    	mov.w     0x278, w0
    1dcc:	62 00 60    	and.w     w0, #0x2, w0
    1dce:	00 00 e0    	cp0.w     w0
    1dd0:	f7 ff 32    	bra       Z, 0x1dc0 <.L33>
    1dd2:	01 00 37    	bra       0x1dd6 <.L32>

00001dd4 <.L34>:
    1dd4:	00 00 00    	nop       

00001dd6 <.L32>:
    1dd6:	80 13 80    	mov.w     0x270, w0
    1dd8:	20 47 98    	mov.b     w0, [w14+2]
    1dda:	2e 40 90    	mov.b     [w14+2], w0
    1ddc:	00 80 fa    	ulnk      
    1dde:	00 00 06    	return    

00001de0 <_i2c_read_ack>:
    1de0:	04 00 fa    	lnk       #0x4
    1de2:	00 00 eb    	clr.w     w0
    1de4:	00 0f 78    	mov.w     w0, [w14]
    1de6:	00 40 eb    	clr.b     w0
    1de8:	20 47 98    	mov.b     w0, [w14+2]
    1dea:	76 62 a8    	bset.b    0x276, #0x3
    1dec:	05 00 37    	bra       0x1df8 <.L36>

00001dee <.L38>:
    1dee:	1e 0f e8    	inc.w     [w14], [w14]
    1df0:	00 7d 20    	mov.w     #0x7d0, w0
    1df2:	9e 00 78    	mov.w     [w14], w1
    1df4:	80 8f 50    	sub.w     w1, w0, [w15]
    1df6:	05 00 3c    	bra       GT, 0x1e02 <.L39>

00001df8 <.L36>:
    1df8:	c0 13 80    	mov.w     0x278, w0
    1dfa:	62 00 60    	and.w     w0, #0x2, w0
    1dfc:	00 00 e0    	cp0.w     w0
    1dfe:	f7 ff 32    	bra       Z, 0x1dee <.L38>
    1e00:	01 00 37    	bra       0x1e04 <.L37>

00001e02 <.L39>:
    1e02:	00 00 00    	nop       

00001e04 <.L37>:
    1e04:	80 13 80    	mov.w     0x270, w0
    1e06:	20 47 98    	mov.b     w0, [w14+2]
    1e08:	76 82 a8    	bset.b    0x276, #0x4
    1e0a:	a0 00 20    	mov.w     #0xa, w0
    1e0c:	01 00 20    	mov.w     #0x0, w1
    1e0e:	32 ff 07    	rcall     0x1c74 <_delay_by_nop> <.L0> <.LFB0> <.LFE17> <.Letext0> <.Ltext0>
    1e10:	2e 40 90    	mov.b     [w14+2], w0
    1e12:	00 80 fa    	ulnk      
    1e14:	00 00 06    	return    

00001e16 <_i2c_read_nack>:
    1e16:	04 00 fa    	lnk       #0x4
    1e18:	00 00 eb    	clr.w     w0
    1e1a:	00 0f 78    	mov.w     w0, [w14]
    1e1c:	00 40 eb    	clr.b     w0
    1e1e:	20 47 98    	mov.b     w0, [w14+2]
    1e20:	76 62 a8    	bset.b    0x276, #0x3
    1e22:	05 00 37    	bra       0x1e2e <.L41>

00001e24 <.L43>:
    1e24:	1e 0f e8    	inc.w     [w14], [w14]
    1e26:	00 7d 20    	mov.w     #0x7d0, w0
    1e28:	9e 00 78    	mov.w     [w14], w1
    1e2a:	80 8f 50    	sub.w     w1, w0, [w15]
    1e2c:	05 00 3c    	bra       GT, 0x1e38 <.L44>

00001e2e <.L41>:
    1e2e:	c0 13 80    	mov.w     0x278, w0
    1e30:	62 00 60    	and.w     w0, #0x2, w0
    1e32:	00 00 e0    	cp0.w     w0
    1e34:	f7 ff 32    	bra       Z, 0x1e24 <.L43>
    1e36:	01 00 37    	bra       0x1e3a <.L42>

00001e38 <.L44>:
    1e38:	00 00 00    	nop       

00001e3a <.L42>:
    1e3a:	80 13 80    	mov.w     0x270, w0
    1e3c:	20 47 98    	mov.b     w0, [w14+2]
    1e3e:	76 a2 a8    	bset.b    0x276, #0x5
    1e40:	76 82 a8    	bset.b    0x276, #0x4
    1e42:	a0 00 20    	mov.w     #0xa, w0
    1e44:	01 00 20    	mov.w     #0x0, w1
    1e46:	16 ff 07    	rcall     0x1c74 <_delay_by_nop> <.L0> <.LFB0> <.LFE17> <.Letext0> <.Ltext0>
    1e48:	2e 40 90    	mov.b     [w14+2], w0
    1e4a:	00 80 fa    	ulnk      
    1e4c:	00 00 06    	return    

00001e4e <_I2Cwrite>:
    1e4e:	04 00 fa    	lnk       #0x4
    1e50:	00 4f 78    	mov.b     w0, [w14]
    1e52:	11 47 98    	mov.b     w1, [w14+1]
    1e54:	22 47 98    	mov.b     w2, [w14+2]
    1e56:	2e ff 07    	rcall     0x1cb4 <_i2c_start> <.LFB2> <.LFE1>
    1e58:	1e 00 fb    	se        [w14], w0
    1e5a:	80 00 78    	mov.w     w0, w1
    1e5c:	e0 ff 2f    	mov.w     #0xfffe, w0
    1e5e:	00 80 60    	and.w     w1, w0, w0
    1e60:	78 ff 07    	rcall     0x1d52 <_send_i2c_byte> <.LFB5> <.LFE4>
    1e62:	1e 40 90    	mov.b     [w14+1], w0
    1e64:	00 00 fb    	se        w0, w0
    1e66:	75 ff 07    	rcall     0x1d52 <_send_i2c_byte> <.LFB5> <.LFE4>
    1e68:	2e 40 90    	mov.b     [w14+2], w0
    1e6a:	00 00 fb    	se        w0, w0
    1e6c:	72 ff 07    	rcall     0x1d52 <_send_i2c_byte> <.LFB5> <.LFE4>
    1e6e:	56 ff 07    	rcall     0x1d1c <_reset_i2c_bus> <.LFB4> <.LFE3>
    1e70:	00 80 fa    	ulnk      
    1e72:	00 00 06    	return    

00001e74 <_I2Cread>:
    1e74:	04 00 fa    	lnk       #0x4
    1e76:	20 47 98    	mov.b     w0, [w14+2]
    1e78:	31 47 98    	mov.b     w1, [w14+3]
    1e7a:	1c ff 07    	rcall     0x1cb4 <_i2c_start> <.LFB2> <.LFE1>
    1e7c:	2e 40 90    	mov.b     [w14+2], w0
    1e7e:	00 00 fb    	se        w0, w0
    1e80:	68 ff 07    	rcall     0x1d52 <_send_i2c_byte> <.LFB5> <.LFE4>
    1e82:	3e 40 90    	mov.b     [w14+3], w0
    1e84:	00 00 fb    	se        w0, w0
    1e86:	65 ff 07    	rcall     0x1d52 <_send_i2c_byte> <.LFB5> <.LFE4>
    1e88:	a0 00 20    	mov.w     #0xa, w0
    1e8a:	01 00 20    	mov.w     #0x0, w1
    1e8c:	f3 fe 07    	rcall     0x1c74 <_delay_by_nop> <.L0> <.LFB0> <.LFE17> <.Letext0> <.Ltext0>
    1e8e:	2e ff 07    	rcall     0x1cec <_i2c_restart> <.LFB3> <.LFE2>
    1e90:	2e 40 90    	mov.b     [w14+2], w0
    1e92:	00 04 a0    	bset.b    w0, #0x0
    1e94:	00 00 fb    	se        w0, w0
    1e96:	5d ff 07    	rcall     0x1d52 <_send_i2c_byte> <.LFB5> <.LFE4>
    1e98:	8c ff 07    	rcall     0x1db2 <_i2c_read> <.LFB6> <.LFE5>
    1e9a:	00 4f 78    	mov.b     w0, [w14]
    1e9c:	3f ff 07    	rcall     0x1d1c <_reset_i2c_bus> <.LFB4> <.LFE3>
    1e9e:	1e 40 78    	mov.b     [w14], w0
    1ea0:	00 80 fa    	ulnk      
    1ea2:	00 00 06    	return    

00001ea4 <_I2Cpoll>:
    1ea4:	04 00 fa    	lnk       #0x4
    1ea6:	20 47 98    	mov.b     w0, [w14+2]
    1ea8:	00 40 eb    	clr.b     w0
    1eaa:	00 4f 78    	mov.b     w0, [w14]
    1eac:	03 ff 07    	rcall     0x1cb4 <_i2c_start> <.LFB2> <.LFE1>
    1eae:	2e 40 90    	mov.b     [w14+2], w0
    1eb0:	00 00 fb    	se        w0, w0
    1eb2:	80 00 78    	mov.w     w0, w1
    1eb4:	e0 ff 2f    	mov.w     #0xfffe, w0
    1eb6:	00 80 60    	and.w     w1, w0, w0
    1eb8:	4c ff 07    	rcall     0x1d52 <_send_i2c_byte> <.LFB5> <.LFE4>
    1eba:	00 4f 78    	mov.b     w0, [w14]
    1ebc:	2f ff 07    	rcall     0x1d1c <_reset_i2c_bus> <.LFB4> <.LFE3>
    1ebe:	1e 40 78    	mov.b     [w14], w0
    1ec0:	00 80 fa    	ulnk      
    1ec2:	00 00 06    	return    

00001ec4 <_I2Cwritearray>:
    1ec4:	08 00 fa    	lnk       #0x8
    1ec6:	20 47 98    	mov.b     w0, [w14+2]
    1ec8:	21 07 98    	mov.w     w1, [w14+4]
    1eca:	62 47 98    	mov.b     w2, [w14+6]
    1ecc:	00 40 eb    	clr.b     w0
    1ece:	00 4f 78    	mov.b     w0, [w14]
    1ed0:	f1 fe 07    	rcall     0x1cb4 <_i2c_start> <.LFB2> <.LFE1>
    1ed2:	2e 40 90    	mov.b     [w14+2], w0
    1ed4:	00 00 fb    	se        w0, w0
    1ed6:	80 00 78    	mov.w     w0, w1
    1ed8:	e0 ff 2f    	mov.w     #0xfffe, w0
    1eda:	00 80 60    	and.w     w1, w0, w0
    1edc:	3a ff 07    	rcall     0x1d52 <_send_i2c_byte> <.LFB5> <.LFE4>
    1ede:	00 4f 78    	mov.b     w0, [w14]
    1ee0:	00 40 eb    	clr.b     w0
    1ee2:	10 47 98    	mov.b     w0, [w14+1]
    1ee4:	0d 00 37    	bra       0x1f00 <.L49>

00001ee6 <.L50>:
    1ee6:	1e 40 90    	mov.b     [w14+1], w0
    1ee8:	00 80 fb    	ze        w0, w0
    1eea:	ae 00 90    	mov.w     [w14+4], w1
    1eec:	00 80 40    	add.w     w1, w0, w0
    1eee:	10 40 78    	mov.b     [w0], w0
    1ef0:	00 00 fb    	se        w0, w0
    1ef2:	2f ff 07    	rcall     0x1d52 <_send_i2c_byte> <.LFB5> <.LFE4>
    1ef4:	9e 40 78    	mov.b     [w14], w1
    1ef6:	01 40 70    	ior.b     w0, w1, w0
    1ef8:	00 4f 78    	mov.b     w0, [w14]
    1efa:	1e 40 90    	mov.b     [w14+1], w0
    1efc:	00 40 e8    	inc.b     w0, w0
    1efe:	10 47 98    	mov.b     w0, [w14+1]

00001f00 <.L49>:
    1f00:	9e 40 90    	mov.b     [w14+1], w1
    1f02:	6e 40 90    	mov.b     [w14+6], w0
    1f04:	80 cf 50    	sub.b     w1, w0, [w15]
    1f06:	ef ff 39    	bra       NC, 0x1ee6 <.L50>
    1f08:	09 ff 07    	rcall     0x1d1c <_reset_i2c_bus> <.LFB4> <.LFE3>
    1f0a:	1e 40 78    	mov.b     [w14], w0
    1f0c:	00 80 fa    	ulnk      
    1f0e:	00 00 06    	return    

00001f10 <_countup>:
    1f10:	06 00 fa    	lnk       #0x6
    1f12:	00 00 eb    	clr.w     w0
    1f14:	10 07 98    	mov.w     w0, [w14+2]
    1f16:	00 40 eb    	clr.b     w0
    1f18:	40 47 98    	mov.b     w0, [w14+4]
    1f1a:	00 00 eb    	clr.w     w0
    1f1c:	00 0f 78    	mov.w     w0, [w14]
    1f1e:	3c 00 37    	bra       0x1f98 <.L2>

00001f20 <.L3>:
    1f20:	1e 00 78    	mov.w     [w14], w0
    1f22:	c3 00 de    	lsr.w     w0, #0x3, w1
    1f24:	50 0c 22    	mov.w     #0x20c5, w0
    1f26:	00 08 b8    	mul.uu    w1, w0, w0
    1f28:	44 08 de    	lsr.w     w1, #0x4, w0
    1f2a:	00 40 78    	mov.b     w0, w0
    1f2c:	ce 41 90    	mov.b     [w14+4], w3
    1f2e:	00 41 78    	mov.b     w0, w2
    1f30:	80 40 eb    	clr.b     w1
    1f32:	00 80 20    	mov.w     #0x800, w0
    1f34:	3e fd 07    	rcall     0x19b2 <_sevseg_writeDigitNum> <.LFB12> <.LFE11>
    1f36:	1e 00 78    	mov.w     [w14], w0
    1f38:	c2 00 de    	lsr.w     w0, #0x2, w1
    1f3a:	b0 47 21    	mov.w     #0x147b, w0
    1f3c:	00 08 b8    	mul.uu    w1, w0, w0
    1f3e:	01 01 d1    	lsr.w     w1, w2
    1f40:	d0 cc 2c    	mov.w     #0xcccd, w0
    1f42:	00 10 b8    	mul.uu    w2, w0, w0
    1f44:	43 08 de    	lsr.w     w1, #0x3, w0
    1f46:	6a 00 b9    	mul.su    w0, #0xa, w0
    1f48:	00 00 78    	mov.w     w0, w0
    1f4a:	00 00 51    	sub.w     w2, w0, w0
    1f4c:	00 40 78    	mov.b     w0, w0
    1f4e:	ce 41 90    	mov.b     [w14+4], w3
    1f50:	00 41 78    	mov.b     w0, w2
    1f52:	11 c0 b3    	mov.b     #0x1, w1
    1f54:	00 80 20    	mov.w     #0x800, w0
    1f56:	2d fd 07    	rcall     0x19b2 <_sevseg_writeDigitNum> <.LFB12> <.LFE11>
    1f58:	9e 00 78    	mov.w     [w14], w1
    1f5a:	d0 cc 2c    	mov.w     #0xcccd, w0
    1f5c:	00 08 b8    	mul.uu    w1, w0, w0
    1f5e:	43 09 de    	lsr.w     w1, #0x3, w2
    1f60:	d0 cc 2c    	mov.w     #0xcccd, w0
    1f62:	00 10 b8    	mul.uu    w2, w0, w0
    1f64:	43 08 de    	lsr.w     w1, #0x3, w0
    1f66:	6a 00 b9    	mul.su    w0, #0xa, w0
    1f68:	00 00 78    	mov.w     w0, w0
    1f6a:	00 00 51    	sub.w     w2, w0, w0
    1f6c:	00 40 78    	mov.b     w0, w0
    1f6e:	ce 41 90    	mov.b     [w14+4], w3
    1f70:	00 41 78    	mov.b     w0, w2
    1f72:	31 c0 b3    	mov.b     #0x3, w1
    1f74:	00 80 20    	mov.w     #0x800, w0
    1f76:	1d fd 07    	rcall     0x19b2 <_sevseg_writeDigitNum> <.LFB12> <.LFE11>
    1f78:	1e 01 78    	mov.w     [w14], w2
    1f7a:	d0 cc 2c    	mov.w     #0xcccd, w0
    1f7c:	00 10 b8    	mul.uu    w2, w0, w0
    1f7e:	43 08 de    	lsr.w     w1, #0x3, w0
    1f80:	6a 00 b9    	mul.su    w0, #0xa, w0
    1f82:	00 00 78    	mov.w     w0, w0
    1f84:	00 00 51    	sub.w     w2, w0, w0
    1f86:	00 40 78    	mov.b     w0, w0
    1f88:	ce 41 90    	mov.b     [w14+4], w3
    1f8a:	00 41 78    	mov.b     w0, w2
    1f8c:	41 c0 b3    	mov.b     #0x4, w1
    1f8e:	00 80 20    	mov.w     #0x800, w0
    1f90:	10 fd 07    	rcall     0x19b2 <_sevseg_writeDigitNum> <.LFB12> <.LFE11>
    1f92:	00 80 20    	mov.w     #0x800, w0
    1f94:	c9 fb 07    	rcall     0x1728 <_led_writeDisplay> <.LFB3> <.LFE2>
    1f96:	1e 0f e8    	inc.w     [w14], [w14]

00001f98 <.L2>:
    1f98:	e0 70 22    	mov.w     #0x270e, w0
    1f9a:	9e 00 78    	mov.w     [w14], w1
    1f9c:	80 8f 50    	sub.w     w1, w0, [w15]
    1f9e:	c0 ff 36    	bra       LEU, 0x1f20 <.L3>
    1fa0:	00 80 fa    	ulnk      
    1fa2:	00 00 06    	return    

00001fa4 <_dispSeconds>:
    1fa4:	06 00 fa    	lnk       #0x6
    1fa6:	20 07 98    	mov.w     w0, [w14+4]
    1fa8:	ae 00 90    	mov.w     [w14+4], w1
    1faa:	90 88 28    	mov.w     #0x8889, w0
    1fac:	00 08 b8    	mul.uu    w1, w0, w0
    1fae:	45 08 de    	lsr.w     w1, #0x5, w0
    1fb0:	00 0f 78    	mov.w     w0, [w14]
    1fb2:	2e 01 90    	mov.w     [w14+4], w2
    1fb4:	90 88 28    	mov.w     #0x8889, w0
    1fb6:	00 10 b8    	mul.uu    w2, w0, w0
    1fb8:	45 08 de    	lsr.w     w1, #0x5, w0
    1fba:	c1 03 20    	mov.w     #0x3c, w1
    1fbc:	01 80 b9    	mul.ss    w0, w1, w0
    1fbe:	00 00 78    	mov.w     w0, w0
    1fc0:	00 00 51    	sub.w     w2, w0, w0
    1fc2:	20 47 98    	mov.b     w0, [w14+2]
    1fc4:	9e 00 78    	mov.w     [w14], w1
    1fc6:	d0 cc 2c    	mov.w     #0xcccd, w0
    1fc8:	00 08 b8    	mul.uu    w1, w0, w0
    1fca:	43 08 de    	lsr.w     w1, #0x3, w0
    1fcc:	00 40 78    	mov.b     w0, w0
    1fce:	80 41 eb    	clr.b     w3
    1fd0:	00 41 78    	mov.b     w0, w2
    1fd2:	80 40 eb    	clr.b     w1
    1fd4:	00 80 20    	mov.w     #0x800, w0
    1fd6:	ed fc 07    	rcall     0x19b2 <_sevseg_writeDigitNum> <.LFB12> <.LFE11>
    1fd8:	1e 01 78    	mov.w     [w14], w2
    1fda:	d0 cc 2c    	mov.w     #0xcccd, w0
    1fdc:	00 10 b8    	mul.uu    w2, w0, w0
    1fde:	43 08 de    	lsr.w     w1, #0x3, w0
    1fe0:	6a 00 b9    	mul.su    w0, #0xa, w0
    1fe2:	00 00 78    	mov.w     w0, w0
    1fe4:	00 00 51    	sub.w     w2, w0, w0
    1fe6:	00 40 78    	mov.b     w0, w0
    1fe8:	80 41 eb    	clr.b     w3
    1fea:	00 41 78    	mov.b     w0, w2
    1fec:	11 c0 b3    	mov.b     #0x1, w1
    1fee:	00 80 20    	mov.w     #0x800, w0
    1ff0:	e0 fc 07    	rcall     0x19b2 <_sevseg_writeDigitNum> <.LFB12> <.LFE11>
    1ff2:	11 c0 b3    	mov.b     #0x1, w1
    1ff4:	00 80 20    	mov.w     #0x800, w0
    1ff6:	f9 fc 07    	rcall     0x19ea <_sevseg_drawColon> <.LFB13> <.LFE12>
    1ff8:	2e 40 90    	mov.b     [w14+2], w0
    1ffa:	80 80 fb    	ze        w0, w1
    1ffc:	d0 cc 2c    	mov.w     #0xcccd, w0
    1ffe:	00 08 b8    	mul.uu    w1, w0, w0
    2000:	43 08 de    	lsr.w     w1, #0x3, w0
    2002:	00 40 78    	mov.b     w0, w0
    2004:	00 81 fb    	ze        w0, w2
    2006:	d0 cc 2c    	mov.w     #0xcccd, w0
    2008:	00 10 b8    	mul.uu    w2, w0, w0
    200a:	43 08 de    	lsr.w     w1, #0x3, w0
    200c:	6a 00 b9    	mul.su    w0, #0xa, w0
    200e:	00 00 78    	mov.w     w0, w0
    2010:	00 00 51    	sub.w     w2, w0, w0
    2012:	00 40 78    	mov.b     w0, w0
    2014:	80 41 eb    	clr.b     w3
    2016:	00 41 78    	mov.b     w0, w2
    2018:	31 c0 b3    	mov.b     #0x3, w1
    201a:	00 80 20    	mov.w     #0x800, w0
    201c:	ca fc 07    	rcall     0x19b2 <_sevseg_writeDigitNum> <.LFB12> <.LFE11>
    201e:	2e 40 90    	mov.b     [w14+2], w0
    2020:	00 81 fb    	ze        w0, w2
    2022:	d0 cc 2c    	mov.w     #0xcccd, w0
    2024:	00 10 b8    	mul.uu    w2, w0, w0
    2026:	43 08 de    	lsr.w     w1, #0x3, w0
    2028:	6a 00 b9    	mul.su    w0, #0xa, w0
    202a:	00 00 78    	mov.w     w0, w0
    202c:	00 00 51    	sub.w     w2, w0, w0
    202e:	00 40 78    	mov.b     w0, w0
    2030:	80 41 eb    	clr.b     w3
    2032:	00 41 78    	mov.b     w0, w2
    2034:	41 c0 b3    	mov.b     #0x4, w1
    2036:	00 80 20    	mov.w     #0x800, w0
    2038:	bc fc 07    	rcall     0x19b2 <_sevseg_writeDigitNum> <.LFB12> <.LFE11>
    203a:	00 80 20    	mov.w     #0x800, w0
    203c:	75 fb 07    	rcall     0x1728 <_led_writeDisplay> <.LFB3> <.LFE2>
    203e:	00 80 fa    	ulnk      
    2040:	00 00 06    	return    

00002042 <_drawAlphanum>:
    2042:	00 00 fa    	lnk       #0x0
    2044:	80 41 eb    	clr.b     w3
    2046:	12 c0 b3    	mov.b     #0x1, w2
    2048:	80 40 eb    	clr.b     w1
    204a:	00 80 20    	mov.w     #0x800, w0
    204c:	b2 fc 07    	rcall     0x19b2 <_sevseg_writeDigitNum> <.LFB12> <.LFE11>
    204e:	80 41 eb    	clr.b     w3
    2050:	22 c0 b3    	mov.b     #0x2, w2
    2052:	11 c0 b3    	mov.b     #0x1, w1
    2054:	00 80 20    	mov.w     #0x800, w0
    2056:	ad fc 07    	rcall     0x19b2 <_sevseg_writeDigitNum> <.LFB12> <.LFE11>
    2058:	80 41 eb    	clr.b     w3
    205a:	32 c0 b3    	mov.b     #0x3, w2
    205c:	31 c0 b3    	mov.b     #0x3, w1
    205e:	00 80 20    	mov.w     #0x800, w0
    2060:	a8 fc 07    	rcall     0x19b2 <_sevseg_writeDigitNum> <.LFB12> <.LFE11>
    2062:	80 41 eb    	clr.b     w3
    2064:	42 c0 b3    	mov.b     #0x4, w2
    2066:	41 c0 b3    	mov.b     #0x4, w1
    2068:	00 80 20    	mov.w     #0x800, w0
    206a:	a3 fc 07    	rcall     0x19b2 <_sevseg_writeDigitNum> <.LFB12> <.LFE11>
    206c:	00 80 20    	mov.w     #0x800, w0
    206e:	5c fb 07    	rcall     0x1728 <_led_writeDisplay> <.LFB3> <.LFE2>
    2070:	00 80 fa    	ulnk      
    2072:	00 00 06    	return    

00002074 <_drawAll>:
    2074:	04 00 fa    	lnk       #0x4
    2076:	20 47 98    	mov.b     w0, [w14+2]
    2078:	00 40 eb    	clr.b     w0
    207a:	00 4f 78    	mov.b     w0, [w14]
    207c:	05 00 37    	bra       0x2088 <.L7>

0000207e <.L8>:
    207e:	2e 41 90    	mov.b     [w14+2], w2
    2080:	9e 40 78    	mov.b     [w14], w1
    2082:	40 81 20    	mov.w     #0x814, w0
    2084:	c2 fb 07    	rcall     0x180a <_bargraph_setBar> <.LFB9> <.LFE8>
    2086:	1e 4f e8    	inc.b     [w14], [w14]

00002088 <.L7>:
    2088:	1e 40 78    	mov.b     [w14], w0
    208a:	f7 4f 50    	sub.b     w0, #0x17, [w15]
    208c:	f8 ff 36    	bra       LEU, 0x207e <.L8>
    208e:	40 81 20    	mov.w     #0x814, w0
    2090:	4b fb 07    	rcall     0x1728 <_led_writeDisplay> <.LFB3> <.LFE2>
    2092:	00 80 fa    	ulnk      
    2094:	00 00 06    	return    

00002096 <_drawABCD>:
    2096:	00 00 fa    	lnk       #0x0
    2098:	80 41 eb    	clr.b     w3
    209a:	12 c4 b3    	mov.b     #0x41, w2
    209c:	80 40 eb    	clr.b     w1
    209e:	60 82 20    	mov.w     #0x826, w0
    20a0:	8a fb 07    	rcall     0x17b6 <_alphanum_writeDigitAscii> <.LFB7> <.LFE6>
    20a2:	80 41 eb    	clr.b     w3
    20a4:	22 c4 b3    	mov.b     #0x42, w2
    20a6:	11 c0 b3    	mov.b     #0x1, w1
    20a8:	60 82 20    	mov.w     #0x826, w0
    20aa:	85 fb 07    	rcall     0x17b6 <_alphanum_writeDigitAscii> <.LFB7> <.LFE6>
    20ac:	80 41 eb    	clr.b     w3
    20ae:	32 c4 b3    	mov.b     #0x43, w2
    20b0:	21 c0 b3    	mov.b     #0x2, w1
    20b2:	60 82 20    	mov.w     #0x826, w0
    20b4:	80 fb 07    	rcall     0x17b6 <_alphanum_writeDigitAscii> <.LFB7> <.LFE6>
    20b6:	80 41 eb    	clr.b     w3
    20b8:	42 c4 b3    	mov.b     #0x44, w2
    20ba:	31 c0 b3    	mov.b     #0x3, w1
    20bc:	60 82 20    	mov.w     #0x826, w0
    20be:	7b fb 07    	rcall     0x17b6 <_alphanum_writeDigitAscii> <.LFB7> <.LFE6>
    20c0:	60 82 20    	mov.w     #0x826, w0
    20c2:	32 fb 07    	rcall     0x1728 <_led_writeDisplay> <.LFB3> <.LFE2>
    20c4:	00 80 fa    	ulnk      
    20c6:	00 00 06    	return    

000020c8 <_main>:
    20c8:	04 00 fa    	lnk       #0x4
    20ca:	2e 00 07    	rcall     0x2128 <_init_elecanisms> <.L0> <.LFB0> <.LFE5> <.Letext0> <.Ltext0>
    20cc:	00 10 20    	mov.w     #0x100, w0
    20ce:	20 3a 88    	mov.w     w0, 0x744
    20d0:	80 3e 20    	mov.w     #0x3e8, w0
    20d2:	e3 fd 07    	rcall     0x1c9a <_i2c_init> <.LFB1> <.LFE0>
    20d4:	ec 02 a8    	bset.b    0x2ec, #0x0
    20d6:	0e 00 37    	bra       0x20f4 <.L11>

000020d8 <.L12>:
    20d8:	00 3e 29    	mov.w     #0x93e0, w0
    20da:	41 00 20    	mov.w     #0x4, w1
    20dc:	cb fd 07    	rcall     0x1c74 <_delay_by_nop> <.L0> <.LFB0> <.LFE17> <.Letext0> <.Ltext0>
    20de:	00 6a 29    	mov.w     #0x96a0, w0
    20e0:	10 40 78    	mov.b     [w0], w0
    20e2:	e0 fe 07    	rcall     0x1ea4 <_I2Cpoll> <.LFB11> <.LFE10>
    20e4:	61 40 60    	and.b     w0, #0x1, w0
    20e6:	00 80 fb    	ze        w0, w0
    20e8:	61 00 60    	and.w     w0, #0x1, w0
    20ea:	62 17 80    	mov.w     0x2ec, w2
    20ec:	e1 ff 2f    	mov.w     #0xfffe, w1
    20ee:	81 00 61    	and.w     w2, w1, w1
    20f0:	01 00 70    	ior.w     w0, w1, w0
    20f2:	60 17 88    	mov.w     w0, 0x2ec

000020f4 <.L11>:
    20f4:	60 17 80    	mov.w     0x2ec, w0
    20f6:	61 00 60    	and.w     w0, #0x1, w0
    20f8:	00 00 e0    	cp0.w     w0
    20fa:	ee ff 3a    	bra       NZ, 0x20d8 <.L12>
    20fc:	00 6a 29    	mov.w     #0x96a0, w0
    20fe:	10 40 78    	mov.b     [w0], w0
    2100:	80 40 78    	mov.b     w0, w1
    2102:	60 82 20    	mov.w     #0x826, w0
    2104:	ce fa 07    	rcall     0x16a2 <_led_begin> <.L0> <.LFB0> <.Ltext0>
    2106:	00 0f 20    	mov.w     #0xf0, w0
    2108:	00 0f 78    	mov.w     w0, [w14]
    210a:	00 40 eb    	clr.b     w0
    210c:	20 47 98    	mov.b     w0, [w14+2]
    210e:	01 00 37    	bra       0x2112 <.L14>

00002110 <.L15>:
    2110:	00 00 00    	nop       

00002112 <.L14>:
    2112:	c1 ff 07    	rcall     0x2096 <_drawABCD> <.LFB4> <.LFE3>
    2114:	a0 0a 2b    	mov.w     #0xb0aa, w0
    2116:	81 02 20    	mov.w     #0x28, w1
    2118:	ad fd 07    	rcall     0x1c74 <_delay_by_nop> <.L0> <.LFB0> <.LFE17> <.Letext0> <.Ltext0>
    211a:	1e 0f e9    	dec.w     [w14], [w14]
    211c:	1e 00 78    	mov.w     [w14], w0
    211e:	00 00 e0    	cp0.w     w0
    2120:	f7 ff 3a    	bra       NZ, 0x2110 <.L15>
    2122:	00 0f 20    	mov.w     #0xf0, w0
    2124:	00 0f 78    	mov.w     w0, [w14]
    2126:	f5 ff 37    	bra       0x2112 <.L14>

00002128 <_init_elecanisms>:
*/

#include "elecanisms.h"

void init_elecanisms(void) {
    2128:	00 00 fa    	lnk       #0x0
    CLKDIV = 0x0100;        // RCDIV = 001 (4MHz, div2), 
    212a:	00 10 20    	mov.w     #0x100, w0
    212c:	20 3a 88    	mov.w     w0, 0x744
                            // CPDIV = 00 (FOSC = 32MHz, FCY = 16MHz)

    // Configure all pins on the digital headers to be inputs
    D0_DIR = IN;
    212e:	d8 a2 a8    	bset.b    0x2d8, #0x5
    D1_DIR = IN;
    2130:	d8 82 a8    	bset.b    0x2d8, #0x4
    D2_DIR = IN;
    2132:	e8 82 a8    	bset.b    0x2e8, #0x4
    D3_DIR = IN;
    2134:	e8 a2 a8    	bset.b    0x2e8, #0x5
    D4_DIR = IN;
    2136:	c9 e2 a8    	bset.b    0x2c9, #0x7
    D5_DIR = IN;
    2138:	e8 62 a8    	bset.b    0x2e8, #0x3
    D6_DIR = IN;
    213a:	d9 02 a8    	bset.b    0x2d9, #0x0
    D7_DIR = IN;
    213c:	d9 62 a8    	bset.b    0x2d9, #0x3
    D8_DIR = IN;
    213e:	d9 22 a8    	bset.b    0x2d9, #0x1
    D9_DIR = IN;
    2140:	d9 42 a8    	bset.b    0x2d9, #0x2
    D10_DIR = IN;
    2142:	d8 02 a8    	bset.b    0x2d8, #0x0
    D11_DIR = IN;
    2144:	d8 22 a8    	bset.b    0x2d8, #0x1
    D12_DIR = IN;
    2146:	d8 42 a8    	bset.b    0x2d8, #0x2
    D13_DIR = IN;
    2148:	d8 62 a8    	bset.b    0x2d8, #0x3

    // Configure all pins on the analog header to be inputs
    A0_DIR = IN;
    214a:	c8 a2 a8    	bset.b    0x2c8, #0x5
    A1_DIR = IN;
    214c:	c8 82 a8    	bset.b    0x2c8, #0x4
    A2_DIR = IN;
    214e:	c8 62 a8    	bset.b    0x2c8, #0x3
    A3_DIR = IN;
    2150:	c8 42 a8    	bset.b    0x2c8, #0x2
    A4_DIR = IN;
    2152:	c8 22 a8    	bset.b    0x2c8, #0x1
    A5_DIR = IN;
    2154:	c8 02 a8    	bset.b    0x2c8, #0x0

    // Make all pins digital I/Os except for A0,...,A5
    ANSB = 0x003F;
    2156:	f0 03 20    	mov.w     #0x3f, w0
    2158:	10 27 88    	mov.w     w0, 0x4e2
    ANSC = 0;
    215a:	e4 24 ef    	clr.w     0x4e4
    ANSD = 0;
    215c:	e6 24 ef    	clr.w     0x4e6
    ANSF = 0;
    215e:	ea 24 ef    	clr.w     0x4ea
    ANSG = 0;
    2160:	ec 24 ef    	clr.w     0x4ec

    // Configure and enable the ADC module: 
    //   set output data format to integer (FORM<1:0> = 0b00)
    //   set conversion trigger source select bits to internal counter 
    //     (SSRC<2:0> = 0b111)
    //   set auto-sample time bits to 12*TAD (SAMC<4:0> = 12)
    //   set conversion clock select bits to 64*TCY (ADCS<7:0> = 64)
    //   set initial channel selection to A0
    AD1CON1 = 0x00E0; 
    2162:	00 0e 20    	mov.w     #0xe0, w0
    2164:	00 19 88    	mov.w     w0, 0x320
    AD1CON2 = 0;
    2166:	22 23 ef    	clr.w     0x322
    AD1CON3 = 0x0C40;
    2168:	00 c4 20    	mov.w     #0xc40, w0
    216a:	20 19 88    	mov.w     w0, 0x324
    AD1CHS = A0_AN;
    216c:	50 00 20    	mov.w     #0x5, w0
    216e:	40 19 88    	mov.w     w0, 0x328
    AD1CON1bits.ADON = 1;
    2170:	21 e3 a8    	bset.b    0x321, #0x7

    // Configure LED pins as outputs, set to low (off)
    LED1_DIR = OUT; LED1 = 0;
    2172:	d8 e2 a9    	bclr.b    0x2d8, #0x7
    2174:	dc e2 a9    	bclr.b    0x2dc, #0x7
    LED2_DIR = OUT; LED2 = 0;
    2176:	e8 02 a9    	bclr.b    0x2e8, #0x0
    2178:	ec 02 a9    	bclr.b    0x2ec, #0x0
    LED3_DIR = OUT; LED3 = 0;
    217a:	e8 22 a9    	bclr.b    0x2e8, #0x1
    217c:	ec 22 a9    	bclr.b    0x2ec, #0x1

    // Configure SW pins as inputs
    SW1_DIR = IN;
    217e:	d1 e2 a8    	bset.b    0x2d1, #0x7
    SW2_DIR = IN;
    2180:	d1 82 a8    	bset.b    0x2d1, #0x4
    SW3_DIR = IN;
    2182:	c9 82 a8    	bset.b    0x2c9, #0x4
}
    2184:	00 80 fa    	ulnk      
    2186:	00 00 06    	return    

00002188 <_read_analog>:

uint16_t read_analog(uint16_t pin_an) {
    2188:	02 00 fa    	lnk       #0x2
    218a:	00 0f 78    	mov.w     w0, [w14]
    AD1CHS = pin_an;
    218c:	9e 00 78    	mov.w     [w14], w1
    218e:	41 19 88    	mov.w     w1, 0x328
    AD1CON1bits.SAMP = 1;
    2190:	20 23 a8    	bset.b    0x320, #0x1
    while (AD1CON1bits.DONE == 0) {}
    2192:	00 00 00    	nop       

00002194 <.L3>:
    2194:	00 19 80    	mov.w     0x320, w0
    2196:	61 00 60    	and.w     w0, #0x1, w0
    2198:	00 00 e0    	cp0.w     w0
    219a:	fc ff 32    	bra       Z, 0x2194 <.L3>
    return ADC1BUF0;
    219c:	00 18 80    	mov.w     0x300, w0
}
    219e:	00 80 fa    	ulnk      
    21a0:	00 00 06    	return    

000021a2 <_parity>:
    21a2:	02 00 fa    	lnk       #0x2
    21a4:	00 0f 78    	mov.w     w0, [w14]
    21a6:	1e 00 78    	mov.w     [w14], w0
    21a8:	48 00 de    	lsr.w     w0, #0x8, w0
    21aa:	1e 0f 68    	xor.w     w0, [w14], [w14]
    21ac:	1e 00 78    	mov.w     [w14], w0
    21ae:	44 00 de    	lsr.w     w0, #0x4, w0
    21b0:	1e 0f 68    	xor.w     w0, [w14], [w14]
    21b2:	1e 00 78    	mov.w     [w14], w0
    21b4:	42 00 de    	lsr.w     w0, #0x2, w0
    21b6:	1e 0f 68    	xor.w     w0, [w14], [w14]
    21b8:	1e 00 78    	mov.w     [w14], w0
    21ba:	00 00 d1    	lsr.w     w0, w0
    21bc:	1e 0f 68    	xor.w     w0, [w14], [w14]
    21be:	1e 00 78    	mov.w     [w14], w0
    21c0:	00 40 78    	mov.b     w0, w0
    21c2:	61 40 60    	and.b     w0, #0x1, w0
    21c4:	00 80 fa    	ulnk      
    21c6:	00 00 06    	return    
Disassembly of section .dinit:

000021c8 <.dinit>:
    21c8:	00 08 00    	nop       
    21ca:	38 00 00    	nop       
    21cc:	80 00 00    	nop       
    21ce:	00 00 00    	nop       
Disassembly of section .isr:

000021d0 <__DefaultInterrupt>:
    21d0:	00 40 da    	break     
    21d2:	00 00 fe    	reset     
