
i2ctest.elf:     file format elf32-pic30

Disassembly of section .aivt._AltADC1Interrupt:

0000012e <.aivt._AltADC1Interrupt>:
 12e:	9a 18 00    	nop       
Disassembly of section .aivt._AltAddressError:

00000108 <.aivt._AltAddressError>:
 108:	9a 18 00    	nop       
Disassembly of section .aivt._AltCNInterrupt:

0000013a <.aivt._AltCNInterrupt>:
 13a:	9a 18 00    	nop       
Disassembly of section .aivt._AltCRCInterrupt:

0000019a <.aivt._AltCRCInterrupt>:
 19a:	9a 18 00    	nop       
Disassembly of section .aivt._AltCTMUInterrupt:

000001ae <.aivt._AltCTMUInterrupt>:
 1ae:	9a 18 00    	nop       
Disassembly of section .aivt._AltCompInterrupt:

00000138 <.aivt._AltCompInterrupt>:
 138:	9a 18 00    	nop       
Disassembly of section .aivt._AltIC1Interrupt:

00000116 <.aivt._AltIC1Interrupt>:
 116:	9a 18 00    	nop       
Disassembly of section .aivt._AltIC2Interrupt:

0000011e <.aivt._AltIC2Interrupt>:
 11e:	9a 18 00    	nop       
Disassembly of section .aivt._AltIC3Interrupt:

0000015e <.aivt._AltIC3Interrupt>:
 15e:	9a 18 00    	nop       
Disassembly of section .aivt._AltIC4Interrupt:

00000160 <.aivt._AltIC4Interrupt>:
 160:	9a 18 00    	nop       
Disassembly of section .aivt._AltIC5Interrupt:

00000162 <.aivt._AltIC5Interrupt>:
 162:	9a 18 00    	nop       
Disassembly of section .aivt._AltIC6Interrupt:

00000164 <.aivt._AltIC6Interrupt>:
 164:	9a 18 00    	nop       
Disassembly of section .aivt._AltIC7Interrupt:

00000140 <.aivt._AltIC7Interrupt>:
 140:	9a 18 00    	nop       
Disassembly of section .aivt._AltIC8Interrupt:

00000142 <.aivt._AltIC8Interrupt>:
 142:	9a 18 00    	nop       
Disassembly of section .aivt._AltIC9Interrupt:

000001ce <.aivt._AltIC9Interrupt>:
 1ce:	9a 18 00    	nop       
Disassembly of section .aivt._AltINT0Interrupt:

00000114 <.aivt._AltINT0Interrupt>:
 114:	9a 18 00    	nop       
Disassembly of section .aivt._AltINT1Interrupt:

0000013c <.aivt._AltINT1Interrupt>:
 13c:	9a 18 00    	nop       
Disassembly of section .aivt._AltINT2Interrupt:

0000014e <.aivt._AltINT2Interrupt>:
 14e:	9a 18 00    	nop       
Disassembly of section .aivt._AltINT3Interrupt:

0000017e <.aivt._AltINT3Interrupt>:
 17e:	9a 18 00    	nop       
Disassembly of section .aivt._AltINT4Interrupt:

00000180 <.aivt._AltINT4Interrupt>:
 180:	9a 18 00    	nop       
Disassembly of section .aivt._AltInterrupt14:

00000130 <.aivt._AltInterrupt14>:
 130:	9a 18 00    	nop       
Disassembly of section .aivt._AltInterrupt15:

00000132 <.aivt._AltInterrupt15>:
 132:	9a 18 00    	nop       
Disassembly of section .aivt._AltInterrupt21:

0000013e <.aivt._AltInterrupt21>:
 13e:	9a 18 00    	nop       
Disassembly of section .aivt._AltInterrupt24:

00000144 <.aivt._AltInterrupt24>:
 144:	9a 18 00    	nop       
Disassembly of section .aivt._AltInterrupt34:

00000158 <.aivt._AltInterrupt34>:
 158:	9a 18 00    	nop       
Disassembly of section .aivt._AltInterrupt35:

0000015a <.aivt._AltInterrupt35>:
 15a:	9a 18 00    	nop       
Disassembly of section .aivt._AltInterrupt36:

0000015c <.aivt._AltInterrupt36>:
 15c:	9a 18 00    	nop       
Disassembly of section .aivt._AltInterrupt4:

0000011c <.aivt._AltInterrupt4>:
 11c:	9a 18 00    	nop       
Disassembly of section .aivt._AltInterrupt46:

00000170 <.aivt._AltInterrupt46>:
 170:	9a 18 00    	nop       
Disassembly of section .aivt._AltInterrupt47:

00000172 <.aivt._AltInterrupt47>:
 172:	9a 18 00    	nop       
Disassembly of section .aivt._AltInterrupt48:

00000174 <.aivt._AltInterrupt48>:
 174:	9a 18 00    	nop       
Disassembly of section .aivt._AltInterrupt51:

0000017a <.aivt._AltInterrupt51>:
 17a:	9a 18 00    	nop       
Disassembly of section .aivt._AltInterrupt52:

0000017c <.aivt._AltInterrupt52>:
 17c:	9a 18 00    	nop       
Disassembly of section .aivt._AltInterrupt55:

00000182 <.aivt._AltInterrupt55>:
 182:	9a 18 00    	nop       
Disassembly of section .aivt._AltInterrupt56:

00000184 <.aivt._AltInterrupt56>:
 184:	9a 18 00    	nop       
Disassembly of section .aivt._AltInterrupt57:

00000186 <.aivt._AltInterrupt57>:
 186:	9a 18 00    	nop       
Disassembly of section .aivt._AltInterrupt58:

00000188 <.aivt._AltInterrupt58>:
 188:	9a 18 00    	nop       
Disassembly of section .aivt._AltInterrupt59:

0000018a <.aivt._AltInterrupt59>:
 18a:	9a 18 00    	nop       
Disassembly of section .aivt._AltInterrupt60:

0000018c <.aivt._AltInterrupt60>:
 18c:	9a 18 00    	nop       
Disassembly of section .aivt._AltInterrupt61:

0000018e <.aivt._AltInterrupt61>:
 18e:	9a 18 00    	nop       
Disassembly of section .aivt._AltInterrupt63:

00000192 <.aivt._AltInterrupt63>:
 192:	9a 18 00    	nop       
Disassembly of section .aivt._AltInterrupt64:

00000194 <.aivt._AltInterrupt64>:
 194:	9a 18 00    	nop       
Disassembly of section .aivt._AltInterrupt68:

0000019c <.aivt._AltInterrupt68>:
 19c:	9a 18 00    	nop       
Disassembly of section .aivt._AltInterrupt69:

0000019e <.aivt._AltInterrupt69>:
 19e:	9a 18 00    	nop       
Disassembly of section .aivt._AltInterrupt70:

000001a0 <.aivt._AltInterrupt70>:
 1a0:	9a 18 00    	nop       
Disassembly of section .aivt._AltInterrupt71:

000001a2 <.aivt._AltInterrupt71>:
 1a2:	9a 18 00    	nop       
Disassembly of section .aivt._AltInterrupt73:

000001a6 <.aivt._AltInterrupt73>:
 1a6:	9a 18 00    	nop       
Disassembly of section .aivt._AltInterrupt74:

000001a8 <.aivt._AltInterrupt74>:
 1a8:	9a 18 00    	nop       
Disassembly of section .aivt._AltInterrupt75:

000001aa <.aivt._AltInterrupt75>:
 1aa:	9a 18 00    	nop       
Disassembly of section .aivt._AltInterrupt76:

000001ac <.aivt._AltInterrupt76>:
 1ac:	9a 18 00    	nop       
Disassembly of section .aivt._AltInterrupt78:

000001b0 <.aivt._AltInterrupt78>:
 1b0:	9a 18 00    	nop       
Disassembly of section .aivt._AltInterrupt79:

000001b2 <.aivt._AltInterrupt79>:
 1b2:	9a 18 00    	nop       
Disassembly of section .aivt._AltInterrupt80:

000001b4 <.aivt._AltInterrupt80>:
 1b4:	9a 18 00    	nop       
Disassembly of section .aivt._AltLVDInterrupt:

000001a4 <.aivt._AltLVDInterrupt>:
 1a4:	9a 18 00    	nop       
Disassembly of section .aivt._AltMI2C1Interrupt:

00000136 <.aivt._AltMI2C1Interrupt>:
 136:	9a 18 00    	nop       
Disassembly of section .aivt._AltMI2C2Interrupt:

00000178 <.aivt._AltMI2C2Interrupt>:
 178:	9a 18 00    	nop       
Disassembly of section .aivt._AltMI2C3Interrupt:

000001be <.aivt._AltMI2C3Interrupt>:
 1be:	9a 18 00    	nop       
Disassembly of section .aivt._AltMathError:

0000010c <.aivt._AltMathError>:
 10c:	9a 18 00    	nop       
Disassembly of section .aivt._AltOC1Interrupt:

00000118 <.aivt._AltOC1Interrupt>:
 118:	9a 18 00    	nop       
Disassembly of section .aivt._AltOC2Interrupt:

00000120 <.aivt._AltOC2Interrupt>:
 120:	9a 18 00    	nop       
Disassembly of section .aivt._AltOC3Interrupt:

00000146 <.aivt._AltOC3Interrupt>:
 146:	9a 18 00    	nop       
Disassembly of section .aivt._AltOC4Interrupt:

00000148 <.aivt._AltOC4Interrupt>:
 148:	9a 18 00    	nop       
Disassembly of section .aivt._AltOC5Interrupt:

00000166 <.aivt._AltOC5Interrupt>:
 166:	9a 18 00    	nop       
Disassembly of section .aivt._AltOC6Interrupt:

00000168 <.aivt._AltOC6Interrupt>:
 168:	9a 18 00    	nop       
Disassembly of section .aivt._AltOC7Interrupt:

0000016a <.aivt._AltOC7Interrupt>:
 16a:	9a 18 00    	nop       
Disassembly of section .aivt._AltOC8Interrupt:

0000016c <.aivt._AltOC8Interrupt>:
 16c:	9a 18 00    	nop       
Disassembly of section .aivt._AltOC9Interrupt:

000001cc <.aivt._AltOC9Interrupt>:
 1cc:	9a 18 00    	nop       
Disassembly of section .aivt._AltOscillatorFail:

00000106 <.aivt._AltOscillatorFail>:
 106:	9a 18 00    	nop       
Disassembly of section .aivt._AltPMPInterrupt:

0000016e <.aivt._AltPMPInterrupt>:
 16e:	9a 18 00    	nop       
Disassembly of section .aivt._AltRTCCInterrupt:

00000190 <.aivt._AltRTCCInterrupt>:
 190:	9a 18 00    	nop       
Disassembly of section .aivt._AltReservedTrap0:

00000104 <.aivt._AltReservedTrap0>:
 104:	9a 18 00    	nop       
Disassembly of section .aivt._AltReservedTrap5:

0000010e <.aivt._AltReservedTrap5>:
 10e:	9a 18 00    	nop       
Disassembly of section .aivt._AltReservedTrap6:

00000110 <.aivt._AltReservedTrap6>:
 110:	9a 18 00    	nop       
Disassembly of section .aivt._AltReservedTrap7:

00000112 <.aivt._AltReservedTrap7>:
 112:	9a 18 00    	nop       
Disassembly of section .aivt._AltSI2C1Interrupt:

00000134 <.aivt._AltSI2C1Interrupt>:
 134:	9a 18 00    	nop       
Disassembly of section .aivt._AltSI2C2Interrupt:

00000176 <.aivt._AltSI2C2Interrupt>:
 176:	9a 18 00    	nop       
Disassembly of section .aivt._AltSI2C3Interrupt:

000001bc <.aivt._AltSI2C3Interrupt>:
 1bc:	9a 18 00    	nop       
Disassembly of section .aivt._AltSPI1ErrInterrupt:

00000126 <.aivt._AltSPI1ErrInterrupt>:
 126:	9a 18 00    	nop       
Disassembly of section .aivt._AltSPI1Interrupt:

00000128 <.aivt._AltSPI1Interrupt>:
 128:	9a 18 00    	nop       
Disassembly of section .aivt._AltSPI2ErrInterrupt:

00000154 <.aivt._AltSPI2ErrInterrupt>:
 154:	9a 18 00    	nop       
Disassembly of section .aivt._AltSPI2Interrupt:

00000156 <.aivt._AltSPI2Interrupt>:
 156:	9a 18 00    	nop       
Disassembly of section .aivt._AltSPI3ErrInterrupt:

000001c8 <.aivt._AltSPI3ErrInterrupt>:
 1c8:	9a 18 00    	nop       
Disassembly of section .aivt._AltSPI3Interrupt:

000001ca <.aivt._AltSPI3Interrupt>:
 1ca:	9a 18 00    	nop       
Disassembly of section .aivt._AltStackError:

0000010a <.aivt._AltStackError>:
 10a:	9a 18 00    	nop       
Disassembly of section .aivt._AltT1Interrupt:

0000011a <.aivt._AltT1Interrupt>:
 11a:	9a 18 00    	nop       
Disassembly of section .aivt._AltT2Interrupt:

00000122 <.aivt._AltT2Interrupt>:
 122:	9a 18 00    	nop       
Disassembly of section .aivt._AltT3Interrupt:

00000124 <.aivt._AltT3Interrupt>:
 124:	9a 18 00    	nop       
Disassembly of section .aivt._AltT4Interrupt:

0000014a <.aivt._AltT4Interrupt>:
 14a:	9a 18 00    	nop       
Disassembly of section .aivt._AltT5Interrupt:

0000014c <.aivt._AltT5Interrupt>:
 14c:	9a 18 00    	nop       
Disassembly of section .aivt._AltU1ErrInterrupt:

00000196 <.aivt._AltU1ErrInterrupt>:
 196:	9a 18 00    	nop       
Disassembly of section .aivt._AltU1RXInterrupt:

0000012a <.aivt._AltU1RXInterrupt>:
 12a:	9a 18 00    	nop       
Disassembly of section .aivt._AltU1TXInterrupt:

0000012c <.aivt._AltU1TXInterrupt>:
 12c:	9a 18 00    	nop       
Disassembly of section .aivt._AltU2ErrInterrupt:

00000198 <.aivt._AltU2ErrInterrupt>:
 198:	9a 18 00    	nop       
Disassembly of section .aivt._AltU2RXInterrupt:

00000150 <.aivt._AltU2RXInterrupt>:
 150:	9a 18 00    	nop       
Disassembly of section .aivt._AltU2TXInterrupt:

00000152 <.aivt._AltU2TXInterrupt>:
 152:	9a 18 00    	nop       
Disassembly of section .aivt._AltU3ErrInterrupt:

000001b6 <.aivt._AltU3ErrInterrupt>:
 1b6:	9a 18 00    	nop       
Disassembly of section .aivt._AltU3RXInterrupt:

000001b8 <.aivt._AltU3RXInterrupt>:
 1b8:	9a 18 00    	nop       
Disassembly of section .aivt._AltU3TXInterrupt:

000001ba <.aivt._AltU3TXInterrupt>:
 1ba:	9a 18 00    	nop       
Disassembly of section .aivt._AltU4ErrInterrupt:

000001c2 <.aivt._AltU4ErrInterrupt>:
 1c2:	9a 18 00    	nop       
Disassembly of section .aivt._AltU4RXInterrupt:

000001c4 <.aivt._AltU4RXInterrupt>:
 1c4:	9a 18 00    	nop       
Disassembly of section .aivt._AltU4TXInterrupt:

000001c6 <.aivt._AltU4TXInterrupt>:
 1c6:	9a 18 00    	nop       
Disassembly of section .aivt._AltUSB1Interrupt:

000001c0 <.aivt._AltUSB1Interrupt>:
 1c0:	9a 18 00    	nop       
Disassembly of section .reset:

00000000 <.reset>:
   0:	10 11 04    	goto      0x1110 <__reset>
   2:	00 00 00 
Disassembly of section .text:

00001110 <__reset>:
    1110:	6f 01 21    	mov.w     #0x1016, w15
    1112:	0e ff 27    	mov.w     #0x7ff0, w14
    1114:	0e 01 88    	mov.w     w14, 0x20
    1116:	00 00 00    	nop       
    1118:	00 00 20    	mov.w     #0x0, w0
    111a:	00 00 e0    	cp0.w     w0
    111c:	02 00 32    	bra       Z, 0x1122 <CORCON_RESET>
    111e:	00 01 20    	mov.w     #0x10, w0
    1120:	20 02 88    	mov.w     w0, 0x44

00001122 <CORCON_RESET>:
    1122:	14 00 07    	rcall     0x114c <__psv_init>
    1124:	77 00 07    	rcall     0x1214 <__crt_start_mode> <__crt_start_mode_normal>
    1126:	00 00 e0    	cp0.w     w0
    1128:	03 00 3a    	bra       NZ, 0x1130 <L11>
    112a:	c0 88 21    	mov.w     #0x188c, w0
    112c:	01 00 20    	mov.w     #0x0, w1
    112e:	02 00 37    	bra       0x1134 <L21>

00001130 <L11>:
    1130:	00 00 20    	mov.w     #0x0, w0
    1132:	01 00 20    	mov.w     #0x0, w1

00001134 <L21>:
    1134:	81 0f 70    	ior.w     w0, w1, [w15]
    1136:	01 00 32    	bra       Z, 0x113a <L12>
    1138:	14 00 07    	rcall     0x1162 <__data_init> <__data_init_da>

0000113a <L12>:
    113a:	00 00 20    	mov.w     #0x0, w0
    113c:	00 00 e0    	cp0.w     w0
    113e:	02 00 32    	bra       Z, 0x1144 <L13>
    1140:	00 00 02    	call      0x0 <__DEFAULT_VECTOR-0x110c>
    1142:	00 00 00 

00001144 <L13>:
    1144:	44 18 02    	call      0x1844 <_main>
    1146:	00 00 00 
    1148:	00 40 da    	break     
    114a:	00 00 fe    	reset     

0000114c <__psv_init>:
    114c:	44 40 a9    	bclr.b    0x44, #0x2
    114e:	e0 00 20    	mov.w     #0xe, w0
    1150:	00 00 e0    	cp0.w     w0
    1152:	03 00 32    	bra       Z, 0x115a <L14>
    1154:	00 20 20    	mov.w     #0x200, w0
    1156:	90 01 88    	mov.w     w0, 0x32
    1158:	44 40 a8    	bset.b    0x44, #0x2

0000115a <L14>:
    115a:	00 00 06    	return    

0000115c <__long_indirect_call>:
    115c:	8a 1f 78    	mov.w     w10, [w15++]
    115e:	8b 1f 78    	mov.w     w11, [w15++]
    1160:	00 00 06    	return    

00001162 <__data_init>:
    1162:	a1 02 88    	mov.w     w1, 0x54
    1164:	80 04 78    	mov.w     w0, w9
    1166:	00 00 eb    	clr.w     w0
    1168:	1f 00 37    	bra       0x11a8 <L41>

0000116a <L11>:
    116a:	e2 84 44    	add.w     w9, #0x2, w9
    116c:	54 a0 b4    	addc.w    0x54
    116e:	99 05 ba    	tblrdl.w  [w9], w11
    1170:	e2 84 44    	add.w     w9, #0x2, w9
    1172:	54 a0 b4    	addc.w    0x54
    1174:	99 06 ba    	tblrdl.w  [w9], w13
    1176:	e2 84 44    	add.w     w9, #0x2, w9
    1178:	54 a0 b4    	addc.w    0x54
    117a:	00 06 eb    	clr.w     w12
    117c:	47 6f de    	lsr.w     w13, #0x7, w14
    117e:	fd 07 b2    	and.w     #0x7f, w13
    1180:	ae 01 88    	mov.w     w14, 0x34
    1182:	63 6c e1    	cp.b      w13, #0x3
    1184:	03 00 3a    	bra       NZ, 0x118c <L21>
    1186:	ea ff 07    	rcall     0x115c <__long_indirect_call>
    1188:	00 00 eb    	clr.w     w0
    118a:	0e 00 37    	bra       0x11a8 <L41>

0000118c <L21>:
    118c:	60 6c e1    	cp.b      w13, #0x0
    118e:	08 00 3a    	bra       NZ, 0x11a0 <L22>

00001190 <L91>:
    1190:	00 4d eb    	clr.b     [w10]
    1192:	0a 05 e8    	inc.w     w10, w10
    1194:	02 00 39    	bra       NC, 0x119a <L81>
    1196:	34 20 ec    	inc.w     0x34
    1198:	0a f0 a0    	bset.w    w10, #0xf

0000119a <L81>:
    119a:	8b 05 e9    	dec.w     w11, w11
    119c:	f9 ff 3e    	bra       GTU, 0x1190 <L91>
    119e:	04 00 37    	bra       0x11a8 <L41>

000011a0 <L22>:
    11a0:	61 68 e1    	cp.w      w13, #0x1
    11a2:	01 00 32    	bra       Z, 0x11a6 <L31>
    11a4:	00 86 eb    	setm.w    w12

000011a6 <L31>:
    11a6:	0b 00 07    	rcall     0x11be <L13> <__memcpyd3extended>

000011a8 <L41>:
    11a8:	19 c7 ba    	tblrdh.b  [w9], w14
    11aa:	19 05 ba    	tblrdl.w  [w9], w10
    11ac:	0e 04 e0    	cp0.b     w14
    11ae:	03 00 3a    	bra       NZ, 0x11b6 <L12>
    11b0:	0a 00 e0    	cp0.w     w10
    11b2:	db ff 3a    	bra       NZ, 0x116a <L11>
    11b4:	00 00 06    	return    

000011b6 <L12>:
    11b6:	fe 07 b2    	and.w     #0x7f, w14
    11b8:	ae 02 88    	mov.w     w14, 0x54
    11ba:	8a 04 78    	mov.w     w10, w9
    11bc:	f5 ff 37    	bra       0x11a8 <L41>

000011be <L13>:
    11be:	0c d0 a3    	btst.c    w12, #0xd
    11c0:	e2 0f 4d    	addc.w    w10, #0x2, [w15]
    11c2:	1c 00 39    	bra       NC, 0x11fc <L23>
    11c4:	89 02 78    	mov.w     w9, w5
    11c6:	35 4d ba    	tblrdl.b  [w5++], [w10]
    11c8:	0a 05 e8    	inc.w     w10, w10
    11ca:	02 00 39    	bra       NC, 0x11d0 <L32>
    11cc:	34 20 ec    	inc.w     0x34
    11ce:	0a f0 a0    	bset.w    w10, #0xf

000011d0 <L32>:
    11d0:	8b 05 e9    	dec.w     w11, w11
    11d2:	0f 00 32    	bra       Z, 0x11f2 <L42>
    11d4:	25 4d ba    	tblrdl.b  [w5--], [w10]
    11d6:	0a 05 e8    	inc.w     w10, w10
    11d8:	02 00 39    	bra       NC, 0x11de <L33>
    11da:	34 20 ec    	inc.w     0x34
    11dc:	0a f0 a0    	bset.w    w10, #0xf

000011de <L33>:
    11de:	8b 05 e9    	dec.w     w11, w11
    11e0:	08 00 32    	bra       Z, 0x11f2 <L42>
    11e2:	0c 00 e0    	cp0.w     w12
    11e4:	06 00 32    	bra       Z, 0x11f2 <L42>
    11e6:	15 cd ba    	tblrdh.b  [w5], [w10]
    11e8:	0a 05 e8    	inc.w     w10, w10
    11ea:	02 00 39    	bra       NC, 0x11f0 <L34>
    11ec:	34 20 ec    	inc.w     0x34
    11ee:	0a f0 a0    	bset.w    w10, #0xf

000011f0 <L34>:
    11f0:	8b 05 e9    	dec.w     w11, w11

000011f2 <L42>:
    11f2:	89 84 e8    	inc2.w    w9, w9
    11f4:	54 a0 b4    	addc.w    0x54
    11f6:	0b 00 e0    	cp0.w     w11
    11f8:	e2 ff 3a    	bra       NZ, 0x11be <L13> <__memcpyd3extended>
    11fa:	00 00 06    	return    

000011fc <L23>:
    11fc:	99 02 ba    	tblrdl.w  [w9], w5
    11fe:	05 5d 78    	mov.b     w5, [w10++]
    1200:	8b 05 e9    	dec.w     w11, w11
    1202:	f7 ff 32    	bra       Z, 0x11f2 <L42>
    1204:	c8 2a de    	lsr.w     w5, #0x8, w5
    1206:	05 5d 78    	mov.b     w5, [w10++]
    1208:	8b 05 e9    	dec.w     w11, w11
    120a:	f3 ff 32    	bra       Z, 0x11f2 <L42>
    120c:	0c 00 e0    	cp0.w     w12
    120e:	f1 ff 32    	bra       Z, 0x11f2 <L42>
    1210:	19 dd ba    	tblrdh.b  [w9], [w10++]
    1212:	ee ff 37    	bra       0x11f0 <L34>

00001214 <__crt_start_mode>:
    1214:	00 00 05    	retlw.w   #0x0, w0
Disassembly of section .application_ivt:

00001000 <__DEFAULT_VECTOR-0x10c>:
    1000:	10 11 04    	goto      0x1110 <__reset>
    1002:	00 00 00 
    1004:	9a 18 04    	goto      0x189a <__DefaultInterrupt>
    1006:	00 00 00 
    1008:	9a 18 04    	goto      0x189a <__DefaultInterrupt>
    100a:	00 00 00 
    100c:	9a 18 04    	goto      0x189a <__DefaultInterrupt>
    100e:	00 00 00 
    1010:	9a 18 04    	goto      0x189a <__DefaultInterrupt>
    1012:	00 00 00 
    1014:	9a 18 04    	goto      0x189a <__DefaultInterrupt>
    1016:	00 00 00 
    1018:	9a 18 04    	goto      0x189a <__DefaultInterrupt>
    101a:	00 00 00 
    101c:	9a 18 04    	goto      0x189a <__DefaultInterrupt>
    101e:	00 00 00 
    1020:	9a 18 04    	goto      0x189a <__DefaultInterrupt>
    1022:	00 00 00 
    1024:	9a 18 04    	goto      0x189a <__DefaultInterrupt>
    1026:	00 00 00 
    1028:	9a 18 04    	goto      0x189a <__DefaultInterrupt>
    102a:	00 00 00 
    102c:	9a 18 04    	goto      0x189a <__DefaultInterrupt>
    102e:	00 00 00 
    1030:	9a 18 04    	goto      0x189a <__DefaultInterrupt>
    1032:	00 00 00 
    1034:	9a 18 04    	goto      0x189a <__DefaultInterrupt>
    1036:	00 00 00 
    1038:	9a 18 04    	goto      0x189a <__DefaultInterrupt>
    103a:	00 00 00 
    103c:	9a 18 04    	goto      0x189a <__DefaultInterrupt>
    103e:	00 00 00 
    1040:	74 17 04    	goto      0x1774 <__U1RXInterrupt>
    1042:	00 00 00 
    1044:	12 17 04    	goto      0x1712 <__U1TXInterrupt>
    1046:	00 00 00 
    1048:	9a 18 04    	goto      0x189a <__DefaultInterrupt>
    104a:	00 00 00 
    104c:	9a 18 04    	goto      0x189a <__DefaultInterrupt>
    104e:	00 00 00 
    1050:	9a 18 04    	goto      0x189a <__DefaultInterrupt>
    1052:	00 00 00 
    1054:	9a 18 04    	goto      0x189a <__DefaultInterrupt>
    1056:	00 00 00 
    1058:	9a 18 04    	goto      0x189a <__DefaultInterrupt>
    105a:	00 00 00 
    105c:	9a 18 04    	goto      0x189a <__DefaultInterrupt>
    105e:	00 00 00 
    1060:	9a 18 04    	goto      0x189a <__DefaultInterrupt>
    1062:	00 00 00 
    1064:	9a 18 04    	goto      0x189a <__DefaultInterrupt>
    1066:	00 00 00 
    1068:	9a 18 04    	goto      0x189a <__DefaultInterrupt>
    106a:	00 00 00 
    106c:	9a 18 04    	goto      0x189a <__DefaultInterrupt>
    106e:	00 00 00 
    1070:	9a 18 04    	goto      0x189a <__DefaultInterrupt>
    1072:	00 00 00 
    1074:	9a 18 04    	goto      0x189a <__DefaultInterrupt>
    1076:	00 00 00 
    1078:	9a 18 04    	goto      0x189a <__DefaultInterrupt>
    107a:	00 00 00 
    107c:	9a 18 04    	goto      0x189a <__DefaultInterrupt>
    107e:	00 00 00 
    1080:	9a 18 04    	goto      0x189a <__DefaultInterrupt>
    1082:	00 00 00 
    1084:	9a 18 04    	goto      0x189a <__DefaultInterrupt>
    1086:	00 00 00 
    1088:	9a 18 04    	goto      0x189a <__DefaultInterrupt>
    108a:	00 00 00 
    108c:	9a 18 04    	goto      0x189a <__DefaultInterrupt>
    108e:	00 00 00 
    1090:	9a 18 04    	goto      0x189a <__DefaultInterrupt>
    1092:	00 00 00 
    1094:	9a 18 04    	goto      0x189a <__DefaultInterrupt>
    1096:	00 00 00 
    1098:	9a 18 04    	goto      0x189a <__DefaultInterrupt>
    109a:	00 00 00 
    109c:	9a 18 04    	goto      0x189a <__DefaultInterrupt>
    109e:	00 00 00 
    10a0:	9a 18 04    	goto      0x189a <__DefaultInterrupt>
    10a2:	00 00 00 
    10a4:	9a 18 04    	goto      0x189a <__DefaultInterrupt>
    10a6:	00 00 00 
    10a8:	9a 18 04    	goto      0x189a <__DefaultInterrupt>
    10aa:	00 00 00 
    10ac:	9a 18 04    	goto      0x189a <__DefaultInterrupt>
    10ae:	00 00 00 
    10b0:	9a 18 04    	goto      0x189a <__DefaultInterrupt>
    10b2:	00 00 00 
    10b4:	9a 18 04    	goto      0x189a <__DefaultInterrupt>
    10b6:	00 00 00 
    10b8:	9a 18 04    	goto      0x189a <__DefaultInterrupt>
    10ba:	00 00 00 
    10bc:	9a 18 04    	goto      0x189a <__DefaultInterrupt>
    10be:	00 00 00 
    10c0:	9a 18 04    	goto      0x189a <__DefaultInterrupt>
    10c2:	00 00 00 
    10c4:	9a 18 04    	goto      0x189a <__DefaultInterrupt>
    10c6:	00 00 00 
    10c8:	9a 18 04    	goto      0x189a <__DefaultInterrupt>
    10ca:	00 00 00 
    10cc:	9a 18 04    	goto      0x189a <__DefaultInterrupt>
    10ce:	00 00 00 
    10d0:	9a 18 04    	goto      0x189a <__DefaultInterrupt>
    10d2:	00 00 00 
    10d4:	9a 18 04    	goto      0x189a <__DefaultInterrupt>
    10d6:	00 00 00 
    10d8:	9a 18 04    	goto      0x189a <__DefaultInterrupt>
    10da:	00 00 00 
    10dc:	9a 18 04    	goto      0x189a <__DefaultInterrupt>
    10de:	00 00 00 
    10e0:	9a 18 04    	goto      0x189a <__DefaultInterrupt>
    10e2:	00 00 00 
    10e4:	9a 18 04    	goto      0x189a <__DefaultInterrupt>
    10e6:	00 00 00 
    10e8:	9a 18 04    	goto      0x189a <__DefaultInterrupt>
    10ea:	00 00 00 
    10ec:	9a 18 04    	goto      0x189a <__DefaultInterrupt>
    10ee:	00 00 00 
    10f0:	9a 18 04    	goto      0x189a <__DefaultInterrupt>
    10f2:	00 00 00 
    10f4:	9a 18 04    	goto      0x189a <__DefaultInterrupt>
    10f6:	00 00 00 
    10f8:	9a 18 04    	goto      0x189a <__DefaultInterrupt>
    10fa:	00 00 00 
    10fc:	9a 18 04    	goto      0x189a <__DefaultInterrupt>
    10fe:	00 00 00 
    1100:	9a 18 04    	goto      0x189a <__DefaultInterrupt>
    1102:	00 00 00 
    1104:	9a 18 04    	goto      0x189a <__DefaultInterrupt>
    1106:	00 00 00 
    1108:	9a 18 04    	goto      0x189a <__DefaultInterrupt>
    110a:	00 00 00 

0000110c <__DEFAULT_VECTOR>:
    110c:	9a 18 04    	goto      0x189a <__DefaultInterrupt>
    110e:	00 00 00 
Disassembly of section .ivt:

00000004 <.ivt>:
   4:	04 10 00    	nop       
   6:	08 10 00    	nop       
   8:	0c 10 00    	nop       
   a:	10 10 00    	nop       
   c:	14 10 00    	nop       
   e:	0c 11 00    	nop       
  10:	0c 11 00    	nop       
  12:	0c 11 00    	nop       
  14:	18 10 00    	nop       
  16:	1c 10 00    	nop       
  18:	20 10 00    	nop       
  1a:	24 10 00    	nop       
  1c:	0c 11 00    	nop       
  1e:	28 10 00    	nop       
  20:	2c 10 00    	nop       
  22:	30 10 00    	nop       
  24:	34 10 00    	nop       
  26:	38 10 00    	nop       
  28:	3c 10 00    	nop       
  2a:	40 10 00    	nop       
  2c:	44 10 00    	nop       
  2e:	48 10 00    	nop       
  30:	0c 11 00    	nop       
  32:	0c 11 00    	nop       
  34:	4c 10 00    	nop       
  36:	50 10 00    	nop       
  38:	54 10 00    	nop       
  3a:	58 10 00    	nop       
  3c:	5c 10 00    	nop       
  3e:	0c 11 00    	nop       
  40:	60 10 00    	nop       
  42:	64 10 00    	nop       
  44:	0c 11 00    	nop       
  46:	68 10 00    	nop       
  48:	6c 10 00    	nop       
  4a:	70 10 00    	nop       
  4c:	74 10 00    	nop       
  4e:	78 10 00    	nop       
  50:	7c 10 00    	nop       
  52:	80 10 00    	nop       
  54:	84 10 00    	nop       
  56:	88 10 00    	nop       
  58:	0c 11 00    	nop       
  5a:	0c 11 00    	nop       
  5c:	0c 11 00    	nop       
  5e:	8c 10 00    	nop       
  60:	90 10 00    	nop       
  62:	94 10 00    	nop       
  64:	98 10 00    	nop       
  66:	9c 10 00    	nop       
  68:	a0 10 00    	nop       
  6a:	a4 10 00    	nop       
  6c:	a8 10 00    	nop       
  6e:	ac 10 00    	nop       
  70:	0c 11 00    	nop       
  72:	0c 11 00    	nop       
  74:	0c 11 00    	nop       
  76:	b0 10 00    	nop       
  78:	b4 10 00    	nop       
  7a:	0c 11 00    	nop       
  7c:	0c 11 00    	nop       
  7e:	b8 10 00    	nop       
  80:	bc 10 00    	nop       
  82:	0c 11 00    	nop       
  84:	0c 11 00    	nop       
  86:	0c 11 00    	nop       
  88:	0c 11 00    	nop       
  8a:	0c 11 00    	nop       
  8c:	0c 11 00    	nop       
  8e:	0c 11 00    	nop       
  90:	c0 10 00    	nop       
  92:	0c 11 00    	nop       
  94:	0c 11 00    	nop       
  96:	c4 10 00    	nop       
  98:	c8 10 00    	nop       
  9a:	cc 10 00    	nop       
  9c:	0c 11 00    	nop       
  9e:	0c 11 00    	nop       
  a0:	0c 11 00    	nop       
  a2:	0c 11 00    	nop       
  a4:	d0 10 00    	nop       
  a6:	0c 11 00    	nop       
  a8:	0c 11 00    	nop       
  aa:	0c 11 00    	nop       
  ac:	0c 11 00    	nop       
  ae:	d4 10 00    	nop       
  b0:	0c 11 00    	nop       
  b2:	0c 11 00    	nop       
  b4:	0c 11 00    	nop       
  b6:	d8 10 00    	nop       
  b8:	dc 10 00    	nop       
  ba:	e0 10 00    	nop       
  bc:	e4 10 00    	nop       
  be:	e8 10 00    	nop       
  c0:	ec 10 00    	nop       
  c2:	f0 10 00    	nop       
  c4:	f4 10 00    	nop       
  c6:	f8 10 00    	nop       
  c8:	fc 10 00    	nop       
  ca:	00 11 00    	nop       
  cc:	04 11 00    	nop       
  ce:	08 11 00    	nop       
  d0:	0c 11 00    	nop       
  d2:	0c 11 00    	nop       
  d4:	0c 11 00    	nop       
  d6:	0c 11 00    	nop       
  d8:	0c 11 00    	nop       
  da:	0c 11 00    	nop       
  dc:	0c 11 00    	nop       
  de:	0c 11 00    	nop       
  e0:	0c 11 00    	nop       
  e2:	0c 11 00    	nop       
  e4:	0c 11 00    	nop       
  e6:	0c 11 00    	nop       
  e8:	0c 11 00    	nop       
  ea:	0c 11 00    	nop       
  ec:	0c 11 00    	nop       
  ee:	0c 11 00    	nop       
  f0:	0c 11 00    	nop       
  f2:	0c 11 00    	nop       
  f4:	0c 11 00    	nop       
  f6:	0c 11 00    	nop       
  f8:	0c 11 00    	nop       
  fa:	0c 11 00    	nop       
  fc:	0c 11 00    	nop       
  fe:	0c 11 00    	nop       
Disassembly of section .const:

00009216 <.LC0>:
    9216:	48 65       	.word 0x6548
    9218:	6c 6c       	.word 0x6c6c
    921a:	6f 20       	.word 0x206f
    921c:	57 6f       	.word 0x6f57
    921e:	72 6c       	.word 0x6c72
    9220:	64 21       	.word 0x2164
    9222:	00 00       	.word 0
Disassembly of section .text:

00001224 <_init_ajuart>:
uint8_t U1TXbuffer[U1_TX_BUFFER_LENGTH];
uint8_t U1RXbuffer[U1_RX_BUFFER_LENGTH];
uint16_t U1_tx_threshold;

void init_ajuart(void) {
    1224:	04 00 fa    	lnk       #0x4
    uint8_t *RPOR, *RPINR;

    // Configure audio jack UART pins and connect them to UART1
    AJ_TX_DIR = OUT; AJ_TX = 1;
    1226:	f0 c2 a9    	bclr.b    0x2f0, #0x6
    1228:	f2 c2 a8    	bset.b    0x2f2, #0x6
    AJ_RX_DIR = IN;
    122a:	f0 e2 a8    	bset.b    0x2f0, #0x7

    RPOR = (uint8_t *)&RPOR0;
    122c:	00 6c 20    	mov.w     #0x6c0, w0
    122e:	00 0f 78    	mov.w     w0, [w14]
    RPINR = (uint8_t *)&RPINR0;
    1230:	00 68 20    	mov.w     #0x680, w0
    1232:	10 07 98    	mov.w     w0, [w14+2]

    __builtin_write_OSCCONL(OSCCON & 0xBF);
    1234:	11 3a 80    	mov.w     0x742, w1
    1236:	f0 0b 20    	mov.w     #0xbf, w0
    1238:	00 81 60    	and.w     w1, w0, w2
    123a:	60 04 20    	mov.w     #0x46, w0
    123c:	71 05 20    	mov.w     #0x57, w1
    123e:	23 74 20    	mov.w     #0x742, w3
    1240:	80 49 78    	mov.b     w0, [w3]
    1242:	81 49 78    	mov.b     w1, [w3]
    1244:	82 49 78    	mov.b     w2, [w3]
    RPINR[U1RX_RP] = AJ_RX_RP;
    1246:	1e 00 90    	mov.w     [w14+2], w0
    1248:	40 02 b0    	add.w     #0x24, w0
    124a:	a1 c1 b3    	mov.b     #0x1a, w1
    124c:	01 48 78    	mov.b     w1, [w0]
    RPOR[AJ_TX_RP] = U1TX_RP;
    124e:	9e 00 78    	mov.w     [w14], w1
    1250:	75 80 40    	add.w     w1, #0x15, w0
    1252:	31 c0 b3    	mov.b     #0x3, w1
    1254:	01 48 78    	mov.b     w1, [w0]
    __builtin_write_OSCCONL(OSCCON | 0x40);
    1256:	10 3a 80    	mov.w     0x742, w0
    1258:	00 01 78    	mov.w     w0, w2
    125a:	02 60 a0    	bset.w    w2, #0x6
    125c:	60 04 20    	mov.w     #0x46, w0
    125e:	71 05 20    	mov.w     #0x57, w1
    1260:	23 74 20    	mov.w     #0x742, w3
    1262:	80 49 78    	mov.b     w0, [w3]
    1264:	81 49 78    	mov.b     w1, [w3]
    1266:	82 49 78    	mov.b     w2, [w3]

    U1MODE = 0x0008;                // configure UART1 for transmission at
    1268:	80 00 20    	mov.w     #0x8, w0
    126a:	00 11 88    	mov.w     w0, 0x220
    U1BRG = 0x0022;                 //   115,200 baud, no parity, 1 stop bit
    126c:	20 02 20    	mov.w     #0x22, w0
    126e:	40 11 88    	mov.w     w0, 0x228

    U1_tx_buffer.data = U1TXbuffer;
    1270:	60 81 20    	mov.w     #0x816, w0
    1272:	10 40 88    	mov.w     w0, 0x802
    U1_tx_buffer.length = U1_TX_BUFFER_LENGTH;
    1274:	00 40 20    	mov.w     #0x400, w0
    1276:	20 40 88    	mov.w     w0, 0x804
    U1_tx_buffer.head = 0;
    1278:	00 00 eb    	clr.w     w0
    127a:	30 40 88    	mov.w     w0, 0x806
    U1_tx_buffer.tail = 0;
    127c:	00 00 eb    	clr.w     w0
    127e:	40 40 88    	mov.w     w0, 0x808
    U1_tx_buffer.count = 0;
    1280:	00 00 eb    	clr.w     w0
    1282:	50 40 88    	mov.w     w0, 0x80a
    U1_tx_threshold = 3 * U1_TX_BUFFER_LENGTH / 4;
    1284:	00 30 20    	mov.w     #0x300, w0
    1286:	00 40 88    	mov.w     w0, 0x800

    U1_rx_buffer.data = U1RXbuffer;
    1288:	60 c1 20    	mov.w     #0xc16, w0
    128a:	60 40 88    	mov.w     w0, 0x80c
    U1_rx_buffer.length = U1_RX_BUFFER_LENGTH;
    128c:	00 40 20    	mov.w     #0x400, w0
    128e:	70 40 88    	mov.w     w0, 0x80e
    U1_rx_buffer.head = 0;
    1290:	00 00 eb    	clr.w     w0
    1292:	80 40 88    	mov.w     w0, 0x810
    U1_rx_buffer.tail = 0;
    1294:	00 00 eb    	clr.w     w0
    1296:	90 40 88    	mov.w     w0, 0x812
    U1_rx_buffer.count = 0;
    1298:	00 00 eb    	clr.w     w0
    129a:	a0 40 88    	mov.w     w0, 0x814

    U1STAbits.UTXISEL1 = 0;         // set UART1 UTXISEL<1:0> = 01, TX interrupt
    129c:	23 e2 a9    	bclr.b    0x223, #0x7
    U1STAbits.UTXISEL0 = 1;         //   when all transmit operations are done
    129e:	23 a2 a8    	bset.b    0x223, #0x5

    IFS0bits.U1TXIF = 0;            // lower UART1 TX interrupt flag
    12a0:	85 80 a9    	bclr.b    0x85, #0x4
    IEC0bits.U1TXIE = 1;            // enable UART1 TX interrupt
    12a2:	95 80 a8    	bset.b    0x95, #0x4

    IFS0bits.U1RXIF = 0;            // lower UART1 RX interrupt flag
    12a4:	85 60 a9    	bclr.b    0x85, #0x3
    IEC0bits.U1RXIE = 1;            // enable UART1 RX interrupt
    12a6:	95 60 a8    	bset.b    0x95, #0x3

    U1MODEbits.UARTEN = 1;          // enable UART1 module
    12a8:	21 e2 a8    	bset.b    0x221, #0x7
    U1STAbits.UTXEN = 1;            // enable UART1 data transmission
    12aa:	23 42 a8    	bset.b    0x223, #0x2
}
    12ac:	00 80 fa    	ulnk      
    12ae:	00 00 06    	return    

000012b0 <_U1_in_waiting>:

void __attribute__((interrupt, auto_psv)) _U1TXInterrupt(void) {
    uint8_t ch;

    IFS0bits.U1TXIF = 0;            // lower UART1 TX interrupt flag

    if (U1_tx_buffer.count == 0)    // if nothing left in UART1 TX buffer, 
        U1STAbits.UTXEN = 0;        //   disable data transmission

    while ((U1STAbits.UTXBF == 0) && (U1_tx_buffer.count != 0)) {
        disable_interrupts();
        ch = U1_tx_buffer.data[U1_tx_buffer.head];
        U1_tx_buffer.head++;
        if (U1_tx_buffer.head == U1_tx_buffer.length)
            U1_tx_buffer.head = 0;
        U1_tx_buffer.count--;
        enable_interrupts();
        U1TXREG = (uint16_t)ch;
    }
}

void __attribute__((interrupt, auto_psv)) _U1RXInterrupt(void) {
    IFS0bits.U1RXIF = 0;            // lower UART1 RX interrupt flag

    while ((U1STAbits.URXDA == 1) && (U1_rx_buffer.count != U1_rx_buffer.length)) {
        disable_interrupts();
        U1_rx_buffer.data[U1_rx_buffer.tail] = (uint8_t)U1RXREG;
        U1_rx_buffer.tail++;
        if (U1_rx_buffer.tail == U1_rx_buffer.length)
            U1_rx_buffer.tail = 0;
        U1_rx_buffer.count++;
        enable_interrupts();
    }
}

uint16_t U1_in_waiting(void) {
    12b0:	00 00 fa    	lnk       #0x0
    return U1_rx_buffer.count;
    12b2:	a0 40 80    	mov.w     0x814, w0
}
    12b4:	00 80 fa    	ulnk      
    12b6:	00 00 06    	return    

000012b8 <_U1_flush_tx_buffer>:

void U1_flush_tx_buffer(void) {
    12b8:	00 00 fa    	lnk       #0x0
    if (U1STAbits.UTXEN == 0)       // if UART1 transmission is disabled,
    12ba:	11 11 80    	mov.w     0x222, w1
    12bc:	00 40 20    	mov.w     #0x400, w0
    12be:	00 80 60    	and.w     w1, w0, w0
    12c0:	00 00 e0    	cp0.w     w0
    12c2:	01 00 3a    	bra       NZ, 0x12c6 <.L15>
        U1STAbits.UTXEN = 1;        //   enable it
    12c4:	23 42 a8    	bset.b    0x223, #0x2

000012c6 <.L15>:
}
    12c6:	00 80 fa    	ulnk      
    12c8:	00 00 06    	return    

000012ca <_U1_putc>:

void U1_putc(uint8_t ch) {
    12ca:	02 00 fa    	lnk       #0x2
    12cc:	00 4f 78    	mov.b     w0, [w14]
    // Wait until UART1 TX buffer is not full
    while (U1_tx_buffer.count == U1_tx_buffer.length) {}
    12ce:	00 00 00    	nop       

000012d0 <.L18>:
    12d0:	51 40 80    	mov.w     0x80a, w1
    12d2:	20 40 80    	mov.w     0x804, w0
    12d4:	80 8f 50    	sub.w     w1, w0, [w15]
    12d6:	fc ff 32    	bra       Z, 0x12d0 <.L18>

    disable_interrupts();
    12d8:	ff 3f fc    	disi      #0x3fff
    U1_tx_buffer.data[U1_tx_buffer.tail] = ch;
    12da:	11 40 80    	mov.w     0x802, w1
    12dc:	40 40 80    	mov.w     0x808, w0
    12de:	00 80 40    	add.w     w1, w0, w0
    12e0:	1e 48 78    	mov.b     [w14], [w0]
    U1_tx_buffer.tail++;
    12e2:	40 40 80    	mov.w     0x808, w0
    12e4:	00 00 e8    	inc.w     w0, w0
    12e6:	40 40 88    	mov.w     w0, 0x808
    if (U1_tx_buffer.tail == U1_tx_buffer.length)
    12e8:	41 40 80    	mov.w     0x808, w1
    12ea:	20 40 80    	mov.w     0x804, w0
    12ec:	80 8f 50    	sub.w     w1, w0, [w15]
    12ee:	02 00 3a    	bra       NZ, 0x12f4 <.L19>
        U1_tx_buffer.tail = 0;
    12f0:	00 00 eb    	clr.w     w0
    12f2:	40 40 88    	mov.w     w0, 0x808

000012f4 <.L19>:
    U1_tx_buffer.count++;
    12f4:	50 40 80    	mov.w     0x80a, w0
    12f6:	00 00 e8    	inc.w     w0, w0
    12f8:	50 40 88    	mov.w     w0, 0x80a
    enable_interrupts();
    12fa:	52 20 ef    	clr.w     0x52

    // If UART1 TX buffer is full enough, enable data transmission
    if (U1_tx_buffer.count >= U1_tx_threshold)
    12fc:	51 40 80    	mov.w     0x80a, w1
    12fe:	00 40 80    	mov.w     0x800, w0
    1300:	80 8f 50    	sub.w     w1, w0, [w15]
    1302:	01 00 39    	bra       NC, 0x1306 <.L17>
        U1STAbits.UTXEN = 1;
    1304:	23 42 a8    	bset.b    0x223, #0x2

00001306 <.L17>:
}
    1306:	00 80 fa    	ulnk      
    1308:	00 00 06    	return    

0000130a <_U1_getc>:

uint8_t U1_getc(void) {
    130a:	02 00 fa    	lnk       #0x2
    uint8_t ch;

    // Wait until UART1 RX buffer is not empty
    while (U1_rx_buffer.count == 0) {}
    130c:	00 00 00    	nop       

0000130e <.L22>:
    130e:	a0 40 80    	mov.w     0x814, w0
    1310:	00 00 e0    	cp0.w     w0
    1312:	fd ff 32    	bra       Z, 0x130e <.L22>

    disable_interrupts();
    1314:	ff 3f fc    	disi      #0x3fff
    ch = U1_rx_buffer.data[U1_rx_buffer.head];
    1316:	61 40 80    	mov.w     0x80c, w1
    1318:	80 40 80    	mov.w     0x810, w0
    131a:	00 80 40    	add.w     w1, w0, w0
    131c:	10 4f 78    	mov.b     [w0], [w14]
    U1_rx_buffer.head++;
    131e:	80 40 80    	mov.w     0x810, w0
    1320:	00 00 e8    	inc.w     w0, w0
    1322:	80 40 88    	mov.w     w0, 0x810
    if (U1_rx_buffer.head == U1_rx_buffer.length)
    1324:	81 40 80    	mov.w     0x810, w1
    1326:	70 40 80    	mov.w     0x80e, w0
    1328:	80 8f 50    	sub.w     w1, w0, [w15]
    132a:	02 00 3a    	bra       NZ, 0x1330 <.L23>
        U1_rx_buffer.head = 0;
    132c:	00 00 eb    	clr.w     w0
    132e:	80 40 88    	mov.w     w0, 0x810

00001330 <.L23>:
    U1_rx_buffer.count--;
    1330:	a0 40 80    	mov.w     0x814, w0
    1332:	00 00 e9    	dec.w     w0, w0
    1334:	a0 40 88    	mov.w     w0, 0x814
    enable_interrupts();
    1336:	52 20 ef    	clr.w     0x52

    return ch;
    1338:	1e 40 78    	mov.b     [w14], w0
}
    133a:	00 80 fa    	ulnk      
    133c:	00 00 06    	return    

0000133e <_U1_puts>:

void U1_puts(uint8_t *str) {
    133e:	02 00 fa    	lnk       #0x2
    1340:	00 0f 78    	mov.w     w0, [w14]
    while (*str)
    1342:	04 00 37    	bra       0x134c <.L25>

00001344 <.L26>:
        U1_putc(*str++);
    1344:	1e 00 78    	mov.w     [w14], w0
    1346:	10 40 78    	mov.b     [w0], w0
    1348:	1e 0f e8    	inc.w     [w14], [w14]
    134a:	bf ff 07    	rcall     0x12ca <_U1_putc> <.LFB5> <.LFE4>

0000134c <.L25>:
    134c:	1e 00 78    	mov.w     [w14], w0
    134e:	10 40 78    	mov.b     [w0], w0
    1350:	00 04 e0    	cp0.b     w0
    1352:	f8 ff 3a    	bra       NZ, 0x1344 <.L26>
    U1_flush_tx_buffer();
    1354:	b1 ff 07    	rcall     0x12b8 <_U1_flush_tx_buffer> <.LFB4> <.LFE3>
}
    1356:	00 80 fa    	ulnk      
    1358:	00 00 06    	return    

0000135a <_U1_gets>:

void U1_gets(uint8_t *str, uint16_t len) {
    135a:	04 00 fa    	lnk       #0x4
    135c:	00 0f 78    	mov.w     w0, [w14]
    135e:	11 07 98    	mov.w     w1, [w14+2]
    if (len == 0)
    1360:	1e 00 90    	mov.w     [w14+2], w0
    1362:	00 00 e0    	cp0.w     w0
    1364:	1a 00 32    	bra       Z, 0x139a <.L32>
        return;

    if (len == 1) {
    1366:	1e 00 90    	mov.w     [w14+2], w0
    1368:	e1 0f 50    	sub.w     w0, #0x1, [w15]
    136a:	04 00 3a    	bra       NZ, 0x1374 <.L30>
        *str = '\0';
    136c:	1e 00 78    	mov.w     [w14], w0
    136e:	80 40 eb    	clr.b     w1
    1370:	01 48 78    	mov.b     w1, [w0]
        return;
    1372:	14 00 37    	bra       0x139c <.L27>

00001374 <.L30>:
    }

    while (1) {
        *str = U1_getc();
    1374:	ca ff 07    	rcall     0x130a <_U1_getc> <.LFB6> <.LFE5>
    1376:	9e 00 78    	mov.w     [w14], w1
    1378:	80 48 78    	mov.b     w0, [w1]
        if ((*str == '\r') || (len == 1))
    137a:	1e 00 78    	mov.w     [w14], w0
    137c:	10 40 78    	mov.b     [w0], w0
    137e:	ed 4f 50    	sub.b     w0, #0xd, [w15]
    1380:	08 00 32    	bra       Z, 0x1392 <.L31>
    1382:	1e 00 90    	mov.w     [w14+2], w0
    1384:	e1 0f 50    	sub.w     w0, #0x1, [w15]
    1386:	05 00 32    	bra       Z, 0x1392 <.L31>
            break;
        str++;
    1388:	1e 0f e8    	inc.w     [w14], [w14]
        len--;
    138a:	1e 00 90    	mov.w     [w14+2], w0
    138c:	00 00 e9    	dec.w     w0, w0
    138e:	10 07 98    	mov.w     w0, [w14+2]
    }
    1390:	f1 ff 37    	bra       0x1374 <.L30>

00001392 <.L31>:
    *str = '\0';
    1392:	1e 00 78    	mov.w     [w14], w0
    1394:	80 40 eb    	clr.b     w1
    1396:	01 48 78    	mov.b     w1, [w0]
    1398:	01 00 37    	bra       0x139c <.L27>

0000139a <.L32>:
    139a:	00 00 00    	nop       

0000139c <.L27>:
}
    139c:	00 80 fa    	ulnk      
    139e:	00 00 06    	return    

000013a0 <_U1_gets_term>:

void U1_gets_term(uint8_t *str, uint16_t len) {
    13a0:	08 00 fa    	lnk       #0x8
    13a2:	20 07 98    	mov.w     w0, [w14+4]
    13a4:	31 07 98    	mov.w     w1, [w14+6]
    uint8_t *start;
    uint16_t left;

    if (len == 0)
    13a6:	3e 00 90    	mov.w     [w14+6], w0
    13a8:	00 00 e0    	cp0.w     w0
    13aa:	6f 00 32    	bra       Z, 0x148a <.L46>
        return;

    if (len == 1) {
    13ac:	3e 00 90    	mov.w     [w14+6], w0
    13ae:	e1 0f 50    	sub.w     w0, #0x1, [w15]
    13b0:	04 00 3a    	bra       NZ, 0x13ba <.L36>
        *str = '\0';
    13b2:	2e 00 90    	mov.w     [w14+4], w0
    13b4:	80 40 eb    	clr.b     w1
    13b6:	01 48 78    	mov.b     w1, [w0]
        return;
    13b8:	69 00 37    	bra       0x148c <.L33>

000013ba <.L36>:
    }

    U1_putc(0x1B);                          // save current cursor position
    13ba:	b0 c1 b3    	mov.b     #0x1b, w0
    13bc:	86 ff 07    	rcall     0x12ca <_U1_putc> <.LFB5> <.LFE4>
    U1_putc('7');
    13be:	70 c3 b3    	mov.b     #0x37, w0
    13c0:	84 ff 07    	rcall     0x12ca <_U1_putc> <.LFB5> <.LFE4>
    U1_flush_tx_buffer();
    13c2:	7a ff 07    	rcall     0x12b8 <_U1_flush_tx_buffer> <.LFB4> <.LFE3>
    start = str;
    13c4:	ae 00 90    	mov.w     [w14+4], w1
    13c6:	11 07 98    	mov.w     w1, [w14+2]
    left = len;
    13c8:	be 00 90    	mov.w     [w14+6], w1
    13ca:	01 0f 78    	mov.w     w1, [w14]
    13cc:	03 00 37    	bra       0x13d4 <.L45>

000013ce <.L47>:
    while (1) {
        *str = U1_getc();                   // get a character
        if (*str == '\r')                   // if character is return,
            break;                          //   end the loop
        if (*str == 0x1B) {                 // if character is escape,
            U1_putc(0x1B);                  //   restore cursor position,
            U1_putc('8');
            U1_putc(0x1B);                  //   clear to end of line, and
            U1_putc('[');
            U1_putc('K');
            U1_flush_tx_buffer();
            str = start;                    //   start over at the beginning
            left = len;
            continue;
        }
        if ((*str == '\b') ||               // if character is backspace
            (*str == 0x7F)) {               //   or delete, 
            if (str > start) {              //   and we are not at the start, 
                U1_putc('\b');              //   erase the last character and
                U1_putc(' ');
                U1_putc('\b');
                U1_flush_tx_buffer();
                str--;                      //   back up the pointer,
                left++;
            } else {                        //   otherwise
                U1_putc('\a');              //   send alert/bell character
                U1_flush_tx_buffer();
            }
            continue;
        }
        if (left == 1) {                    // if string buffer is full,
            U1_putc('\a');                  //   send alert/bell character
            U1_flush_tx_buffer();
            continue;
        }
        if ((*str >= 32) && (*str < 127)) { // if character is printable,
            U1_putc(*str);                  //   echo the received character
            U1_flush_tx_buffer();
            str++;                          //   and advance the pointer
            left--;
        }
    }
    13ce:	00 00 00    	nop       
    13d0:	01 00 37    	bra       0x13d4 <.L45>

000013d2 <.L48>:
    13d2:	00 00 00    	nop       

000013d4 <.L45>:
    13d4:	9a ff 07    	rcall     0x130a <_U1_getc> <.LFB6> <.LFE5>
    13d6:	ae 00 90    	mov.w     [w14+4], w1
    13d8:	80 48 78    	mov.b     w0, [w1]
    13da:	2e 00 90    	mov.w     [w14+4], w0
    13dc:	10 40 78    	mov.b     [w0], w0
    13de:	ed 4f 50    	sub.b     w0, #0xd, [w15]
    13e0:	09 00 3a    	bra       NZ, 0x13f4 <.L37>
    *str = '\0';                            // terminarte the string with null
    13e2:	2e 00 90    	mov.w     [w14+4], w0
    13e4:	80 40 eb    	clr.b     w1
    13e6:	01 48 78    	mov.b     w1, [w0]
    U1_putc('\n');                          // send newline and
    13e8:	a0 c0 b3    	mov.b     #0xa, w0
    13ea:	6f ff 07    	rcall     0x12ca <_U1_putc> <.LFB5> <.LFE4>
    U1_putc('\r');                          //   carriage return
    13ec:	d0 c0 b3    	mov.b     #0xd, w0
    13ee:	6d ff 07    	rcall     0x12ca <_U1_putc> <.LFB5> <.LFE4>
    U1_flush_tx_buffer();
    13f0:	63 ff 07    	rcall     0x12b8 <_U1_flush_tx_buffer> <.LFB4> <.LFE3>
    13f2:	4c 00 37    	bra       0x148c <.L33>

000013f4 <.L37>:
    13f4:	2e 00 90    	mov.w     [w14+4], w0
    13f6:	10 40 78    	mov.b     [w0], w0
    13f8:	fb 4f 50    	sub.b     w0, #0x1b, [w15]
    13fa:	10 00 3a    	bra       NZ, 0x141c <.L38>
    13fc:	b0 c1 b3    	mov.b     #0x1b, w0
    13fe:	65 ff 07    	rcall     0x12ca <_U1_putc> <.LFB5> <.LFE4>
    1400:	80 c3 b3    	mov.b     #0x38, w0
    1402:	63 ff 07    	rcall     0x12ca <_U1_putc> <.LFB5> <.LFE4>
    1404:	b0 c1 b3    	mov.b     #0x1b, w0
    1406:	61 ff 07    	rcall     0x12ca <_U1_putc> <.LFB5> <.LFE4>
    1408:	b0 c5 b3    	mov.b     #0x5b, w0
    140a:	5f ff 07    	rcall     0x12ca <_U1_putc> <.LFB5> <.LFE4>
    140c:	b0 c4 b3    	mov.b     #0x4b, w0
    140e:	5d ff 07    	rcall     0x12ca <_U1_putc> <.LFB5> <.LFE4>
    1410:	53 ff 07    	rcall     0x12b8 <_U1_flush_tx_buffer> <.LFB4> <.LFE3>
    1412:	9e 00 90    	mov.w     [w14+2], w1
    1414:	21 07 98    	mov.w     w1, [w14+4]
    1416:	be 00 90    	mov.w     [w14+6], w1
    1418:	01 0f 78    	mov.w     w1, [w14]
    141a:	36 00 37    	bra       0x1488 <.L39>

0000141c <.L38>:
    141c:	2e 00 90    	mov.w     [w14+4], w0
    141e:	10 40 78    	mov.b     [w0], w0
    1420:	e8 4f 50    	sub.b     w0, #0x8, [w15]
    1422:	05 00 32    	bra       Z, 0x142e <.L40>
    1424:	2e 00 90    	mov.w     [w14+4], w0
    1426:	90 40 78    	mov.b     [w0], w1
    1428:	f0 c7 b3    	mov.b     #0x7f, w0
    142a:	80 cf 50    	sub.b     w1, w0, [w15]
    142c:	14 00 3a    	bra       NZ, 0x1456 <.L41>

0000142e <.L40>:
    142e:	ae 00 90    	mov.w     [w14+4], w1
    1430:	1e 00 90    	mov.w     [w14+2], w0
    1432:	80 8f 50    	sub.w     w1, w0, [w15]
    1434:	0c 00 36    	bra       LEU, 0x144e <.L42>
    1436:	80 c0 b3    	mov.b     #0x8, w0
    1438:	48 ff 07    	rcall     0x12ca <_U1_putc> <.LFB5> <.LFE4>
    143a:	00 c2 b3    	mov.b     #0x20, w0
    143c:	46 ff 07    	rcall     0x12ca <_U1_putc> <.LFB5> <.LFE4>
    143e:	80 c0 b3    	mov.b     #0x8, w0
    1440:	44 ff 07    	rcall     0x12ca <_U1_putc> <.LFB5> <.LFE4>
    1442:	3a ff 07    	rcall     0x12b8 <_U1_flush_tx_buffer> <.LFB4> <.LFE3>
    1444:	2e 00 90    	mov.w     [w14+4], w0
    1446:	00 00 e9    	dec.w     w0, w0
    1448:	20 07 98    	mov.w     w0, [w14+4]
    144a:	1e 0f e8    	inc.w     [w14], [w14]
    144c:	03 00 37    	bra       0x1454 <.L43>

0000144e <.L42>:
    144e:	70 c0 b3    	mov.b     #0x7, w0
    1450:	3c ff 07    	rcall     0x12ca <_U1_putc> <.LFB5> <.LFE4>
    1452:	32 ff 07    	rcall     0x12b8 <_U1_flush_tx_buffer> <.LFB4> <.LFE3>

00001454 <.L43>:
    1454:	19 00 37    	bra       0x1488 <.L39>

00001456 <.L41>:
    1456:	1e 00 78    	mov.w     [w14], w0
    1458:	e1 0f 50    	sub.w     w0, #0x1, [w15]
    145a:	04 00 3a    	bra       NZ, 0x1464 <.L44>
    145c:	70 c0 b3    	mov.b     #0x7, w0
    145e:	35 ff 07    	rcall     0x12ca <_U1_putc> <.LFB5> <.LFE4>
    1460:	2b ff 07    	rcall     0x12b8 <_U1_flush_tx_buffer> <.LFB4> <.LFE3>
    1462:	12 00 37    	bra       0x1488 <.L39>

00001464 <.L44>:
    1464:	2e 00 90    	mov.w     [w14+4], w0
    1466:	10 40 78    	mov.b     [w0], w0
    1468:	ff 4f 50    	sub.b     w0, #0x1f, [w15]
    146a:	b1 ff 36    	bra       LEU, 0x13ce <.L47>
    146c:	2e 00 90    	mov.w     [w14+4], w0
    146e:	90 40 78    	mov.b     [w0], w1
    1470:	e0 c7 b3    	mov.b     #0x7e, w0
    1472:	80 cf 50    	sub.b     w1, w0, [w15]
    1474:	ae ff 3e    	bra       GTU, 0x13d2 <.L48>
    1476:	2e 00 90    	mov.w     [w14+4], w0
    1478:	10 40 78    	mov.b     [w0], w0
    147a:	27 ff 07    	rcall     0x12ca <_U1_putc> <.LFB5> <.LFE4>
    147c:	1d ff 07    	rcall     0x12b8 <_U1_flush_tx_buffer> <.LFB4> <.LFE3>
    147e:	2e 00 90    	mov.w     [w14+4], w0
    1480:	00 00 e8    	inc.w     w0, w0
    1482:	20 07 98    	mov.w     w0, [w14+4]
    1484:	1e 0f e9    	dec.w     [w14], [w14]
    1486:	a6 ff 37    	bra       0x13d4 <.L45>

00001488 <.L39>:
    1488:	a5 ff 37    	bra       0x13d4 <.L45>

0000148a <.L46>:
    148a:	00 00 00    	nop       

0000148c <.L33>:
}
    148c:	00 80 fa    	ulnk      
    148e:	00 00 06    	return    

00001490 <_write>:

int16_t write(int16_t handle, void *buffer, uint16_t len) {
    1490:	08 00 fa    	lnk       #0x8
    1492:	10 07 98    	mov.w     w0, [w14+2]
    1494:	21 07 98    	mov.w     w1, [w14+4]
    1496:	32 07 98    	mov.w     w2, [w14+6]
    int16_t i;

    switch (handle) {
    1498:	1e 00 90    	mov.w     [w14+2], w0
    149a:	60 00 40    	add.w     w0, #0x0, w0
    149c:	e2 0f 50    	sub.w     w0, #0x2, [w15]
    149e:	10 00 3e    	bra       GTU, 0x14c0 <.L55>
        case 0:
        case 1:
        case 2:
            for (i = 0; i < len; i++)
    14a0:	00 00 eb    	clr.w     w0
    14a2:	00 0f 78    	mov.w     w0, [w14]
    14a4:	07 00 37    	bra       0x14b4 <.L52>

000014a6 <.L53>:
                U1_putc(*(uint8_t *)buffer++);
    14a6:	2e 00 90    	mov.w     [w14+4], w0
    14a8:	10 40 78    	mov.b     [w0], w0
    14aa:	ae 00 90    	mov.w     [w14+4], w1
    14ac:	81 00 e8    	inc.w     w1, w1
    14ae:	21 07 98    	mov.w     w1, [w14+4]
    14b0:	0c ff 07    	rcall     0x12ca <_U1_putc> <.LFB5> <.LFE4>
    14b2:	1e 0f e8    	inc.w     [w14], [w14]

000014b4 <.L52>:
    14b4:	9e 00 78    	mov.w     [w14], w1
    14b6:	3e 00 90    	mov.w     [w14+6], w0
    14b8:	80 8f 50    	sub.w     w1, w0, [w15]
    14ba:	f5 ff 39    	bra       NC, 0x14a6 <.L53>
            U1_flush_tx_buffer();
    14bc:	fd fe 07    	rcall     0x12b8 <_U1_flush_tx_buffer> <.LFB4> <.LFE3>
            break;
    14be:	01 00 37    	bra       0x14c2 <.L54>

000014c0 <.L55>:
        default:
            break;
    14c0:	00 00 00    	nop       

000014c2 <.L54>:
    }
    return len;
    14c2:	3e 00 90    	mov.w     [w14+6], w0
}
    14c4:	00 80 fa    	ulnk      
    14c6:	00 00 06    	return    

000014c8 <_blocking_delay_us>:
    14c8:	04 00 fa    	lnk       #0x4
    14ca:	10 07 98    	mov.w     w0, [w14+2]
    14cc:	09 00 37    	bra       0x14e0 <.L2>

000014ce <.L5>:
    14ce:	00 00 eb    	clr.w     w0
    14d0:	00 0f 78    	mov.w     w0, [w14]
    14d2:	01 00 37    	bra       0x14d6 <.L3>

000014d4 <.L4>:
    14d4:	1e 0f e8    	inc.w     [w14], [w14]

000014d6 <.L3>:
    14d6:	f0 e7 23    	mov.w     #0x3e7f, w0
    14d8:	9e 00 78    	mov.w     [w14], w1
    14da:	80 8f 50    	sub.w     w1, w0, [w15]
    14dc:	fb ff 36    	bra       LEU, 0x14d4 <.L4>
    14de:	00 00 00    	nop       

000014e0 <.L2>:
    14e0:	1e 00 90    	mov.w     [w14+2], w0
    14e2:	00 00 e0    	cp0.w     w0
    14e4:	f4 ff 3a    	bra       NZ, 0x14ce <.L5>
    14e6:	00 80 fa    	ulnk      
    14e8:	00 00 06    	return    

000014ea <_i2c_init>:
    14ea:	04 00 fa    	lnk       #0x4
    14ec:	10 07 98    	mov.w     w0, [w14+2]
    14ee:	1e 00 90    	mov.w     [w14+2], w0
    14f0:	a0 13 88    	mov.w     w0, 0x274
    14f2:	77 e2 a9    	bclr.b    0x277, #0x7
    14f4:	77 22 a8    	bset.b    0x277, #0x1
    14f6:	8e a0 a9    	bclr.b    0x8e, #0x5
    14f8:	77 e2 a8    	bset.b    0x277, #0x7
    14fa:	80 13 80    	mov.w     0x270, w0
    14fc:	00 0f 78    	mov.w     w0, [w14]
    14fe:	31 00 07    	rcall     0x1562 <_reset_i2c_bus> <.LFB4> <.LFE3>
    1500:	00 80 fa    	ulnk      
    1502:	00 00 06    	return    

00001504 <_i2c_start>:
    1504:	02 00 fa    	lnk       #0x2
    1506:	00 00 eb    	clr.w     w0
    1508:	00 0f 78    	mov.w     w0, [w14]
    150a:	76 a2 a9    	bclr.b    0x276, #0x5
    150c:	a0 00 20    	mov.w     #0xa, w0
    150e:	dc ff 07    	rcall     0x14c8 <_blocking_delay_us> <.L0> <.LFB0> <.LFE10> <.Letext0> <.Ltext0>
    1510:	76 02 a8    	bset.b    0x276, #0x0
    1512:	00 00 00    	nop       
    1514:	06 00 37    	bra       0x1522 <.L8>

00001516 <.L10>:
    1516:	10 00 20    	mov.w     #0x1, w0
    1518:	d7 ff 07    	rcall     0x14c8 <_blocking_delay_us> <.L0> <.LFB0> <.LFE10> <.Letext0> <.Ltext0>
    151a:	1e 0f e8    	inc.w     [w14], [w14]
    151c:	1e 00 78    	mov.w     [w14], w0
    151e:	f4 0f 50    	sub.w     w0, #0x14, [w15]
    1520:	05 00 3c    	bra       GT, 0x152c <.L11>

00001522 <.L8>:
    1522:	b0 13 80    	mov.w     0x276, w0
    1524:	61 00 60    	and.w     w0, #0x1, w0
    1526:	00 00 e0    	cp0.w     w0
    1528:	f6 ff 3a    	bra       NZ, 0x1516 <.L10>
    152a:	01 00 37    	bra       0x152e <.L9>

0000152c <.L11>:
    152c:	00 00 00    	nop       

0000152e <.L9>:
    152e:	20 00 20    	mov.w     #0x2, w0
    1530:	cb ff 07    	rcall     0x14c8 <_blocking_delay_us> <.L0> <.LFB0> <.LFE10> <.Letext0> <.Ltext0>
    1532:	00 80 fa    	ulnk      
    1534:	00 00 06    	return    

00001536 <_i2c_restart>:
    1536:	02 00 fa    	lnk       #0x2
    1538:	00 00 eb    	clr.w     w0
    153a:	00 0f 78    	mov.w     w0, [w14]
    153c:	76 22 a8    	bset.b    0x276, #0x1
    153e:	00 00 00    	nop       
    1540:	06 00 37    	bra       0x154e <.L13>

00001542 <.L15>:
    1542:	10 00 20    	mov.w     #0x1, w0
    1544:	c1 ff 07    	rcall     0x14c8 <_blocking_delay_us> <.L0> <.LFB0> <.LFE10> <.Letext0> <.Ltext0>
    1546:	1e 0f e8    	inc.w     [w14], [w14]
    1548:	1e 00 78    	mov.w     [w14], w0
    154a:	f4 0f 50    	sub.w     w0, #0x14, [w15]
    154c:	05 00 3c    	bra       GT, 0x1558 <.L16>

0000154e <.L13>:
    154e:	b0 13 80    	mov.w     0x276, w0
    1550:	62 00 60    	and.w     w0, #0x2, w0
    1552:	00 00 e0    	cp0.w     w0
    1554:	f6 ff 3a    	bra       NZ, 0x1542 <.L15>
    1556:	01 00 37    	bra       0x155a <.L14>

00001558 <.L16>:
    1558:	00 00 00    	nop       

0000155a <.L14>:
    155a:	20 00 20    	mov.w     #0x2, w0
    155c:	b5 ff 07    	rcall     0x14c8 <_blocking_delay_us> <.L0> <.LFB0> <.LFE10> <.Letext0> <.Ltext0>
    155e:	00 80 fa    	ulnk      
    1560:	00 00 06    	return    

00001562 <_reset_i2c_bus>:
    1562:	02 00 fa    	lnk       #0x2
    1564:	00 00 eb    	clr.w     w0
    1566:	00 0f 78    	mov.w     w0, [w14]
    1568:	76 42 a8    	bset.b    0x276, #0x2
    156a:	06 00 37    	bra       0x1578 <.L18>

0000156c <.L20>:
    156c:	10 00 20    	mov.w     #0x1, w0
    156e:	ac ff 07    	rcall     0x14c8 <_blocking_delay_us> <.L0> <.LFB0> <.LFE10> <.Letext0> <.Ltext0>
    1570:	1e 0f e8    	inc.w     [w14], [w14]
    1572:	1e 00 78    	mov.w     [w14], w0
    1574:	f4 0f 50    	sub.w     w0, #0x14, [w15]
    1576:	05 00 3c    	bra       GT, 0x1582 <.L21>

00001578 <.L18>:
    1578:	b0 13 80    	mov.w     0x276, w0
    157a:	64 00 60    	and.w     w0, #0x4, w0
    157c:	00 00 e0    	cp0.w     w0
    157e:	f6 ff 3a    	bra       NZ, 0x156c <.L20>
    1580:	01 00 37    	bra       0x1584 <.L19>

00001582 <.L21>:
    1582:	00 00 00    	nop       

00001584 <.L19>:
    1584:	76 62 a9    	bclr.b    0x276, #0x3
    1586:	8e a0 a9    	bclr.b    0x8e, #0x5
    1588:	78 e2 a9    	bclr.b    0x278, #0x7
    158a:	79 42 a9    	bclr.b    0x279, #0x2
    158c:	a0 00 20    	mov.w     #0xa, w0
    158e:	9c ff 07    	rcall     0x14c8 <_blocking_delay_us> <.L0> <.LFB0> <.LFE10> <.Letext0> <.Ltext0>
    1590:	00 80 fa    	ulnk      
    1592:	00 00 06    	return    

00001594 <_send_i2c_byte>:
    1594:	04 00 fa    	lnk       #0x4
    1596:	10 07 98    	mov.w     w0, [w14+2]
    1598:	00 00 00    	nop       

0000159a <.L23>:
    159a:	c0 13 80    	mov.w     0x278, w0
    159c:	61 00 60    	and.w     w0, #0x1, w0
    159e:	00 00 e0    	cp0.w     w0
    15a0:	fc ff 3a    	bra       NZ, 0x159a <.L23>
    15a2:	8e a0 a9    	bclr.b    0x8e, #0x5
    15a4:	1e 00 90    	mov.w     [w14+2], w0
    15a6:	90 13 88    	mov.w     w0, 0x272
    15a8:	00 00 eb    	clr.w     w0
    15aa:	00 0f 78    	mov.w     w0, [w14]
    15ac:	08 00 37    	bra       0x15be <.L24>

000015ae <.L27>:
    15ae:	c1 13 80    	mov.w     0x278, w1
    15b0:	00 00 24    	mov.w     #0x4000, w0
    15b2:	00 80 60    	and.w     w1, w0, w0
    15b4:	00 00 e0    	cp0.w     w0
    15b6:	08 00 32    	bra       Z, 0x15c8 <.L31>
    15b8:	10 00 20    	mov.w     #0x1, w0
    15ba:	86 ff 07    	rcall     0x14c8 <_blocking_delay_us> <.L0> <.LFB0> <.LFE10> <.Letext0> <.Ltext0>
    15bc:	1e 0f e8    	inc.w     [w14], [w14]

000015be <.L24>:
    15be:	30 1f 20    	mov.w     #0x1f3, w0
    15c0:	9e 00 78    	mov.w     [w14], w1
    15c2:	80 8f 50    	sub.w     w1, w0, [w15]
    15c4:	f4 ff 34    	bra       LE, 0x15ae <.L27>
    15c6:	01 00 37    	bra       0x15ca <.L26>

000015c8 <.L31>:
    15c8:	00 00 00    	nop       

000015ca <.L26>:
    15ca:	40 1f 20    	mov.w     #0x1f4, w0
    15cc:	9e 00 78    	mov.w     [w14], w1
    15ce:	80 8f 50    	sub.w     w1, w0, [w15]
    15d0:	02 00 3a    	bra       NZ, 0x15d6 <.L28>
    15d2:	10 c0 b3    	mov.b     #0x1, w0
    15d4:	0b 00 37    	bra       0x15ec <.L29>

000015d6 <.L28>:
    15d6:	c1 13 80    	mov.w     0x278, w1
    15d8:	00 00 28    	mov.w     #0x8000, w0
    15da:	00 80 60    	and.w     w1, w0, w0
    15dc:	00 00 e0    	cp0.w     w0
    15de:	03 00 32    	bra       Z, 0x15e6 <.L30>
    15e0:	c0 ff 07    	rcall     0x1562 <_reset_i2c_bus> <.LFB4> <.LFE3>
    15e2:	10 c0 b3    	mov.b     #0x1, w0
    15e4:	03 00 37    	bra       0x15ec <.L29>

000015e6 <.L30>:
    15e6:	20 00 20    	mov.w     #0x2, w0
    15e8:	6f ff 07    	rcall     0x14c8 <_blocking_delay_us> <.L0> <.LFB0> <.LFE10> <.Letext0> <.Ltext0>
    15ea:	00 40 eb    	clr.b     w0

000015ec <.L29>:
    15ec:	00 80 fa    	ulnk      
    15ee:	00 00 06    	return    

000015f0 <_i2c_read>:
    15f0:	04 00 fa    	lnk       #0x4
    15f2:	00 00 eb    	clr.w     w0
    15f4:	00 0f 78    	mov.w     w0, [w14]
    15f6:	00 40 eb    	clr.b     w0
    15f8:	20 47 98    	mov.b     w0, [w14+2]
    15fa:	76 62 a8    	bset.b    0x276, #0x3
    15fc:	05 00 37    	bra       0x1608 <.L33>

000015fe <.L35>:
    15fe:	1e 0f e8    	inc.w     [w14], [w14]
    1600:	00 7d 20    	mov.w     #0x7d0, w0
    1602:	9e 00 78    	mov.w     [w14], w1
    1604:	80 8f 50    	sub.w     w1, w0, [w15]
    1606:	05 00 3c    	bra       GT, 0x1612 <.L36>

00001608 <.L33>:
    1608:	c0 13 80    	mov.w     0x278, w0
    160a:	62 00 60    	and.w     w0, #0x2, w0
    160c:	00 00 e0    	cp0.w     w0
    160e:	f7 ff 32    	bra       Z, 0x15fe <.L35>
    1610:	01 00 37    	bra       0x1614 <.L34>

00001612 <.L36>:
    1612:	00 00 00    	nop       

00001614 <.L34>:
    1614:	80 13 80    	mov.w     0x270, w0
    1616:	20 47 98    	mov.b     w0, [w14+2]
    1618:	2e 40 90    	mov.b     [w14+2], w0
    161a:	00 80 fa    	ulnk      
    161c:	00 00 06    	return    

0000161e <_i2c_read_ack>:
    161e:	04 00 fa    	lnk       #0x4
    1620:	00 00 eb    	clr.w     w0
    1622:	00 0f 78    	mov.w     w0, [w14]
    1624:	00 40 eb    	clr.b     w0
    1626:	20 47 98    	mov.b     w0, [w14+2]
    1628:	76 62 a8    	bset.b    0x276, #0x3
    162a:	05 00 37    	bra       0x1636 <.L38>

0000162c <.L40>:
    162c:	1e 0f e8    	inc.w     [w14], [w14]
    162e:	00 7d 20    	mov.w     #0x7d0, w0
    1630:	9e 00 78    	mov.w     [w14], w1
    1632:	80 8f 50    	sub.w     w1, w0, [w15]
    1634:	05 00 3c    	bra       GT, 0x1640 <.L41>

00001636 <.L38>:
    1636:	c0 13 80    	mov.w     0x278, w0
    1638:	62 00 60    	and.w     w0, #0x2, w0
    163a:	00 00 e0    	cp0.w     w0
    163c:	f7 ff 32    	bra       Z, 0x162c <.L40>
    163e:	01 00 37    	bra       0x1642 <.L39>

00001640 <.L41>:
    1640:	00 00 00    	nop       

00001642 <.L39>:
    1642:	80 13 80    	mov.w     0x270, w0
    1644:	20 47 98    	mov.b     w0, [w14+2]
    1646:	76 82 a8    	bset.b    0x276, #0x4
    1648:	a0 00 20    	mov.w     #0xa, w0
    164a:	3e ff 07    	rcall     0x14c8 <_blocking_delay_us> <.L0> <.LFB0> <.LFE10> <.Letext0> <.Ltext0>
    164c:	2e 40 90    	mov.b     [w14+2], w0
    164e:	00 80 fa    	ulnk      
    1650:	00 00 06    	return    

00001652 <_I2Cwrite>:
    1652:	04 00 fa    	lnk       #0x4
    1654:	00 4f 78    	mov.b     w0, [w14]
    1656:	11 47 98    	mov.b     w1, [w14+1]
    1658:	22 47 98    	mov.b     w2, [w14+2]
    165a:	54 ff 07    	rcall     0x1504 <_i2c_start> <.LFB2> <.LFE1>
    165c:	1e 00 fb    	se        [w14], w0
    165e:	80 00 78    	mov.w     w0, w1
    1660:	e0 ff 2f    	mov.w     #0xfffe, w0
    1662:	00 80 60    	and.w     w1, w0, w0
    1664:	97 ff 07    	rcall     0x1594 <_send_i2c_byte> <.LFB5> <.LFE4>
    1666:	1e 40 90    	mov.b     [w14+1], w0
    1668:	00 00 fb    	se        w0, w0
    166a:	94 ff 07    	rcall     0x1594 <_send_i2c_byte> <.LFB5> <.LFE4>
    166c:	2e 40 90    	mov.b     [w14+2], w0
    166e:	00 00 fb    	se        w0, w0
    1670:	91 ff 07    	rcall     0x1594 <_send_i2c_byte> <.LFB5> <.LFE4>
    1672:	77 ff 07    	rcall     0x1562 <_reset_i2c_bus> <.LFB4> <.LFE3>
    1674:	00 80 fa    	ulnk      
    1676:	00 00 06    	return    

00001678 <_I2Cread>:
    1678:	04 00 fa    	lnk       #0x4
    167a:	20 47 98    	mov.b     w0, [w14+2]
    167c:	31 47 98    	mov.b     w1, [w14+3]
    167e:	42 ff 07    	rcall     0x1504 <_i2c_start> <.LFB2> <.LFE1>
    1680:	2e 40 90    	mov.b     [w14+2], w0
    1682:	00 00 fb    	se        w0, w0
    1684:	87 ff 07    	rcall     0x1594 <_send_i2c_byte> <.LFB5> <.LFE4>
    1686:	3e 40 90    	mov.b     [w14+3], w0
    1688:	00 00 fb    	se        w0, w0
    168a:	84 ff 07    	rcall     0x1594 <_send_i2c_byte> <.LFB5> <.LFE4>
    168c:	a0 00 20    	mov.w     #0xa, w0
    168e:	1c ff 07    	rcall     0x14c8 <_blocking_delay_us> <.L0> <.LFB0> <.LFE10> <.Letext0> <.Ltext0>
    1690:	52 ff 07    	rcall     0x1536 <_i2c_restart> <.LFB3> <.LFE2>
    1692:	2e 40 90    	mov.b     [w14+2], w0
    1694:	00 04 a0    	bset.b    w0, #0x0
    1696:	00 00 fb    	se        w0, w0
    1698:	7d ff 07    	rcall     0x1594 <_send_i2c_byte> <.LFB5> <.LFE4>
    169a:	aa ff 07    	rcall     0x15f0 <_i2c_read> <.LFB6> <.LFE5>
    169c:	00 4f 78    	mov.b     w0, [w14]
    169e:	61 ff 07    	rcall     0x1562 <_reset_i2c_bus> <.LFB4> <.LFE3>
    16a0:	1e 40 78    	mov.b     [w14], w0
    16a2:	00 80 fa    	ulnk      
    16a4:	00 00 06    	return    

000016a6 <_I2Cpoll>:
    16a6:	04 00 fa    	lnk       #0x4
    16a8:	20 47 98    	mov.b     w0, [w14+2]
    16aa:	00 40 eb    	clr.b     w0
    16ac:	00 4f 78    	mov.b     w0, [w14]
    16ae:	2a ff 07    	rcall     0x1504 <_i2c_start> <.LFB2> <.LFE1>
    16b0:	2e 40 90    	mov.b     [w14+2], w0
    16b2:	00 00 fb    	se        w0, w0
    16b4:	80 00 78    	mov.w     w0, w1
    16b6:	e0 ff 2f    	mov.w     #0xfffe, w0
    16b8:	00 80 60    	and.w     w1, w0, w0
    16ba:	6c ff 07    	rcall     0x1594 <_send_i2c_byte> <.LFB5> <.LFE4>
    16bc:	00 4f 78    	mov.b     w0, [w14]
    16be:	51 ff 07    	rcall     0x1562 <_reset_i2c_bus> <.LFB4> <.LFE3>
    16c0:	1e 40 78    	mov.b     [w14], w0
    16c2:	00 80 fa    	ulnk      
    16c4:	00 00 06    	return    

000016c6 <_I2Cwritearray>:
    16c6:	08 00 fa    	lnk       #0x8
    16c8:	20 47 98    	mov.b     w0, [w14+2]
    16ca:	21 07 98    	mov.w     w1, [w14+4]
    16cc:	62 47 98    	mov.b     w2, [w14+6]
    16ce:	00 40 eb    	clr.b     w0
    16d0:	00 4f 78    	mov.b     w0, [w14]
    16d2:	18 ff 07    	rcall     0x1504 <_i2c_start> <.LFB2> <.LFE1>
    16d4:	2e 40 90    	mov.b     [w14+2], w0
    16d6:	00 00 fb    	se        w0, w0
    16d8:	80 00 78    	mov.w     w0, w1
    16da:	e0 ff 2f    	mov.w     #0xfffe, w0
    16dc:	00 80 60    	and.w     w1, w0, w0
    16de:	5a ff 07    	rcall     0x1594 <_send_i2c_byte> <.LFB5> <.LFE4>
    16e0:	00 4f 78    	mov.b     w0, [w14]
    16e2:	00 40 eb    	clr.b     w0
    16e4:	10 47 98    	mov.b     w0, [w14+1]
    16e6:	0d 00 37    	bra       0x1702 <.L46>

000016e8 <.L47>:
    16e8:	1e 40 90    	mov.b     [w14+1], w0
    16ea:	00 80 fb    	ze        w0, w0
    16ec:	ae 00 90    	mov.w     [w14+4], w1
    16ee:	00 80 40    	add.w     w1, w0, w0
    16f0:	10 40 78    	mov.b     [w0], w0
    16f2:	00 00 fb    	se        w0, w0
    16f4:	4f ff 07    	rcall     0x1594 <_send_i2c_byte> <.LFB5> <.LFE4>
    16f6:	9e 40 78    	mov.b     [w14], w1
    16f8:	01 40 70    	ior.b     w0, w1, w0
    16fa:	00 4f 78    	mov.b     w0, [w14]
    16fc:	1e 40 90    	mov.b     [w14+1], w0
    16fe:	00 40 e8    	inc.b     w0, w0
    1700:	10 47 98    	mov.b     w0, [w14+1]

00001702 <.L46>:
    1702:	9e 40 90    	mov.b     [w14+1], w1
    1704:	6e 40 90    	mov.b     [w14+6], w0
    1706:	80 cf 50    	sub.b     w1, w0, [w15]
    1708:	ef ff 39    	bra       NC, 0x16e8 <.L47>
    170a:	2b ff 07    	rcall     0x1562 <_reset_i2c_bus> <.LFB4> <.LFE3>
    170c:	1e 40 78    	mov.b     [w14], w0
    170e:	00 80 fa    	ulnk      
    1710:	00 00 06    	return    
Disassembly of section .isr.text:

00001712 <__U1TXInterrupt>:
    U1MODEbits.UARTEN = 1;          // enable UART1 module
    U1STAbits.UTXEN = 1;            // enable UART1 data transmission
}

void __attribute__((interrupt, auto_psv)) _U1TXInterrupt(void) {
    1712:	80 9f be    	mov.d     w0, [w15++]
    1714:	32 00 f8    	push      0x32
    1716:	34 00 f8    	push      0x34
    1718:	10 00 20    	mov.w     #0x1, w0
    171a:	a0 01 88    	mov.w     w0, 0x34
    171c:	00 20 20    	mov.w     #0x200, w0
    171e:	90 01 88    	mov.w     w0, 0x32
    1720:	02 00 fa    	lnk       #0x2
    uint8_t ch;

    IFS0bits.U1TXIF = 0;            // lower UART1 TX interrupt flag
    1722:	85 80 a9    	bclr.b    0x85, #0x4

    if (U1_tx_buffer.count == 0)    // if nothing left in UART1 TX buffer, 
    1724:	50 40 80    	mov.w     0x80a, w0
    1726:	00 00 e0    	cp0.w     w0
    1728:	17 00 3a    	bra       NZ, 0x1758 <.L8>
        U1STAbits.UTXEN = 0;        //   disable data transmission
    172a:	23 42 a9    	bclr.b    0x223, #0x2

    while ((U1STAbits.UTXBF == 0) && (U1_tx_buffer.count != 0)) {
    172c:	16 00 37    	bra       0x175a <.L4>

0000172e <.L7>:
        disable_interrupts();
    172e:	ff 3f fc    	disi      #0x3fff
        ch = U1_tx_buffer.data[U1_tx_buffer.head];
    1730:	11 40 80    	mov.w     0x802, w1
    1732:	30 40 80    	mov.w     0x806, w0
    1734:	00 80 40    	add.w     w1, w0, w0
    1736:	10 4f 78    	mov.b     [w0], [w14]
        U1_tx_buffer.head++;
    1738:	30 40 80    	mov.w     0x806, w0
    173a:	00 00 e8    	inc.w     w0, w0
    173c:	30 40 88    	mov.w     w0, 0x806
        if (U1_tx_buffer.head == U1_tx_buffer.length)
    173e:	31 40 80    	mov.w     0x806, w1
    1740:	20 40 80    	mov.w     0x804, w0
    1742:	80 8f 50    	sub.w     w1, w0, [w15]
    1744:	02 00 3a    	bra       NZ, 0x174a <.L5>
            U1_tx_buffer.head = 0;
    1746:	00 00 eb    	clr.w     w0
    1748:	30 40 88    	mov.w     w0, 0x806

0000174a <.L5>:
        U1_tx_buffer.count--;
    174a:	50 40 80    	mov.w     0x80a, w0
    174c:	00 00 e9    	dec.w     w0, w0
    174e:	50 40 88    	mov.w     w0, 0x80a
        enable_interrupts();
    1750:	52 20 ef    	clr.w     0x52
        U1TXREG = (uint16_t)ch;
    1752:	1e 80 fb    	ze        [w14], w0
    1754:	20 11 88    	mov.w     w0, 0x224
    1756:	01 00 37    	bra       0x175a <.L4>

00001758 <.L8>:
    1758:	00 00 00    	nop       

0000175a <.L4>:
    175a:	11 11 80    	mov.w     0x222, w1
    175c:	00 20 20    	mov.w     #0x200, w0
    175e:	00 80 60    	and.w     w1, w0, w0
    1760:	00 00 e0    	cp0.w     w0
    1762:	03 00 3a    	bra       NZ, 0x176a <.L2>
    1764:	50 40 80    	mov.w     0x80a, w0
    1766:	00 00 e0    	cp0.w     w0
    1768:	e2 ff 3a    	bra       NZ, 0x172e <.L7>

0000176a <.L2>:
    }
}
    176a:	00 80 fa    	ulnk      
    176c:	34 00 f9    	pop       0x34

void __attribute__((interrupt, auto_psv)) _U1RXInterrupt(void) {
    IFS0bits.U1RXIF = 0;            // lower UART1 RX interrupt flag

    while ((U1STAbits.URXDA == 1) && (U1_rx_buffer.count != U1_rx_buffer.length)) {
        disable_interrupts();
        U1_rx_buffer.data[U1_rx_buffer.tail] = (uint8_t)U1RXREG;
        U1_rx_buffer.tail++;
        if (U1_rx_buffer.tail == U1_rx_buffer.length)
            U1_rx_buffer.tail = 0;
        U1_rx_buffer.count++;
        enable_interrupts();
    }
}

uint16_t U1_in_waiting(void) {
    return U1_rx_buffer.count;
}

void U1_flush_tx_buffer(void) {
    if (U1STAbits.UTXEN == 0)       // if UART1 transmission is disabled,
        U1STAbits.UTXEN = 1;        //   enable it
}

void U1_putc(uint8_t ch) {
    // Wait until UART1 TX buffer is not full
    while (U1_tx_buffer.count == U1_tx_buffer.length) {}

    disable_interrupts();
    U1_tx_buffer.data[U1_tx_buffer.tail] = ch;
    U1_tx_buffer.tail++;
    if (U1_tx_buffer.tail == U1_tx_buffer.length)
        U1_tx_buffer.tail = 0;
    U1_tx_buffer.count++;
    enable_interrupts();

    // If UART1 TX buffer is full enough, enable data transmission
    if (U1_tx_buffer.count >= U1_tx_threshold)
        U1STAbits.UTXEN = 1;
}

uint8_t U1_getc(void) {
    uint8_t ch;

    // Wait until UART1 RX buffer is not empty
    while (U1_rx_buffer.count == 0) {}

    disable_interrupts();
    ch = U1_rx_buffer.data[U1_rx_buffer.head];
    U1_rx_buffer.head++;
    if (U1_rx_buffer.head == U1_rx_buffer.length)
        U1_rx_buffer.head = 0;
    U1_rx_buffer.count--;
    enable_interrupts();

    return ch;
}

void U1_puts(uint8_t *str) {
    while (*str)
        U1_putc(*str++);
    U1_flush_tx_buffer();
}

void U1_gets(uint8_t *str, uint16_t len) {
    if (len == 0)
        return;

    if (len == 1) {
        *str = '\0';
        return;
    }

    while (1) {
        *str = U1_getc();
        if ((*str == '\r') || (len == 1))
            break;
        str++;
        len--;
    }
    *str = '\0';
}

void U1_gets_term(uint8_t *str, uint16_t len) {
    uint8_t *start;
    uint16_t left;

    if (len == 0)
        return;

    if (len == 1) {
        *str = '\0';
        return;
    }

    U1_putc(0x1B);                          // save current cursor position
    U1_putc('7');
    U1_flush_tx_buffer();
    start = str;
    left = len;
    while (1) {
        *str = U1_getc();                   // get a character
        if (*str == '\r')                   // if character is return,
            break;                          //   end the loop
        if (*str == 0x1B) {                 // if character is escape,
            U1_putc(0x1B);                  //   restore cursor position,
            U1_putc('8');
            U1_putc(0x1B);                  //   clear to end of line, and
            U1_putc('[');
            U1_putc('K');
            U1_flush_tx_buffer();
            str = start;                    //   start over at the beginning
            left = len;
            continue;
        }
        if ((*str == '\b') ||               // if character is backspace
            (*str == 0x7F)) {               //   or delete, 
            if (str > start) {              //   and we are not at the start, 
                U1_putc('\b');              //   erase the last character and
                U1_putc(' ');
                U1_putc('\b');
                U1_flush_tx_buffer();
                str--;                      //   back up the pointer,
                left++;
            } else {                        //   otherwise
                U1_putc('\a');              //   send alert/bell character
                U1_flush_tx_buffer();
            }
            continue;
        }
        if (left == 1) {                    // if string buffer is full,
            U1_putc('\a');                  //   send alert/bell character
            U1_flush_tx_buffer();
            continue;
        }
        if ((*str >= 32) && (*str < 127)) { // if character is printable,
            U1_putc(*str);                  //   echo the received character
            U1_flush_tx_buffer();
            str++;                          //   and advance the pointer
            left--;
        }
    }
    *str = '\0';                            // terminarte the string with null
    U1_putc('\n');                          // send newline and
    U1_putc('\r');                          //   carriage return
    U1_flush_tx_buffer();
}

int16_t write(int16_t handle, void *buffer, uint16_t len) {
    int16_t i;

    switch (handle) {
        case 0:
        case 1:
        case 2:
            for (i = 0; i < len; i++)
                U1_putc(*(uint8_t *)buffer++);
            U1_flush_tx_buffer();
            break;
        default:
            break;
    }
    return len;
}
    176e:	32 00 f9    	pop       0x32
    1770:	4f 00 be    	mov.d     [--w15], w0
    1772:	00 40 06    	retfie    

00001774 <__U1RXInterrupt>:
    1774:	80 9f be    	mov.d     w0, [w15++]
    1776:	32 00 f8    	push      0x32
    1778:	34 00 f8    	push      0x34
    177a:	10 00 20    	mov.w     #0x1, w0
    177c:	a0 01 88    	mov.w     w0, 0x34
    177e:	00 20 20    	mov.w     #0x200, w0
    1780:	90 01 88    	mov.w     w0, 0x32
    1782:	00 00 fa    	lnk       #0x0
    1784:	85 60 a9    	bclr.b    0x85, #0x3
    1786:	14 00 37    	bra       0x17b0 <.L10>

00001788 <.L13>:
    1788:	ff 3f fc    	disi      #0x3fff
    178a:	61 40 80    	mov.w     0x80c, w1
    178c:	90 40 80    	mov.w     0x812, w0
    178e:	00 80 40    	add.w     w1, w0, w0
    1790:	31 11 80    	mov.w     0x226, w1
    1792:	81 40 78    	mov.b     w1, w1
    1794:	01 48 78    	mov.b     w1, [w0]
    1796:	90 40 80    	mov.w     0x812, w0
    1798:	00 00 e8    	inc.w     w0, w0
    179a:	90 40 88    	mov.w     w0, 0x812
    179c:	91 40 80    	mov.w     0x812, w1
    179e:	70 40 80    	mov.w     0x80e, w0
    17a0:	80 8f 50    	sub.w     w1, w0, [w15]
    17a2:	02 00 3a    	bra       NZ, 0x17a8 <.L11>
    17a4:	00 00 eb    	clr.w     w0
    17a6:	90 40 88    	mov.w     w0, 0x812

000017a8 <.L11>:
    17a8:	a0 40 80    	mov.w     0x814, w0
    17aa:	00 00 e8    	inc.w     w0, w0
    17ac:	a0 40 88    	mov.w     w0, 0x814
    17ae:	52 20 ef    	clr.w     0x52

000017b0 <.L10>:
    17b0:	10 11 80    	mov.w     0x222, w0
    17b2:	61 00 60    	and.w     w0, #0x1, w0
    17b4:	00 00 e0    	cp0.w     w0
    17b6:	04 00 32    	bra       Z, 0x17c0 <.L9>
    17b8:	a1 40 80    	mov.w     0x814, w1
    17ba:	70 40 80    	mov.w     0x80e, w0
    17bc:	80 8f 50    	sub.w     w1, w0, [w15]
    17be:	e4 ff 3a    	bra       NZ, 0x1788 <.L13>

000017c0 <.L9>:
    17c0:	00 80 fa    	ulnk      
    17c2:	34 00 f9    	pop       0x34
    17c4:	32 00 f9    	pop       0x32
    17c6:	4f 00 be    	mov.d     [--w15], w0
    17c8:	00 40 06    	retfie    
Disassembly of section .text:

000017ca <_init_elecanisms>:
            U1_rx_buffer.tail = 0;
        U1_rx_buffer.count++;
        enable_interrupts();
    }
}
    17ca:	00 00 fa    	lnk       #0x0
    17cc:	00 10 20    	mov.w     #0x100, w0
    17ce:	20 3a 88    	mov.w     w0, 0x744
    17d0:	d8 a2 a8    	bset.b    0x2d8, #0x5
    17d2:	d8 82 a8    	bset.b    0x2d8, #0x4
    17d4:	e8 82 a8    	bset.b    0x2e8, #0x4
    17d6:	e8 a2 a8    	bset.b    0x2e8, #0x5
    17d8:	c9 e2 a8    	bset.b    0x2c9, #0x7
    17da:	e8 62 a8    	bset.b    0x2e8, #0x3
    17dc:	d9 02 a8    	bset.b    0x2d9, #0x0
    17de:	d9 62 a8    	bset.b    0x2d9, #0x3
    17e0:	d9 22 a8    	bset.b    0x2d9, #0x1
    17e2:	d9 42 a8    	bset.b    0x2d9, #0x2
    17e4:	d8 02 a8    	bset.b    0x2d8, #0x0
    17e6:	d8 22 a8    	bset.b    0x2d8, #0x1
    17e8:	d8 42 a8    	bset.b    0x2d8, #0x2
    17ea:	d8 62 a8    	bset.b    0x2d8, #0x3
    17ec:	c8 a2 a8    	bset.b    0x2c8, #0x5
    17ee:	c8 82 a8    	bset.b    0x2c8, #0x4
    17f0:	c8 62 a8    	bset.b    0x2c8, #0x3
    17f2:	c8 42 a8    	bset.b    0x2c8, #0x2
    17f4:	c8 22 a8    	bset.b    0x2c8, #0x1
    17f6:	c8 02 a8    	bset.b    0x2c8, #0x0
    17f8:	f0 03 20    	mov.w     #0x3f, w0
    17fa:	10 27 88    	mov.w     w0, 0x4e2
    17fc:	e4 24 ef    	clr.w     0x4e4
    17fe:	e6 24 ef    	clr.w     0x4e6
    1800:	ea 24 ef    	clr.w     0x4ea
    1802:	ec 24 ef    	clr.w     0x4ec
    1804:	00 0e 20    	mov.w     #0xe0, w0
    1806:	00 19 88    	mov.w     w0, 0x320
    1808:	22 23 ef    	clr.w     0x322
    180a:	00 c4 20    	mov.w     #0xc40, w0
    180c:	20 19 88    	mov.w     w0, 0x324
    180e:	50 00 20    	mov.w     #0x5, w0
    1810:	40 19 88    	mov.w     w0, 0x328
    1812:	21 e3 a8    	bset.b    0x321, #0x7
    1814:	d8 e2 a9    	bclr.b    0x2d8, #0x7
    1816:	dc e2 a9    	bclr.b    0x2dc, #0x7
    1818:	e8 02 a9    	bclr.b    0x2e8, #0x0
    181a:	ec 02 a9    	bclr.b    0x2ec, #0x0
    181c:	e8 22 a9    	bclr.b    0x2e8, #0x1
    181e:	ec 22 a9    	bclr.b    0x2ec, #0x1
    1820:	d1 e2 a8    	bset.b    0x2d1, #0x7
    1822:	d1 82 a8    	bset.b    0x2d1, #0x4
    1824:	c9 82 a8    	bset.b    0x2c9, #0x4
    1826:	00 80 fa    	ulnk      
    1828:	00 00 06    	return    

0000182a <_read_analog>:
    182a:	02 00 fa    	lnk       #0x2
    182c:	00 0f 78    	mov.w     w0, [w14]
    182e:	9e 00 78    	mov.w     [w14], w1
    1830:	41 19 88    	mov.w     w1, 0x328
    1832:	20 23 a8    	bset.b    0x320, #0x1
    1834:	00 00 00    	nop       

00001836 <.L3>:
    1836:	00 19 80    	mov.w     0x320, w0
    1838:	61 00 60    	and.w     w0, #0x1, w0
    183a:	00 00 e0    	cp0.w     w0
    183c:	fc ff 32    	bra       Z, 0x1836 <.L3>
    183e:	00 18 80    	mov.w     0x300, w0
    1840:	00 80 fa    	ulnk      
    1842:	00 00 06    	return    

00001844 <_main>:
    1844:	0e 00 fa    	lnk       #0xe
    1846:	c1 ff 07    	rcall     0x17ca <.LFE2> <_init_elecanisms> <.L0> <.LFB0> <.Ltext0>
    1848:	d0 09 20    	mov.w     #0x9d, w0
    184a:	4f fe 07    	rcall     0x14ea <_i2c_init> <.LFB1> <.LFE0>
    184c:	60 21 29    	mov.w     #0x9216, w0
    184e:	e1 00 47    	add.w     w14, #0x1, w1
    1850:	0c 00 09    	repeat    #0xc
    1852:	b0 58 78    	mov.b     [w0++], [w1++]
    1854:	d0 00 b1    	sub.w     #0xd, w0
    1856:	d0 c0 b3    	mov.b     #0xd, w0
    1858:	00 4f 78    	mov.b     w0, [w14]
    185a:	ec 22 a8    	bset.b    0x2ec, #0x1

0000185c <.L2>:
    185c:	e1 16 80    	mov.w     0x2dc, w1
    185e:	00 08 20    	mov.w     #0x80, w0
    1860:	00 80 60    	and.w     w1, w0, w0
    1862:	00 f0 a7    	btsc.w    w0, #0xf
    1864:	00 00 ea    	neg.w     w0, w0
    1866:	00 00 e9    	dec.w     w0, w0
    1868:	4f 00 de    	lsr.w     w0, #0xf, w0
    186a:	00 40 78    	mov.b     w0, w0
    186c:	00 80 fb    	ze        w0, w0
    186e:	61 00 60    	and.w     w0, #0x1, w0
    1870:	47 00 dd    	sl.w      w0, #0x7, w0
    1872:	e2 16 80    	mov.w     0x2dc, w2
    1874:	f1 f7 2f    	mov.w     #0xff7f, w1
    1876:	81 00 61    	and.w     w2, w1, w1
    1878:	01 00 70    	ior.w     w0, w1, w0
    187a:	e0 16 88    	mov.w     w0, 0x2dc
    187c:	0e 00 e8    	inc.w     w14, w0
    187e:	1e 41 78    	mov.b     [w14], w2
    1880:	80 00 78    	mov.w     w0, w1
    while (1) {
      // printf("I tried the while loop \n");
      LED1 = !LED1;

      I2Cwritearray(0x7E, msg, len);
    1882:	e0 c7 b3    	mov.b     #0x7e, w0
    1884:	20 ff 07    	rcall     0x16c6 <_I2Cwritearray> <.LFB11> <.LFE10>
      blocking_delay_us(10000);
    1886:	00 71 22    	mov.w     #0x2710, w0
    1888:	1f fe 07    	rcall     0x14c8 <_blocking_delay_us> <.L0> <.LFB0> <.LFE10> <.Letext0> <.Ltext0>
    }
    188a:	e8 ff 37    	bra       0x185c <.L2>
Disassembly of section .dinit:

0000188c <.dinit>:
    188c:	02 08 00    	nop       
    188e:	14 08 00    	nop       
    1890:	80 00 00    	nop       
    1892:	00 08 00    	nop       
    1894:	02 00 00    	nop       
    1896:	80 00 00    	nop       
    1898:	00 00 00    	nop       
Disassembly of section .isr:

0000189a <__DefaultInterrupt>:
    189a:	00 40 da    	break     
    189c:	00 00 fe    	reset     
