
lcdtest.elf:     file format elf32-pic30

Disassembly of section .aivt._AltADC1Interrupt:

0000012e <.aivt._AltADC1Interrupt>:
 12e:	22 1a 00    	nop       
Disassembly of section .aivt._AltAddressError:

00000108 <.aivt._AltAddressError>:
 108:	22 1a 00    	nop       
Disassembly of section .aivt._AltCNInterrupt:

0000013a <.aivt._AltCNInterrupt>:
 13a:	22 1a 00    	nop       
Disassembly of section .aivt._AltCRCInterrupt:

0000019a <.aivt._AltCRCInterrupt>:
 19a:	22 1a 00    	nop       
Disassembly of section .aivt._AltCTMUInterrupt:

000001ae <.aivt._AltCTMUInterrupt>:
 1ae:	22 1a 00    	nop       
Disassembly of section .aivt._AltCompInterrupt:

00000138 <.aivt._AltCompInterrupt>:
 138:	22 1a 00    	nop       
Disassembly of section .aivt._AltIC1Interrupt:

00000116 <.aivt._AltIC1Interrupt>:
 116:	22 1a 00    	nop       
Disassembly of section .aivt._AltIC2Interrupt:

0000011e <.aivt._AltIC2Interrupt>:
 11e:	22 1a 00    	nop       
Disassembly of section .aivt._AltIC3Interrupt:

0000015e <.aivt._AltIC3Interrupt>:
 15e:	22 1a 00    	nop       
Disassembly of section .aivt._AltIC4Interrupt:

00000160 <.aivt._AltIC4Interrupt>:
 160:	22 1a 00    	nop       
Disassembly of section .aivt._AltIC5Interrupt:

00000162 <.aivt._AltIC5Interrupt>:
 162:	22 1a 00    	nop       
Disassembly of section .aivt._AltIC6Interrupt:

00000164 <.aivt._AltIC6Interrupt>:
 164:	22 1a 00    	nop       
Disassembly of section .aivt._AltIC7Interrupt:

00000140 <.aivt._AltIC7Interrupt>:
 140:	22 1a 00    	nop       
Disassembly of section .aivt._AltIC8Interrupt:

00000142 <.aivt._AltIC8Interrupt>:
 142:	22 1a 00    	nop       
Disassembly of section .aivt._AltIC9Interrupt:

000001ce <.aivt._AltIC9Interrupt>:
 1ce:	22 1a 00    	nop       
Disassembly of section .aivt._AltINT0Interrupt:

00000114 <.aivt._AltINT0Interrupt>:
 114:	22 1a 00    	nop       
Disassembly of section .aivt._AltINT1Interrupt:

0000013c <.aivt._AltINT1Interrupt>:
 13c:	22 1a 00    	nop       
Disassembly of section .aivt._AltINT2Interrupt:

0000014e <.aivt._AltINT2Interrupt>:
 14e:	22 1a 00    	nop       
Disassembly of section .aivt._AltINT3Interrupt:

0000017e <.aivt._AltINT3Interrupt>:
 17e:	22 1a 00    	nop       
Disassembly of section .aivt._AltINT4Interrupt:

00000180 <.aivt._AltINT4Interrupt>:
 180:	22 1a 00    	nop       
Disassembly of section .aivt._AltInterrupt14:

00000130 <.aivt._AltInterrupt14>:
 130:	22 1a 00    	nop       
Disassembly of section .aivt._AltInterrupt15:

00000132 <.aivt._AltInterrupt15>:
 132:	22 1a 00    	nop       
Disassembly of section .aivt._AltInterrupt21:

0000013e <.aivt._AltInterrupt21>:
 13e:	22 1a 00    	nop       
Disassembly of section .aivt._AltInterrupt24:

00000144 <.aivt._AltInterrupt24>:
 144:	22 1a 00    	nop       
Disassembly of section .aivt._AltInterrupt34:

00000158 <.aivt._AltInterrupt34>:
 158:	22 1a 00    	nop       
Disassembly of section .aivt._AltInterrupt35:

0000015a <.aivt._AltInterrupt35>:
 15a:	22 1a 00    	nop       
Disassembly of section .aivt._AltInterrupt36:

0000015c <.aivt._AltInterrupt36>:
 15c:	22 1a 00    	nop       
Disassembly of section .aivt._AltInterrupt4:

0000011c <.aivt._AltInterrupt4>:
 11c:	22 1a 00    	nop       
Disassembly of section .aivt._AltInterrupt46:

00000170 <.aivt._AltInterrupt46>:
 170:	22 1a 00    	nop       
Disassembly of section .aivt._AltInterrupt47:

00000172 <.aivt._AltInterrupt47>:
 172:	22 1a 00    	nop       
Disassembly of section .aivt._AltInterrupt48:

00000174 <.aivt._AltInterrupt48>:
 174:	22 1a 00    	nop       
Disassembly of section .aivt._AltInterrupt51:

0000017a <.aivt._AltInterrupt51>:
 17a:	22 1a 00    	nop       
Disassembly of section .aivt._AltInterrupt52:

0000017c <.aivt._AltInterrupt52>:
 17c:	22 1a 00    	nop       
Disassembly of section .aivt._AltInterrupt55:

00000182 <.aivt._AltInterrupt55>:
 182:	22 1a 00    	nop       
Disassembly of section .aivt._AltInterrupt56:

00000184 <.aivt._AltInterrupt56>:
 184:	22 1a 00    	nop       
Disassembly of section .aivt._AltInterrupt57:

00000186 <.aivt._AltInterrupt57>:
 186:	22 1a 00    	nop       
Disassembly of section .aivt._AltInterrupt58:

00000188 <.aivt._AltInterrupt58>:
 188:	22 1a 00    	nop       
Disassembly of section .aivt._AltInterrupt59:

0000018a <.aivt._AltInterrupt59>:
 18a:	22 1a 00    	nop       
Disassembly of section .aivt._AltInterrupt60:

0000018c <.aivt._AltInterrupt60>:
 18c:	22 1a 00    	nop       
Disassembly of section .aivt._AltInterrupt61:

0000018e <.aivt._AltInterrupt61>:
 18e:	22 1a 00    	nop       
Disassembly of section .aivt._AltInterrupt63:

00000192 <.aivt._AltInterrupt63>:
 192:	22 1a 00    	nop       
Disassembly of section .aivt._AltInterrupt64:

00000194 <.aivt._AltInterrupt64>:
 194:	22 1a 00    	nop       
Disassembly of section .aivt._AltInterrupt68:

0000019c <.aivt._AltInterrupt68>:
 19c:	22 1a 00    	nop       
Disassembly of section .aivt._AltInterrupt69:

0000019e <.aivt._AltInterrupt69>:
 19e:	22 1a 00    	nop       
Disassembly of section .aivt._AltInterrupt70:

000001a0 <.aivt._AltInterrupt70>:
 1a0:	22 1a 00    	nop       
Disassembly of section .aivt._AltInterrupt71:

000001a2 <.aivt._AltInterrupt71>:
 1a2:	22 1a 00    	nop       
Disassembly of section .aivt._AltInterrupt73:

000001a6 <.aivt._AltInterrupt73>:
 1a6:	22 1a 00    	nop       
Disassembly of section .aivt._AltInterrupt74:

000001a8 <.aivt._AltInterrupt74>:
 1a8:	22 1a 00    	nop       
Disassembly of section .aivt._AltInterrupt75:

000001aa <.aivt._AltInterrupt75>:
 1aa:	22 1a 00    	nop       
Disassembly of section .aivt._AltInterrupt76:

000001ac <.aivt._AltInterrupt76>:
 1ac:	22 1a 00    	nop       
Disassembly of section .aivt._AltInterrupt78:

000001b0 <.aivt._AltInterrupt78>:
 1b0:	22 1a 00    	nop       
Disassembly of section .aivt._AltInterrupt79:

000001b2 <.aivt._AltInterrupt79>:
 1b2:	22 1a 00    	nop       
Disassembly of section .aivt._AltInterrupt80:

000001b4 <.aivt._AltInterrupt80>:
 1b4:	22 1a 00    	nop       
Disassembly of section .aivt._AltLVDInterrupt:

000001a4 <.aivt._AltLVDInterrupt>:
 1a4:	22 1a 00    	nop       
Disassembly of section .aivt._AltMI2C1Interrupt:

00000136 <.aivt._AltMI2C1Interrupt>:
 136:	22 1a 00    	nop       
Disassembly of section .aivt._AltMI2C2Interrupt:

00000178 <.aivt._AltMI2C2Interrupt>:
 178:	22 1a 00    	nop       
Disassembly of section .aivt._AltMI2C3Interrupt:

000001be <.aivt._AltMI2C3Interrupt>:
 1be:	22 1a 00    	nop       
Disassembly of section .aivt._AltMathError:

0000010c <.aivt._AltMathError>:
 10c:	22 1a 00    	nop       
Disassembly of section .aivt._AltOC1Interrupt:

00000118 <.aivt._AltOC1Interrupt>:
 118:	22 1a 00    	nop       
Disassembly of section .aivt._AltOC2Interrupt:

00000120 <.aivt._AltOC2Interrupt>:
 120:	22 1a 00    	nop       
Disassembly of section .aivt._AltOC3Interrupt:

00000146 <.aivt._AltOC3Interrupt>:
 146:	22 1a 00    	nop       
Disassembly of section .aivt._AltOC4Interrupt:

00000148 <.aivt._AltOC4Interrupt>:
 148:	22 1a 00    	nop       
Disassembly of section .aivt._AltOC5Interrupt:

00000166 <.aivt._AltOC5Interrupt>:
 166:	22 1a 00    	nop       
Disassembly of section .aivt._AltOC6Interrupt:

00000168 <.aivt._AltOC6Interrupt>:
 168:	22 1a 00    	nop       
Disassembly of section .aivt._AltOC7Interrupt:

0000016a <.aivt._AltOC7Interrupt>:
 16a:	22 1a 00    	nop       
Disassembly of section .aivt._AltOC8Interrupt:

0000016c <.aivt._AltOC8Interrupt>:
 16c:	22 1a 00    	nop       
Disassembly of section .aivt._AltOC9Interrupt:

000001cc <.aivt._AltOC9Interrupt>:
 1cc:	22 1a 00    	nop       
Disassembly of section .aivt._AltOscillatorFail:

00000106 <.aivt._AltOscillatorFail>:
 106:	22 1a 00    	nop       
Disassembly of section .aivt._AltPMPInterrupt:

0000016e <.aivt._AltPMPInterrupt>:
 16e:	22 1a 00    	nop       
Disassembly of section .aivt._AltRTCCInterrupt:

00000190 <.aivt._AltRTCCInterrupt>:
 190:	22 1a 00    	nop       
Disassembly of section .aivt._AltReservedTrap0:

00000104 <.aivt._AltReservedTrap0>:
 104:	22 1a 00    	nop       
Disassembly of section .aivt._AltReservedTrap5:

0000010e <.aivt._AltReservedTrap5>:
 10e:	22 1a 00    	nop       
Disassembly of section .aivt._AltReservedTrap6:

00000110 <.aivt._AltReservedTrap6>:
 110:	22 1a 00    	nop       
Disassembly of section .aivt._AltReservedTrap7:

00000112 <.aivt._AltReservedTrap7>:
 112:	22 1a 00    	nop       
Disassembly of section .aivt._AltSI2C1Interrupt:

00000134 <.aivt._AltSI2C1Interrupt>:
 134:	22 1a 00    	nop       
Disassembly of section .aivt._AltSI2C2Interrupt:

00000176 <.aivt._AltSI2C2Interrupt>:
 176:	22 1a 00    	nop       
Disassembly of section .aivt._AltSI2C3Interrupt:

000001bc <.aivt._AltSI2C3Interrupt>:
 1bc:	22 1a 00    	nop       
Disassembly of section .aivt._AltSPI1ErrInterrupt:

00000126 <.aivt._AltSPI1ErrInterrupt>:
 126:	22 1a 00    	nop       
Disassembly of section .aivt._AltSPI1Interrupt:

00000128 <.aivt._AltSPI1Interrupt>:
 128:	22 1a 00    	nop       
Disassembly of section .aivt._AltSPI2ErrInterrupt:

00000154 <.aivt._AltSPI2ErrInterrupt>:
 154:	22 1a 00    	nop       
Disassembly of section .aivt._AltSPI2Interrupt:

00000156 <.aivt._AltSPI2Interrupt>:
 156:	22 1a 00    	nop       
Disassembly of section .aivt._AltSPI3ErrInterrupt:

000001c8 <.aivt._AltSPI3ErrInterrupt>:
 1c8:	22 1a 00    	nop       
Disassembly of section .aivt._AltSPI3Interrupt:

000001ca <.aivt._AltSPI3Interrupt>:
 1ca:	22 1a 00    	nop       
Disassembly of section .aivt._AltStackError:

0000010a <.aivt._AltStackError>:
 10a:	22 1a 00    	nop       
Disassembly of section .aivt._AltT1Interrupt:

0000011a <.aivt._AltT1Interrupt>:
 11a:	22 1a 00    	nop       
Disassembly of section .aivt._AltT2Interrupt:

00000122 <.aivt._AltT2Interrupt>:
 122:	22 1a 00    	nop       
Disassembly of section .aivt._AltT3Interrupt:

00000124 <.aivt._AltT3Interrupt>:
 124:	22 1a 00    	nop       
Disassembly of section .aivt._AltT4Interrupt:

0000014a <.aivt._AltT4Interrupt>:
 14a:	22 1a 00    	nop       
Disassembly of section .aivt._AltT5Interrupt:

0000014c <.aivt._AltT5Interrupt>:
 14c:	22 1a 00    	nop       
Disassembly of section .aivt._AltU1ErrInterrupt:

00000196 <.aivt._AltU1ErrInterrupt>:
 196:	22 1a 00    	nop       
Disassembly of section .aivt._AltU1RXInterrupt:

0000012a <.aivt._AltU1RXInterrupt>:
 12a:	22 1a 00    	nop       
Disassembly of section .aivt._AltU1TXInterrupt:

0000012c <.aivt._AltU1TXInterrupt>:
 12c:	22 1a 00    	nop       
Disassembly of section .aivt._AltU2ErrInterrupt:

00000198 <.aivt._AltU2ErrInterrupt>:
 198:	22 1a 00    	nop       
Disassembly of section .aivt._AltU2RXInterrupt:

00000150 <.aivt._AltU2RXInterrupt>:
 150:	22 1a 00    	nop       
Disassembly of section .aivt._AltU2TXInterrupt:

00000152 <.aivt._AltU2TXInterrupt>:
 152:	22 1a 00    	nop       
Disassembly of section .aivt._AltU3ErrInterrupt:

000001b6 <.aivt._AltU3ErrInterrupt>:
 1b6:	22 1a 00    	nop       
Disassembly of section .aivt._AltU3RXInterrupt:

000001b8 <.aivt._AltU3RXInterrupt>:
 1b8:	22 1a 00    	nop       
Disassembly of section .aivt._AltU3TXInterrupt:

000001ba <.aivt._AltU3TXInterrupt>:
 1ba:	22 1a 00    	nop       
Disassembly of section .aivt._AltU4ErrInterrupt:

000001c2 <.aivt._AltU4ErrInterrupt>:
 1c2:	22 1a 00    	nop       
Disassembly of section .aivt._AltU4RXInterrupt:

000001c4 <.aivt._AltU4RXInterrupt>:
 1c4:	22 1a 00    	nop       
Disassembly of section .aivt._AltU4TXInterrupt:

000001c6 <.aivt._AltU4TXInterrupt>:
 1c6:	22 1a 00    	nop       
Disassembly of section .aivt._AltUSB1Interrupt:

000001c0 <.aivt._AltUSB1Interrupt>:
 1c0:	22 1a 00    	nop       
Disassembly of section .reset:

00000000 <.reset>:
   0:	10 11 04    	goto      0x1110 <__reset>
   2:	00 00 00 
Disassembly of section .text:

00001110 <__reset>:
    1110:	0f 81 20    	mov.w     #0x810, w15
    1112:	0e ff 27    	mov.w     #0x7ff0, w14
    1114:	0e 01 88    	mov.w     w14, 0x20
    1116:	00 00 00    	nop       
    1118:	00 00 20    	mov.w     #0x0, w0
    111a:	00 00 e0    	cp0.w     w0
    111c:	02 00 32    	bra       Z, 0x1122 <CORCON_RESET>
    111e:	00 01 20    	mov.w     #0x10, w0
    1120:	20 02 88    	mov.w     w0, 0x44

00001122 <CORCON_RESET>:
    1122:	14 00 07    	rcall     0x114c <__psv_init>
    1124:	77 00 07    	rcall     0x1214 <__crt_start_mode> <__crt_start_mode_normal>
    1126:	00 00 e0    	cp0.w     w0
    1128:	03 00 3a    	bra       NZ, 0x1130 <L11>
    112a:	a0 a1 21    	mov.w     #0x1a1a, w0
    112c:	01 00 20    	mov.w     #0x0, w1
    112e:	02 00 37    	bra       0x1134 <L21>

00001130 <L11>:
    1130:	00 00 20    	mov.w     #0x0, w0
    1132:	01 00 20    	mov.w     #0x0, w1

00001134 <L21>:
    1134:	81 0f 70    	ior.w     w0, w1, [w15]
    1136:	01 00 32    	bra       Z, 0x113a <L12>
    1138:	14 00 07    	rcall     0x1162 <__data_init> <__data_init_da>

0000113a <L12>:
    113a:	00 00 20    	mov.w     #0x0, w0
    113c:	00 00 e0    	cp0.w     w0
    113e:	02 00 32    	bra       Z, 0x1144 <L13>
    1140:	00 00 02    	call      0x0 <__DEFAULT_VECTOR-0x110c>
    1142:	00 00 00 

00001144 <L13>:
    1144:	12 19 02    	call      0x1912 <_main>
    1146:	00 00 00 
    1148:	00 40 da    	break     
    114a:	00 00 fe    	reset     

0000114c <__psv_init>:
    114c:	44 40 a9    	bclr.b    0x44, #0x2
    114e:	e0 07 20    	mov.w     #0x7e, w0
    1150:	00 00 e0    	cp0.w     w0
    1152:	03 00 32    	bra       Z, 0x115a <L14>
    1154:	00 20 20    	mov.w     #0x200, w0
    1156:	90 01 88    	mov.w     w0, 0x32
    1158:	44 40 a8    	bset.b    0x44, #0x2

0000115a <L14>:
    115a:	00 00 06    	return    

0000115c <__long_indirect_call>:
    115c:	8a 1f 78    	mov.w     w10, [w15++]
    115e:	8b 1f 78    	mov.w     w11, [w15++]
    1160:	00 00 06    	return    

00001162 <__data_init>:
    1162:	a1 02 88    	mov.w     w1, 0x54
    1164:	80 04 78    	mov.w     w0, w9
    1166:	00 00 eb    	clr.w     w0
    1168:	1f 00 37    	bra       0x11a8 <L41>

0000116a <L11>:
    116a:	e2 84 44    	add.w     w9, #0x2, w9
    116c:	54 a0 b4    	addc.w    0x54
    116e:	99 05 ba    	tblrdl.w  [w9], w11
    1170:	e2 84 44    	add.w     w9, #0x2, w9
    1172:	54 a0 b4    	addc.w    0x54
    1174:	99 06 ba    	tblrdl.w  [w9], w13
    1176:	e2 84 44    	add.w     w9, #0x2, w9
    1178:	54 a0 b4    	addc.w    0x54
    117a:	00 06 eb    	clr.w     w12
    117c:	47 6f de    	lsr.w     w13, #0x7, w14
    117e:	fd 07 b2    	and.w     #0x7f, w13
    1180:	ae 01 88    	mov.w     w14, 0x34
    1182:	63 6c e1    	cp.b      w13, #0x3
    1184:	03 00 3a    	bra       NZ, 0x118c <L21>
    1186:	ea ff 07    	rcall     0x115c <__long_indirect_call>
    1188:	00 00 eb    	clr.w     w0
    118a:	0e 00 37    	bra       0x11a8 <L41>

0000118c <L21>:
    118c:	60 6c e1    	cp.b      w13, #0x0
    118e:	08 00 3a    	bra       NZ, 0x11a0 <L22>

00001190 <L91>:
    1190:	00 4d eb    	clr.b     [w10]
    1192:	0a 05 e8    	inc.w     w10, w10
    1194:	02 00 39    	bra       NC, 0x119a <L81>
    1196:	34 20 ec    	inc.w     0x34
    1198:	0a f0 a0    	bset.w    w10, #0xf

0000119a <L81>:
    119a:	8b 05 e9    	dec.w     w11, w11
    119c:	f9 ff 3e    	bra       GTU, 0x1190 <L91>
    119e:	04 00 37    	bra       0x11a8 <L41>

000011a0 <L22>:
    11a0:	61 68 e1    	cp.w      w13, #0x1
    11a2:	01 00 32    	bra       Z, 0x11a6 <L31>
    11a4:	00 86 eb    	setm.w    w12

000011a6 <L31>:
    11a6:	0b 00 07    	rcall     0x11be <L13> <__memcpyd3extended>

000011a8 <L41>:
    11a8:	19 c7 ba    	tblrdh.b  [w9], w14
    11aa:	19 05 ba    	tblrdl.w  [w9], w10
    11ac:	0e 04 e0    	cp0.b     w14
    11ae:	03 00 3a    	bra       NZ, 0x11b6 <L12>
    11b0:	0a 00 e0    	cp0.w     w10
    11b2:	db ff 3a    	bra       NZ, 0x116a <L11>
    11b4:	00 00 06    	return    

000011b6 <L12>:
    11b6:	fe 07 b2    	and.w     #0x7f, w14
    11b8:	ae 02 88    	mov.w     w14, 0x54
    11ba:	8a 04 78    	mov.w     w10, w9
    11bc:	f5 ff 37    	bra       0x11a8 <L41>

000011be <L13>:
    11be:	0c d0 a3    	btst.c    w12, #0xd
    11c0:	e2 0f 4d    	addc.w    w10, #0x2, [w15]
    11c2:	1c 00 39    	bra       NC, 0x11fc <L23>
    11c4:	89 02 78    	mov.w     w9, w5
    11c6:	35 4d ba    	tblrdl.b  [w5++], [w10]
    11c8:	0a 05 e8    	inc.w     w10, w10
    11ca:	02 00 39    	bra       NC, 0x11d0 <L32>
    11cc:	34 20 ec    	inc.w     0x34
    11ce:	0a f0 a0    	bset.w    w10, #0xf

000011d0 <L32>:
    11d0:	8b 05 e9    	dec.w     w11, w11
    11d2:	0f 00 32    	bra       Z, 0x11f2 <L42>
    11d4:	25 4d ba    	tblrdl.b  [w5--], [w10]
    11d6:	0a 05 e8    	inc.w     w10, w10
    11d8:	02 00 39    	bra       NC, 0x11de <L33>
    11da:	34 20 ec    	inc.w     0x34
    11dc:	0a f0 a0    	bset.w    w10, #0xf

000011de <L33>:
    11de:	8b 05 e9    	dec.w     w11, w11
    11e0:	08 00 32    	bra       Z, 0x11f2 <L42>
    11e2:	0c 00 e0    	cp0.w     w12
    11e4:	06 00 32    	bra       Z, 0x11f2 <L42>
    11e6:	15 cd ba    	tblrdh.b  [w5], [w10]
    11e8:	0a 05 e8    	inc.w     w10, w10
    11ea:	02 00 39    	bra       NC, 0x11f0 <L34>
    11ec:	34 20 ec    	inc.w     0x34
    11ee:	0a f0 a0    	bset.w    w10, #0xf

000011f0 <L34>:
    11f0:	8b 05 e9    	dec.w     w11, w11

000011f2 <L42>:
    11f2:	89 84 e8    	inc2.w    w9, w9
    11f4:	54 a0 b4    	addc.w    0x54
    11f6:	0b 00 e0    	cp0.w     w11
    11f8:	e2 ff 3a    	bra       NZ, 0x11be <L13> <__memcpyd3extended>
    11fa:	00 00 06    	return    

000011fc <L23>:
    11fc:	99 02 ba    	tblrdl.w  [w9], w5
    11fe:	05 5d 78    	mov.b     w5, [w10++]
    1200:	8b 05 e9    	dec.w     w11, w11
    1202:	f7 ff 32    	bra       Z, 0x11f2 <L42>
    1204:	c8 2a de    	lsr.w     w5, #0x8, w5
    1206:	05 5d 78    	mov.b     w5, [w10++]
    1208:	8b 05 e9    	dec.w     w11, w11
    120a:	f3 ff 32    	bra       Z, 0x11f2 <L42>
    120c:	0c 00 e0    	cp0.w     w12
    120e:	f1 ff 32    	bra       Z, 0x11f2 <L42>
    1210:	19 dd ba    	tblrdh.b  [w9], [w10++]
    1212:	ee ff 37    	bra       0x11f0 <L34>

00001214 <__crt_start_mode>:
    1214:	00 00 05    	retlw.w   #0x0, w0
Disassembly of section .application_ivt:

00001000 <__DEFAULT_VECTOR-0x10c>:
    1000:	10 11 04    	goto      0x1110 <__reset>
    1002:	00 00 00 
    1004:	22 1a 04    	goto      0x1a22 <__DefaultInterrupt>
    1006:	00 00 00 
    1008:	22 1a 04    	goto      0x1a22 <__DefaultInterrupt>
    100a:	00 00 00 
    100c:	22 1a 04    	goto      0x1a22 <__DefaultInterrupt>
    100e:	00 00 00 
    1010:	22 1a 04    	goto      0x1a22 <__DefaultInterrupt>
    1012:	00 00 00 
    1014:	22 1a 04    	goto      0x1a22 <__DefaultInterrupt>
    1016:	00 00 00 
    1018:	22 1a 04    	goto      0x1a22 <__DefaultInterrupt>
    101a:	00 00 00 
    101c:	22 1a 04    	goto      0x1a22 <__DefaultInterrupt>
    101e:	00 00 00 
    1020:	22 1a 04    	goto      0x1a22 <__DefaultInterrupt>
    1022:	00 00 00 
    1024:	22 1a 04    	goto      0x1a22 <__DefaultInterrupt>
    1026:	00 00 00 
    1028:	22 1a 04    	goto      0x1a22 <__DefaultInterrupt>
    102a:	00 00 00 
    102c:	22 1a 04    	goto      0x1a22 <__DefaultInterrupt>
    102e:	00 00 00 
    1030:	22 1a 04    	goto      0x1a22 <__DefaultInterrupt>
    1032:	00 00 00 
    1034:	22 1a 04    	goto      0x1a22 <__DefaultInterrupt>
    1036:	00 00 00 
    1038:	22 1a 04    	goto      0x1a22 <__DefaultInterrupt>
    103a:	00 00 00 
    103c:	22 1a 04    	goto      0x1a22 <__DefaultInterrupt>
    103e:	00 00 00 
    1040:	22 1a 04    	goto      0x1a22 <__DefaultInterrupt>
    1042:	00 00 00 
    1044:	22 1a 04    	goto      0x1a22 <__DefaultInterrupt>
    1046:	00 00 00 
    1048:	22 1a 04    	goto      0x1a22 <__DefaultInterrupt>
    104a:	00 00 00 
    104c:	22 1a 04    	goto      0x1a22 <__DefaultInterrupt>
    104e:	00 00 00 
    1050:	22 1a 04    	goto      0x1a22 <__DefaultInterrupt>
    1052:	00 00 00 
    1054:	22 1a 04    	goto      0x1a22 <__DefaultInterrupt>
    1056:	00 00 00 
    1058:	22 1a 04    	goto      0x1a22 <__DefaultInterrupt>
    105a:	00 00 00 
    105c:	22 1a 04    	goto      0x1a22 <__DefaultInterrupt>
    105e:	00 00 00 
    1060:	22 1a 04    	goto      0x1a22 <__DefaultInterrupt>
    1062:	00 00 00 
    1064:	22 1a 04    	goto      0x1a22 <__DefaultInterrupt>
    1066:	00 00 00 
    1068:	22 1a 04    	goto      0x1a22 <__DefaultInterrupt>
    106a:	00 00 00 
    106c:	22 1a 04    	goto      0x1a22 <__DefaultInterrupt>
    106e:	00 00 00 
    1070:	22 1a 04    	goto      0x1a22 <__DefaultInterrupt>
    1072:	00 00 00 
    1074:	22 1a 04    	goto      0x1a22 <__DefaultInterrupt>
    1076:	00 00 00 
    1078:	22 1a 04    	goto      0x1a22 <__DefaultInterrupt>
    107a:	00 00 00 
    107c:	22 1a 04    	goto      0x1a22 <__DefaultInterrupt>
    107e:	00 00 00 
    1080:	22 1a 04    	goto      0x1a22 <__DefaultInterrupt>
    1082:	00 00 00 
    1084:	22 1a 04    	goto      0x1a22 <__DefaultInterrupt>
    1086:	00 00 00 
    1088:	22 1a 04    	goto      0x1a22 <__DefaultInterrupt>
    108a:	00 00 00 
    108c:	22 1a 04    	goto      0x1a22 <__DefaultInterrupt>
    108e:	00 00 00 
    1090:	22 1a 04    	goto      0x1a22 <__DefaultInterrupt>
    1092:	00 00 00 
    1094:	22 1a 04    	goto      0x1a22 <__DefaultInterrupt>
    1096:	00 00 00 
    1098:	22 1a 04    	goto      0x1a22 <__DefaultInterrupt>
    109a:	00 00 00 
    109c:	22 1a 04    	goto      0x1a22 <__DefaultInterrupt>
    109e:	00 00 00 
    10a0:	22 1a 04    	goto      0x1a22 <__DefaultInterrupt>
    10a2:	00 00 00 
    10a4:	22 1a 04    	goto      0x1a22 <__DefaultInterrupt>
    10a6:	00 00 00 
    10a8:	22 1a 04    	goto      0x1a22 <__DefaultInterrupt>
    10aa:	00 00 00 
    10ac:	22 1a 04    	goto      0x1a22 <__DefaultInterrupt>
    10ae:	00 00 00 
    10b0:	22 1a 04    	goto      0x1a22 <__DefaultInterrupt>
    10b2:	00 00 00 
    10b4:	22 1a 04    	goto      0x1a22 <__DefaultInterrupt>
    10b6:	00 00 00 
    10b8:	22 1a 04    	goto      0x1a22 <__DefaultInterrupt>
    10ba:	00 00 00 
    10bc:	22 1a 04    	goto      0x1a22 <__DefaultInterrupt>
    10be:	00 00 00 
    10c0:	22 1a 04    	goto      0x1a22 <__DefaultInterrupt>
    10c2:	00 00 00 
    10c4:	22 1a 04    	goto      0x1a22 <__DefaultInterrupt>
    10c6:	00 00 00 
    10c8:	22 1a 04    	goto      0x1a22 <__DefaultInterrupt>
    10ca:	00 00 00 
    10cc:	22 1a 04    	goto      0x1a22 <__DefaultInterrupt>
    10ce:	00 00 00 
    10d0:	22 1a 04    	goto      0x1a22 <__DefaultInterrupt>
    10d2:	00 00 00 
    10d4:	22 1a 04    	goto      0x1a22 <__DefaultInterrupt>
    10d6:	00 00 00 
    10d8:	22 1a 04    	goto      0x1a22 <__DefaultInterrupt>
    10da:	00 00 00 
    10dc:	22 1a 04    	goto      0x1a22 <__DefaultInterrupt>
    10de:	00 00 00 
    10e0:	22 1a 04    	goto      0x1a22 <__DefaultInterrupt>
    10e2:	00 00 00 
    10e4:	22 1a 04    	goto      0x1a22 <__DefaultInterrupt>
    10e6:	00 00 00 
    10e8:	22 1a 04    	goto      0x1a22 <__DefaultInterrupt>
    10ea:	00 00 00 
    10ec:	22 1a 04    	goto      0x1a22 <__DefaultInterrupt>
    10ee:	00 00 00 
    10f0:	22 1a 04    	goto      0x1a22 <__DefaultInterrupt>
    10f2:	00 00 00 
    10f4:	22 1a 04    	goto      0x1a22 <__DefaultInterrupt>
    10f6:	00 00 00 
    10f8:	22 1a 04    	goto      0x1a22 <__DefaultInterrupt>
    10fa:	00 00 00 
    10fc:	22 1a 04    	goto      0x1a22 <__DefaultInterrupt>
    10fe:	00 00 00 
    1100:	22 1a 04    	goto      0x1a22 <__DefaultInterrupt>
    1102:	00 00 00 
    1104:	22 1a 04    	goto      0x1a22 <__DefaultInterrupt>
    1106:	00 00 00 
    1108:	22 1a 04    	goto      0x1a22 <__DefaultInterrupt>
    110a:	00 00 00 

0000110c <__DEFAULT_VECTOR>:
    110c:	22 1a 04    	goto      0x1a22 <__DefaultInterrupt>
    110e:	00 00 00 
Disassembly of section .ivt:

00000004 <.ivt>:
   4:	04 10 00    	nop       
   6:	08 10 00    	nop       
   8:	0c 10 00    	nop       
   a:	10 10 00    	nop       
   c:	14 10 00    	nop       
   e:	0c 11 00    	nop       
  10:	0c 11 00    	nop       
  12:	0c 11 00    	nop       
  14:	18 10 00    	nop       
  16:	1c 10 00    	nop       
  18:	20 10 00    	nop       
  1a:	24 10 00    	nop       
  1c:	0c 11 00    	nop       
  1e:	28 10 00    	nop       
  20:	2c 10 00    	nop       
  22:	30 10 00    	nop       
  24:	34 10 00    	nop       
  26:	38 10 00    	nop       
  28:	3c 10 00    	nop       
  2a:	40 10 00    	nop       
  2c:	44 10 00    	nop       
  2e:	48 10 00    	nop       
  30:	0c 11 00    	nop       
  32:	0c 11 00    	nop       
  34:	4c 10 00    	nop       
  36:	50 10 00    	nop       
  38:	54 10 00    	nop       
  3a:	58 10 00    	nop       
  3c:	5c 10 00    	nop       
  3e:	0c 11 00    	nop       
  40:	60 10 00    	nop       
  42:	64 10 00    	nop       
  44:	0c 11 00    	nop       
  46:	68 10 00    	nop       
  48:	6c 10 00    	nop       
  4a:	70 10 00    	nop       
  4c:	74 10 00    	nop       
  4e:	78 10 00    	nop       
  50:	7c 10 00    	nop       
  52:	80 10 00    	nop       
  54:	84 10 00    	nop       
  56:	88 10 00    	nop       
  58:	0c 11 00    	nop       
  5a:	0c 11 00    	nop       
  5c:	0c 11 00    	nop       
  5e:	8c 10 00    	nop       
  60:	90 10 00    	nop       
  62:	94 10 00    	nop       
  64:	98 10 00    	nop       
  66:	9c 10 00    	nop       
  68:	a0 10 00    	nop       
  6a:	a4 10 00    	nop       
  6c:	a8 10 00    	nop       
  6e:	ac 10 00    	nop       
  70:	0c 11 00    	nop       
  72:	0c 11 00    	nop       
  74:	0c 11 00    	nop       
  76:	b0 10 00    	nop       
  78:	b4 10 00    	nop       
  7a:	0c 11 00    	nop       
  7c:	0c 11 00    	nop       
  7e:	b8 10 00    	nop       
  80:	bc 10 00    	nop       
  82:	0c 11 00    	nop       
  84:	0c 11 00    	nop       
  86:	0c 11 00    	nop       
  88:	0c 11 00    	nop       
  8a:	0c 11 00    	nop       
  8c:	0c 11 00    	nop       
  8e:	0c 11 00    	nop       
  90:	c0 10 00    	nop       
  92:	0c 11 00    	nop       
  94:	0c 11 00    	nop       
  96:	c4 10 00    	nop       
  98:	c8 10 00    	nop       
  9a:	cc 10 00    	nop       
  9c:	0c 11 00    	nop       
  9e:	0c 11 00    	nop       
  a0:	0c 11 00    	nop       
  a2:	0c 11 00    	nop       
  a4:	d0 10 00    	nop       
  a6:	0c 11 00    	nop       
  a8:	0c 11 00    	nop       
  aa:	0c 11 00    	nop       
  ac:	0c 11 00    	nop       
  ae:	d4 10 00    	nop       
  b0:	0c 11 00    	nop       
  b2:	0c 11 00    	nop       
  b4:	0c 11 00    	nop       
  b6:	d8 10 00    	nop       
  b8:	dc 10 00    	nop       
  ba:	e0 10 00    	nop       
  bc:	e4 10 00    	nop       
  be:	e8 10 00    	nop       
  c0:	ec 10 00    	nop       
  c2:	f0 10 00    	nop       
  c4:	f4 10 00    	nop       
  c6:	f8 10 00    	nop       
  c8:	fc 10 00    	nop       
  ca:	00 11 00    	nop       
  cc:	04 11 00    	nop       
  ce:	08 11 00    	nop       
  d0:	0c 11 00    	nop       
  d2:	0c 11 00    	nop       
  d4:	0c 11 00    	nop       
  d6:	0c 11 00    	nop       
  d8:	0c 11 00    	nop       
  da:	0c 11 00    	nop       
  dc:	0c 11 00    	nop       
  de:	0c 11 00    	nop       
  e0:	0c 11 00    	nop       
  e2:	0c 11 00    	nop       
  e4:	0c 11 00    	nop       
  e6:	0c 11 00    	nop       
  e8:	0c 11 00    	nop       
  ea:	0c 11 00    	nop       
  ec:	0c 11 00    	nop       
  ee:	0c 11 00    	nop       
  f0:	0c 11 00    	nop       
  f2:	0c 11 00    	nop       
  f4:	0c 11 00    	nop       
  f6:	0c 11 00    	nop       
  f8:	0c 11 00    	nop       
  fa:	0c 11 00    	nop       
  fc:	0c 11 00    	nop       
  fe:	0c 11 00    	nop       
Disassembly of section .const:

00009216 <.LC0>:
    9216:	20 20       	.word 0x2020
    9218:	20 20       	.word 0x2020
    921a:	20 20       	.word 0x2020
    921c:	20 20       	.word 0x2020
    921e:	20 20       	.word 0x2020
    9220:	20 20       	.word 0x2020
    9222:	20 20       	.word 0x2020
    9224:	20 20       	.word 0x2020
    9226:	20 20       	.word 0x2020
    9228:	20 20       	.word 0x2020
    922a:	20 20       	.word 0x2020
    922c:	20 20       	.word 0x2020
    922e:	20 20       	.word 0x2020
    9230:	20 20       	.word 0x2020
    9232:	20 20       	.word 0x2020
    9234:	20 20       	.word 0x2020
    9236:	20 20       	.word 0x2020
    9238:	20 20       	.word 0x2020
    923a:	20 20       	.word 0x2020
    923c:	20 20       	.word 0x2020
    923e:	20 20       	.word 0x2020
    9240:	20 20       	.word 0x2020
    9242:	20 20       	.word 0x2020
    9244:	20 20       	.word 0x2020
    9246:	20 20       	.word 0x2020
    9248:	20 20       	.word 0x2020
    924a:	20 20       	.word 0x2020
    924c:	20 20       	.word 0x2020
    924e:	00 20       	.word 0x2000

0000924f <.LC1>:
    924f:	00 00       	.word 0
    9251:	00 00       	.word 0
    9253:	00 00       	.word 0
    9255:	00 00       	.word 0
    9257:	00 00       	.word 0
    9259:	00 00       	.word 0
    925b:	00 00       	.word 0
    925d:	00 00       	.word 0
	...

00009260 <.LC0>:
    9260:	63 68       	.word 0x6863
    9262:	65 63       	.word 0x6365
    9264:	6b 20       	.word 0x206b
    9266:	74 68       	.word 0x6874
    9268:	69 73       	.word 0x7369
    926a:	20 6f       	.word 0x6f20
    926c:	75 74       	.word 0x7475
    926e:	00 00       	.word 0
    9270:	00 69       	.word 0x6900

00009271 <.LC1>:
    9271:	00 00       	.word 0
    9273:	00 00       	.word 0
    9275:	00 00       	.word 0
    9277:	00 00       	.word 0
	...

00009282 <.LC2>:
    9282:	69 20       	.word 0x2069
    9284:	6c 6f       	.word 0x6f6c
    9286:	76 65       	.word 0x6576
    9288:	20 79       	.word 0x7920
    928a:	6f 75       	.word 0x756f
	...
Disassembly of section .text:

00001294 <___lcd_i2c_write>:
#define DR_READ 0x0B

_LCD lcd[3];

void __lcd_i2c_write(_LCD *self, uint8_t ch) {
    1294:	04 00 fa    	lnk       #0x4
    1296:	00 0f 78    	mov.w     w0, [w14]
    1298:	21 47 98    	mov.b     w1, [w14+2]
    i2c_start();
    129a:	34 02 07    	rcall     0x1704 <_i2c_start> <.LFB2> <.LFE1>
    send_i2c_byte(self->addr_write);
    129c:	1e 00 78    	mov.w     [w14], w0
    129e:	10 40 78    	mov.b     [w0], w0
    12a0:	00 80 fb    	ze        w0, w0
    12a2:	78 02 07    	rcall     0x1794 <_send_i2c_byte> <.LFB5> <.LFE4>
    send_i2c_byte(ch);
    12a4:	2e 40 90    	mov.b     [w14+2], w0
    12a6:	00 80 fb    	ze        w0, w0
    12a8:	75 02 07    	rcall     0x1794 <_send_i2c_byte> <.LFB5> <.LFE4>
    reset_i2c_bus();
    12aa:	5b 02 07    	rcall     0x1762 <_reset_i2c_bus> <.LFB4> <.LFE3>
}
    12ac:	00 80 fa    	ulnk      
    12ae:	00 00 06    	return    

000012b0 <___lcd_enablePulse>:

// Pulse enable pin high and then low to shift in 4 bits of data
void __lcd_enablePulse(_LCD *self) {
    12b0:	02 00 fa    	lnk       #0x2
    12b2:	00 0f 78    	mov.w     w0, [w14]
    self->io_write_val ^= ENABLE_TOGGLE;
    12b4:	1e 00 78    	mov.w     [w14], w0
    12b6:	20 40 90    	mov.b     [w0+2], w0
    12b8:	80 40 78    	mov.b     w0, w1
    12ba:	01 24 a2    	btg.b     w1, #0x2
    12bc:	1e 00 78    	mov.w     [w14], w0
    12be:	21 40 98    	mov.b     w1, [w0+2]
    __lcd_i2c_write(self, self->io_write_val);
    12c0:	1e 00 78    	mov.w     [w14], w0
    12c2:	20 40 90    	mov.b     [w0+2], w0
    12c4:	80 40 78    	mov.b     w0, w1
    12c6:	1e 00 78    	mov.w     [w14], w0
    12c8:	e5 ff 07    	rcall     0x1294 <___lcd_i2c_write> <.L0> <.LFB0> <.Ltext0>
    delay_by_nop(100);
    12ca:	40 06 20    	mov.w     #0x64, w0
    12cc:	02 02 07    	rcall     0x16d2 <_delay_by_nop> <.L0> <.LFB0> <.LFE15> <.Letext0> <.Ltext0>
    self->io_write_val ^= ENABLE_TOGGLE;
    12ce:	1e 00 78    	mov.w     [w14], w0
    12d0:	20 40 90    	mov.b     [w0+2], w0
    12d2:	80 40 78    	mov.b     w0, w1
    12d4:	01 24 a2    	btg.b     w1, #0x2
    12d6:	1e 00 78    	mov.w     [w14], w0
    12d8:	21 40 98    	mov.b     w1, [w0+2]
    __lcd_i2c_write(self, self->io_write_val);
    12da:	1e 00 78    	mov.w     [w14], w0
    12dc:	20 40 90    	mov.b     [w0+2], w0
    12de:	80 40 78    	mov.b     w0, w1
    12e0:	1e 00 78    	mov.w     [w14], w0
    12e2:	d8 ff 07    	rcall     0x1294 <___lcd_i2c_write> <.L0> <.LFB0> <.Ltext0>
    // delay_by_nop(1000);
}
    12e4:	00 80 fa    	ulnk      
    12e6:	00 00 06    	return    

000012e8 <___lcd_send>:

/* Send 8 bits of data as one 4-bit nibble, shifting in, second 4-bit nibble, and
shifting in */
void __lcd_send(_LCD *self, uint8_t value, uint8_t command) {
    12e8:	06 00 fa    	lnk       #0x6
    12ea:	10 07 98    	mov.w     w0, [w14+2]
    12ec:	41 47 98    	mov.b     w1, [w14+4]
    12ee:	52 47 98    	mov.b     w2, [w14+5]
    uint8_t MS = value & 0x78;
    12f0:	4e 40 90    	mov.b     [w14+4], w0
    12f2:	81 c7 b3    	mov.b     #0x78, w1
    12f4:	01 4f 60    	and.b     w0, w1, [w14]
    uint8_t LS = value << 4;
    12f6:	ce 40 90    	mov.b     [w14+4], w1
    12f8:	40 00 20    	mov.w     #0x4, w0
    12fa:	00 08 dd    	sl.w      w1, w0, w0
    12fc:	10 47 98    	mov.b     w0, [w14+1]
    self->io_write_val = command | MS;
    12fe:	5e 40 90    	mov.b     [w14+5], w0
    1300:	9e 40 70    	ior.b     w0, [w14], w1
    1302:	1e 00 90    	mov.w     [w14+2], w0
    1304:	21 40 98    	mov.b     w1, [w0+2]
    __lcd_i2c_write(self, self->io_write_val);
    1306:	1e 00 90    	mov.w     [w14+2], w0
    1308:	20 40 90    	mov.b     [w0+2], w0
    130a:	80 40 78    	mov.b     w0, w1
    130c:	1e 00 90    	mov.w     [w14+2], w0
    130e:	c2 ff 07    	rcall     0x1294 <___lcd_i2c_write> <.L0> <.LFB0> <.Ltext0>
    __lcd_enablePulse(self);
    1310:	1e 00 90    	mov.w     [w14+2], w0
    1312:	ce ff 07    	rcall     0x12b0 <___lcd_enablePulse> <.LFB1> <.LFE0>
    self->io_write_val= command | LS;
    1314:	de 40 90    	mov.b     [w14+5], w1
    1316:	1e 40 90    	mov.b     [w14+1], w0
    1318:	80 c0 70    	ior.b     w1, w0, w1
    131a:	1e 00 90    	mov.w     [w14+2], w0
    131c:	21 40 98    	mov.b     w1, [w0+2]
    __lcd_i2c_write(self, self->io_write_val);
    131e:	1e 00 90    	mov.w     [w14+2], w0
    1320:	20 40 90    	mov.b     [w0+2], w0
    1322:	80 40 78    	mov.b     w0, w1
    1324:	1e 00 90    	mov.w     [w14+2], w0
    1326:	b6 ff 07    	rcall     0x1294 <___lcd_i2c_write> <.L0> <.LFB0> <.Ltext0>
    __lcd_enablePulse(self);
    1328:	1e 00 90    	mov.w     [w14+2], w0
    132a:	c2 ff 07    	rcall     0x12b0 <___lcd_enablePulse> <.LFB1> <.LFE0>
}
    132c:	00 80 fa    	ulnk      
    132e:	00 00 06    	return    

00001330 <___lcd_send8>:

void __lcd_send8(_LCD *self, uint8_t value, uint8_t command) {
    1330:	04 00 fa    	lnk       #0x4
    1332:	00 0f 78    	mov.w     w0, [w14]
    1334:	21 47 98    	mov.b     w1, [w14+2]
    1336:	32 47 98    	mov.b     w2, [w14+3]
    value = value << 4;
    1338:	ae 40 90    	mov.b     [w14+2], w1
    133a:	40 00 20    	mov.w     #0x4, w0
    133c:	00 08 dd    	sl.w      w1, w0, w0
    133e:	20 47 98    	mov.b     w0, [w14+2]
    self->io_write_val = command | value;
    1340:	be 40 90    	mov.b     [w14+3], w1
    1342:	2e 40 90    	mov.b     [w14+2], w0
    1344:	80 c0 70    	ior.b     w1, w0, w1
    1346:	1e 00 78    	mov.w     [w14], w0
    1348:	21 40 98    	mov.b     w1, [w0+2]
    __lcd_i2c_write(self, self->io_write_val);
    134a:	1e 00 78    	mov.w     [w14], w0
    134c:	20 40 90    	mov.b     [w0+2], w0
    134e:	80 40 78    	mov.b     w0, w1
    1350:	1e 00 78    	mov.w     [w14], w0
    1352:	a0 ff 07    	rcall     0x1294 <___lcd_i2c_write> <.L0> <.LFB0> <.Ltext0>
    __lcd_enablePulse(self);
    1354:	1e 00 78    	mov.w     [w14], w0
    1356:	ac ff 07    	rcall     0x12b0 <___lcd_enablePulse> <.LFB1> <.LFE0>
}
    1358:	00 80 fa    	ulnk      
    135a:	00 00 06    	return    

0000135c <_init_lcd>:

/* Some code from last year's Spaceteam project that sets up three LCD screens on
 one bus with corresponding IO extender types and hard-wired addresses */
void init_lcd(uint8_t initiator) {
    135c:	02 00 fa    	lnk       #0x2
    135e:	00 4f 78    	mov.b     w0, [w14]

    i2c_init(1e3);
    1360:	80 3e 20    	mov.w     #0x3e8, w0
    1362:	c3 01 07    	rcall     0x16ea <_i2c_init> <.LFB1> <.LFE0>

    switch (initiator) {
    1364:	1e 80 fb    	ze        [w14], w0
    1366:	e1 0f 50    	sub.w     w0, #0x1, [w15]
    1368:	17 00 32    	bra       Z, 0x1398 <.L8>
    136a:	e1 0f 50    	sub.w     w0, #0x1, [w15]
    136c:	03 00 3c    	bra       GT, 0x1374 <.L11>
    136e:	00 00 e0    	cp0.w     w0
    1370:	06 00 32    	bra       Z, 0x137e <.L7>
    1372:	39 00 37    	bra       0x13e6 <.L5>

00001374 <.L11>:
    1374:	e2 0f 50    	sub.w     w0, #0x2, [w15]
    1376:	1d 00 32    	bra       Z, 0x13b2 <.L9>
    1378:	e3 0f 50    	sub.w     w0, #0x3, [w15]
    137a:	28 00 32    	bra       Z, 0x13cc <.L10>
    137c:	34 00 37    	bra       0x13e6 <.L5>

0000137e <.L7>:
        case 0: // Central
            lcd_init(&lcd[0], 0x05,'A');
    137e:	12 c4 b3    	mov.b     #0x41, w2
    1380:	51 c0 b3    	mov.b     #0x5, w1
    1382:	00 80 20    	mov.w     #0x800, w0
    1384:	32 00 07    	rcall     0x13ea <_lcd_init> <.LFB5> <.LFE4>
            lcd_init(&lcd[1], 0x07,'A');
    1386:	12 c4 b3    	mov.b     #0x41, w2
    1388:	71 c0 b3    	mov.b     #0x7, w1
    138a:	50 80 20    	mov.w     #0x805, w0
    138c:	2e 00 07    	rcall     0x13ea <_lcd_init> <.LFB5> <.LFE4>
            lcd_init(&lcd[2], 0x06,'T');
    138e:	42 c5 b3    	mov.b     #0x54, w2
    1390:	61 c0 b3    	mov.b     #0x6, w1
    1392:	a0 80 20    	mov.w     #0x80a, w0
    1394:	2a 00 07    	rcall     0x13ea <_lcd_init> <.LFB5> <.LFE4>
            break;
    1396:	27 00 37    	bra       0x13e6 <.L5>

00001398 <.L8>:
        case 1:
            lcd_init(&lcd[0], 0x07,'A');
    1398:	12 c4 b3    	mov.b     #0x41, w2
    139a:	71 c0 b3    	mov.b     #0x7, w1
    139c:	00 80 20    	mov.w     #0x800, w0
    139e:	25 00 07    	rcall     0x13ea <_lcd_init> <.LFB5> <.LFE4>
            lcd_init(&lcd[2], 0x06,'A');
    13a0:	12 c4 b3    	mov.b     #0x41, w2
    13a2:	61 c0 b3    	mov.b     #0x6, w1
    13a4:	a0 80 20    	mov.w     #0x80a, w0
    13a6:	21 00 07    	rcall     0x13ea <_lcd_init> <.LFB5> <.LFE4>
            lcd_init(&lcd[1], 0x05,'A');
    13a8:	12 c4 b3    	mov.b     #0x41, w2
    13aa:	51 c0 b3    	mov.b     #0x5, w1
    13ac:	50 80 20    	mov.w     #0x805, w0
    13ae:	1d 00 07    	rcall     0x13ea <_lcd_init> <.LFB5> <.LFE4>
            break;
    13b0:	1a 00 37    	bra       0x13e6 <.L5>

000013b2 <.L9>:
        case 2:
            lcd_init(&lcd[0], 0x07,'T');
    13b2:	42 c5 b3    	mov.b     #0x54, w2
    13b4:	71 c0 b3    	mov.b     #0x7, w1
    13b6:	00 80 20    	mov.w     #0x800, w0
    13b8:	18 00 07    	rcall     0x13ea <_lcd_init> <.LFB5> <.LFE4>
            lcd_init(&lcd[1], 0x06,'A');
    13ba:	12 c4 b3    	mov.b     #0x41, w2
    13bc:	61 c0 b3    	mov.b     #0x6, w1
    13be:	50 80 20    	mov.w     #0x805, w0
    13c0:	14 00 07    	rcall     0x13ea <_lcd_init> <.LFB5> <.LFE4>
            lcd_init(&lcd[2], 0x05,'A');
    13c2:	12 c4 b3    	mov.b     #0x41, w2
    13c4:	51 c0 b3    	mov.b     #0x5, w1
    13c6:	a0 80 20    	mov.w     #0x80a, w0
    13c8:	10 00 07    	rcall     0x13ea <_lcd_init> <.LFB5> <.LFE4>
            break;
    13ca:	0d 00 37    	bra       0x13e6 <.L5>

000013cc <.L10>:
        case 3:
            lcd_init(&lcd[0], 0x07,'A');
    13cc:	12 c4 b3    	mov.b     #0x41, w2
    13ce:	71 c0 b3    	mov.b     #0x7, w1
    13d0:	00 80 20    	mov.w     #0x800, w0
    13d2:	0b 00 07    	rcall     0x13ea <_lcd_init> <.LFB5> <.LFE4>
            lcd_init(&lcd[1], 0x06,'A');
    13d4:	12 c4 b3    	mov.b     #0x41, w2
    13d6:	61 c0 b3    	mov.b     #0x6, w1
    13d8:	50 80 20    	mov.w     #0x805, w0
    13da:	07 00 07    	rcall     0x13ea <_lcd_init> <.LFB5> <.LFE4>
            lcd_init(&lcd[2], 0x05,'A');
    13dc:	12 c4 b3    	mov.b     #0x41, w2
    13de:	51 c0 b3    	mov.b     #0x5, w1
    13e0:	a0 80 20    	mov.w     #0x80a, w0
    13e2:	03 00 07    	rcall     0x13ea <_lcd_init> <.LFB5> <.LFE4>
            break;
    13e4:	00 00 00    	nop       

000013e6 <.L5>:
    }
}
    13e6:	00 80 fa    	ulnk      
    13e8:	00 00 06    	return    

000013ea <_lcd_init>:

// Initializes the LCD screen hardware as per pg. 46 of the datasheet
void lcd_init(_LCD *self, uint8_t addr, char vendor) {
    13ea:	04 00 fa    	lnk       #0x4
    13ec:	00 0f 78    	mov.w     w0, [w14]
    13ee:	21 47 98    	mov.b     w1, [w14+2]
    13f0:	32 47 98    	mov.b     w2, [w14+3]
    switch(vendor){
    13f2:	3e 40 90    	mov.b     [w14+3], w0
    13f4:	00 00 fb    	se        w0, w0
    13f6:	11 04 20    	mov.w     #0x41, w1
    13f8:	81 0f 50    	sub.w     w0, w1, [w15]
    13fa:	10 00 32    	bra       Z, 0x141c <.L14>
    13fc:	41 05 20    	mov.w     #0x54, w1
    13fe:	81 0f 50    	sub.w     w0, w1, [w15]
    1400:	1a 00 3a    	bra       NZ, 0x1436 <.L13>
        case 'T':// 0x40 == vendor prefix for PCF8574T
            self->addr_write = 0x40 + (addr << 1);
    1402:	2e 40 90    	mov.b     [w14+2], w0
    1404:	00 40 40    	add.b     w0, w0, w0
    1406:	02 c4 b3    	mov.b     #0x40, w2
    1408:	82 40 40    	add.b     w0, w2, w1
    140a:	1e 00 78    	mov.w     [w14], w0
    140c:	01 48 78    	mov.b     w1, [w0]
            self->addr_read = 0x40 + (addr << 1)+1;
    140e:	2e 40 90    	mov.b     [w14+2], w0
    1410:	00 40 40    	add.b     w0, w0, w0
    1412:	12 c4 b3    	mov.b     #0x41, w2
    1414:	82 40 40    	add.b     w0, w2, w1
    1416:	1e 00 78    	mov.w     [w14], w0
    1418:	11 40 98    	mov.b     w1, [w0+1]
            break;
    141a:	0d 00 37    	bra       0x1436 <.L13>

0000141c <.L14>:
        case 'A':// 0x70 == vendor prefix PCF8574AT
            self->addr_write = 0x70 + (addr << 1);
    141c:	2e 40 90    	mov.b     [w14+2], w0
    141e:	00 40 40    	add.b     w0, w0, w0
    1420:	02 c7 b3    	mov.b     #0x70, w2
    1422:	82 40 40    	add.b     w0, w2, w1
    1424:	1e 00 78    	mov.w     [w14], w0
    1426:	01 48 78    	mov.b     w1, [w0]
            self->addr_read = 0x70 + (addr << 1)+1;
    1428:	2e 40 90    	mov.b     [w14+2], w0
    142a:	00 40 40    	add.b     w0, w0, w0
    142c:	12 c7 b3    	mov.b     #0x71, w2
    142e:	82 40 40    	add.b     w0, w2, w1
    1430:	1e 00 78    	mov.w     [w14], w0
    1432:	11 40 98    	mov.b     w1, [w0+1]
            break;
    1434:	00 00 00    	nop       

00001436 <.L13>:
    }

    self->display_control = 0x00;
    1436:	1e 00 78    	mov.w     [w14], w0
    1438:	80 40 eb    	clr.b     w1
    143a:	31 40 98    	mov.b     w1, [w0+3]
    self->display_mode = 0x00;
    143c:	1e 00 78    	mov.w     [w14], w0
    143e:	80 40 eb    	clr.b     w1
    1440:	41 40 98    	mov.b     w1, [w0+4]

    self->io_write_val = 0x00;
    1442:	1e 00 78    	mov.w     [w14], w0
    1444:	80 40 eb    	clr.b     w1
    1446:	21 40 98    	mov.b     w1, [w0+2]

    __lcd_i2c_write(self, 0x00);
    1448:	80 40 eb    	clr.b     w1
    144a:	1e 00 78    	mov.w     [w14], w0
    144c:	23 ff 07    	rcall     0x1294 <___lcd_i2c_write> <.L0> <.LFB0> <.Ltext0>

    delay_by_nop(15000);
    144e:	80 a9 23    	mov.w     #0x3a98, w0
    1450:	40 01 07    	rcall     0x16d2 <_delay_by_nop> <.L0> <.LFB0> <.LFE15> <.Letext0> <.Ltext0>

    // Some bullshit according to pg 46
    __lcd_send8(self, 0x03, INTERNAL_WRITE);
    1452:	82 c0 b3    	mov.b     #0x8, w2
    1454:	31 c0 b3    	mov.b     #0x3, w1
    1456:	1e 00 78    	mov.w     [w14], w0
    1458:	6b ff 07    	rcall     0x1330 <___lcd_send8> <.LFB3> <.LFE2>
    delay_by_nop(5000);
    145a:	80 38 21    	mov.w     #0x1388, w0
    145c:	3a 01 07    	rcall     0x16d2 <_delay_by_nop> <.L0> <.LFB0> <.LFE15> <.Letext0> <.Ltext0>

    __lcd_send8(self, 0x03, INTERNAL_WRITE);//0b00110000
    145e:	82 c0 b3    	mov.b     #0x8, w2
    1460:	31 c0 b3    	mov.b     #0x3, w1
    1462:	1e 00 78    	mov.w     [w14], w0
    1464:	65 ff 07    	rcall     0x1330 <___lcd_send8> <.LFB3> <.LFE2>
    delay_by_nop(5000);
    1466:	80 38 21    	mov.w     #0x1388, w0
    1468:	34 01 07    	rcall     0x16d2 <_delay_by_nop> <.L0> <.LFB0> <.LFE15> <.Letext0> <.Ltext0>

    __lcd_send8(self, 0x03, INTERNAL_WRITE);//0b00110000
    146a:	82 c0 b3    	mov.b     #0x8, w2
    146c:	31 c0 b3    	mov.b     #0x3, w1
    146e:	1e 00 78    	mov.w     [w14], w0
    1470:	5f ff 07    	rcall     0x1330 <___lcd_send8> <.LFB3> <.LFE2>
    delay_by_nop(5000);
    1472:	80 38 21    	mov.w     #0x1388, w0
    1474:	2e 01 07    	rcall     0x16d2 <_delay_by_nop> <.L0> <.LFB0> <.LFE15> <.Letext0> <.Ltext0>

    // Put it in 4 bit mode
    __lcd_send8(self, 0x02, INTERNAL_WRITE);//0b00110000
    1476:	82 c0 b3    	mov.b     #0x8, w2
    1478:	21 c0 b3    	mov.b     #0x2, w1
    147a:	1e 00 78    	mov.w     [w14], w0
    147c:	59 ff 07    	rcall     0x1330 <___lcd_send8> <.LFB3> <.LFE2>
    delay_by_nop(5000);
    147e:	80 38 21    	mov.w     #0x1388, w0
    1480:	28 01 07    	rcall     0x16d2 <_delay_by_nop> <.L0> <.LFB0> <.LFE15> <.Letext0> <.Ltext0>

    __lcd_send(self, 0x28, INTERNAL_WRITE); // Set rows and direction
    1482:	82 c0 b3    	mov.b     #0x8, w2
    1484:	81 c2 b3    	mov.b     #0x28, w1
    1486:	1e 00 78    	mov.w     [w14], w0
    1488:	2f ff 07    	rcall     0x12e8 <___lcd_send> <.LFB2> <.LFE1>
    delay_by_nop(50);
    148a:	20 03 20    	mov.w     #0x32, w0
    148c:	22 01 07    	rcall     0x16d2 <_delay_by_nop> <.L0> <.LFB0> <.LFE15> <.Letext0> <.Ltext0>

    __lcd_send(self, 0x80, INTERNAL_WRITE); // Display off, cursor off
    148e:	82 c0 b3    	mov.b     #0x8, w2
    1490:	01 c8 b3    	mov.b     #0x80, w1
    1492:	1e 00 78    	mov.w     [w14], w0
    1494:	29 ff 07    	rcall     0x12e8 <___lcd_send> <.LFB2> <.LFE1>
    delay_by_nop(50);
    1496:	20 03 20    	mov.w     #0x32, w0
    1498:	1c 01 07    	rcall     0x16d2 <_delay_by_nop> <.L0> <.LFB0> <.LFE15> <.Letext0> <.Ltext0>

    __lcd_send(self, 0x01, INTERNAL_WRITE); // Go to home position
    149a:	82 c0 b3    	mov.b     #0x8, w2
    149c:	11 c0 b3    	mov.b     #0x1, w1
    149e:	1e 00 78    	mov.w     [w14], w0
    14a0:	23 ff 07    	rcall     0x12e8 <___lcd_send> <.LFB2> <.LFE1>
    delay_by_nop(2000);
    14a2:	00 7d 20    	mov.w     #0x7d0, w0
    14a4:	16 01 07    	rcall     0x16d2 <_delay_by_nop> <.L0> <.LFB0> <.LFE15> <.Letext0> <.Ltext0>

    __lcd_send(self, 0x06, INTERNAL_WRITE); // Set curson direction
    14a6:	82 c0 b3    	mov.b     #0x8, w2
    14a8:	61 c0 b3    	mov.b     #0x6, w1
    14aa:	1e 00 78    	mov.w     [w14], w0
    14ac:	1d ff 07    	rcall     0x12e8 <___lcd_send> <.LFB2> <.LFE1>
    delay_by_nop(5000);
    14ae:	80 38 21    	mov.w     #0x1388, w0
    14b0:	10 01 07    	rcall     0x16d2 <_delay_by_nop> <.L0> <.LFB0> <.LFE15> <.Letext0> <.Ltext0>

    __lcd_send(self, 0x0C, INTERNAL_WRITE); // Display on, cursor off
    14b2:	82 c0 b3    	mov.b     #0x8, w2
    14b4:	c1 c0 b3    	mov.b     #0xc, w1
    14b6:	1e 00 78    	mov.w     [w14], w0
    14b8:	17 ff 07    	rcall     0x12e8 <___lcd_send> <.LFB2> <.LFE1>
}
    14ba:	00 80 fa    	ulnk      
    14bc:	00 00 06    	return    

000014be <_lcd_stop>:

// Stops lcd I2C transfer
void lcd_stop(_LCD *self) {
    14be:	02 00 fa    	lnk       #0x2
    14c0:	00 0f 78    	mov.w     w0, [w14]
    reset_i2c_bus();
    14c2:	4f 01 07    	rcall     0x1762 <_reset_i2c_bus> <.LFB4> <.LFE3>
}
    14c4:	00 80 fa    	ulnk      
    14c6:	00 00 06    	return    

000014c8 <_lcd_display>:

// Sends show display command to LCD
void lcd_display(_LCD *self, uint8_t on) {
    14c8:	04 00 fa    	lnk       #0x4
    14ca:	00 0f 78    	mov.w     w0, [w14]
    14cc:	21 47 98    	mov.b     w1, [w14+2]
    if (on) {
    14ce:	2e 40 90    	mov.b     [w14+2], w0
    14d0:	00 04 e0    	cp0.b     w0
    14d2:	07 00 32    	bra       Z, 0x14e2 <.L18>
        self->display_control |= LCD_DISPLAYON;
    14d4:	1e 00 78    	mov.w     [w14], w0
    14d6:	30 40 90    	mov.b     [w0+3], w0
    14d8:	80 40 78    	mov.b     w0, w1
    14da:	01 24 a0    	bset.b    w1, #0x2
    14dc:	1e 00 78    	mov.w     [w14], w0
    14de:	31 40 98    	mov.b     w1, [w0+3]
    14e0:	06 00 37    	bra       0x14ee <.L19>

000014e2 <.L18>:
    } else {
        self->display_control &= ~LCD_DISPLAYON;
    14e2:	1e 00 78    	mov.w     [w14], w0
    14e4:	b0 40 90    	mov.b     [w0+3], w1
    14e6:	b0 cf b3    	mov.b     #0xfb, w0
    14e8:	80 c0 60    	and.b     w1, w0, w1
    14ea:	1e 00 78    	mov.w     [w14], w0
    14ec:	31 40 98    	mov.b     w1, [w0+3]

000014ee <.L19>:
    }
    __lcd_send(self, self->display_control | LCD_DISPLAYCONTROL, INTERNAL_WRITE);
    14ee:	1e 00 78    	mov.w     [w14], w0
    14f0:	30 40 90    	mov.b     [w0+3], w0
    14f2:	00 34 a0    	bset.b    w0, #0x3
    14f4:	82 c0 b3    	mov.b     #0x8, w2
    14f6:	80 40 78    	mov.b     w0, w1
    14f8:	1e 00 78    	mov.w     [w14], w0
    14fa:	f6 fe 07    	rcall     0x12e8 <___lcd_send> <.LFB2> <.LFE1>
}
    14fc:	00 80 fa    	ulnk      
    14fe:	00 00 06    	return    

00001500 <_lcd_clear>:

// Sends clear display command to LCD
void lcd_clear(_LCD *self) {
    1500:	02 00 fa    	lnk       #0x2
    1502:	00 0f 78    	mov.w     w0, [w14]
    __lcd_send(self, LCD_CLEARDISPLAY, INTERNAL_WRITE);
    1504:	82 c0 b3    	mov.b     #0x8, w2
    1506:	11 c0 b3    	mov.b     #0x1, w1
    1508:	1e 00 78    	mov.w     [w14], w0
    150a:	ee fe 07    	rcall     0x12e8 <___lcd_send> <.LFB2> <.LFE1>
    delay_by_nop(2000);
    150c:	00 7d 20    	mov.w     #0x7d0, w0
    150e:	e1 00 07    	rcall     0x16d2 <_delay_by_nop> <.L0> <.LFB0> <.LFE15> <.Letext0> <.Ltext0>
}
    1510:	00 80 fa    	ulnk      
    1512:	00 00 06    	return    

00001514 <_lcd_putc>:

// Sends single character to LCD display
void lcd_putc(_LCD *self, char c) {
    1514:	04 00 fa    	lnk       #0x4
    1516:	00 0f 78    	mov.w     w0, [w14]
    1518:	21 47 98    	mov.b     w1, [w14+2]
    __lcd_send(self, c, DR_WRITE);
    151a:	2e 40 90    	mov.b     [w14+2], w0
    151c:	92 c0 b3    	mov.b     #0x9, w2
    151e:	80 40 78    	mov.b     w0, w1
    1520:	1e 00 78    	mov.w     [w14], w0
    1522:	e2 fe 07    	rcall     0x12e8 <___lcd_send> <.LFB2> <.LFE1>
    // delay_by_nop(1000);
}
    1524:	00 80 fa    	ulnk      
    1526:	00 00 06    	return    

00001528 <_lcd_goto>:

// Sends commands to move LCD cursor to specified location
void lcd_goto(_LCD *self, uint8_t line, uint8_t col) { //x=col, y=row
    1528:	06 00 fa    	lnk       #0x6
    152a:	10 07 98    	mov.w     w0, [w14+2]
    152c:	41 47 98    	mov.b     w1, [w14+4]
    152e:	52 47 98    	mov.b     w2, [w14+5]
    uint8_t address;
    switch(line) {
    1530:	4e 40 90    	mov.b     [w14+4], w0
    1532:	00 80 fb    	ze        w0, w0
    1534:	e1 0f 50    	sub.w     w0, #0x1, [w15]
    1536:	03 00 32    	bra       Z, 0x153e <.L24>
    1538:	e2 0f 50    	sub.w     w0, #0x2, [w15]
    153a:	04 00 32    	bra       Z, 0x1544 <.L25>
    153c:	06 00 37    	bra       0x154a <.L27>

0000153e <.L24>:
        case 1:
            address = 0x00;
    153e:	00 40 eb    	clr.b     w0
    1540:	00 4f 78    	mov.b     w0, [w14]
            break;
    1542:	06 00 37    	bra       0x1550 <.L26>

00001544 <.L25>:
        case 2:
            address = 0x40;
    1544:	00 c4 b3    	mov.b     #0x40, w0
    1546:	00 4f 78    	mov.b     w0, [w14]
            break;
    1548:	03 00 37    	bra       0x1550 <.L26>

0000154a <.L27>:
        default:
            address = 0x00;
    154a:	00 40 eb    	clr.b     w0
    154c:	00 4f 78    	mov.b     w0, [w14]
            break;
    154e:	00 00 00    	nop       

00001550 <.L26>:
    }

    address = address+col;
    1550:	5e 40 90    	mov.b     [w14+5], w0
    1552:	1e 4f 40    	add.b     w0, [w14], [w14]
    __lcd_send(self, LCD_SETDDRAMADDR | address, INTERNAL_WRITE);
    1554:	1e 40 78    	mov.b     [w14], w0
    1556:	00 74 a0    	bset.b    w0, #0x7
    1558:	82 c0 b3    	mov.b     #0x8, w2
    155a:	80 40 78    	mov.b     w0, w1
    155c:	1e 00 90    	mov.w     [w14+2], w0
    155e:	c4 fe 07    	rcall     0x12e8 <___lcd_send> <.LFB2> <.LFE1>
}
    1560:	00 80 fa    	ulnk      
    1562:	00 00 06    	return    

00001564 <_lcd_cursor>:


void lcd_cursor(_LCD *self, uint8_t cur) {
    1564:	04 00 fa    	lnk       #0x4
    1566:	00 0f 78    	mov.w     w0, [w14]
    1568:	21 47 98    	mov.b     w1, [w14+2]
    switch(cur) {
    156a:	2e 40 90    	mov.b     [w14+2], w0
    156c:	00 80 fb    	ze        w0, w0
    156e:	00 00 e0    	cp0.w     w0
    1570:	03 00 32    	bra       Z, 0x1578 <.L30>
    1572:	e1 0f 50    	sub.w     w0, #0x1, [w15]
    1574:	06 00 32    	bra       Z, 0x1582 <.L31>
        case 0:
            __lcd_send(self, 0x0C, INTERNAL_WRITE);
            break;
        case 1:
            __lcd_send(self, 0x0E, INTERNAL_WRITE);
            break;
        default:
            break;
    1576:	0a 00 37    	bra       0x158c <.L28>

00001578 <.L30>:
    1578:	82 c0 b3    	mov.b     #0x8, w2
    157a:	c1 c0 b3    	mov.b     #0xc, w1
    157c:	1e 00 78    	mov.w     [w14], w0
    157e:	b4 fe 07    	rcall     0x12e8 <___lcd_send> <.LFB2> <.LFE1>
    1580:	05 00 37    	bra       0x158c <.L28>

00001582 <.L31>:
    1582:	82 c0 b3    	mov.b     #0x8, w2
    1584:	e1 c0 b3    	mov.b     #0xe, w1
    1586:	1e 00 78    	mov.w     [w14], w0
    1588:	af fe 07    	rcall     0x12e8 <___lcd_send> <.LFB2> <.LFE1>
    158a:	00 00 00    	nop       

0000158c <.L28>:
    }
}
    158c:	00 80 fa    	ulnk      
    158e:	00 00 06    	return    

00001590 <_lcd_print1>:

void lcd_print1(_LCD *self, char *str) {
    1590:	04 00 fa    	lnk       #0x4
    1592:	00 0f 78    	mov.w     w0, [w14]
    1594:	11 07 98    	mov.w     w1, [w14+2]
    lcd_clear(self);
    1596:	1e 00 78    	mov.w     [w14], w0
    1598:	b3 ff 07    	rcall     0x1500 <_lcd_clear> <.LFB8> <.LFE7>
    while (*str) {
    159a:	08 00 37    	bra       0x15ac <.L34>

0000159c <.L35>:
        lcd_putc(self, *str);
    159c:	1e 00 90    	mov.w     [w14+2], w0
    159e:	10 40 78    	mov.b     [w0], w0
    15a0:	80 40 78    	mov.b     w0, w1
    15a2:	1e 00 78    	mov.w     [w14], w0
    15a4:	b7 ff 07    	rcall     0x1514 <_lcd_putc> <.LFB9> <.LFE8>
        str++;
    15a6:	1e 00 90    	mov.w     [w14+2], w0
    15a8:	00 00 e8    	inc.w     w0, w0
    15aa:	10 07 98    	mov.w     w0, [w14+2]

000015ac <.L34>:
    15ac:	1e 00 90    	mov.w     [w14+2], w0
    15ae:	10 40 78    	mov.b     [w0], w0
    15b0:	00 04 e0    	cp0.b     w0
    15b2:	f4 ff 3a    	bra       NZ, 0x159c <.L35>
    }
}
    15b4:	00 80 fa    	ulnk      
    15b6:	00 00 06    	return    

000015b8 <_lcd_print2>:

void lcd_print2(_LCD *self, char* line1, char* line2){
    15b8:	42 00 fa    	lnk       #0x42
    15ba:	60 1f 98    	mov.w     w0, [w14+60]
    15bc:	71 1f 98    	mov.w     w1, [w14+62]
    15be:	02 27 98    	mov.w     w2, [w14+64]
    lcd_clear(self);
    15c0:	6e 18 90    	mov.w     [w14+60], w0
    15c2:	9e ff 07    	rcall     0x1500 <_lcd_clear> <.LFB8> <.LFE7>
    char str[56] ="                                                        ";
    15c4:	60 21 29    	mov.w     #0x9216, w0
    15c6:	e4 00 47    	add.w     w14, #0x4, w1
    15c8:	37 00 09    	repeat    #0x37
    15ca:	b0 58 78    	mov.b     [w0++], [w1++]
    15cc:	80 03 b1    	sub.w     #0x38, w0
    int i =0;
    15ce:	00 00 eb    	clr.w     w0
    15d0:	00 0f 78    	mov.w     w0, [w14]
    while (*line1){
    15d2:	09 00 37    	bra       0x15e6 <.L37>

000015d4 <.L38>:
        str[i]=*line1;
    15d4:	7e 18 90    	mov.w     [w14+62], w0
    15d6:	90 40 78    	mov.b     [w0], w1
    15d8:	64 00 47    	add.w     w14, #0x4, w0
    15da:	1e 00 40    	add.w     w0, [w14], w0
    15dc:	01 48 78    	mov.b     w1, [w0]
        i=i+1;
    15de:	1e 0f e8    	inc.w     [w14], [w14]
        line1++;
    15e0:	7e 18 90    	mov.w     [w14+62], w0
    15e2:	00 00 e8    	inc.w     w0, w0
    15e4:	70 1f 98    	mov.w     w0, [w14+62]

000015e6 <.L37>:
    15e6:	7e 18 90    	mov.w     [w14+62], w0
    15e8:	10 40 78    	mov.b     [w0], w0
    15ea:	00 04 e0    	cp0.b     w0
    15ec:	f3 ff 3a    	bra       NZ, 0x15d4 <.L38>
    }
    i =40;
    15ee:	80 02 20    	mov.w     #0x28, w0
    15f0:	00 0f 78    	mov.w     w0, [w14]
    while (*line2){
    15f2:	09 00 37    	bra       0x1606 <.L39>

000015f4 <.L40>:
        str[i]=*line2;
    15f4:	0e 20 90    	mov.w     [w14+64], w0
    15f6:	90 40 78    	mov.b     [w0], w1
    15f8:	64 00 47    	add.w     w14, #0x4, w0
    15fa:	1e 00 40    	add.w     w0, [w14], w0
    15fc:	01 48 78    	mov.b     w1, [w0]
        i=i+1;
    15fe:	1e 0f e8    	inc.w     [w14], [w14]
        line2++;
    1600:	0e 20 90    	mov.w     [w14+64], w0
    1602:	00 00 e8    	inc.w     w0, w0
    1604:	00 27 98    	mov.w     w0, [w14+64]

00001606 <.L39>:
    1606:	0e 20 90    	mov.w     [w14+64], w0
    1608:	10 40 78    	mov.b     [w0], w0
    160a:	00 04 e0    	cp0.b     w0
    160c:	f3 ff 3a    	bra       NZ, 0x15f4 <.L40>
    }
    char* strptr=str;
    160e:	64 00 47    	add.w     w14, #0x4, w0
    1610:	10 07 98    	mov.w     w0, [w14+2]
    lcd_print1(self,strptr);
    1612:	9e 00 90    	mov.w     [w14+2], w1
    1614:	6e 18 90    	mov.w     [w14+60], w0
    1616:	bc ff 07    	rcall     0x1590 <_lcd_print1> <.LFB12> <.LFE11>
}
    1618:	00 80 fa    	ulnk      
    161a:	00 00 06    	return    

0000161c <_lcd_print>:

void lcd_print(_LCD *self, char* message) {
    161c:	30 00 fa    	lnk       #0x30
    161e:	60 17 98    	mov.w     w0, [w14+44]
    1620:	71 17 98    	mov.w     w1, [w14+46]
    char newstr1[17] = "                ";
    1622:	f0 24 29    	mov.w     #0x924f, w0
    1624:	ea 00 47    	add.w     w14, #0xa, w1
    1626:	10 00 09    	repeat    #0x10
    1628:	b0 58 78    	mov.b     [w0++], [w1++]
    162a:	10 01 b1    	sub.w     #0x11, w0
    char* newstrptr1= newstr1;
    162c:	6a 0f 47    	add.w     w14, #0xa, [w14]
    char newstr2[17] = "                ";
    162e:	f0 24 29    	mov.w     #0x924f, w0
    1630:	fb 00 47    	add.w     w14, #0x1b, w1
    1632:	10 00 09    	repeat    #0x10
    1634:	b0 58 78    	mov.b     [w0++], [w1++]
    1636:	10 01 b1    	sub.w     #0x11, w0
    char* newstrptr2= newstr2;
    1638:	7b 00 47    	add.w     w14, #0x1b, w0
    163a:	10 07 98    	mov.w     w0, [w14+2]
    char* temp1 = newstrptr1;
    163c:	9e 00 78    	mov.w     [w14], w1
    163e:	31 07 98    	mov.w     w1, [w14+6]
    char* temp2 = newstrptr2;
    1640:	9e 00 90    	mov.w     [w14+2], w1
    1642:	41 07 98    	mov.w     w1, [w14+8]
    uint8_t i=0;
    1644:	00 40 eb    	clr.b     w0
    1646:	40 47 98    	mov.b     w0, [w14+4]
    while (i <17){
    1648:	0f 00 37    	bra       0x1668 <.L42>

0000164a <.L44>:
        if (*message){
    164a:	7e 10 90    	mov.w     [w14+46], w0
    164c:	10 40 78    	mov.b     [w0], w0
    164e:	00 04 e0    	cp0.b     w0
    1650:	08 00 32    	bra       Z, 0x1662 <.L43>
            *newstrptr1=*message;
    1652:	7e 10 90    	mov.w     [w14+46], w0
    1654:	90 40 78    	mov.b     [w0], w1
    1656:	1e 00 78    	mov.w     [w14], w0
    1658:	01 48 78    	mov.b     w1, [w0]
            message++;
    165a:	7e 10 90    	mov.w     [w14+46], w0
    165c:	00 00 e8    	inc.w     w0, w0
    165e:	70 17 98    	mov.w     w0, [w14+46]
            newstrptr1++;
    1660:	1e 0f e8    	inc.w     [w14], [w14]

00001662 <.L43>:
        }
        i++;
    1662:	4e 40 90    	mov.b     [w14+4], w0
    1664:	00 40 e8    	inc.b     w0, w0
    1666:	40 47 98    	mov.b     w0, [w14+4]

00001668 <.L42>:
    1668:	4e 40 90    	mov.b     [w14+4], w0
    166a:	f0 4f 50    	sub.b     w0, #0x10, [w15]
    166c:	ee ff 36    	bra       LEU, 0x164a <.L44>
    }
    i=0;
    166e:	00 40 eb    	clr.b     w0
    1670:	40 47 98    	mov.b     w0, [w14+4]
    message--; //SKETCHY!
    1672:	7e 10 90    	mov.w     [w14+46], w0
    1674:	00 00 e9    	dec.w     w0, w0
    1676:	70 17 98    	mov.w     w0, [w14+46]
    while (i <17){
    1678:	11 00 37    	bra       0x169c <.L45>

0000167a <.L47>:
        if (*message){
    167a:	7e 10 90    	mov.w     [w14+46], w0
    167c:	10 40 78    	mov.b     [w0], w0
    167e:	00 04 e0    	cp0.b     w0
    1680:	0a 00 32    	bra       Z, 0x1696 <.L46>
            *newstrptr2=*message;
    1682:	7e 10 90    	mov.w     [w14+46], w0
    1684:	90 40 78    	mov.b     [w0], w1
    1686:	1e 00 90    	mov.w     [w14+2], w0
    1688:	01 48 78    	mov.b     w1, [w0]
            message++;
    168a:	7e 10 90    	mov.w     [w14+46], w0
    168c:	00 00 e8    	inc.w     w0, w0
    168e:	70 17 98    	mov.w     w0, [w14+46]
            newstrptr2++;
    1690:	1e 00 90    	mov.w     [w14+2], w0
    1692:	00 00 e8    	inc.w     w0, w0
    1694:	10 07 98    	mov.w     w0, [w14+2]

00001696 <.L46>:
        }
        i++;
    1696:	4e 40 90    	mov.b     [w14+4], w0
    1698:	00 40 e8    	inc.b     w0, w0
    169a:	40 47 98    	mov.b     w0, [w14+4]

0000169c <.L45>:
    169c:	4e 40 90    	mov.b     [w14+4], w0
    169e:	f0 4f 50    	sub.b     w0, #0x10, [w15]
    16a0:	ec ff 36    	bra       LEU, 0x167a <.L47>
    }
    lcd_print2(self, temp1, temp2);
    16a2:	4e 01 90    	mov.w     [w14+8], w2
    16a4:	be 00 90    	mov.w     [w14+6], w1
    16a6:	6e 10 90    	mov.w     [w14+44], w0
    16a8:	87 ff 07    	rcall     0x15b8 <_lcd_print2> <.LFB13> <.LFE12>
}
    16aa:	00 80 fa    	ulnk      
    16ac:	00 00 06    	return    

000016ae <_lcd_broadcast>:

void lcd_broadcast(char* message) {
    16ae:	04 00 fa    	lnk       #0x4
    16b0:	10 07 98    	mov.w     w0, [w14+2]
    uint8_t i;
    for (i = 0; i < 3; i++)
    16b2:	00 40 eb    	clr.b     w0
    16b4:	00 4f 78    	mov.b     w0, [w14]
    16b6:	08 00 37    	bra       0x16c8 <.L49>

000016b8 <.L50>:
        lcd_print(&lcd[i], message);
    16b8:	1e 80 fb    	ze        [w14], w0
    16ba:	65 00 b9    	mul.su    w0, #0x5, w0
    16bc:	80 00 78    	mov.w     w0, w1
    16be:	00 80 20    	mov.w     #0x800, w0
    16c0:	00 80 40    	add.w     w1, w0, w0
    16c2:	9e 00 90    	mov.w     [w14+2], w1
    16c4:	ab ff 07    	rcall     0x161c <_lcd_print> <.LFB14> <.LFE13>
    16c6:	1e 4f e8    	inc.b     [w14], [w14]

000016c8 <.L49>:
    16c8:	1e 40 78    	mov.b     [w14], w0
    16ca:	e2 4f 50    	sub.b     w0, #0x2, [w15]
    16cc:	f5 ff 36    	bra       LEU, 0x16b8 <.L50>
}
    16ce:	00 80 fa    	ulnk      
    16d0:	00 00 06    	return    

000016d2 <_delay_by_nop>:
// From https://web.archive.org/web/20161223060411/http://www.engscope.com/pic24-tutorial/10-2-i2c-basic-functions/

#include "i2c_reg.h"

void delay_by_nop(int num_nops){    // 1 nop= 375ns
    16d2:	04 00 fa    	lnk       #0x4
    16d4:	10 07 98    	mov.w     w0, [w14+2]
    uint16_t count = 0;
    16d6:	00 00 eb    	clr.w     w0
    16d8:	00 0f 78    	mov.w     w0, [w14]
    while (count < num_nops){
    16da:	02 00 37    	bra       0x16e0 <.L2>

000016dc <.L3>:
        __asm__("nop");
    16dc:	00 00 00    	nop       
        count +=1;
    16de:	1e 0f e8    	inc.w     [w14], [w14]

000016e0 <.L2>:
    16e0:	1e 00 90    	mov.w     [w14+2], w0
    16e2:	9e 0f 50    	sub.w     w0, [w14], [w15]
    16e4:	fb ff 3e    	bra       GTU, 0x16dc <.L3>
    }
}
    16e6:	00 80 fa    	ulnk      
    16e8:	00 00 06    	return    

000016ea <_i2c_init>:

// initiates I2C3 module to baud rate BRG
void i2c_init(int BRG){      // I2CBRG = 157 for 16Mhz OSC with 100kHz I2C clock
    16ea:	04 00 fa    	lnk       #0x4
    16ec:	10 07 98    	mov.w     w0, [w14+2]
   int temp;
   I2C3BRG = BRG;           // Sets freq to 100kHz
    16ee:	1e 00 90    	mov.w     [w14+2], w0
    16f0:	a0 13 88    	mov.w     w0, 0x274
   I2C3CONbits.I2CEN = 0;	// Disable I2C Mode
    16f2:	77 e2 a9    	bclr.b    0x277, #0x7
   I2C3CONbits.DISSLW = 1;	// Disable slew rate control
    16f4:	77 22 a8    	bset.b    0x277, #0x1
   IFS5bits.MI2C3IF = 0;	 // Clear Interrupt
    16f6:	8e a0 a9    	bclr.b    0x8e, #0x5
   I2C3CONbits.I2CEN = 1;	// Enable I2C Mode
    16f8:	77 e2 a8    	bset.b    0x277, #0x7
   temp = I2C3RCV;	 // read buffer to clear buffer full
    16fa:	80 13 80    	mov.w     0x270, w0
    16fc:	00 0f 78    	mov.w     w0, [w14]
   reset_i2c_bus();	 // set bus to idle
    16fe:	31 00 07    	rcall     0x1762 <_reset_i2c_bus> <.LFB4> <.LFE3>
}
    1700:	00 80 fa    	ulnk      
    1702:	00 00 06    	return    

00001704 <_i2c_start>:

//function iniates a start condition on bus
void i2c_start(void){
    1704:	02 00 fa    	lnk       #0x2
   int x = 0;
    1706:	00 00 eb    	clr.w     w0
    1708:	00 0f 78    	mov.w     w0, [w14]
   I2C3CONbits.ACKDT = 0;	//Reset any previous Ack
    170a:	76 a2 a9    	bclr.b    0x276, #0x5
   delay_by_nop(10);
    170c:	a0 00 20    	mov.w     #0xa, w0
    170e:	e1 ff 07    	rcall     0x16d2 <_delay_by_nop> <.L0> <.LFB0> <.LFE15> <.Letext0> <.Ltext0>
   I2C3CONbits.SEN = 1;	//Initiate Start condition
    1710:	76 02 a8    	bset.b    0x276, #0x0
   __asm__("nop");
    1712:	00 00 00    	nop       

   while (I2C3CONbits.SEN){    //the hardware will automatically clear Start Bit
    1714:	06 00 37    	bra       0x1722 <.L6>

00001716 <.L8>:
      delay_by_nop(1);      //wait for automatic clear before proceding
    1716:	10 00 20    	mov.w     #0x1, w0
    1718:	dc ff 07    	rcall     0x16d2 <_delay_by_nop> <.L0> <.LFB0> <.LFE15> <.Letext0> <.Ltext0>
      x++;
    171a:	1e 0f e8    	inc.w     [w14], [w14]
      if (x > 20)
    171c:	1e 00 78    	mov.w     [w14], w0
    171e:	f4 0f 50    	sub.w     w0, #0x14, [w15]
    1720:	05 00 3c    	bra       GT, 0x172c <.L9>

00001722 <.L6>:
    1722:	b0 13 80    	mov.w     0x276, w0
    1724:	61 00 60    	and.w     w0, #0x1, w0
    1726:	00 00 e0    	cp0.w     w0
    1728:	f6 ff 3a    	bra       NZ, 0x1716 <.L8>
    172a:	01 00 37    	bra       0x172e <.L7>

0000172c <.L9>:
      break;
    172c:	00 00 00    	nop       

0000172e <.L7>:
   }
   delay_by_nop(2);
    172e:	20 00 20    	mov.w     #0x2, w0
    1730:	d0 ff 07    	rcall     0x16d2 <_delay_by_nop> <.L0> <.LFB0> <.LFE15> <.Letext0> <.Ltext0>
}
    1732:	00 80 fa    	ulnk      
    1734:	00 00 06    	return    

00001736 <_i2c_restart>:

void i2c_restart(void){
    1736:	02 00 fa    	lnk       #0x2
   int x = 0;
    1738:	00 00 eb    	clr.w     w0
    173a:	00 0f 78    	mov.w     w0, [w14]
   I2C3CONbits.RSEN = 1;	//Initiate restart condition
    173c:	76 22 a8    	bset.b    0x276, #0x1
   __asm__("nop");
    173e:	00 00 00    	nop       
   //the hardware will automatically clear restart bit
   //wait for automatic clear before proceding
   while (I2C3CONbits.RSEN){
    1740:	06 00 37    	bra       0x174e <.L11>

00001742 <.L13>:
      delay_by_nop(1);
    1742:	10 00 20    	mov.w     #0x1, w0
    1744:	c6 ff 07    	rcall     0x16d2 <_delay_by_nop> <.L0> <.LFB0> <.LFE15> <.Letext0> <.Ltext0>
      x++;
    1746:	1e 0f e8    	inc.w     [w14], [w14]
      if (x > 20)	break;
    1748:	1e 00 78    	mov.w     [w14], w0
    174a:	f4 0f 50    	sub.w     w0, #0x14, [w15]
    174c:	05 00 3c    	bra       GT, 0x1758 <.L14>

0000174e <.L11>:
    174e:	b0 13 80    	mov.w     0x276, w0
    1750:	62 00 60    	and.w     w0, #0x2, w0
    1752:	00 00 e0    	cp0.w     w0
    1754:	f6 ff 3a    	bra       NZ, 0x1742 <.L13>
    1756:	01 00 37    	bra       0x175a <.L12>

00001758 <.L14>:
    1758:	00 00 00    	nop       

0000175a <.L12>:
   }
   delay_by_nop(2);
    175a:	20 00 20    	mov.w     #0x2, w0
    175c:	ba ff 07    	rcall     0x16d2 <_delay_by_nop> <.L0> <.LFB0> <.LFE15> <.Letext0> <.Ltext0>
}
    175e:	00 80 fa    	ulnk      
    1760:	00 00 06    	return    

00001762 <_reset_i2c_bus>:


//Resets the I2C bus to Idle
void reset_i2c_bus(void){
    1762:	02 00 fa    	lnk       #0x2
   int x = 0;
    1764:	00 00 eb    	clr.w     w0
    1766:	00 0f 78    	mov.w     w0, [w14]
   I2C3CONbits.PEN = 1;     //initiate stop bit
    1768:	76 42 a8    	bset.b    0x276, #0x2
   while (I2C3CONbits.PEN) {     //wait for hardware clear of stop bit
    176a:	06 00 37    	bra       0x1778 <.L16>

0000176c <.L18>:
      // delay_by_nop(1);
      delay_by_nop(1);
    176c:	10 00 20    	mov.w     #0x1, w0
    176e:	b1 ff 07    	rcall     0x16d2 <_delay_by_nop> <.L0> <.LFB0> <.LFE15> <.Letext0> <.Ltext0>
      x ++;
    1770:	1e 0f e8    	inc.w     [w14], [w14]
      if (x > 20) break;
    1772:	1e 00 78    	mov.w     [w14], w0
    1774:	f4 0f 50    	sub.w     w0, #0x14, [w15]
    1776:	05 00 3c    	bra       GT, 0x1782 <.L19>

00001778 <.L16>:
    1778:	b0 13 80    	mov.w     0x276, w0
    177a:	64 00 60    	and.w     w0, #0x4, w0
    177c:	00 00 e0    	cp0.w     w0
    177e:	f6 ff 3a    	bra       NZ, 0x176c <.L18>
    1780:	01 00 37    	bra       0x1784 <.L17>

00001782 <.L19>:
    1782:	00 00 00    	nop       

00001784 <.L17>:
   }

   I2C3CONbits.RCEN = 0;
    1784:	76 62 a9    	bclr.b    0x276, #0x3
   IFS5bits.MI2C3IF = 0; // Clear Interrupt
    1786:	8e a0 a9    	bclr.b    0x8e, #0x5
   I2C3STATbits.IWCOL = 0;
    1788:	78 e2 a9    	bclr.b    0x278, #0x7
   I2C3STATbits.BCL = 0;
    178a:	79 42 a9    	bclr.b    0x279, #0x2
   // delay_by_nop(10);
   delay_by_nop(10);
    178c:	a0 00 20    	mov.w     #0xa, w0
    178e:	a1 ff 07    	rcall     0x16d2 <_delay_by_nop> <.L0> <.LFB0> <.LFE15> <.Letext0> <.Ltext0>
}
    1790:	00 80 fa    	ulnk      
    1792:	00 00 06    	return    

00001794 <_send_i2c_byte>:



char send_i2c_byte(int data){       //basic I2C byte send
    1794:	04 00 fa    	lnk       #0x4
    1796:	10 07 98    	mov.w     w0, [w14+2]
   int i;
   while (I2C3STATbits.TBF) { }
    1798:	00 00 00    	nop       

0000179a <.L21>:
    179a:	c0 13 80    	mov.w     0x278, w0
    179c:	61 00 60    	and.w     w0, #0x1, w0
    179e:	00 00 e0    	cp0.w     w0
    17a0:	fc ff 3a    	bra       NZ, 0x179a <.L21>
   IFS5bits.MI2C3IF = 0; // Clear Interrupt
    17a2:	8e a0 a9    	bclr.b    0x8e, #0x5
   I2C3TRN = data; // load the outgoing data byte
    17a4:	1e 00 90    	mov.w     [w14+2], w0
    17a6:	90 13 88    	mov.w     w0, 0x272

   for (i=0; i<500; i++){           // wait for transmission
    17a8:	00 00 eb    	clr.w     w0
    17aa:	00 0f 78    	mov.w     w0, [w14]
    17ac:	08 00 37    	bra       0x17be <.L22>

000017ae <.L25>:
      if (!I2C3STATbits.TRSTAT) break;
    17ae:	c1 13 80    	mov.w     0x278, w1
    17b0:	00 00 24    	mov.w     #0x4000, w0
    17b2:	00 80 60    	and.w     w1, w0, w0
    17b4:	00 00 e0    	cp0.w     w0
    17b6:	08 00 32    	bra       Z, 0x17c8 <.L29>
      delay_by_nop(1); }
    17b8:	10 00 20    	mov.w     #0x1, w0
    17ba:	8b ff 07    	rcall     0x16d2 <_delay_by_nop> <.L0> <.LFB0> <.LFE15> <.Letext0> <.Ltext0>
    17bc:	1e 0f e8    	inc.w     [w14], [w14]

000017be <.L22>:
    17be:	30 1f 20    	mov.w     #0x1f3, w0
    17c0:	9e 00 78    	mov.w     [w14], w1
    17c2:	80 8f 50    	sub.w     w1, w0, [w15]
    17c4:	f4 ff 34    	bra       LE, 0x17ae <.L25>
    17c6:	01 00 37    	bra       0x17ca <.L24>

000017c8 <.L29>:
    17c8:	00 00 00    	nop       

000017ca <.L24>:

    if (i == 500) {
    17ca:	40 1f 20    	mov.w     #0x1f4, w0
    17cc:	9e 00 78    	mov.w     [w14], w1
    17ce:	80 8f 50    	sub.w     w1, w0, [w15]
    17d0:	02 00 3a    	bra       NZ, 0x17d6 <.L26>
        return(1); }
    17d2:	10 c0 b3    	mov.b     #0x1, w0
    17d4:	0b 00 37    	bra       0x17ec <.L27>

000017d6 <.L26>:

   if (I2C3STATbits.ACKSTAT == 1){          // Check for NO_ACK from slave, abort if not found
    17d6:	c1 13 80    	mov.w     0x278, w1
    17d8:	00 00 28    	mov.w     #0x8000, w0
    17da:	00 80 60    	and.w     w1, w0, w0
    17dc:	00 00 e0    	cp0.w     w0
    17de:	03 00 32    	bra       Z, 0x17e6 <.L28>
      reset_i2c_bus();
    17e0:	c0 ff 07    	rcall     0x1762 <_reset_i2c_bus> <.LFB4> <.LFE3>
      return(1); }
    17e2:	10 c0 b3    	mov.b     #0x1, w0
    17e4:	03 00 37    	bra       0x17ec <.L27>

000017e6 <.L28>:

   delay_by_nop(2);
    17e6:	20 00 20    	mov.w     #0x2, w0
    17e8:	74 ff 07    	rcall     0x16d2 <_delay_by_nop> <.L0> <.LFB0> <.LFE15> <.Letext0> <.Ltext0>
   return(0);
    17ea:	00 40 eb    	clr.b     w0

000017ec <.L27>:
}
    17ec:	00 80 fa    	ulnk      
    17ee:	00 00 06    	return    

000017f0 <_i2c_read>:


//function reads data, returns the read data, no ack
char i2c_read(void){
    17f0:	04 00 fa    	lnk       #0x4
   int i = 0;
    17f2:	00 00 eb    	clr.w     w0
    17f4:	00 0f 78    	mov.w     w0, [w14]
   char data = 0;
    17f6:	00 40 eb    	clr.b     w0
    17f8:	20 47 98    	mov.b     w0, [w14+2]
   I2C3CONbits.RCEN = 1;            //set I2C module to receive
    17fa:	76 62 a8    	bset.b    0x276, #0x3

   while (!I2C3STATbits.RBF) {           //if no response, break
    17fc:	05 00 37    	bra       0x1808 <.L31>

000017fe <.L33>:
      i ++;
    17fe:	1e 0f e8    	inc.w     [w14], [w14]
      if (i > 2000) break;
    1800:	00 7d 20    	mov.w     #0x7d0, w0
    1802:	9e 00 78    	mov.w     [w14], w1
    1804:	80 8f 50    	sub.w     w1, w0, [w15]
    1806:	05 00 3c    	bra       GT, 0x1812 <.L34>

00001808 <.L31>:
    1808:	c0 13 80    	mov.w     0x278, w0
    180a:	62 00 60    	and.w     w0, #0x2, w0
    180c:	00 00 e0    	cp0.w     w0
    180e:	f7 ff 32    	bra       Z, 0x17fe <.L33>
    1810:	01 00 37    	bra       0x1814 <.L32>

00001812 <.L34>:
    1812:	00 00 00    	nop       

00001814 <.L32>:
   }

   data = I2C3RCV;       //get data from I2C3RCV register
    1814:	80 13 80    	mov.w     0x270, w0
    1816:	20 47 98    	mov.b     w0, [w14+2]
   return data;
    1818:	2e 40 90    	mov.b     [w14+2], w0
}
    181a:	00 80 fa    	ulnk      
    181c:	00 00 06    	return    

0000181e <_i2c_read_ack>:


//function reads data, returns the read data, with ack
char i2c_read_ack(void){	//does not reset bus!!!
    181e:	04 00 fa    	lnk       #0x4
   int i = 0;
    1820:	00 00 eb    	clr.w     w0
    1822:	00 0f 78    	mov.w     w0, [w14]
   char data = 0;
    1824:	00 40 eb    	clr.b     w0
    1826:	20 47 98    	mov.b     w0, [w14+2]
   I2C3CONbits.RCEN = 1;            //set I2C module to receive
    1828:	76 62 a8    	bset.b    0x276, #0x3

   while (!I2C3STATbits.RBF) {       //if no response, break
    182a:	05 00 37    	bra       0x1836 <.L36>

0000182c <.L38>:
      i++;
    182c:	1e 0f e8    	inc.w     [w14], [w14]
      if (i > 2000) break;
    182e:	00 7d 20    	mov.w     #0x7d0, w0
    1830:	9e 00 78    	mov.w     [w14], w1
    1832:	80 8f 50    	sub.w     w1, w0, [w15]
    1834:	05 00 3c    	bra       GT, 0x1840 <.L39>

00001836 <.L36>:
    1836:	c0 13 80    	mov.w     0x278, w0
    1838:	62 00 60    	and.w     w0, #0x2, w0
    183a:	00 00 e0    	cp0.w     w0
    183c:	f7 ff 32    	bra       Z, 0x182c <.L38>
    183e:	01 00 37    	bra       0x1842 <.L37>

00001840 <.L39>:
    1840:	00 00 00    	nop       

00001842 <.L37>:
   }

   data = I2C3RCV;               //get data from I2C3RCV register
    1842:	80 13 80    	mov.w     0x270, w0
    1844:	20 47 98    	mov.b     w0, [w14+2]
   I2C3CONbits.ACKEN = 1;       //set ACK to high
    1846:	76 82 a8    	bset.b    0x276, #0x4
   delay_by_nop(10);               //wait before exiting
    1848:	a0 00 20    	mov.w     #0xa, w0
    184a:	43 ff 07    	rcall     0x16d2 <_delay_by_nop> <.L0> <.LFB0> <.LFE15> <.Letext0> <.Ltext0>
   return data;
    184c:	2e 40 90    	mov.b     [w14+2], w0
}
    184e:	00 80 fa    	ulnk      
    1850:	00 00 06    	return    

00001852 <_I2Cwrite>:

// function puts together I2C protocol for random write
void I2Cwrite(char addr, char subaddr, char value){
    1852:	04 00 fa    	lnk       #0x4
    1854:	00 4f 78    	mov.b     w0, [w14]
    1856:	11 47 98    	mov.b     w1, [w14+1]
    1858:	22 47 98    	mov.b     w2, [w14+2]
   i2c_start();
    185a:	54 ff 07    	rcall     0x1704 <_i2c_start> <.LFB2> <.LFE1>
   send_i2c_byte(addr & 0xfffe); // set /W bit
    185c:	1e 00 fb    	se        [w14], w0
    185e:	80 00 78    	mov.w     w0, w1
    1860:	e0 ff 2f    	mov.w     #0xfffe, w0
    1862:	00 80 60    	and.w     w1, w0, w0
    1864:	97 ff 07    	rcall     0x1794 <_send_i2c_byte> <.LFB5> <.LFE4>
   send_i2c_byte(subaddr);
    1866:	1e 40 90    	mov.b     [w14+1], w0
    1868:	00 00 fb    	se        w0, w0
    186a:	94 ff 07    	rcall     0x1794 <_send_i2c_byte> <.LFB5> <.LFE4>
   send_i2c_byte(value);
    186c:	2e 40 90    	mov.b     [w14+2], w0
    186e:	00 00 fb    	se        w0, w0
    1870:	91 ff 07    	rcall     0x1794 <_send_i2c_byte> <.LFB5> <.LFE4>
   reset_i2c_bus();
    1872:	77 ff 07    	rcall     0x1762 <_reset_i2c_bus> <.LFB4> <.LFE3>
}
    1874:	00 80 fa    	ulnk      
    1876:	00 00 06    	return    

00001878 <_I2Cread>:

// function puts together I2C protocol for random read
char I2Cread(char addr, char subaddr){
    1878:	04 00 fa    	lnk       #0x4
    187a:	20 47 98    	mov.b     w0, [w14+2]
    187c:	31 47 98    	mov.b     w1, [w14+3]
   char temp;

   i2c_start();
    187e:	42 ff 07    	rcall     0x1704 <_i2c_start> <.LFB2> <.LFE1>
   send_i2c_byte(addr);
    1880:	2e 40 90    	mov.b     [w14+2], w0
    1882:	00 00 fb    	se        w0, w0
    1884:	87 ff 07    	rcall     0x1794 <_send_i2c_byte> <.LFB5> <.LFE4>
   send_i2c_byte(subaddr);
    1886:	3e 40 90    	mov.b     [w14+3], w0
    1888:	00 00 fb    	se        w0, w0
    188a:	84 ff 07    	rcall     0x1794 <_send_i2c_byte> <.LFB5> <.LFE4>
   delay_by_nop(10);
    188c:	a0 00 20    	mov.w     #0xa, w0
    188e:	21 ff 07    	rcall     0x16d2 <_delay_by_nop> <.L0> <.LFB0> <.LFE15> <.Letext0> <.Ltext0>

   i2c_restart();
    1890:	52 ff 07    	rcall     0x1736 <_i2c_restart> <.LFB3> <.LFE2>
   send_i2c_byte(addr | 0x01); // set R bit
    1892:	2e 40 90    	mov.b     [w14+2], w0
    1894:	00 04 a0    	bset.b    w0, #0x0
    1896:	00 00 fb    	se        w0, w0
    1898:	7d ff 07    	rcall     0x1794 <_send_i2c_byte> <.LFB5> <.LFE4>
   temp = i2c_read();
    189a:	aa ff 07    	rcall     0x17f0 <_i2c_read> <.LFB6> <.LFE5>
    189c:	00 4f 78    	mov.b     w0, [w14]

   reset_i2c_bus();
    189e:	61 ff 07    	rcall     0x1762 <_reset_i2c_bus> <.LFB4> <.LFE3>
   return temp;
    18a0:	1e 40 78    	mov.b     [w14], w0
}
    18a2:	00 80 fa    	ulnk      
    18a4:	00 00 06    	return    

000018a6 <_I2Cpoll>:

// function checks if device at addr is on bus
unsigned char I2Cpoll(char addr){
    18a6:	04 00 fa    	lnk       #0x4
    18a8:	20 47 98    	mov.b     w0, [w14+2]
   unsigned char temp = 0;
    18aa:	00 40 eb    	clr.b     w0
    18ac:	00 4f 78    	mov.b     w0, [w14]
   i2c_start();
    18ae:	2a ff 07    	rcall     0x1704 <_i2c_start> <.LFB2> <.LFE1>
   temp = send_i2c_byte((addr) & (0xfffe)); // set /W bit
    18b0:	2e 40 90    	mov.b     [w14+2], w0
    18b2:	00 00 fb    	se        w0, w0
    18b4:	80 00 78    	mov.w     w0, w1
    18b6:	e0 ff 2f    	mov.w     #0xfffe, w0
    18b8:	00 80 60    	and.w     w1, w0, w0
    18ba:	6c ff 07    	rcall     0x1794 <_send_i2c_byte> <.LFB5> <.LFE4>
    18bc:	00 4f 78    	mov.b     w0, [w14]
   reset_i2c_bus();
    18be:	51 ff 07    	rcall     0x1762 <_reset_i2c_bus> <.LFB4> <.LFE3>

   return temp;
    18c0:	1e 40 78    	mov.b     [w14], w0
}
    18c2:	00 80 fa    	ulnk      
    18c4:	00 00 06    	return    

000018c6 <_I2Cwritearray>:

// function writes a byte array over i2c
unsigned char I2Cwritearray(char addr, char dat[], uint8_t len) {
    18c6:	08 00 fa    	lnk       #0x8
    18c8:	20 47 98    	mov.b     w0, [w14+2]
    18ca:	21 07 98    	mov.w     w1, [w14+4]
    18cc:	62 47 98    	mov.b     w2, [w14+6]
  unsigned char err = 0;
    18ce:	00 40 eb    	clr.b     w0
    18d0:	00 4f 78    	mov.b     w0, [w14]
  i2c_start();
    18d2:	18 ff 07    	rcall     0x1704 <_i2c_start> <.LFB2> <.LFE1>
  err = send_i2c_byte(addr & (0xfffe)); // takes 7 bit address and adds /W bit
    18d4:	2e 40 90    	mov.b     [w14+2], w0
    18d6:	00 00 fb    	se        w0, w0
    18d8:	80 00 78    	mov.w     w0, w1
    18da:	e0 ff 2f    	mov.w     #0xfffe, w0
    18dc:	00 80 60    	and.w     w1, w0, w0
    18de:	5a ff 07    	rcall     0x1794 <_send_i2c_byte> <.LFB5> <.LFE4>
    18e0:	00 4f 78    	mov.b     w0, [w14]
  uint8_t j;
  for (j = 0; j < len; j++) { // keep sending data bytes til we're done unless it misses an ack
    18e2:	00 40 eb    	clr.b     w0
    18e4:	10 47 98    	mov.b     w0, [w14+1]
    18e6:	0d 00 37    	bra       0x1902 <.L44>

000018e8 <.L45>:
    err |= send_i2c_byte(dat[j]);
    18e8:	1e 40 90    	mov.b     [w14+1], w0
    18ea:	00 80 fb    	ze        w0, w0
    18ec:	ae 00 90    	mov.w     [w14+4], w1
    18ee:	00 80 40    	add.w     w1, w0, w0
    18f0:	10 40 78    	mov.b     [w0], w0
    18f2:	00 00 fb    	se        w0, w0
    18f4:	4f ff 07    	rcall     0x1794 <_send_i2c_byte> <.LFB5> <.LFE4>
    18f6:	9e 40 78    	mov.b     [w14], w1
    18f8:	01 40 70    	ior.b     w0, w1, w0
    18fa:	00 4f 78    	mov.b     w0, [w14]
    18fc:	1e 40 90    	mov.b     [w14+1], w0
    18fe:	00 40 e8    	inc.b     w0, w0
    1900:	10 47 98    	mov.b     w0, [w14+1]

00001902 <.L44>:
    1902:	9e 40 90    	mov.b     [w14+1], w1
    1904:	6e 40 90    	mov.b     [w14+6], w0
    1906:	80 cf 50    	sub.b     w1, w0, [w15]
    1908:	ef ff 39    	bra       NC, 0x18e8 <.L45>
  }
  reset_i2c_bus();
    190a:	2b ff 07    	rcall     0x1762 <_reset_i2c_bus> <.LFB4> <.LFE3>
  return err;
    190c:	1e 40 78    	mov.b     [w14], w0
}
    190e:	00 80 fa    	ulnk      
    1910:	00 00 06    	return    

00001912 <_main>:
    1912:	82 00 fa    	lnk       #0x82
    1914:	00 10 20    	mov.w     #0x100, w0
    1916:	20 3a 88    	mov.w     w0, 0x744
    1918:	80 3e 20    	mov.w     #0x3e8, w0
    191a:	e7 fe 07    	rcall     0x16ea <_i2c_init> <.LFB1> <.LFE0>
    191c:	6c 00 47    	add.w     w14, #0xc, w0
    191e:	12 c4 b3    	mov.b     #0x41, w2
    1920:	61 c0 b3    	mov.b     #0x6, w1
    1922:	63 fd 07    	rcall     0x13ea <_lcd_init> <.LFB5> <.LFE4>
    1924:	71 00 47    	add.w     w14, #0x11, w0
    1926:	12 c4 b3    	mov.b     #0x41, w2
    1928:	71 c0 b3    	mov.b     #0x7, w1
    192a:	5f fd 07    	rcall     0x13ea <_lcd_init> <.LFB5> <.LFE4>
    192c:	76 00 47    	add.w     w14, #0x16, w0
    192e:	12 c4 b3    	mov.b     #0x41, w2
    1930:	51 c0 b3    	mov.b     #0x5, w1
    1932:	5b fd 07    	rcall     0x13ea <_lcd_init> <.LFB5> <.LFE4>
    1934:	6c 00 47    	add.w     w14, #0xc, w0
    1936:	e4 fd 07    	rcall     0x1500 <_lcd_clear> <.LFB8> <.LFE7>
    1938:	71 00 47    	add.w     w14, #0x11, w0
    193a:	e2 fd 07    	rcall     0x1500 <_lcd_clear> <.LFB8> <.LFE7>
    193c:	00 26 29    	mov.w     #0x9260, w0
    193e:	fb 00 47    	add.w     w14, #0x1b, w1
    1940:	0e 00 09    	repeat    #0xe
    1942:	b0 58 78    	mov.b     [w0++], [w1++]
    1944:	f0 00 b1    	sub.w     #0xf, w0
    1946:	8e 00 78    	mov.w     w14, w1
    1948:	a1 02 b0    	add.w     #0x2a, w1
    194a:	01 00 09    	repeat    #0x1
    194c:	80 58 eb    	clr.b     [w1++]
    194e:	7b 0f 47    	add.w     w14, #0x1b, [w14]
    1950:	60 00 b8    	mul.uu    w0, #0x0, w0
    1952:	60 17 98    	mov.w     w0, [w14+44]
    1954:	71 17 98    	mov.w     w1, [w14+46]
    1956:	8e 00 78    	mov.w     w14, w1
    1958:	01 03 b0    	add.w     #0x30, w1
    195a:	05 00 09    	repeat    #0x5
    195c:	80 18 eb    	clr.w     [w1++]
    195e:	80 58 eb    	clr.b     [w1++]
    1960:	c0 02 20    	mov.w     #0x2c, w0
    1962:	0e 00 40    	add.w     w0, w14, w0
    1964:	10 07 98    	mov.w     w0, [w14+2]
    1966:	10 27 29    	mov.w     #0x9271, w0
    1968:	d1 03 20    	mov.w     #0x3d, w1
    196a:	81 00 47    	add.w     w14, w1, w1
    196c:	08 00 09    	repeat    #0x8
    196e:	b0 58 78    	mov.b     [w0++], [w1++]
    1970:	90 00 b1    	sub.w     #0x9, w0
    1972:	8e 00 78    	mov.w     w14, w1
    1974:	61 04 b0    	add.w     #0x46, w1
    1976:	07 00 09    	repeat    #0x7
    1978:	80 58 eb    	clr.b     [w1++]
    197a:	d0 03 20    	mov.w     #0x3d, w0
    197c:	0e 00 40    	add.w     w0, w14, w0
    197e:	20 07 98    	mov.w     w0, [w14+4]
    1980:	e0 04 20    	mov.w     #0x4e, w0
    1982:	0e 00 40    	add.w     w0, w14, w0
    1984:	22 57 26    	mov.w     #0x6572, w2
    1986:	13 c6 26    	mov.w     #0x6c61, w3
    1988:	02 88 be    	mov.d     w2, [w0]
    198a:	64 00 40    	add.w     w0, #0x4, w0
    198c:	c2 96 27    	mov.w     #0x796c, w2
    198e:	03 72 27    	mov.w     #0x7720, w3
    1990:	02 88 be    	mov.d     w2, [w0]
    1992:	64 00 40    	add.w     w0, #0x4, w0
    1994:	52 c6 26    	mov.w     #0x6c65, w2
    1996:	c3 06 20    	mov.w     #0x6c, w3
    1998:	02 88 be    	mov.d     w2, [w0]
    199a:	64 00 40    	add.w     w0, #0x4, w0
    199c:	01 00 09    	repeat    #0x1
    199e:	00 18 eb    	clr.w     [w0++]
    19a0:	00 58 eb    	clr.b     [w0++]
    19a2:	50 00 b1    	sub.w     #0x5, w0
    19a4:	e0 04 20    	mov.w     #0x4e, w0
    19a6:	0e 00 40    	add.w     w0, w14, w0
    19a8:	30 07 98    	mov.w     w0, [w14+6]
    19aa:	20 28 29    	mov.w     #0x9282, w0
    19ac:	f1 05 20    	mov.w     #0x5f, w1
    19ae:	81 00 47    	add.w     w14, w1, w1
    19b0:	0a 00 09    	repeat    #0xa
    19b2:	b0 58 78    	mov.b     [w0++], [w1++]
    19b4:	b0 00 b1    	sub.w     #0xb, w0
    19b6:	8e 00 78    	mov.w     w14, w1
    19b8:	a1 06 b0    	add.w     #0x6a, w1
    19ba:	05 00 09    	repeat    #0x5
    19bc:	80 58 eb    	clr.b     [w1++]
    19be:	f0 05 20    	mov.w     #0x5f, w0
    19c0:	0e 00 40    	add.w     w0, w14, w0
    19c2:	40 07 98    	mov.w     w0, [w14+8]
    19c4:	60 00 b8    	mul.uu    w0, #0x0, w0
    19c6:	00 3f 98    	mov.w     w0, [w14+112]
    19c8:	11 3f 98    	mov.w     w1, [w14+114]
    19ca:	8e 00 78    	mov.w     w14, w1
    19cc:	41 07 b0    	add.w     #0x74, w1
    19ce:	05 00 09    	repeat    #0x5
    19d0:	80 18 eb    	clr.w     [w1++]
    19d2:	80 58 eb    	clr.b     [w1++]
    19d4:	00 07 20    	mov.w     #0x70, w0
    19d6:	0e 00 40    	add.w     w0, w14, w0
    19d8:	50 07 98    	mov.w     w0, [w14+10]
    19da:	6c 00 47    	add.w     w14, #0xc, w0
    19dc:	1e 01 90    	mov.w     [w14+2], w2
    19de:	9e 00 78    	mov.w     [w14], w1
    19e0:	eb fd 07    	rcall     0x15b8 <_lcd_print2> <.LFB13> <.LFE12>
    19e2:	71 00 47    	add.w     w14, #0x11, w0
    19e4:	3e 01 90    	mov.w     [w14+6], w2
    19e6:	ae 00 90    	mov.w     [w14+4], w1
    19e8:	e7 fd 07    	rcall     0x15b8 <_lcd_print2> <.LFB13> <.LFE12>
    19ea:	76 00 47    	add.w     w14, #0x16, w0
    19ec:	5e 01 90    	mov.w     [w14+10], w2
    19ee:	ce 00 90    	mov.w     [w14+8], w1
    19f0:	e3 fd 07    	rcall     0x15b8 <_lcd_print2> <.LFB13> <.LFE12>

000019f2 <.L2>:
    19f2:	ff ff 37    	bra       .

000019f4 <_parity>:

#include "common.h"

uint8_t parity(uint16_t v)
{
    19f4:	02 00 fa    	lnk       #0x2
    19f6:	00 0f 78    	mov.w     w0, [w14]
    v ^= v >> 8;
    19f8:	1e 00 78    	mov.w     [w14], w0
    19fa:	48 00 de    	lsr.w     w0, #0x8, w0
    19fc:	1e 0f 68    	xor.w     w0, [w14], [w14]
    v ^= v >> 4;
    19fe:	1e 00 78    	mov.w     [w14], w0
    1a00:	44 00 de    	lsr.w     w0, #0x4, w0
    1a02:	1e 0f 68    	xor.w     w0, [w14], [w14]
    v ^= v >> 2;
    1a04:	1e 00 78    	mov.w     [w14], w0
    1a06:	42 00 de    	lsr.w     w0, #0x2, w0
    1a08:	1e 0f 68    	xor.w     w0, [w14], [w14]
    v ^= v >> 1;
    1a0a:	1e 00 78    	mov.w     [w14], w0
    1a0c:	00 00 d1    	lsr.w     w0, w0
    1a0e:	1e 0f 68    	xor.w     w0, [w14], [w14]
    return v & 1;
    1a10:	1e 00 78    	mov.w     [w14], w0
    1a12:	00 40 78    	mov.b     w0, w0
    1a14:	61 40 60    	and.b     w0, #0x1, w0
}
    1a16:	00 80 fa    	ulnk      
    1a18:	00 00 06    	return    
Disassembly of section .dinit:

00001a1a <.dinit>:
    1a1a:	00 08 00    	nop       
    1a1c:	10 00 00    	nop       
    1a1e:	80 00 00    	nop       
    1a20:	00 00 00    	nop       
Disassembly of section .isr:

00001a22 <__DefaultInterrupt>:
    1a22:	00 40 da    	break     
    1a24:	00 00 fe    	reset     
