
combolock.elf:     file format elf32-pic30

Disassembly of section .aivt._AltADC1Interrupt:

0000012e <.aivt._AltADC1Interrupt>:
 12e:	40 14 00    	nop       
Disassembly of section .aivt._AltAddressError:

00000108 <.aivt._AltAddressError>:
 108:	40 14 00    	nop       
Disassembly of section .aivt._AltCNInterrupt:

0000013a <.aivt._AltCNInterrupt>:
 13a:	40 14 00    	nop       
Disassembly of section .aivt._AltCRCInterrupt:

0000019a <.aivt._AltCRCInterrupt>:
 19a:	40 14 00    	nop       
Disassembly of section .aivt._AltCTMUInterrupt:

000001ae <.aivt._AltCTMUInterrupt>:
 1ae:	40 14 00    	nop       
Disassembly of section .aivt._AltCompInterrupt:

00000138 <.aivt._AltCompInterrupt>:
 138:	40 14 00    	nop       
Disassembly of section .aivt._AltIC1Interrupt:

00000116 <.aivt._AltIC1Interrupt>:
 116:	40 14 00    	nop       
Disassembly of section .aivt._AltIC2Interrupt:

0000011e <.aivt._AltIC2Interrupt>:
 11e:	40 14 00    	nop       
Disassembly of section .aivt._AltIC3Interrupt:

0000015e <.aivt._AltIC3Interrupt>:
 15e:	40 14 00    	nop       
Disassembly of section .aivt._AltIC4Interrupt:

00000160 <.aivt._AltIC4Interrupt>:
 160:	40 14 00    	nop       
Disassembly of section .aivt._AltIC5Interrupt:

00000162 <.aivt._AltIC5Interrupt>:
 162:	40 14 00    	nop       
Disassembly of section .aivt._AltIC6Interrupt:

00000164 <.aivt._AltIC6Interrupt>:
 164:	40 14 00    	nop       
Disassembly of section .aivt._AltIC7Interrupt:

00000140 <.aivt._AltIC7Interrupt>:
 140:	40 14 00    	nop       
Disassembly of section .aivt._AltIC8Interrupt:

00000142 <.aivt._AltIC8Interrupt>:
 142:	40 14 00    	nop       
Disassembly of section .aivt._AltIC9Interrupt:

000001ce <.aivt._AltIC9Interrupt>:
 1ce:	40 14 00    	nop       
Disassembly of section .aivt._AltINT0Interrupt:

00000114 <.aivt._AltINT0Interrupt>:
 114:	40 14 00    	nop       
Disassembly of section .aivt._AltINT1Interrupt:

0000013c <.aivt._AltINT1Interrupt>:
 13c:	40 14 00    	nop       
Disassembly of section .aivt._AltINT2Interrupt:

0000014e <.aivt._AltINT2Interrupt>:
 14e:	40 14 00    	nop       
Disassembly of section .aivt._AltINT3Interrupt:

0000017e <.aivt._AltINT3Interrupt>:
 17e:	40 14 00    	nop       
Disassembly of section .aivt._AltINT4Interrupt:

00000180 <.aivt._AltINT4Interrupt>:
 180:	40 14 00    	nop       
Disassembly of section .aivt._AltInterrupt14:

00000130 <.aivt._AltInterrupt14>:
 130:	40 14 00    	nop       
Disassembly of section .aivt._AltInterrupt15:

00000132 <.aivt._AltInterrupt15>:
 132:	40 14 00    	nop       
Disassembly of section .aivt._AltInterrupt21:

0000013e <.aivt._AltInterrupt21>:
 13e:	40 14 00    	nop       
Disassembly of section .aivt._AltInterrupt24:

00000144 <.aivt._AltInterrupt24>:
 144:	40 14 00    	nop       
Disassembly of section .aivt._AltInterrupt34:

00000158 <.aivt._AltInterrupt34>:
 158:	40 14 00    	nop       
Disassembly of section .aivt._AltInterrupt35:

0000015a <.aivt._AltInterrupt35>:
 15a:	40 14 00    	nop       
Disassembly of section .aivt._AltInterrupt36:

0000015c <.aivt._AltInterrupt36>:
 15c:	40 14 00    	nop       
Disassembly of section .aivt._AltInterrupt4:

0000011c <.aivt._AltInterrupt4>:
 11c:	40 14 00    	nop       
Disassembly of section .aivt._AltInterrupt46:

00000170 <.aivt._AltInterrupt46>:
 170:	40 14 00    	nop       
Disassembly of section .aivt._AltInterrupt47:

00000172 <.aivt._AltInterrupt47>:
 172:	40 14 00    	nop       
Disassembly of section .aivt._AltInterrupt48:

00000174 <.aivt._AltInterrupt48>:
 174:	40 14 00    	nop       
Disassembly of section .aivt._AltInterrupt51:

0000017a <.aivt._AltInterrupt51>:
 17a:	40 14 00    	nop       
Disassembly of section .aivt._AltInterrupt52:

0000017c <.aivt._AltInterrupt52>:
 17c:	40 14 00    	nop       
Disassembly of section .aivt._AltInterrupt55:

00000182 <.aivt._AltInterrupt55>:
 182:	40 14 00    	nop       
Disassembly of section .aivt._AltInterrupt56:

00000184 <.aivt._AltInterrupt56>:
 184:	40 14 00    	nop       
Disassembly of section .aivt._AltInterrupt57:

00000186 <.aivt._AltInterrupt57>:
 186:	40 14 00    	nop       
Disassembly of section .aivt._AltInterrupt58:

00000188 <.aivt._AltInterrupt58>:
 188:	40 14 00    	nop       
Disassembly of section .aivt._AltInterrupt59:

0000018a <.aivt._AltInterrupt59>:
 18a:	40 14 00    	nop       
Disassembly of section .aivt._AltInterrupt60:

0000018c <.aivt._AltInterrupt60>:
 18c:	40 14 00    	nop       
Disassembly of section .aivt._AltInterrupt61:

0000018e <.aivt._AltInterrupt61>:
 18e:	40 14 00    	nop       
Disassembly of section .aivt._AltInterrupt63:

00000192 <.aivt._AltInterrupt63>:
 192:	40 14 00    	nop       
Disassembly of section .aivt._AltInterrupt64:

00000194 <.aivt._AltInterrupt64>:
 194:	40 14 00    	nop       
Disassembly of section .aivt._AltInterrupt68:

0000019c <.aivt._AltInterrupt68>:
 19c:	40 14 00    	nop       
Disassembly of section .aivt._AltInterrupt69:

0000019e <.aivt._AltInterrupt69>:
 19e:	40 14 00    	nop       
Disassembly of section .aivt._AltInterrupt70:

000001a0 <.aivt._AltInterrupt70>:
 1a0:	40 14 00    	nop       
Disassembly of section .aivt._AltInterrupt71:

000001a2 <.aivt._AltInterrupt71>:
 1a2:	40 14 00    	nop       
Disassembly of section .aivt._AltInterrupt73:

000001a6 <.aivt._AltInterrupt73>:
 1a6:	40 14 00    	nop       
Disassembly of section .aivt._AltInterrupt74:

000001a8 <.aivt._AltInterrupt74>:
 1a8:	40 14 00    	nop       
Disassembly of section .aivt._AltInterrupt75:

000001aa <.aivt._AltInterrupt75>:
 1aa:	40 14 00    	nop       
Disassembly of section .aivt._AltInterrupt76:

000001ac <.aivt._AltInterrupt76>:
 1ac:	40 14 00    	nop       
Disassembly of section .aivt._AltInterrupt78:

000001b0 <.aivt._AltInterrupt78>:
 1b0:	40 14 00    	nop       
Disassembly of section .aivt._AltInterrupt79:

000001b2 <.aivt._AltInterrupt79>:
 1b2:	40 14 00    	nop       
Disassembly of section .aivt._AltInterrupt80:

000001b4 <.aivt._AltInterrupt80>:
 1b4:	40 14 00    	nop       
Disassembly of section .aivt._AltLVDInterrupt:

000001a4 <.aivt._AltLVDInterrupt>:
 1a4:	40 14 00    	nop       
Disassembly of section .aivt._AltMI2C1Interrupt:

00000136 <.aivt._AltMI2C1Interrupt>:
 136:	40 14 00    	nop       
Disassembly of section .aivt._AltMI2C2Interrupt:

00000178 <.aivt._AltMI2C2Interrupt>:
 178:	40 14 00    	nop       
Disassembly of section .aivt._AltMI2C3Interrupt:

000001be <.aivt._AltMI2C3Interrupt>:
 1be:	40 14 00    	nop       
Disassembly of section .aivt._AltMathError:

0000010c <.aivt._AltMathError>:
 10c:	40 14 00    	nop       
Disassembly of section .aivt._AltOC1Interrupt:

00000118 <.aivt._AltOC1Interrupt>:
 118:	40 14 00    	nop       
Disassembly of section .aivt._AltOC2Interrupt:

00000120 <.aivt._AltOC2Interrupt>:
 120:	40 14 00    	nop       
Disassembly of section .aivt._AltOC3Interrupt:

00000146 <.aivt._AltOC3Interrupt>:
 146:	40 14 00    	nop       
Disassembly of section .aivt._AltOC4Interrupt:

00000148 <.aivt._AltOC4Interrupt>:
 148:	40 14 00    	nop       
Disassembly of section .aivt._AltOC5Interrupt:

00000166 <.aivt._AltOC5Interrupt>:
 166:	40 14 00    	nop       
Disassembly of section .aivt._AltOC6Interrupt:

00000168 <.aivt._AltOC6Interrupt>:
 168:	40 14 00    	nop       
Disassembly of section .aivt._AltOC7Interrupt:

0000016a <.aivt._AltOC7Interrupt>:
 16a:	40 14 00    	nop       
Disassembly of section .aivt._AltOC8Interrupt:

0000016c <.aivt._AltOC8Interrupt>:
 16c:	40 14 00    	nop       
Disassembly of section .aivt._AltOC9Interrupt:

000001cc <.aivt._AltOC9Interrupt>:
 1cc:	40 14 00    	nop       
Disassembly of section .aivt._AltOscillatorFail:

00000106 <.aivt._AltOscillatorFail>:
 106:	40 14 00    	nop       
Disassembly of section .aivt._AltPMPInterrupt:

0000016e <.aivt._AltPMPInterrupt>:
 16e:	40 14 00    	nop       
Disassembly of section .aivt._AltRTCCInterrupt:

00000190 <.aivt._AltRTCCInterrupt>:
 190:	40 14 00    	nop       
Disassembly of section .aivt._AltReservedTrap0:

00000104 <.aivt._AltReservedTrap0>:
 104:	40 14 00    	nop       
Disassembly of section .aivt._AltReservedTrap5:

0000010e <.aivt._AltReservedTrap5>:
 10e:	40 14 00    	nop       
Disassembly of section .aivt._AltReservedTrap6:

00000110 <.aivt._AltReservedTrap6>:
 110:	40 14 00    	nop       
Disassembly of section .aivt._AltReservedTrap7:

00000112 <.aivt._AltReservedTrap7>:
 112:	40 14 00    	nop       
Disassembly of section .aivt._AltSI2C1Interrupt:

00000134 <.aivt._AltSI2C1Interrupt>:
 134:	40 14 00    	nop       
Disassembly of section .aivt._AltSI2C2Interrupt:

00000176 <.aivt._AltSI2C2Interrupt>:
 176:	40 14 00    	nop       
Disassembly of section .aivt._AltSI2C3Interrupt:

000001bc <.aivt._AltSI2C3Interrupt>:
 1bc:	40 14 00    	nop       
Disassembly of section .aivt._AltSPI1ErrInterrupt:

00000126 <.aivt._AltSPI1ErrInterrupt>:
 126:	40 14 00    	nop       
Disassembly of section .aivt._AltSPI1Interrupt:

00000128 <.aivt._AltSPI1Interrupt>:
 128:	40 14 00    	nop       
Disassembly of section .aivt._AltSPI2ErrInterrupt:

00000154 <.aivt._AltSPI2ErrInterrupt>:
 154:	40 14 00    	nop       
Disassembly of section .aivt._AltSPI2Interrupt:

00000156 <.aivt._AltSPI2Interrupt>:
 156:	40 14 00    	nop       
Disassembly of section .aivt._AltSPI3ErrInterrupt:

000001c8 <.aivt._AltSPI3ErrInterrupt>:
 1c8:	40 14 00    	nop       
Disassembly of section .aivt._AltSPI3Interrupt:

000001ca <.aivt._AltSPI3Interrupt>:
 1ca:	40 14 00    	nop       
Disassembly of section .aivt._AltStackError:

0000010a <.aivt._AltStackError>:
 10a:	40 14 00    	nop       
Disassembly of section .aivt._AltT1Interrupt:

0000011a <.aivt._AltT1Interrupt>:
 11a:	40 14 00    	nop       
Disassembly of section .aivt._AltT2Interrupt:

00000122 <.aivt._AltT2Interrupt>:
 122:	40 14 00    	nop       
Disassembly of section .aivt._AltT3Interrupt:

00000124 <.aivt._AltT3Interrupt>:
 124:	40 14 00    	nop       
Disassembly of section .aivt._AltT4Interrupt:

0000014a <.aivt._AltT4Interrupt>:
 14a:	40 14 00    	nop       
Disassembly of section .aivt._AltT5Interrupt:

0000014c <.aivt._AltT5Interrupt>:
 14c:	40 14 00    	nop       
Disassembly of section .aivt._AltU1ErrInterrupt:

00000196 <.aivt._AltU1ErrInterrupt>:
 196:	40 14 00    	nop       
Disassembly of section .aivt._AltU1RXInterrupt:

0000012a <.aivt._AltU1RXInterrupt>:
 12a:	40 14 00    	nop       
Disassembly of section .aivt._AltU1TXInterrupt:

0000012c <.aivt._AltU1TXInterrupt>:
 12c:	40 14 00    	nop       
Disassembly of section .aivt._AltU2ErrInterrupt:

00000198 <.aivt._AltU2ErrInterrupt>:
 198:	40 14 00    	nop       
Disassembly of section .aivt._AltU2RXInterrupt:

00000150 <.aivt._AltU2RXInterrupt>:
 150:	40 14 00    	nop       
Disassembly of section .aivt._AltU2TXInterrupt:

00000152 <.aivt._AltU2TXInterrupt>:
 152:	40 14 00    	nop       
Disassembly of section .aivt._AltU3ErrInterrupt:

000001b6 <.aivt._AltU3ErrInterrupt>:
 1b6:	40 14 00    	nop       
Disassembly of section .aivt._AltU3RXInterrupt:

000001b8 <.aivt._AltU3RXInterrupt>:
 1b8:	40 14 00    	nop       
Disassembly of section .aivt._AltU3TXInterrupt:

000001ba <.aivt._AltU3TXInterrupt>:
 1ba:	40 14 00    	nop       
Disassembly of section .aivt._AltU4ErrInterrupt:

000001c2 <.aivt._AltU4ErrInterrupt>:
 1c2:	40 14 00    	nop       
Disassembly of section .aivt._AltU4RXInterrupt:

000001c4 <.aivt._AltU4RXInterrupt>:
 1c4:	40 14 00    	nop       
Disassembly of section .aivt._AltU4TXInterrupt:

000001c6 <.aivt._AltU4TXInterrupt>:
 1c6:	40 14 00    	nop       
Disassembly of section .aivt._AltUSB1Interrupt:

000001c0 <.aivt._AltUSB1Interrupt>:
 1c0:	40 14 00    	nop       
Disassembly of section .reset:

00000000 <.reset>:
   0:	10 11 04    	goto      0x1110 <__reset>
   2:	00 00 00 
Disassembly of section .text:

00001110 <__reset>:
    1110:	6f 80 20    	mov.w     #0x806, w15
    1112:	0e ff 27    	mov.w     #0x7ff0, w14
    1114:	0e 01 88    	mov.w     w14, 0x20
    1116:	00 00 00    	nop       
    1118:	00 00 20    	mov.w     #0x0, w0
    111a:	00 00 e0    	cp0.w     w0
    111c:	02 00 32    	bra       Z, 0x1122 <CORCON_RESET>
    111e:	00 01 20    	mov.w     #0x10, w0
    1120:	20 02 88    	mov.w     w0, 0x44

00001122 <CORCON_RESET>:
    1122:	14 00 07    	rcall     0x114c <__psv_init>
    1124:	79 00 07    	rcall     0x1218 <__crt_start_mode> <__crt_start_mode_normal>
    1126:	00 00 e0    	cp0.w     w0
    1128:	03 00 3a    	bra       NZ, 0x1130 <L11>
    112a:	00 43 21    	mov.w     #0x1430, w0
    112c:	01 00 20    	mov.w     #0x0, w1
    112e:	02 00 37    	bra       0x1134 <L21>

00001130 <L11>:
    1130:	00 00 20    	mov.w     #0x0, w0
    1132:	01 00 20    	mov.w     #0x0, w1

00001134 <L21>:
    1134:	81 0f 70    	ior.w     w0, w1, [w15]
    1136:	01 00 32    	bra       Z, 0x113a <L12>
    1138:	14 00 07    	rcall     0x1162 <__data_init> <__data_init_da>

0000113a <L12>:
    113a:	00 00 20    	mov.w     #0x0, w0
    113c:	00 00 e0    	cp0.w     w0
    113e:	02 00 32    	bra       Z, 0x1144 <L13>
    1140:	00 00 02    	call      0x0 <__DEFAULT_VECTOR-0x110c>
    1142:	00 00 00 

00001144 <L13>:
    1144:	1a 12 02    	call      0x121a <_main>
    1146:	00 00 00 
    1148:	00 40 da    	break     
    114a:	00 00 fe    	reset     

0000114c <__psv_init>:
    114c:	44 40 a9    	bclr.b    0x44, #0x2
    114e:	20 00 20    	mov.w     #0x2, w0
    1150:	00 00 e0    	cp0.w     w0
    1152:	03 00 32    	bra       Z, 0x115a <L14>
    1154:	10 00 20    	mov.w     #0x1, w0
    1156:	90 01 88    	mov.w     w0, 0x32
    1158:	44 40 a8    	bset.b    0x44, #0x2

0000115a <L14>:
    115a:	00 00 06    	return    

0000115c <__long_indirect_call>:
    115c:	8a 1f 78    	mov.w     w10, [w15++]
    115e:	8b 1f 78    	mov.w     w11, [w15++]
    1160:	00 00 06    	return    

00001162 <__data_init>:
    1162:	a1 02 88    	mov.w     w1, 0x54
    1164:	80 04 78    	mov.w     w0, w9
    1166:	00 00 eb    	clr.w     w0
    1168:	1f 00 37    	bra       0x11a8 <L41>

0000116a <L11>:
    116a:	e2 84 44    	add.w     w9, #0x2, w9
    116c:	54 a0 b4    	addc.w    0x54
    116e:	99 05 ba    	tblrdl.w  [w9], w11
    1170:	e2 84 44    	add.w     w9, #0x2, w9
    1172:	54 a0 b4    	addc.w    0x54
    1174:	99 06 ba    	tblrdl.w  [w9], w13
    1176:	e2 84 44    	add.w     w9, #0x2, w9
    1178:	54 a0 b4    	addc.w    0x54
    117a:	00 06 eb    	clr.w     w12
    117c:	47 6f de    	lsr.w     w13, #0x7, w14
    117e:	fd 07 b2    	and.w     #0x7f, w13
    1180:	ae 01 88    	mov.w     w14, 0x34
    1182:	63 6c e1    	cp.b      w13, #0x3
    1184:	03 00 3a    	bra       NZ, 0x118c <L21>
    1186:	ea ff 07    	rcall     0x115c <__long_indirect_call>
    1188:	00 00 eb    	clr.w     w0
    118a:	0e 00 37    	bra       0x11a8 <L41>

0000118c <L21>:
    118c:	60 6c e1    	cp.b      w13, #0x0
    118e:	08 00 3a    	bra       NZ, 0x11a0 <L22>

00001190 <L91>:
    1190:	00 4d eb    	clr.b     [w10]
    1192:	0a 05 e8    	inc.w     w10, w10
    1194:	02 00 39    	bra       NC, 0x119a <L81>
    1196:	34 20 ec    	inc.w     0x34
    1198:	0a f0 a0    	bset.w    w10, #0xf

0000119a <L81>:
    119a:	8b 05 e9    	dec.w     w11, w11
    119c:	f9 ff 3e    	bra       GTU, 0x1190 <L91>
    119e:	04 00 37    	bra       0x11a8 <L41>

000011a0 <L22>:
    11a0:	61 68 e1    	cp.w      w13, #0x1
    11a2:	01 00 32    	bra       Z, 0x11a6 <L31>
    11a4:	00 86 eb    	setm.w    w12

000011a6 <L31>:
    11a6:	0b 00 07    	rcall     0x11be <L13> <__memcpyd3extended>

000011a8 <L41>:
    11a8:	19 c7 ba    	tblrdh.b  [w9], w14
    11aa:	19 05 ba    	tblrdl.w  [w9], w10
    11ac:	0e 04 e0    	cp0.b     w14
    11ae:	03 00 3a    	bra       NZ, 0x11b6 <L12>
    11b0:	0a 00 e0    	cp0.w     w10
    11b2:	db ff 3a    	bra       NZ, 0x116a <L11>
    11b4:	00 00 06    	return    

000011b6 <L12>:
    11b6:	fe 07 b2    	and.w     #0x7f, w14
    11b8:	ae 02 88    	mov.w     w14, 0x54
    11ba:	8a 04 78    	mov.w     w10, w9
    11bc:	f5 ff 37    	bra       0x11a8 <L41>

000011be <L13>:
    11be:	0c d0 a3    	btst.c    w12, #0xd
    11c0:	e2 0f 4d    	addc.w    w10, #0x2, [w15]
    11c2:	1c 00 39    	bra       NC, 0x11fc <L23>
    11c4:	89 02 78    	mov.w     w9, w5
    11c6:	35 4d ba    	tblrdl.b  [w5++], [w10]
    11c8:	0a 05 e8    	inc.w     w10, w10
    11ca:	02 00 39    	bra       NC, 0x11d0 <L32>
    11cc:	34 20 ec    	inc.w     0x34
    11ce:	0a f0 a0    	bset.w    w10, #0xf

000011d0 <L32>:
    11d0:	8b 05 e9    	dec.w     w11, w11
    11d2:	0f 00 32    	bra       Z, 0x11f2 <L42>
    11d4:	25 4d ba    	tblrdl.b  [w5--], [w10]
    11d6:	0a 05 e8    	inc.w     w10, w10
    11d8:	02 00 39    	bra       NC, 0x11de <L33>
    11da:	34 20 ec    	inc.w     0x34
    11dc:	0a f0 a0    	bset.w    w10, #0xf

000011de <L33>:
    11de:	8b 05 e9    	dec.w     w11, w11
    11e0:	08 00 32    	bra       Z, 0x11f2 <L42>
    11e2:	0c 00 e0    	cp0.w     w12
    11e4:	06 00 32    	bra       Z, 0x11f2 <L42>
    11e6:	15 cd ba    	tblrdh.b  [w5], [w10]
    11e8:	0a 05 e8    	inc.w     w10, w10
    11ea:	02 00 39    	bra       NC, 0x11f0 <L34>
    11ec:	34 20 ec    	inc.w     0x34
    11ee:	0a f0 a0    	bset.w    w10, #0xf

000011f0 <L34>:
    11f0:	8b 05 e9    	dec.w     w11, w11

000011f2 <L42>:
    11f2:	89 84 e8    	inc2.w    w9, w9
    11f4:	54 a0 b4    	addc.w    0x54
    11f6:	0b 00 e0    	cp0.w     w11
    11f8:	e2 ff 3a    	bra       NZ, 0x11be <L13> <__memcpyd3extended>
    11fa:	00 00 06    	return    

000011fc <L23>:
    11fc:	99 02 ba    	tblrdl.w  [w9], w5
    11fe:	05 5d 78    	mov.b     w5, [w10++]
    1200:	8b 05 e9    	dec.w     w11, w11
    1202:	f7 ff 32    	bra       Z, 0x11f2 <L42>
    1204:	c8 2a de    	lsr.w     w5, #0x8, w5
    1206:	05 5d 78    	mov.b     w5, [w10++]
    1208:	8b 05 e9    	dec.w     w11, w11
    120a:	f3 ff 32    	bra       Z, 0x11f2 <L42>
    120c:	0c 00 e0    	cp0.w     w12
    120e:	f1 ff 32    	bra       Z, 0x11f2 <L42>
    1210:	19 dd ba    	tblrdh.b  [w9], [w10++]
    1212:	ee ff 37    	bra       0x11f0 <L34>

00001214 <.handle>:
    1214:	a0 12 04    	goto      0x12a0 <_loop>
    1216:	00 00 00 

00001218 <__crt_start_mode>:
    1218:	00 00 05    	retlw.w   #0x0, w0
Disassembly of section .application_ivt:

00001000 <__DEFAULT_VECTOR-0x10c>:
    1000:	10 11 04    	goto      0x1110 <__reset>
    1002:	00 00 00 
    1004:	40 14 04    	goto      0x1440 <__DefaultInterrupt>
    1006:	00 00 00 
    1008:	40 14 04    	goto      0x1440 <__DefaultInterrupt>
    100a:	00 00 00 
    100c:	40 14 04    	goto      0x1440 <__DefaultInterrupt>
    100e:	00 00 00 
    1010:	40 14 04    	goto      0x1440 <__DefaultInterrupt>
    1012:	00 00 00 
    1014:	40 14 04    	goto      0x1440 <__DefaultInterrupt>
    1016:	00 00 00 
    1018:	40 14 04    	goto      0x1440 <__DefaultInterrupt>
    101a:	00 00 00 
    101c:	40 14 04    	goto      0x1440 <__DefaultInterrupt>
    101e:	00 00 00 
    1020:	40 14 04    	goto      0x1440 <__DefaultInterrupt>
    1022:	00 00 00 
    1024:	40 14 04    	goto      0x1440 <__DefaultInterrupt>
    1026:	00 00 00 
    1028:	40 14 04    	goto      0x1440 <__DefaultInterrupt>
    102a:	00 00 00 
    102c:	40 14 04    	goto      0x1440 <__DefaultInterrupt>
    102e:	00 00 00 
    1030:	40 14 04    	goto      0x1440 <__DefaultInterrupt>
    1032:	00 00 00 
    1034:	40 14 04    	goto      0x1440 <__DefaultInterrupt>
    1036:	00 00 00 
    1038:	40 14 04    	goto      0x1440 <__DefaultInterrupt>
    103a:	00 00 00 
    103c:	40 14 04    	goto      0x1440 <__DefaultInterrupt>
    103e:	00 00 00 
    1040:	40 14 04    	goto      0x1440 <__DefaultInterrupt>
    1042:	00 00 00 
    1044:	40 14 04    	goto      0x1440 <__DefaultInterrupt>
    1046:	00 00 00 
    1048:	40 14 04    	goto      0x1440 <__DefaultInterrupt>
    104a:	00 00 00 
    104c:	40 14 04    	goto      0x1440 <__DefaultInterrupt>
    104e:	00 00 00 
    1050:	40 14 04    	goto      0x1440 <__DefaultInterrupt>
    1052:	00 00 00 
    1054:	40 14 04    	goto      0x1440 <__DefaultInterrupt>
    1056:	00 00 00 
    1058:	40 14 04    	goto      0x1440 <__DefaultInterrupt>
    105a:	00 00 00 
    105c:	40 14 04    	goto      0x1440 <__DefaultInterrupt>
    105e:	00 00 00 
    1060:	40 14 04    	goto      0x1440 <__DefaultInterrupt>
    1062:	00 00 00 
    1064:	40 14 04    	goto      0x1440 <__DefaultInterrupt>
    1066:	00 00 00 
    1068:	40 14 04    	goto      0x1440 <__DefaultInterrupt>
    106a:	00 00 00 
    106c:	40 14 04    	goto      0x1440 <__DefaultInterrupt>
    106e:	00 00 00 
    1070:	40 14 04    	goto      0x1440 <__DefaultInterrupt>
    1072:	00 00 00 
    1074:	40 14 04    	goto      0x1440 <__DefaultInterrupt>
    1076:	00 00 00 
    1078:	40 14 04    	goto      0x1440 <__DefaultInterrupt>
    107a:	00 00 00 
    107c:	40 14 04    	goto      0x1440 <__DefaultInterrupt>
    107e:	00 00 00 
    1080:	40 14 04    	goto      0x1440 <__DefaultInterrupt>
    1082:	00 00 00 
    1084:	40 14 04    	goto      0x1440 <__DefaultInterrupt>
    1086:	00 00 00 
    1088:	40 14 04    	goto      0x1440 <__DefaultInterrupt>
    108a:	00 00 00 
    108c:	40 14 04    	goto      0x1440 <__DefaultInterrupt>
    108e:	00 00 00 
    1090:	40 14 04    	goto      0x1440 <__DefaultInterrupt>
    1092:	00 00 00 
    1094:	40 14 04    	goto      0x1440 <__DefaultInterrupt>
    1096:	00 00 00 
    1098:	40 14 04    	goto      0x1440 <__DefaultInterrupt>
    109a:	00 00 00 
    109c:	40 14 04    	goto      0x1440 <__DefaultInterrupt>
    109e:	00 00 00 
    10a0:	40 14 04    	goto      0x1440 <__DefaultInterrupt>
    10a2:	00 00 00 
    10a4:	40 14 04    	goto      0x1440 <__DefaultInterrupt>
    10a6:	00 00 00 
    10a8:	40 14 04    	goto      0x1440 <__DefaultInterrupt>
    10aa:	00 00 00 
    10ac:	40 14 04    	goto      0x1440 <__DefaultInterrupt>
    10ae:	00 00 00 
    10b0:	40 14 04    	goto      0x1440 <__DefaultInterrupt>
    10b2:	00 00 00 
    10b4:	40 14 04    	goto      0x1440 <__DefaultInterrupt>
    10b6:	00 00 00 
    10b8:	40 14 04    	goto      0x1440 <__DefaultInterrupt>
    10ba:	00 00 00 
    10bc:	40 14 04    	goto      0x1440 <__DefaultInterrupt>
    10be:	00 00 00 
    10c0:	40 14 04    	goto      0x1440 <__DefaultInterrupt>
    10c2:	00 00 00 
    10c4:	40 14 04    	goto      0x1440 <__DefaultInterrupt>
    10c6:	00 00 00 
    10c8:	40 14 04    	goto      0x1440 <__DefaultInterrupt>
    10ca:	00 00 00 
    10cc:	40 14 04    	goto      0x1440 <__DefaultInterrupt>
    10ce:	00 00 00 
    10d0:	40 14 04    	goto      0x1440 <__DefaultInterrupt>
    10d2:	00 00 00 
    10d4:	40 14 04    	goto      0x1440 <__DefaultInterrupt>
    10d6:	00 00 00 
    10d8:	40 14 04    	goto      0x1440 <__DefaultInterrupt>
    10da:	00 00 00 
    10dc:	40 14 04    	goto      0x1440 <__DefaultInterrupt>
    10de:	00 00 00 
    10e0:	40 14 04    	goto      0x1440 <__DefaultInterrupt>
    10e2:	00 00 00 
    10e4:	40 14 04    	goto      0x1440 <__DefaultInterrupt>
    10e6:	00 00 00 
    10e8:	40 14 04    	goto      0x1440 <__DefaultInterrupt>
    10ea:	00 00 00 
    10ec:	40 14 04    	goto      0x1440 <__DefaultInterrupt>
    10ee:	00 00 00 
    10f0:	40 14 04    	goto      0x1440 <__DefaultInterrupt>
    10f2:	00 00 00 
    10f4:	40 14 04    	goto      0x1440 <__DefaultInterrupt>
    10f6:	00 00 00 
    10f8:	40 14 04    	goto      0x1440 <__DefaultInterrupt>
    10fa:	00 00 00 
    10fc:	40 14 04    	goto      0x1440 <__DefaultInterrupt>
    10fe:	00 00 00 
    1100:	40 14 04    	goto      0x1440 <__DefaultInterrupt>
    1102:	00 00 00 
    1104:	40 14 04    	goto      0x1440 <__DefaultInterrupt>
    1106:	00 00 00 
    1108:	40 14 04    	goto      0x1440 <__DefaultInterrupt>
    110a:	00 00 00 

0000110c <__DEFAULT_VECTOR>:
    110c:	40 14 04    	goto      0x1440 <__DefaultInterrupt>
    110e:	00 00 00 
Disassembly of section .ivt:

00000004 <.ivt>:
   4:	04 10 00    	nop       
   6:	08 10 00    	nop       
   8:	0c 10 00    	nop       
   a:	10 10 00    	nop       
   c:	14 10 00    	nop       
   e:	0c 11 00    	nop       
  10:	0c 11 00    	nop       
  12:	0c 11 00    	nop       
  14:	18 10 00    	nop       
  16:	1c 10 00    	nop       
  18:	20 10 00    	nop       
  1a:	24 10 00    	nop       
  1c:	0c 11 00    	nop       
  1e:	28 10 00    	nop       
  20:	2c 10 00    	nop       
  22:	30 10 00    	nop       
  24:	34 10 00    	nop       
  26:	38 10 00    	nop       
  28:	3c 10 00    	nop       
  2a:	40 10 00    	nop       
  2c:	44 10 00    	nop       
  2e:	48 10 00    	nop       
  30:	0c 11 00    	nop       
  32:	0c 11 00    	nop       
  34:	4c 10 00    	nop       
  36:	50 10 00    	nop       
  38:	54 10 00    	nop       
  3a:	58 10 00    	nop       
  3c:	5c 10 00    	nop       
  3e:	0c 11 00    	nop       
  40:	60 10 00    	nop       
  42:	64 10 00    	nop       
  44:	0c 11 00    	nop       
  46:	68 10 00    	nop       
  48:	6c 10 00    	nop       
  4a:	70 10 00    	nop       
  4c:	74 10 00    	nop       
  4e:	78 10 00    	nop       
  50:	7c 10 00    	nop       
  52:	80 10 00    	nop       
  54:	84 10 00    	nop       
  56:	88 10 00    	nop       
  58:	0c 11 00    	nop       
  5a:	0c 11 00    	nop       
  5c:	0c 11 00    	nop       
  5e:	8c 10 00    	nop       
  60:	90 10 00    	nop       
  62:	94 10 00    	nop       
  64:	98 10 00    	nop       
  66:	9c 10 00    	nop       
  68:	a0 10 00    	nop       
  6a:	a4 10 00    	nop       
  6c:	a8 10 00    	nop       
  6e:	ac 10 00    	nop       
  70:	0c 11 00    	nop       
  72:	0c 11 00    	nop       
  74:	0c 11 00    	nop       
  76:	b0 10 00    	nop       
  78:	b4 10 00    	nop       
  7a:	0c 11 00    	nop       
  7c:	0c 11 00    	nop       
  7e:	b8 10 00    	nop       
  80:	bc 10 00    	nop       
  82:	0c 11 00    	nop       
  84:	0c 11 00    	nop       
  86:	0c 11 00    	nop       
  88:	0c 11 00    	nop       
  8a:	0c 11 00    	nop       
  8c:	0c 11 00    	nop       
  8e:	0c 11 00    	nop       
  90:	c0 10 00    	nop       
  92:	0c 11 00    	nop       
  94:	0c 11 00    	nop       
  96:	c4 10 00    	nop       
  98:	c8 10 00    	nop       
  9a:	cc 10 00    	nop       
  9c:	0c 11 00    	nop       
  9e:	0c 11 00    	nop       
  a0:	0c 11 00    	nop       
  a2:	0c 11 00    	nop       
  a4:	d0 10 00    	nop       
  a6:	0c 11 00    	nop       
  a8:	0c 11 00    	nop       
  aa:	0c 11 00    	nop       
  ac:	0c 11 00    	nop       
  ae:	d4 10 00    	nop       
  b0:	0c 11 00    	nop       
  b2:	0c 11 00    	nop       
  b4:	0c 11 00    	nop       
  b6:	d8 10 00    	nop       
  b8:	dc 10 00    	nop       
  ba:	e0 10 00    	nop       
  bc:	e4 10 00    	nop       
  be:	e8 10 00    	nop       
  c0:	ec 10 00    	nop       
  c2:	f0 10 00    	nop       
  c4:	f4 10 00    	nop       
  c6:	f8 10 00    	nop       
  c8:	fc 10 00    	nop       
  ca:	00 11 00    	nop       
  cc:	04 11 00    	nop       
  ce:	08 11 00    	nop       
  d0:	0c 11 00    	nop       
  d2:	0c 11 00    	nop       
  d4:	0c 11 00    	nop       
  d6:	0c 11 00    	nop       
  d8:	0c 11 00    	nop       
  da:	0c 11 00    	nop       
  dc:	0c 11 00    	nop       
  de:	0c 11 00    	nop       
  e0:	0c 11 00    	nop       
  e2:	0c 11 00    	nop       
  e4:	0c 11 00    	nop       
  e6:	0c 11 00    	nop       
  e8:	0c 11 00    	nop       
  ea:	0c 11 00    	nop       
  ec:	0c 11 00    	nop       
  ee:	0c 11 00    	nop       
  f0:	0c 11 00    	nop       
  f2:	0c 11 00    	nop       
  f4:	0c 11 00    	nop       
  f6:	0c 11 00    	nop       
  f8:	0c 11 00    	nop       
  fa:	0c 11 00    	nop       
  fc:	0c 11 00    	nop       
  fe:	0c 11 00    	nop       
Disassembly of section .text:

0000121a <_main>:
static uint8_t screen_pos = 0; //what position the active character is on.
static uint8_t UP = 1;
static uint8_t DOWN = 0;
//
int16_t main(void){
    121a:	00 00 fa    	lnk       #0x0
    init_elecanisms();
    121c:	cc 00 07    	rcall     0x13b6 <_init_elecanisms> <.L0> <.LFB0> <.LFE4> <.Letext0> <.Ltext0>
    // set pins as input with internal pull-up resistors enabled
    //pinMode -> use elecanisms.h, use the function i.e. D0_DIR = OUT
    D0_DIR = IN; /* This is an arduino function, use DX_DIR = X; */
    121e:	d8 a2 a8    	bset.b    0x2d8, #0x5
    D1_DIR = IN;
    1220:	d8 82 a8    	bset.b    0x2d8, #0x4
    PIN_ENCODER_A = ON; /* This is an arduino function, use DX = ON/OFF; */
    1222:	da a2 a8    	bset.b    0x2da, #0x5
    PIN_ENCODER_B = ON;
    1224:	da 82 a8    	bset.b    0x2da, #0x4

    //Debug
    LED1 = OFF;
    1226:	dc e2 a9    	bclr.b    0x2dc, #0x7

    //Copied the debounce/timer stuff from blink.c

    T1CON = 0x0030;         // set Timer1 period to 0.5s
    1228:	00 03 20    	mov.w     #0x30, w0
    122a:	20 08 88    	mov.w     w0, 0x104
    PR1 = 0x7A11;
    122c:	10 a1 27    	mov.w     #0x7a11, w0
    122e:	10 08 88    	mov.w     w0, 0x102

    TMR1 = 0;               // set Timer1 count to 0
    1230:	00 21 ef    	clr.w     0x100
    IFS0bits.T1IF = 0;      // lower Timer1 interrupt flag
    1232:	84 60 a9    	bclr.b    0x84, #0x3
    IEC0bits.T1IE = 1;      // enable Timer1 interrupt
    1234:	94 60 a8    	bset.b    0x94, #0x3
    T1CONbits.TON = 1;      // turn on Timer1
    1236:	05 e1 a8    	bset.b    0x105, #0x7

    // get an initial reading on the encoder pins
    if (PIN_ENCODER_A == 0) {enc_prev_pos |= (1 << 0);} /* Also arduino */
    1238:	d1 16 80    	mov.w     0x2da, w1
    123a:	00 02 20    	mov.w     #0x20, w0
    123c:	00 80 60    	and.w     w1, w0, w0
    123e:	00 00 e0    	cp0.w     w0
    1240:	03 00 3a    	bra       NZ, 0x1248 <.L2>
    1242:	00 c8 bf    	mov.b     0x800, WREG
    1244:	00 04 a0    	bset.b    w0, #0x0
    1246:	00 e8 b7    	mov.b     WREG, 0x800

00001248 <.L2>:
    if (PIN_ENCODER_B == 0) {enc_prev_pos |= (1 << 1);}
    1248:	d0 16 80    	mov.w     0x2da, w0
    124a:	70 00 60    	and.w     w0, #0x10, w0
    124c:	00 00 e0    	cp0.w     w0
    124e:	03 00 3a    	bra       NZ, 0x1256 <.L3> <.LBB2>
    1250:	00 c8 bf    	mov.b     0x800, WREG
    1252:	00 14 a0    	bset.b    w0, #0x1
    1254:	00 e8 b7    	mov.b     WREG, 0x800

00001256 <.L3>:

    while (1){
      loop();
    1256:	00 2a 21    	mov.w     #0x12a0, w0
    1258:	00 00 01    	call      w0

0000125a <.LBE2>:
    }
    125a:	fd ff 37    	bra       0x1256 <.L3> <.LBB2>

0000125c <_SelectChr>:
}

void SelectChr(){//Locks in the current character on the screen.
    125c:	00 00 fa    	lnk       #0x0

}
    125e:	00 80 fa    	ulnk      
    1260:	00 00 06    	return    

00001262 <_test_LED>:

void test_LED(){
    1262:	00 00 fa    	lnk       #0x0

00001264 <.L6>:
  while (1){LED1 = ON;}
    1264:	dc e2 a8    	bset.b    0x2dc, #0x7
    1266:	fe ff 37    	bra       0x1264 <.L6>

00001268 <_dispChr>:
}

void dispChr(uint8_t direction){//Increments/decrements the character on the screen.
    1268:	02 00 fa    	lnk       #0x2
    126a:	00 4f 78    	mov.b     w0, [w14]
  if (direction == UP){
    126c:	04 c8 bf    	mov.b     0x804, WREG
    126e:	9e 40 78    	mov.b     [w14], w1
    1270:	80 cf 50    	sub.b     w1, w0, [w15]
    1272:	09 00 3a    	bra       NZ, 0x1286 <.L8>
    if (LED1 == ON){LED1 = OFF;}
    1274:	e1 16 80    	mov.w     0x2dc, w1
    1276:	00 08 20    	mov.w     #0x80, w0
    1278:	00 80 60    	and.w     w1, w0, w0
    127a:	00 00 e0    	cp0.w     w0
    127c:	02 00 32    	bra       Z, 0x1282 <.L9>
    127e:	dc e2 a9    	bclr.b    0x2dc, #0x7
    1280:	0d 00 37    	bra       0x129c <.L7>

00001282 <.L9>:
    else {LED1 = ON;}
    1282:	dc e2 a8    	bset.b    0x2dc, #0x7
    1284:	0b 00 37    	bra       0x129c <.L7>

00001286 <.L8>:
    }
  else if (direction == DOWN){
    1286:	03 c8 bf    	mov.b     0x803, WREG
    1288:	9e 40 78    	mov.b     [w14], w1
    128a:	80 cf 50    	sub.b     w1, w0, [w15]
    128c:	07 00 3a    	bra       NZ, 0x129c <.L7>
    if (LED3 == ON){LED3 = OFF;}
    128e:	60 17 80    	mov.w     0x2ec, w0
    1290:	62 00 60    	and.w     w0, #0x2, w0
    1292:	00 00 e0    	cp0.w     w0
    1294:	02 00 32    	bra       Z, 0x129a <.L11>
    1296:	ec 22 a9    	bclr.b    0x2ec, #0x1
    1298:	01 00 37    	bra       0x129c <.L7>

0000129a <.L11>:
    else {LED3 = ON;}
    129a:	ec 22 a8    	bset.b    0x2ec, #0x1

0000129c <.L7>:
    }
  else {;}
}
    129c:	00 80 fa    	ulnk      
    129e:	00 00 06    	return    

000012a0 <_loop>:
//
void loop(){
    12a0:	02 00 fa    	lnk       #0x2
  int8_t enc_action = 0; // 1 or -1 if moved, sign is direction
    12a2:	00 40 eb    	clr.b     w0
    12a4:	10 47 98    	mov.b     w0, [w14+1]
  uint8_t enc_cur_pos = 0;
    12a6:	00 40 eb    	clr.b     w0
    12a8:	00 4f 78    	mov.b     w0, [w14]
//
//   /*The original code referenced a bitwise connection between "Trinket_PINx" (defined as "PINB") and also
//   PIN_ENCODER whatever.  What the hell is PINB?*/

//if (bit_is_clear(TRINKET_PINx, PIN_ENCODER_A)) {enc_cur_pos |= (1 << 0);}// read in the encoder state first
//if (bit_is_clear(TRINKET_PINx, PIN_ENCODER_B)) {enc_cur_pos |= (1 << 1);}  /* Arduino function as well */


  if (PIN_ENCODER_A == 0){
    12aa:	d1 16 80    	mov.w     0x2da, w1
    12ac:	00 02 20    	mov.w     #0x20, w0
    12ae:	00 80 60    	and.w     w1, w0, w0
    12b0:	00 00 e0    	cp0.w     w0
    12b2:	02 00 3a    	bra       NZ, 0x12b8 <.L13>
    enc_cur_pos |= (1 <<0);
    12b4:	1e 04 a0    	bset.b    [w14], #0x0
    test_LED();
    12b6:	d5 ff 07    	rcall     0x1262 <_test_LED> <.LFB2> <.LFE1>

000012b8 <.L13>:
    } //Read Encoder_Pin_A?
  if (PIN_ENCODER_B == 0){enc_cur_pos |= (1 <<1);} //Read Encoder_Pin_B?
    12b8:	d0 16 80    	mov.w     0x2da, w0
    12ba:	70 00 60    	and.w     w0, #0x10, w0
    12bc:	00 00 e0    	cp0.w     w0
    12be:	01 00 3a    	bra       NZ, 0x12c2 <.L14>
    12c0:	1e 14 a0    	bset.b    [w14], #0x1

000012c2 <.L14>:
  //if (enc_cur_pos != 0){test_LED();}



//   // if any rotation at all
  if (enc_cur_pos != enc_prev_pos){
    12c2:	00 c8 bf    	mov.b     0x800, WREG
    12c4:	9e 40 78    	mov.b     [w14], w1
    12c6:	80 cf 50    	sub.b     w1, w0, [w15]
    12c8:	27 00 32    	bra       Z, 0x1318 <.L15>
    if (enc_prev_pos == 0x00) {
    12ca:	00 c8 bf    	mov.b     0x800, WREG
    12cc:	00 04 e0    	cp0.b     w0
    12ce:	0d 00 3a    	bra       NZ, 0x12ea <.L16>
      if (enc_cur_pos == 0x01) {enc_flags |= (1 << 0);}        // this is the first edge
    12d0:	1e 40 78    	mov.b     [w14], w0
    12d2:	e1 4f 50    	sub.b     w0, #0x1, [w15]
    12d4:	04 00 3a    	bra       NZ, 0x12de <.L17>
    12d6:	01 c8 bf    	mov.b     0x801, WREG
    12d8:	00 04 a0    	bset.b    w0, #0x0
    12da:	01 e8 b7    	mov.b     WREG, 0x801
    12dc:	06 00 37    	bra       0x12ea <.L16>

000012de <.L17>:
      else if (enc_cur_pos == 0x02) {enc_flags |= (1 << 1);}
    12de:	1e 40 78    	mov.b     [w14], w0
    12e0:	e2 4f 50    	sub.b     w0, #0x2, [w15]
    12e2:	03 00 3a    	bra       NZ, 0x12ea <.L16>
    12e4:	01 c8 bf    	mov.b     0x801, WREG
    12e6:	00 14 a0    	bset.b    w0, #0x1
    12e8:	01 e8 b7    	mov.b     WREG, 0x801

000012ea <.L16>:
    }

    if (enc_cur_pos == 0x03){enc_flags |= (1 << 4);}   // this is when the encoder is in the middle of a "step"
    12ea:	1e 40 78    	mov.b     [w14], w0
    12ec:	e3 4f 50    	sub.b     w0, #0x3, [w15]
    12ee:	04 00 3a    	bra       NZ, 0x12f8 <.L18>
    12f0:	01 c8 bf    	mov.b     0x801, WREG
    12f2:	00 44 a0    	bset.b    w0, #0x4
    12f4:	01 e8 b7    	mov.b     WREG, 0x801
    12f6:	10 00 37    	bra       0x1318 <.L15>

000012f8 <.L18>:
    else if (enc_cur_pos == 0x00){
    12f8:	1e 40 78    	mov.b     [w14], w0
    12fa:	00 04 e0    	cp0.b     w0
    12fc:	0d 00 3a    	bra       NZ, 0x1318 <.L15>
      if (enc_prev_pos == 0x02) {enc_flags |= (1 << 2);}     // this is the final edge
    12fe:	00 c8 bf    	mov.b     0x800, WREG
    1300:	e2 4f 50    	sub.b     w0, #0x2, [w15]
    1302:	04 00 3a    	bra       NZ, 0x130c <.L19>
    1304:	01 c8 bf    	mov.b     0x801, WREG
    1306:	00 24 a0    	bset.b    w0, #0x2
    1308:	01 e8 b7    	mov.b     WREG, 0x801
    130a:	06 00 37    	bra       0x1318 <.L15>

0000130c <.L19>:
      else if (enc_prev_pos == 0x01) {enc_flags |= (1 << 3);}
    130c:	00 c8 bf    	mov.b     0x800, WREG
    130e:	e1 4f 50    	sub.b     w0, #0x1, [w15]
    1310:	03 00 3a    	bra       NZ, 0x1318 <.L15>
    1312:	01 c8 bf    	mov.b     0x801, WREG
    1314:	00 34 a0    	bset.b    w0, #0x3
    1316:	01 e8 b7    	mov.b     WREG, 0x801

00001318 <.L15>:
    }
  }
// check the first and last edge
// or maybe one edge is missing, if missing then require the middle state
// this will reject bounces and false movements

//       if (bit_is_set(enc_flags, 0) && (bit_is_set(enc_flags, 2) || bit_is_set(enc_flags, 4))) {
//         enc_action = 1;}

  if ((enc_flags & (1 << 0)) && enc_flags & (1 << 2) || (enc_flags & (1 << 4))){
    1318:	01 c8 bf    	mov.b     0x801, WREG
    131a:	00 80 fb    	ze        w0, w0
    131c:	61 00 60    	and.w     w0, #0x1, w0
    131e:	00 40 78    	mov.b     w0, w0
    1320:	00 04 e0    	cp0.b     w0
    1322:	05 00 32    	bra       Z, 0x132e <.L20>
    1324:	01 c8 bf    	mov.b     0x801, WREG
    1326:	00 80 fb    	ze        w0, w0
    1328:	64 00 60    	and.w     w0, #0x4, w0
    132a:	00 00 e0    	cp0.w     w0
    132c:	05 00 3a    	bra       NZ, 0x1338 <.L21>

0000132e <.L20>:
    132e:	01 c8 bf    	mov.b     0x801, WREG
    1330:	00 80 fb    	ze        w0, w0
    1332:	70 00 60    	and.w     w0, #0x10, w0
    1334:	00 00 e0    	cp0.w     w0
    1336:	03 00 32    	bra       Z, 0x133e <.L22>

00001338 <.L21>:
        enc_action = 1;
    1338:	10 c0 b3    	mov.b     #0x1, w0
    133a:	10 47 98    	mov.b     w0, [w14+1]
    133c:	36 00 37    	bra       0x13aa <.L23>

0000133e <.L22>:
  }
//
//       else if (bit_is_set(enc_flags, 2) && (bit_is_set(enc_flags, 0) || bit_is_set(enc_flags, 4))) {
//         enc_action = 1;}

  else if ((enc_flags & (1 << 2)) && enc_flags & (1 << 0) || (enc_flags & (1 << 4))){
    133e:	01 c8 bf    	mov.b     0x801, WREG
    1340:	00 80 fb    	ze        w0, w0
    1342:	64 00 60    	and.w     w0, #0x4, w0
    1344:	00 00 e0    	cp0.w     w0
    1346:	06 00 32    	bra       Z, 0x1354 <.L24>
    1348:	01 c8 bf    	mov.b     0x801, WREG
    134a:	00 80 fb    	ze        w0, w0
    134c:	61 00 60    	and.w     w0, #0x1, w0
    134e:	00 40 78    	mov.b     w0, w0
    1350:	00 04 e0    	cp0.b     w0
    1352:	05 00 3a    	bra       NZ, 0x135e <.L25>

00001354 <.L24>:
    1354:	01 c8 bf    	mov.b     0x801, WREG
    1356:	00 80 fb    	ze        w0, w0
    1358:	70 00 60    	and.w     w0, #0x10, w0
    135a:	00 00 e0    	cp0.w     w0
    135c:	03 00 32    	bra       Z, 0x1364 <.L26>

0000135e <.L25>:
    enc_action = 1;
    135e:	10 c0 b3    	mov.b     #0x1, w0
    1360:	10 47 98    	mov.b     w0, [w14+1]
    1362:	23 00 37    	bra       0x13aa <.L23>

00001364 <.L26>:
  }
//
//       else if (bit_is_set(enc_flags, 1) && (bit_is_set(enc_flags, 3) || bit_is_set(enc_flags, 4))) {
//         enc_action = -1;}

  else if ((enc_flags & (1 << 1)) && enc_flags & (1 << 3) || (enc_flags & (1 << 4))){
    1364:	01 c8 bf    	mov.b     0x801, WREG
    1366:	00 80 fb    	ze        w0, w0
    1368:	62 00 60    	and.w     w0, #0x2, w0
    136a:	00 00 e0    	cp0.w     w0
    136c:	05 00 32    	bra       Z, 0x1378 <.L27>
    136e:	01 c8 bf    	mov.b     0x801, WREG
    1370:	00 80 fb    	ze        w0, w0
    1372:	68 00 60    	and.w     w0, #0x8, w0
    1374:	00 00 e0    	cp0.w     w0
    1376:	05 00 3a    	bra       NZ, 0x1382 <.L28>

00001378 <.L27>:
    1378:	01 c8 bf    	mov.b     0x801, WREG
    137a:	00 80 fb    	ze        w0, w0
    137c:	70 00 60    	and.w     w0, #0x10, w0
    137e:	00 00 e0    	cp0.w     w0
    1380:	03 00 32    	bra       Z, 0x1388 <.L29>

00001382 <.L28>:
      enc_action = -1;
    1382:	00 c0 eb    	setm.b    w0
    1384:	10 47 98    	mov.b     w0, [w14+1]
    1386:	11 00 37    	bra       0x13aa <.L23>

00001388 <.L29>:
  }

//       else if (bit_is_set(enc_flags, 3) && (bit_is_set(enc_flags, 1) || bit_is_set(enc_flags, 4))) {
//         enc_action = -1;}

  else if ((enc_flags & (1 << 3)) && enc_flags & (1 << 1) || (enc_flags & (1 << 4))){
    1388:	01 c8 bf    	mov.b     0x801, WREG
    138a:	00 80 fb    	ze        w0, w0
    138c:	68 00 60    	and.w     w0, #0x8, w0
    138e:	00 00 e0    	cp0.w     w0
    1390:	05 00 32    	bra       Z, 0x139c <.L30>
    1392:	01 c8 bf    	mov.b     0x801, WREG
    1394:	00 80 fb    	ze        w0, w0
    1396:	62 00 60    	and.w     w0, #0x2, w0
    1398:	00 00 e0    	cp0.w     w0
    139a:	05 00 3a    	bra       NZ, 0x13a6 <.L31>

0000139c <.L30>:
    139c:	01 c8 bf    	mov.b     0x801, WREG
    139e:	00 80 fb    	ze        w0, w0
    13a0:	70 00 60    	and.w     w0, #0x10, w0
    13a2:	00 00 e0    	cp0.w     w0
    13a4:	02 00 32    	bra       Z, 0x13aa <.L23>

000013a6 <.L31>:
      enc_action = 1;
    13a6:	10 c0 b3    	mov.b     #0x1, w0
    13a8:	10 47 98    	mov.b     w0, [w14+1]

000013aa <.L23>:
  }
//
  enc_flags = 0; // reset for next time
    13aa:	01 68 ef    	clr.b     0x801
//
//     }
//   }
//   //Encoder action is basically going up or down.  So basically can use that to increment up and down.
//
//   // Figure out the output from the loop, detect output and convert it to an incrementing table.
//   // Interrupt to select the current character and move on to selecting the next character.


  enc_prev_pos = enc_cur_pos;
    13ac:	1e 41 78    	mov.b     [w14], w2
    13ae:	01 80 20    	mov.w     #0x800, w1
    13b0:	82 48 78    	mov.b     w2, [w1]


  //if (enc_action > 0) {dispChr(UP);}
  //else if (enc_action < 0) {dispChr(DOWN);}
}
    13b2:	00 80 fa    	ulnk      
    13b4:	00 00 06    	return    

000013b6 <_init_elecanisms>:
*/

#include "elecanisms.h"

void init_elecanisms(void) {
    13b6:	00 00 fa    	lnk       #0x0
    CLKDIV = 0x0100;        // RCDIV = 001 (4MHz, div2), 
    13b8:	00 10 20    	mov.w     #0x100, w0
    13ba:	20 3a 88    	mov.w     w0, 0x744
                            // CPDIV = 00 (FOSC = 32MHz, FCY = 16MHz)

    // Configure all pins on the digital headers to be inputs
    D0_DIR = IN;
    13bc:	d8 a2 a8    	bset.b    0x2d8, #0x5
    D1_DIR = IN;
    13be:	d8 82 a8    	bset.b    0x2d8, #0x4
    D2_DIR = IN;
    13c0:	e8 82 a8    	bset.b    0x2e8, #0x4
    D3_DIR = IN;
    13c2:	e8 a2 a8    	bset.b    0x2e8, #0x5
    D4_DIR = IN;
    13c4:	c9 e2 a8    	bset.b    0x2c9, #0x7
    D5_DIR = IN;
    13c6:	e8 62 a8    	bset.b    0x2e8, #0x3
    D6_DIR = IN;
    13c8:	d9 02 a8    	bset.b    0x2d9, #0x0
    D7_DIR = IN;
    13ca:	d9 62 a8    	bset.b    0x2d9, #0x3
    D8_DIR = IN;
    13cc:	d9 22 a8    	bset.b    0x2d9, #0x1
    D9_DIR = IN;
    13ce:	d9 42 a8    	bset.b    0x2d9, #0x2
    D10_DIR = IN;
    13d0:	d8 02 a8    	bset.b    0x2d8, #0x0
    D11_DIR = IN;
    13d2:	d8 22 a8    	bset.b    0x2d8, #0x1
    D12_DIR = IN;
    13d4:	d8 42 a8    	bset.b    0x2d8, #0x2
    D13_DIR = IN;
    13d6:	d8 62 a8    	bset.b    0x2d8, #0x3

    // Configure all pins on the analog header to be inputs
    A0_DIR = IN;
    13d8:	c8 a2 a8    	bset.b    0x2c8, #0x5
    A1_DIR = IN;
    13da:	c8 82 a8    	bset.b    0x2c8, #0x4
    A2_DIR = IN;
    13dc:	c8 62 a8    	bset.b    0x2c8, #0x3
    A3_DIR = IN;
    13de:	c8 42 a8    	bset.b    0x2c8, #0x2
    A4_DIR = IN;
    13e0:	c8 22 a8    	bset.b    0x2c8, #0x1
    A5_DIR = IN;
    13e2:	c8 02 a8    	bset.b    0x2c8, #0x0

    // Make all pins digital I/Os except for A0,...,A5
    ANSB = 0x003F;
    13e4:	f0 03 20    	mov.w     #0x3f, w0
    13e6:	10 27 88    	mov.w     w0, 0x4e2
    ANSC = 0;
    13e8:	e4 24 ef    	clr.w     0x4e4
    ANSD = 0;
    13ea:	e6 24 ef    	clr.w     0x4e6
    ANSF = 0;
    13ec:	ea 24 ef    	clr.w     0x4ea
    ANSG = 0;
    13ee:	ec 24 ef    	clr.w     0x4ec

    // Configure and enable the ADC module: 
    //   set output data format to integer (FORM<1:0> = 0b00)
    //   set conversion trigger source select bits to internal counter 
    //     (SSRC<2:0> = 0b111)
    //   set auto-sample time bits to 12*TAD (SAMC<4:0> = 12)
    //   set conversion clock select bits to 64*TCY (ADCS<7:0> = 64)
    //   set initial channel selection to A0
    AD1CON1 = 0x00E0; 
    13f0:	00 0e 20    	mov.w     #0xe0, w0
    13f2:	00 19 88    	mov.w     w0, 0x320
    AD1CON2 = 0;
    13f4:	22 23 ef    	clr.w     0x322
    AD1CON3 = 0x0C40;
    13f6:	00 c4 20    	mov.w     #0xc40, w0
    13f8:	20 19 88    	mov.w     w0, 0x324
    AD1CHS = A0_AN;
    13fa:	50 00 20    	mov.w     #0x5, w0
    13fc:	40 19 88    	mov.w     w0, 0x328
    AD1CON1bits.ADON = 1;
    13fe:	21 e3 a8    	bset.b    0x321, #0x7

    // Configure LED pins as outputs, set to low (off)
    LED1_DIR = OUT; LED1 = 0;
    1400:	d8 e2 a9    	bclr.b    0x2d8, #0x7
    1402:	dc e2 a9    	bclr.b    0x2dc, #0x7
    LED2_DIR = OUT; LED2 = 0;
    1404:	e8 02 a9    	bclr.b    0x2e8, #0x0
    1406:	ec 02 a9    	bclr.b    0x2ec, #0x0
    LED3_DIR = OUT; LED3 = 0;
    1408:	e8 22 a9    	bclr.b    0x2e8, #0x1
    140a:	ec 22 a9    	bclr.b    0x2ec, #0x1

    // Configure SW pins as inputs
    SW1_DIR = IN;
    140c:	d1 e2 a8    	bset.b    0x2d1, #0x7
    SW2_DIR = IN;
    140e:	d1 82 a8    	bset.b    0x2d1, #0x4
    SW3_DIR = IN;
    1410:	c9 82 a8    	bset.b    0x2c9, #0x4
}
    1412:	00 80 fa    	ulnk      
    1414:	00 00 06    	return    

00001416 <_read_analog>:

uint16_t read_analog(uint16_t pin_an) {
    1416:	02 00 fa    	lnk       #0x2
    1418:	00 0f 78    	mov.w     w0, [w14]
    AD1CHS = pin_an;
    141a:	9e 00 78    	mov.w     [w14], w1
    141c:	41 19 88    	mov.w     w1, 0x328
    AD1CON1bits.SAMP = 1;
    141e:	20 23 a8    	bset.b    0x320, #0x1
    while (AD1CON1bits.DONE == 0) {}
    1420:	00 00 00    	nop       

00001422 <.L3>:
    1422:	00 19 80    	mov.w     0x320, w0
    1424:	61 00 60    	and.w     w0, #0x1, w0
    1426:	00 00 e0    	cp0.w     w0
    1428:	fc ff 32    	bra       Z, 0x1422 <.L3>
    return ADC1BUF0;
    142a:	00 18 80    	mov.w     0x300, w0
}
    142c:	00 80 fa    	ulnk      
    142e:	00 00 06    	return    
Disassembly of section .dinit:

00001430 <.dinit>:
    1430:	00 08 00    	nop       
    1432:	04 00 00    	nop       
    1434:	80 00 00    	nop       
    1436:	04 08 00    	nop       
    1438:	02 00 00    	nop       
    143a:	82 00 00    	nop       
    143c:	01 00 00    	nop       
    143e:	00 00 00    	nop       
Disassembly of section .isr:

00001440 <__DefaultInterrupt>:
    1440:	00 40 da    	break     
    1442:	00 00 fe    	reset     
