
master.elf:     file format elf32-pic30

Disassembly of section .aivt._AltADC1Interrupt:

0000012e <.aivt._AltADC1Interrupt>:
 12e:	62 27 00    	nop       
Disassembly of section .aivt._AltAddressError:

00000108 <.aivt._AltAddressError>:
 108:	62 27 00    	nop       
Disassembly of section .aivt._AltCNInterrupt:

0000013a <.aivt._AltCNInterrupt>:
 13a:	62 27 00    	nop       
Disassembly of section .aivt._AltCRCInterrupt:

0000019a <.aivt._AltCRCInterrupt>:
 19a:	62 27 00    	nop       
Disassembly of section .aivt._AltCTMUInterrupt:

000001ae <.aivt._AltCTMUInterrupt>:
 1ae:	62 27 00    	nop       
Disassembly of section .aivt._AltCompInterrupt:

00000138 <.aivt._AltCompInterrupt>:
 138:	62 27 00    	nop       
Disassembly of section .aivt._AltIC1Interrupt:

00000116 <.aivt._AltIC1Interrupt>:
 116:	62 27 00    	nop       
Disassembly of section .aivt._AltIC2Interrupt:

0000011e <.aivt._AltIC2Interrupt>:
 11e:	62 27 00    	nop       
Disassembly of section .aivt._AltIC3Interrupt:

0000015e <.aivt._AltIC3Interrupt>:
 15e:	62 27 00    	nop       
Disassembly of section .aivt._AltIC4Interrupt:

00000160 <.aivt._AltIC4Interrupt>:
 160:	62 27 00    	nop       
Disassembly of section .aivt._AltIC5Interrupt:

00000162 <.aivt._AltIC5Interrupt>:
 162:	62 27 00    	nop       
Disassembly of section .aivt._AltIC6Interrupt:

00000164 <.aivt._AltIC6Interrupt>:
 164:	62 27 00    	nop       
Disassembly of section .aivt._AltIC7Interrupt:

00000140 <.aivt._AltIC7Interrupt>:
 140:	62 27 00    	nop       
Disassembly of section .aivt._AltIC8Interrupt:

00000142 <.aivt._AltIC8Interrupt>:
 142:	62 27 00    	nop       
Disassembly of section .aivt._AltIC9Interrupt:

000001ce <.aivt._AltIC9Interrupt>:
 1ce:	62 27 00    	nop       
Disassembly of section .aivt._AltINT0Interrupt:

00000114 <.aivt._AltINT0Interrupt>:
 114:	62 27 00    	nop       
Disassembly of section .aivt._AltINT1Interrupt:

0000013c <.aivt._AltINT1Interrupt>:
 13c:	62 27 00    	nop       
Disassembly of section .aivt._AltINT2Interrupt:

0000014e <.aivt._AltINT2Interrupt>:
 14e:	62 27 00    	nop       
Disassembly of section .aivt._AltINT3Interrupt:

0000017e <.aivt._AltINT3Interrupt>:
 17e:	62 27 00    	nop       
Disassembly of section .aivt._AltINT4Interrupt:

00000180 <.aivt._AltINT4Interrupt>:
 180:	62 27 00    	nop       
Disassembly of section .aivt._AltInterrupt14:

00000130 <.aivt._AltInterrupt14>:
 130:	62 27 00    	nop       
Disassembly of section .aivt._AltInterrupt15:

00000132 <.aivt._AltInterrupt15>:
 132:	62 27 00    	nop       
Disassembly of section .aivt._AltInterrupt21:

0000013e <.aivt._AltInterrupt21>:
 13e:	62 27 00    	nop       
Disassembly of section .aivt._AltInterrupt24:

00000144 <.aivt._AltInterrupt24>:
 144:	62 27 00    	nop       
Disassembly of section .aivt._AltInterrupt34:

00000158 <.aivt._AltInterrupt34>:
 158:	62 27 00    	nop       
Disassembly of section .aivt._AltInterrupt35:

0000015a <.aivt._AltInterrupt35>:
 15a:	62 27 00    	nop       
Disassembly of section .aivt._AltInterrupt36:

0000015c <.aivt._AltInterrupt36>:
 15c:	62 27 00    	nop       
Disassembly of section .aivt._AltInterrupt4:

0000011c <.aivt._AltInterrupt4>:
 11c:	62 27 00    	nop       
Disassembly of section .aivt._AltInterrupt46:

00000170 <.aivt._AltInterrupt46>:
 170:	62 27 00    	nop       
Disassembly of section .aivt._AltInterrupt47:

00000172 <.aivt._AltInterrupt47>:
 172:	62 27 00    	nop       
Disassembly of section .aivt._AltInterrupt48:

00000174 <.aivt._AltInterrupt48>:
 174:	62 27 00    	nop       
Disassembly of section .aivt._AltInterrupt51:

0000017a <.aivt._AltInterrupt51>:
 17a:	62 27 00    	nop       
Disassembly of section .aivt._AltInterrupt52:

0000017c <.aivt._AltInterrupt52>:
 17c:	62 27 00    	nop       
Disassembly of section .aivt._AltInterrupt55:

00000182 <.aivt._AltInterrupt55>:
 182:	62 27 00    	nop       
Disassembly of section .aivt._AltInterrupt56:

00000184 <.aivt._AltInterrupt56>:
 184:	62 27 00    	nop       
Disassembly of section .aivt._AltInterrupt57:

00000186 <.aivt._AltInterrupt57>:
 186:	62 27 00    	nop       
Disassembly of section .aivt._AltInterrupt58:

00000188 <.aivt._AltInterrupt58>:
 188:	62 27 00    	nop       
Disassembly of section .aivt._AltInterrupt59:

0000018a <.aivt._AltInterrupt59>:
 18a:	62 27 00    	nop       
Disassembly of section .aivt._AltInterrupt60:

0000018c <.aivt._AltInterrupt60>:
 18c:	62 27 00    	nop       
Disassembly of section .aivt._AltInterrupt61:

0000018e <.aivt._AltInterrupt61>:
 18e:	62 27 00    	nop       
Disassembly of section .aivt._AltInterrupt63:

00000192 <.aivt._AltInterrupt63>:
 192:	62 27 00    	nop       
Disassembly of section .aivt._AltInterrupt64:

00000194 <.aivt._AltInterrupt64>:
 194:	62 27 00    	nop       
Disassembly of section .aivt._AltInterrupt68:

0000019c <.aivt._AltInterrupt68>:
 19c:	62 27 00    	nop       
Disassembly of section .aivt._AltInterrupt69:

0000019e <.aivt._AltInterrupt69>:
 19e:	62 27 00    	nop       
Disassembly of section .aivt._AltInterrupt70:

000001a0 <.aivt._AltInterrupt70>:
 1a0:	62 27 00    	nop       
Disassembly of section .aivt._AltInterrupt71:

000001a2 <.aivt._AltInterrupt71>:
 1a2:	62 27 00    	nop       
Disassembly of section .aivt._AltInterrupt73:

000001a6 <.aivt._AltInterrupt73>:
 1a6:	62 27 00    	nop       
Disassembly of section .aivt._AltInterrupt74:

000001a8 <.aivt._AltInterrupt74>:
 1a8:	62 27 00    	nop       
Disassembly of section .aivt._AltInterrupt75:

000001aa <.aivt._AltInterrupt75>:
 1aa:	62 27 00    	nop       
Disassembly of section .aivt._AltInterrupt76:

000001ac <.aivt._AltInterrupt76>:
 1ac:	62 27 00    	nop       
Disassembly of section .aivt._AltInterrupt78:

000001b0 <.aivt._AltInterrupt78>:
 1b0:	62 27 00    	nop       
Disassembly of section .aivt._AltInterrupt79:

000001b2 <.aivt._AltInterrupt79>:
 1b2:	62 27 00    	nop       
Disassembly of section .aivt._AltInterrupt80:

000001b4 <.aivt._AltInterrupt80>:
 1b4:	62 27 00    	nop       
Disassembly of section .aivt._AltLVDInterrupt:

000001a4 <.aivt._AltLVDInterrupt>:
 1a4:	62 27 00    	nop       
Disassembly of section .aivt._AltMI2C1Interrupt:

00000136 <.aivt._AltMI2C1Interrupt>:
 136:	62 27 00    	nop       
Disassembly of section .aivt._AltMI2C2Interrupt:

00000178 <.aivt._AltMI2C2Interrupt>:
 178:	62 27 00    	nop       
Disassembly of section .aivt._AltMI2C3Interrupt:

000001be <.aivt._AltMI2C3Interrupt>:
 1be:	62 27 00    	nop       
Disassembly of section .aivt._AltMathError:

0000010c <.aivt._AltMathError>:
 10c:	62 27 00    	nop       
Disassembly of section .aivt._AltOC1Interrupt:

00000118 <.aivt._AltOC1Interrupt>:
 118:	62 27 00    	nop       
Disassembly of section .aivt._AltOC2Interrupt:

00000120 <.aivt._AltOC2Interrupt>:
 120:	62 27 00    	nop       
Disassembly of section .aivt._AltOC3Interrupt:

00000146 <.aivt._AltOC3Interrupt>:
 146:	62 27 00    	nop       
Disassembly of section .aivt._AltOC4Interrupt:

00000148 <.aivt._AltOC4Interrupt>:
 148:	62 27 00    	nop       
Disassembly of section .aivt._AltOC5Interrupt:

00000166 <.aivt._AltOC5Interrupt>:
 166:	62 27 00    	nop       
Disassembly of section .aivt._AltOC6Interrupt:

00000168 <.aivt._AltOC6Interrupt>:
 168:	62 27 00    	nop       
Disassembly of section .aivt._AltOC7Interrupt:

0000016a <.aivt._AltOC7Interrupt>:
 16a:	62 27 00    	nop       
Disassembly of section .aivt._AltOC8Interrupt:

0000016c <.aivt._AltOC8Interrupt>:
 16c:	62 27 00    	nop       
Disassembly of section .aivt._AltOC9Interrupt:

000001cc <.aivt._AltOC9Interrupt>:
 1cc:	62 27 00    	nop       
Disassembly of section .aivt._AltOscillatorFail:

00000106 <.aivt._AltOscillatorFail>:
 106:	62 27 00    	nop       
Disassembly of section .aivt._AltPMPInterrupt:

0000016e <.aivt._AltPMPInterrupt>:
 16e:	62 27 00    	nop       
Disassembly of section .aivt._AltRTCCInterrupt:

00000190 <.aivt._AltRTCCInterrupt>:
 190:	62 27 00    	nop       
Disassembly of section .aivt._AltReservedTrap0:

00000104 <.aivt._AltReservedTrap0>:
 104:	62 27 00    	nop       
Disassembly of section .aivt._AltReservedTrap5:

0000010e <.aivt._AltReservedTrap5>:
 10e:	62 27 00    	nop       
Disassembly of section .aivt._AltReservedTrap6:

00000110 <.aivt._AltReservedTrap6>:
 110:	62 27 00    	nop       
Disassembly of section .aivt._AltReservedTrap7:

00000112 <.aivt._AltReservedTrap7>:
 112:	62 27 00    	nop       
Disassembly of section .aivt._AltSI2C1Interrupt:

00000134 <.aivt._AltSI2C1Interrupt>:
 134:	62 27 00    	nop       
Disassembly of section .aivt._AltSI2C2Interrupt:

00000176 <.aivt._AltSI2C2Interrupt>:
 176:	62 27 00    	nop       
Disassembly of section .aivt._AltSI2C3Interrupt:

000001bc <.aivt._AltSI2C3Interrupt>:
 1bc:	62 27 00    	nop       
Disassembly of section .aivt._AltSPI1ErrInterrupt:

00000126 <.aivt._AltSPI1ErrInterrupt>:
 126:	62 27 00    	nop       
Disassembly of section .aivt._AltSPI1Interrupt:

00000128 <.aivt._AltSPI1Interrupt>:
 128:	62 27 00    	nop       
Disassembly of section .aivt._AltSPI2ErrInterrupt:

00000154 <.aivt._AltSPI2ErrInterrupt>:
 154:	62 27 00    	nop       
Disassembly of section .aivt._AltSPI2Interrupt:

00000156 <.aivt._AltSPI2Interrupt>:
 156:	62 27 00    	nop       
Disassembly of section .aivt._AltSPI3ErrInterrupt:

000001c8 <.aivt._AltSPI3ErrInterrupt>:
 1c8:	62 27 00    	nop       
Disassembly of section .aivt._AltSPI3Interrupt:

000001ca <.aivt._AltSPI3Interrupt>:
 1ca:	62 27 00    	nop       
Disassembly of section .aivt._AltStackError:

0000010a <.aivt._AltStackError>:
 10a:	62 27 00    	nop       
Disassembly of section .aivt._AltT1Interrupt:

0000011a <.aivt._AltT1Interrupt>:
 11a:	62 27 00    	nop       
Disassembly of section .aivt._AltT2Interrupt:

00000122 <.aivt._AltT2Interrupt>:
 122:	62 27 00    	nop       
Disassembly of section .aivt._AltT3Interrupt:

00000124 <.aivt._AltT3Interrupt>:
 124:	62 27 00    	nop       
Disassembly of section .aivt._AltT4Interrupt:

0000014a <.aivt._AltT4Interrupt>:
 14a:	62 27 00    	nop       
Disassembly of section .aivt._AltT5Interrupt:

0000014c <.aivt._AltT5Interrupt>:
 14c:	62 27 00    	nop       
Disassembly of section .aivt._AltU1ErrInterrupt:

00000196 <.aivt._AltU1ErrInterrupt>:
 196:	62 27 00    	nop       
Disassembly of section .aivt._AltU1RXInterrupt:

0000012a <.aivt._AltU1RXInterrupt>:
 12a:	62 27 00    	nop       
Disassembly of section .aivt._AltU1TXInterrupt:

0000012c <.aivt._AltU1TXInterrupt>:
 12c:	62 27 00    	nop       
Disassembly of section .aivt._AltU2ErrInterrupt:

00000198 <.aivt._AltU2ErrInterrupt>:
 198:	62 27 00    	nop       
Disassembly of section .aivt._AltU2RXInterrupt:

00000150 <.aivt._AltU2RXInterrupt>:
 150:	62 27 00    	nop       
Disassembly of section .aivt._AltU2TXInterrupt:

00000152 <.aivt._AltU2TXInterrupt>:
 152:	62 27 00    	nop       
Disassembly of section .aivt._AltU3ErrInterrupt:

000001b6 <.aivt._AltU3ErrInterrupt>:
 1b6:	62 27 00    	nop       
Disassembly of section .aivt._AltU3RXInterrupt:

000001b8 <.aivt._AltU3RXInterrupt>:
 1b8:	62 27 00    	nop       
Disassembly of section .aivt._AltU3TXInterrupt:

000001ba <.aivt._AltU3TXInterrupt>:
 1ba:	62 27 00    	nop       
Disassembly of section .aivt._AltU4ErrInterrupt:

000001c2 <.aivt._AltU4ErrInterrupt>:
 1c2:	62 27 00    	nop       
Disassembly of section .aivt._AltU4RXInterrupt:

000001c4 <.aivt._AltU4RXInterrupt>:
 1c4:	62 27 00    	nop       
Disassembly of section .aivt._AltU4TXInterrupt:

000001c6 <.aivt._AltU4TXInterrupt>:
 1c6:	62 27 00    	nop       
Disassembly of section .aivt._AltUSB1Interrupt:

000001c0 <.aivt._AltUSB1Interrupt>:
 1c0:	62 27 00    	nop       
Disassembly of section .reset:

00000000 <.reset>:
   0:	10 11 04    	goto      0x1110 <__reset>
   2:	00 00 00 
Disassembly of section .text:

00001110 <__reset>:
    1110:	2f c3 20    	mov.w     #0xc32, w15
    1112:	0e ff 27    	mov.w     #0x7ff0, w14
    1114:	0e 01 88    	mov.w     w14, 0x20
    1116:	00 00 00    	nop       
    1118:	00 00 20    	mov.w     #0x0, w0
    111a:	00 00 e0    	cp0.w     w0
    111c:	02 00 32    	bra       Z, 0x1122 <CORCON_RESET>
    111e:	00 01 20    	mov.w     #0x10, w0
    1120:	20 02 88    	mov.w     w0, 0x44

00001122 <CORCON_RESET>:
    1122:	14 00 07    	rcall     0x114c <__psv_init>
    1124:	7f 00 07    	rcall     0x1224 <__crt_start_mode> <__crt_start_mode_normal>
    1126:	00 00 e0    	cp0.w     w0
    1128:	03 00 3a    	bra       NZ, 0x1130 <L11>
    112a:	20 74 22    	mov.w     #0x2742, w0
    112c:	01 00 20    	mov.w     #0x0, w1
    112e:	02 00 37    	bra       0x1134 <L21>

00001130 <L11>:
    1130:	00 00 20    	mov.w     #0x0, w0
    1132:	01 00 20    	mov.w     #0x0, w1

00001134 <L21>:
    1134:	81 0f 70    	ior.w     w0, w1, [w15]
    1136:	01 00 32    	bra       Z, 0x113a <L12>
    1138:	14 00 07    	rcall     0x1162 <__data_init> <__data_init_da>

0000113a <L12>:
    113a:	00 00 20    	mov.w     #0x0, w0
    113c:	00 00 e0    	cp0.w     w0
    113e:	02 00 32    	bra       Z, 0x1144 <L13>
    1140:	00 00 02    	call      0x0 <__DEFAULT_VECTOR-0x110c>
    1142:	00 00 00 

00001144 <L13>:
    1144:	f6 16 02    	call      0x16f6 <_main>
    1146:	00 00 00 
    1148:	00 40 da    	break     
    114a:	00 00 fe    	reset     

0000114c <__psv_init>:
    114c:	44 40 a9    	bclr.b    0x44, #0x2
    114e:	40 12 20    	mov.w     #0x124, w0
    1150:	00 00 e0    	cp0.w     w0
    1152:	03 00 32    	bra       Z, 0x115a <L14>
    1154:	00 20 20    	mov.w     #0x200, w0
    1156:	90 01 88    	mov.w     w0, 0x32
    1158:	44 40 a8    	bset.b    0x44, #0x2

0000115a <L14>:
    115a:	00 00 06    	return    

0000115c <__long_indirect_call>:
    115c:	8a 1f 78    	mov.w     w10, [w15++]
    115e:	8b 1f 78    	mov.w     w11, [w15++]
    1160:	00 00 06    	return    

00001162 <__data_init>:
    1162:	a1 02 88    	mov.w     w1, 0x54
    1164:	80 04 78    	mov.w     w0, w9
    1166:	00 00 eb    	clr.w     w0
    1168:	1f 00 37    	bra       0x11a8 <L41>

0000116a <L11>:
    116a:	e2 84 44    	add.w     w9, #0x2, w9
    116c:	54 a0 b4    	addc.w    0x54
    116e:	99 05 ba    	tblrdl.w  [w9], w11
    1170:	e2 84 44    	add.w     w9, #0x2, w9
    1172:	54 a0 b4    	addc.w    0x54
    1174:	99 06 ba    	tblrdl.w  [w9], w13
    1176:	e2 84 44    	add.w     w9, #0x2, w9
    1178:	54 a0 b4    	addc.w    0x54
    117a:	00 06 eb    	clr.w     w12
    117c:	47 6f de    	lsr.w     w13, #0x7, w14
    117e:	fd 07 b2    	and.w     #0x7f, w13
    1180:	ae 01 88    	mov.w     w14, 0x34
    1182:	63 6c e1    	cp.b      w13, #0x3
    1184:	03 00 3a    	bra       NZ, 0x118c <L21>
    1186:	ea ff 07    	rcall     0x115c <__long_indirect_call>
    1188:	00 00 eb    	clr.w     w0
    118a:	0e 00 37    	bra       0x11a8 <L41>

0000118c <L21>:
    118c:	60 6c e1    	cp.b      w13, #0x0
    118e:	08 00 3a    	bra       NZ, 0x11a0 <L22>

00001190 <L91>:
    1190:	00 4d eb    	clr.b     [w10]
    1192:	0a 05 e8    	inc.w     w10, w10
    1194:	02 00 39    	bra       NC, 0x119a <L81>
    1196:	34 20 ec    	inc.w     0x34
    1198:	0a f0 a0    	bset.w    w10, #0xf

0000119a <L81>:
    119a:	8b 05 e9    	dec.w     w11, w11
    119c:	f9 ff 3e    	bra       GTU, 0x1190 <L91>
    119e:	04 00 37    	bra       0x11a8 <L41>

000011a0 <L22>:
    11a0:	61 68 e1    	cp.w      w13, #0x1
    11a2:	01 00 32    	bra       Z, 0x11a6 <L31>
    11a4:	00 86 eb    	setm.w    w12

000011a6 <L31>:
    11a6:	0b 00 07    	rcall     0x11be <L13> <__memcpyd3extended>

000011a8 <L41>:
    11a8:	19 c7 ba    	tblrdh.b  [w9], w14
    11aa:	19 05 ba    	tblrdl.w  [w9], w10
    11ac:	0e 04 e0    	cp0.b     w14
    11ae:	03 00 3a    	bra       NZ, 0x11b6 <L12>
    11b0:	0a 00 e0    	cp0.w     w10
    11b2:	db ff 3a    	bra       NZ, 0x116a <L11>
    11b4:	00 00 06    	return    

000011b6 <L12>:
    11b6:	fe 07 b2    	and.w     #0x7f, w14
    11b8:	ae 02 88    	mov.w     w14, 0x54
    11ba:	8a 04 78    	mov.w     w10, w9
    11bc:	f5 ff 37    	bra       0x11a8 <L41>

000011be <L13>:
    11be:	0c d0 a3    	btst.c    w12, #0xd
    11c0:	e2 0f 4d    	addc.w    w10, #0x2, [w15]
    11c2:	1c 00 39    	bra       NC, 0x11fc <L23>
    11c4:	89 02 78    	mov.w     w9, w5
    11c6:	35 4d ba    	tblrdl.b  [w5++], [w10]
    11c8:	0a 05 e8    	inc.w     w10, w10
    11ca:	02 00 39    	bra       NC, 0x11d0 <L32>
    11cc:	34 20 ec    	inc.w     0x34
    11ce:	0a f0 a0    	bset.w    w10, #0xf

000011d0 <L32>:
    11d0:	8b 05 e9    	dec.w     w11, w11
    11d2:	0f 00 32    	bra       Z, 0x11f2 <L42>
    11d4:	25 4d ba    	tblrdl.b  [w5--], [w10]
    11d6:	0a 05 e8    	inc.w     w10, w10
    11d8:	02 00 39    	bra       NC, 0x11de <L33>
    11da:	34 20 ec    	inc.w     0x34
    11dc:	0a f0 a0    	bset.w    w10, #0xf

000011de <L33>:
    11de:	8b 05 e9    	dec.w     w11, w11
    11e0:	08 00 32    	bra       Z, 0x11f2 <L42>
    11e2:	0c 00 e0    	cp0.w     w12
    11e4:	06 00 32    	bra       Z, 0x11f2 <L42>
    11e6:	15 cd ba    	tblrdh.b  [w5], [w10]
    11e8:	0a 05 e8    	inc.w     w10, w10
    11ea:	02 00 39    	bra       NC, 0x11f0 <L34>
    11ec:	34 20 ec    	inc.w     0x34
    11ee:	0a f0 a0    	bset.w    w10, #0xf

000011f0 <L34>:
    11f0:	8b 05 e9    	dec.w     w11, w11

000011f2 <L42>:
    11f2:	89 84 e8    	inc2.w    w9, w9
    11f4:	54 a0 b4    	addc.w    0x54
    11f6:	0b 00 e0    	cp0.w     w11
    11f8:	e2 ff 3a    	bra       NZ, 0x11be <L13> <__memcpyd3extended>
    11fa:	00 00 06    	return    

000011fc <L23>:
    11fc:	99 02 ba    	tblrdl.w  [w9], w5
    11fe:	05 5d 78    	mov.b     w5, [w10++]
    1200:	8b 05 e9    	dec.w     w11, w11
    1202:	f7 ff 32    	bra       Z, 0x11f2 <L42>
    1204:	c8 2a de    	lsr.w     w5, #0x8, w5
    1206:	05 5d 78    	mov.b     w5, [w10++]
    1208:	8b 05 e9    	dec.w     w11, w11
    120a:	f3 ff 32    	bra       Z, 0x11f2 <L42>
    120c:	0c 00 e0    	cp0.w     w12
    120e:	f1 ff 32    	bra       Z, 0x11f2 <L42>
    1210:	19 dd ba    	tblrdh.b  [w9], [w10++]
    1212:	ee ff 37    	bra       0x11f0 <L34>

00001214 <.handle>:
    1214:	c6 17 04    	goto      0x17c6 <_idle>
    1216:	00 00 00 
    1218:	f6 17 04    	goto      0x17f6 <_active>
    121a:	00 00 00 
    121c:	3e 1a 04    	goto      0x1a3e <_end_fail>
    121e:	00 00 00 
    1220:	fe 1a 04    	goto      0x1afe <_end_win>
    1222:	00 00 00 

00001224 <__crt_start_mode>:
    1224:	00 00 05    	retlw.w   #0x0, w0

00001226 <___subsf3>:
    1226:	03 f0 a2    	btg.w     w3, #0xf

00001228 <___addsf3>:
    1228:	88 9f be    	mov.d     w8, [w15++]
    122a:	8a 9f be    	mov.d     w10, [w15++]
    122c:	8c 1f 78    	mov.w     w12, [w15++]
    122e:	f6 00 07    	rcall     0x141c <__funpack2>
    1230:	fd 00 33    	bra       N, 0x142c <__fPropagateNaN>
    1232:	64 50 e1    	cp.w      w10, #0x4
    1234:	4f 00 32    	bra       Z, 0x12d4 <aisinfinite>

00001236 <checkspecialb>:
    1236:	64 20 e1    	cp.w      w4, #0x4
    1238:	52 00 32    	bra       Z, 0x12de <return2>
    123a:	03 82 6c    	xor.w     w9, w3, w4
    123c:	07 00 3b    	bra       NN, 0x124c <getsign>
    123e:	09 05 d0    	sl.w      w9, w10
    1240:	03 06 d0    	sl.w      w3, w12
    1242:	82 0f 54    	sub.w     w8, w2, [w15]
    1244:	0c 06 5d    	subb.w    w10, w12, w12
    1246:	02 00 39    	bra       NC, 0x124c <getsign>
    1248:	02 00 32    	bra       Z, 0x124e <gotsign>
    124a:	89 01 78    	mov.w     w9, w3

0000124c <getsign>:
    124c:	03 06 78    	mov.w     w3, w12

0000124e <gotsign>:
    124e:	85 82 55    	sub.w     w11, w5, w5
    1250:	04 00 3d    	bra       GE, 0x125a <expcanonical>
    1252:	00 03 fd    	exch      w0, w6
    1254:	81 03 fd    	exch      w1, w7
    1256:	85 02 ea    	neg.w     w5, w5
    1258:	8b 85 42    	add.w     w5, w11, w11

0000125a <expcanonical>:
    125a:	84 0f 72    	ior.w     w4, w4, [w15]
    125c:	02 00 3b    	bra       NN, 0x1262 <nonegate>
    125e:	60 00 10    	subr.w    w0, #0x0, w0
    1260:	e0 80 18    	subbr.w   w1, #0x0, w1

00001262 <nonegate>:
    1262:	60 11 b8    	mul.uu    w2, #0x0, w2
    1264:	00 05 eb    	clr.w     w10
    1266:	7a 28 e1    	cp.w      w5, #0x1a
    1268:	0a 00 39    	bra       NC, 0x127e <aligniter>
    126a:	06 00 78    	mov.w     w6, w0
    126c:	c7 5d dd    	sl.w      w11, #0x7, w11
    126e:	f7 07 b2    	and.w     #0x7f, w7
    1270:	87 80 75    	ior.w     w11, w7, w1
    1272:	2d 00 37    	bra       0x12ce <signoff>

00001274 <align>:
    1274:	82 81 71    	ior.w     w3, w2, w3
    1276:	0a 01 78    	mov.w     w10, w2
    1278:	61 05 60    	and.w     w0, #0x1, w10
    127a:	81 80 d1    	asr.w     w1, w1
    127c:	00 80 d3    	rrc.w     w0, w0

0000127e <aligniter>:
    127e:	85 02 e9    	dec.w     w5, w5
    1280:	f9 ff 3b    	bra       NN, 0x1274 <align>

00001282 <aligned>:
    1282:	06 04 40    	add.w     w0, w6, w8
    1284:	87 84 48    	addc.w    w1, w7, w9
    1286:	02 00 3b    	bra       NN, 0x128c <normalizesum>
    1288:	60 04 14    	subr.w    w8, #0x0, w8
    128a:	e0 84 1c    	subbr.w   w9, #0x0, w9

0000128c <normalizesum>:
    128c:	09 88 a3    	btst.z    w9, #0x8
    128e:	07 00 32    	bra       Z, 0x129e <checknormal>
    1290:	8a 81 71    	ior.w     w3, w10, w3
    1292:	82 81 71    	ior.w     w3, w2, w3
    1294:	61 01 64    	and.w     w8, #0x1, w2
    1296:	89 04 d1    	lsr.w     w9, w9
    1298:	08 84 d3    	rrc.w     w8, w8
    129a:	8b 05 e8    	inc.w     w11, w11
    129c:	17 00 37    	bra       0x12cc <round>

0000129e <checknormal>:
    129e:	09 78 a3    	btst.z    w9, #0x7
    12a0:	13 00 3a    	bra       NZ, 0x12c8 <discardguard>

000012a2 <underflow>:
    12a2:	0b 00 e0    	cp0.w     w11
    12a4:	13 00 34    	bra       LE, 0x12cc <round>
    12a6:	8b 05 e9    	dec.w     w11, w11
    12a8:	08 04 44    	add.w     w8, w8, w8
    12aa:	89 84 4c    	addc.w    w9, w9, w9
    12ac:	0a 44 74    	ior.b     w8, w10, w8
    12ae:	09 78 a3    	btst.z    w9, #0x7
    12b0:	0d 00 3a    	bra       NZ, 0x12cc <round>

000012b2 <normalizeloop>:
    12b2:	0b 00 e0    	cp0.w     w11
    12b4:	07 00 34    	bra       LE, 0x12c4 <normalizeexit>
    12b6:	8b 05 e9    	dec.w     w11, w11
    12b8:	08 04 44    	add.w     w8, w8, w8
    12ba:	89 84 4c    	addc.w    w9, w9, w9
    12bc:	01 00 3a    	bra       NZ, 0x12c0 <normalizetest>
    12be:	0b 00 20    	mov.w     #0x0, w11

000012c0 <normalizetest>:
    12c0:	09 78 a3    	btst.z    w9, #0x7
    12c2:	f7 ff 32    	bra       Z, 0x12b2 <normalizeloop>

000012c4 <normalizeexit>:
    12c4:	00 01 eb    	clr.w     w2
    12c6:	02 00 37    	bra       0x12cc <round>

000012c8 <discardguard>:
    12c8:	82 81 71    	ior.w     w3, w2, w3
    12ca:	0a 01 78    	mov.w     w10, w2

000012cc <round>:
    12cc:	6c 00 07    	rcall     0x13a6 <__fpack>

000012ce <signoff>:
    12ce:	0c f0 a7    	btsc.w    w12, #0xf
    12d0:	01 f0 a0    	bset.w    w1, #0xf
    12d2:	b5 00 37    	bra       0x143e <__fbopExit>

000012d4 <aisinfinite>:
    12d4:	64 20 e1    	cp.w      w4, #0x4
    12d6:	02 00 3a    	bra       NZ, 0x12dc <return8>
    12d8:	83 8f 6c    	xor.w     w9, w3, [w15]
    12da:	b5 00 33    	bra       N, 0x1446 <__fbopReturnNaN>

000012dc <return8>:
    12dc:	08 01 be    	mov.d     w8, w2

000012de <return2>:
    12de:	02 00 be    	mov.d     w2, w0
    12e0:	ae 00 37    	bra       0x143e <__fbopExit>

000012e2 <___divsf3>:
    12e2:	88 9f be    	mov.d     w8, [w15++]
    12e4:	8a 9f be    	mov.d     w10, [w15++]
    12e6:	8c 1f 78    	mov.w     w12, [w15++]
    12e8:	99 00 07    	rcall     0x141c <__funpack2>
    12ea:	a0 00 33    	bra       N, 0x142c <__fPropagateNaN>
    12ec:	03 86 6c    	xor.w     w9, w3, w12
    12ee:	64 50 e1    	cp.w      w10, #0x4
    12f0:	2e 00 32    	bra       Z, 0x134e <aisinfinite>
    12f2:	64 20 e1    	cp.w      w4, #0x4
    12f4:	33 00 32    	bra       Z, 0x135c <returnZero>
    12f6:	61 50 e1    	cp.w      w10, #0x1
    12f8:	2f 00 32    	bra       Z, 0x1358 <aiszero>
    12fa:	61 20 e1    	cp.w      w4, #0x1
    12fc:	31 00 32    	bra       Z, 0x1360 <returnInf>

000012fe <finitenonzero>:
    12fe:	85 85 55    	sub.w     w11, w5, w11
    1300:	eb 07 b0    	add.w     #0x7e, w11
    1302:	09 00 20    	mov.w     #0x0, w9
    1304:	08 04 20    	mov.w     #0x40, w8
    1306:	05 00 37    	bra       0x1312 <diventry>

00001308 <divnext>:
    1308:	08 04 44    	add.w     w8, w8, w8
    130a:	89 84 4c    	addc.w    w9, w9, w9
    130c:	0a 00 31    	bra       C, 0x1322 <divdone> <formsticky>

0000130e <divloop>:
    130e:	06 03 43    	add.w     w6, w6, w6
    1310:	87 83 4b    	addc.w    w7, w7, w7

00001312 <diventry>:
    1312:	00 01 53    	sub.w     w6, w0, w2
    1314:	81 81 5b    	subb.w    w7, w1, w3
    1316:	f8 ff 33    	bra       N, 0x1308 <divnext>
    1318:	02 03 be    	mov.d     w2, w6
    131a:	08 00 a0    	bset.w    w8, #0x0
    131c:	08 04 44    	add.w     w8, w8, w8
    131e:	89 84 4c    	addc.w    w9, w9, w9
    1320:	f6 ff 39    	bra       NC, 0x130e <divloop>

00001322 <divdone>:
    1322:	c6 39 dd    	sl.w      w7, #0x6, w3
    1324:	83 01 73    	ior.w     w6, w3, w3
    1326:	01 00 32    	bra       Z, 0x132a <stickyok>
    1328:	13 00 20    	mov.w     #0x1, w3

0000132a <stickyok>:
    132a:	89 04 d1    	lsr.w     w9, w9
    132c:	08 84 d3    	rrc.w     w8, w8
    132e:	09 98 a3    	btst.z    w9, #0x9
    1330:	05 00 32    	bra       Z, 0x133c <guardused>
    1332:	08 00 a7    	btsc.w    w8, #0x0
    1334:	03 00 a0    	bset.w    w3, #0x0
    1336:	89 04 d1    	lsr.w     w9, w9
    1338:	08 84 d3    	rrc.w     w8, w8
    133a:	8b 05 e8    	inc.w     w11, w11

0000133c <guardused>:
    133c:	89 04 d1    	lsr.w     w9, w9
    133e:	08 84 d3    	rrc.w     w8, w8
    1340:	00 01 eb    	clr.w     w2
    1342:	02 81 d2    	rlc.w     w2, w2
    1344:	30 00 07    	rcall     0x13a6 <__fpack>

00001346 <return0>:
    1346:	01 f0 a1    	bclr.w    w1, #0xf
    1348:	0c f0 a7    	btsc.w    w12, #0xf
    134a:	01 f0 a0    	bset.w    w1, #0xf
    134c:	78 00 37    	bra       0x143e <__fbopExit>

0000134e <aisinfinite>:
    134e:	64 20 e1    	cp.w      w4, #0x4
    1350:	7a 00 32    	bra       Z, 0x1446 <__fbopReturnNaN>

00001352 <return8>:
    1352:	08 01 be    	mov.d     w8, w2

00001354 <return2>:
    1354:	02 00 be    	mov.d     w2, w0
    1356:	f7 ff 37    	bra       0x1346 <return0>

00001358 <aiszero>:
    1358:	61 20 e1    	cp.w      w4, #0x1
    135a:	75 00 32    	bra       Z, 0x1446 <__fbopReturnNaN>

0000135c <returnZero>:
    135c:	60 00 b8    	mul.uu    w0, #0x0, w0
    135e:	f3 ff 37    	bra       0x1346 <return0>

00001360 <returnInf>:
    1360:	00 00 20    	mov.w     #0x0, w0
    1362:	01 f8 27    	mov.w     #0x7f80, w1
    1364:	f0 ff 37    	bra       0x1346 <return0>

00001366 <___eqsf2>:
    1366:	14 00 20    	mov.w     #0x1, w4
    1368:	b8 00 37    	bra       0x14da <__fcompare>

0000136a <___fixunssfsi>:
    136a:	00 01 be    	mov.d     w0, w2
    136c:	42 00 07    	rcall     0x13f2 <__funpack>
    136e:	04 70 a7    	btsc.w    w4, #0x7
    1370:	03 f0 a1    	bclr.w    w3, #0xf
    1372:	03 f8 a3    	btst.z    w3, #0xf
    1374:	13 00 3a    	bra       NZ, 0x139c <returnzero>
    1376:	65 09 b1    	sub.w     #0x96, w5
    1378:	10 00 32    	bra       Z, 0x139a <exit>
    137a:	09 00 35    	bra       LT, 0x138e <shiftright>
    137c:	69 28 e1    	cp.w      w5, #0x9
    137e:	02 00 35    	bra       LT, 0x1384 <shiftleft>
    1380:	01 00 28    	mov.w     #0x8000, w1
    1382:	00 00 05    	retlw.w   #0x0, w0

00001384 <shiftleft>:
    1384:	00 00 40    	add.w     w0, w0, w0
    1386:	81 80 48    	addc.w    w1, w1, w1
    1388:	85 02 e9    	dec.w     w5, w5
    138a:	fc ff 3a    	bra       NZ, 0x1384 <shiftleft>
    138c:	00 00 06    	return    

0000138e <shiftright>:
    138e:	f8 8f 42    	add.w     w5, #0x18, [w15]
    1390:	05 00 35    	bra       LT, 0x139c <returnzero>

00001392 <shiftrightloop>:
    1392:	81 00 d1    	lsr.w     w1, w1
    1394:	00 80 d3    	rrc.w     w0, w0
    1396:	85 02 e8    	inc.w     w5, w5
    1398:	fc ff 3a    	bra       NZ, 0x1392 <shiftrightloop>

0000139a <exit>:
    139a:	00 00 06    	return    

0000139c <returnzero>:
    139c:	80 00 eb    	clr.w     w1
    139e:	00 00 05    	retlw.w   #0x0, w0

000013a0 <___floatsisf>:
    13a0:	4f 89 de    	asr.w     w1, #0xf, w2
    13a2:	82 01 78    	mov.w     w2, w3
    13a4:	b5 00 37    	bra       0x1510 <___floatdisf>

000013a6 <__fpack>:
    13a6:	81 00 20    	mov.w     #0x8, w1
    13a8:	61 80 55    	sub.w     w11, #0x1, w0
    13aa:	0b 00 3d    	bra       GE, 0x13c2 <notsubnormal>
    13ac:	0b 00 20    	mov.w     #0x0, w11
    13ae:	61 fe 2f    	mov.w     #0xffe6, w1
    13b0:	01 00 e1    	cp.w      w0, w1
    13b2:	1d 00 34    	bra       LE, 0x13ee <zerosig>

000013b4 <subnormal>:
    13b4:	82 81 71    	ior.w     w3, w2, w3
    13b6:	61 01 64    	and.w     w8, #0x1, w2
    13b8:	89 04 d1    	lsr.w     w9, w9
    13ba:	08 84 d3    	rrc.w     w8, w8
    13bc:	00 00 e8    	inc.w     w0, w0
    13be:	fa ff 3a    	bra       NZ, 0x13b4 <subnormal>
    13c0:	71 00 20    	mov.w     #0x7, w1

000013c2 <notsubnormal>:
    13c2:	61 00 64    	and.w     w8, #0x1, w0
    13c4:	03 00 70    	ior.w     w0, w3, w0
    13c6:	02 00 60    	and.w     w0, w2, w0
    13c8:	09 00 32    	bra       Z, 0x13dc <packupandgo>
    13ca:	61 04 44    	add.w     w8, #0x1, w8
    13cc:	e0 84 4c    	addc.w    w9, #0x0, w9
    13ce:	09 88 a5    	btst.z    w9, w1
    13d0:	05 00 32    	bra       Z, 0x13dc <packupandgo>
    13d2:	8b 05 e8    	inc.w     w11, w11
    13d4:	68 08 e1    	cp.w      w1, #0x8
    13d6:	02 00 3a    	bra       NZ, 0x13dc <packupandgo>
    13d8:	89 04 d1    	lsr.w     w9, w9
    13da:	08 84 d3    	rrc.w     w8, w8

000013dc <packupandgo>:
    13dc:	f2 0f 20    	mov.w     #0xff, w2
    13de:	02 58 e1    	cp.w      w11, w2
    13e0:	05 00 3d    	bra       GE, 0x13ec <overflow>
    13e2:	c7 5d dd    	sl.w      w11, #0x7, w11
    13e4:	f9 07 b2    	and.w     #0x7f, w9
    13e6:	89 80 75    	ior.w     w11, w9, w1
    13e8:	08 00 78    	mov.w     w8, w0
    13ea:	00 00 06    	return    

000013ec <overflow>:
    13ec:	0b f8 27    	mov.w     #0x7f80, w11

000013ee <zerosig>:
    13ee:	8b 00 78    	mov.w     w11, w1
    13f0:	00 00 05    	retlw.w   #0x0, w0

000013f2 <__funpack>:
    13f2:	c7 0a de    	lsr.w     w1, #0x7, w5
    13f4:	f1 07 b2    	and.w     #0x7f, w1
    13f6:	f5 0f b2    	and.w     #0xff, w5
    13f8:	08 00 32    	bra       Z, 0x140a <zeroorsub>
    13fa:	e1 cf 42    	add.b     w5, #0x1, [w15]
    13fc:	02 00 32    	bra       Z, 0x1402 <nanorinf>

000013fe <finitereturn>:
    13fe:	01 70 a0    	bset.w    w1, #0x7
    1400:	24 00 05    	retlw.w   #0x2, w4

00001402 <nanorinf>:
    1402:	81 0f 70    	ior.w     w0, w1, [w15]
    1404:	01 00 32    	bra       Z, 0x1408 <infinite>
    1406:	04 08 05    	retlw.w   #0x80, w4

00001408 <infinite>:
    1408:	44 00 05    	retlw.w   #0x4, w4

0000140a <zeroorsub>:
    140a:	81 0f 70    	ior.w     w0, w1, [w15]
    140c:	02 00 3a    	bra       NZ, 0x1412 <subnormal>
    140e:	14 00 05    	retlw.w   #0x1, w4

00001410 <normalize>:
    1410:	85 02 e9    	dec.w     w5, w5

00001412 <subnormal>:
    1412:	00 00 40    	add.w     w0, w0, w0
    1414:	81 c0 48    	addc.b    w1, w1, w1
    1416:	fc ff 3b    	bra       NN, 0x1410 <normalize>
    1418:	01 70 a0    	bset.w    w1, #0x7
    141a:	24 00 05    	retlw.w   #0x2, w4

0000141c <__funpack2>:
    141c:	00 04 be    	mov.d     w0, w8
    141e:	e9 ff 07    	rcall     0x13f2 <__funpack>
    1420:	00 03 be    	mov.d     w0, w6
    1422:	04 05 be    	mov.d     w4, w10
    1424:	02 00 be    	mov.d     w2, w0
    1426:	e5 ff 07    	rcall     0x13f2 <__funpack>
    1428:	84 4f 75    	ior.b     w10, w4, [w15]
    142a:	00 00 06    	return    

0000142c <__fPropagateNaN>:
    142c:	02 00 be    	mov.d     w2, w0
    142e:	64 50 e1    	cp.w      w10, #0x4
    1430:	05 00 36    	bra       LEU, 0x143c <return0>
    1432:	64 20 e1    	cp.w      w4, #0x4
    1434:	02 00 36    	bra       LEU, 0x143a <return8>
    1436:	09 68 a3    	btst.z    w9, #0x6
    1438:	01 00 3a    	bra       NZ, 0x143c <return0>

0000143a <return8>:
    143a:	08 00 be    	mov.d     w8, w0

0000143c <return0>:
    143c:	01 60 a0    	bset.w    w1, #0x6

0000143e <__fbopExit>:
    143e:	4f 06 78    	mov.w     [--w15], w12
    1440:	4f 05 be    	mov.d     [--w15], w10
    1442:	4f 04 be    	mov.d     [--w15], w8
    1444:	00 00 06    	return    

00001446 <__fbopReturnNaN>:
    1446:	f0 ff 2f    	mov.w     #0xffff, w0
    1448:	f1 ff 27    	mov.w     #0x7fff, w1
    144a:	f9 ff 37    	bra       0x143e <__fbopExit>

0000144c <___mulsf3>:
    144c:	88 9f be    	mov.d     w8, [w15++]
    144e:	8a 9f be    	mov.d     w10, [w15++]
    1450:	8c 1f 78    	mov.w     w12, [w15++]
    1452:	e4 ff 07    	rcall     0x141c <__funpack2>
    1454:	eb ff 33    	bra       N, 0x142c <__fPropagateNaN>
    1456:	03 86 6c    	xor.w     w9, w3, w12
    1458:	64 50 e1    	cp.w      w10, #0x4
    145a:	24 00 32    	bra       Z, 0x14a4 <aisinfinite>
    145c:	64 20 e1    	cp.w      w4, #0x4
    145e:	27 00 32    	bra       Z, 0x14ae <bisinfinite>
    1460:	61 50 e1    	cp.w      w10, #0x1
    1462:	22 00 32    	bra       Z, 0x14a8 <return8>
    1464:	61 20 e1    	cp.w      w4, #0x1
    1466:	21 00 32    	bra       Z, 0x14aa <return2>
    1468:	8b 85 42    	add.w     w5, w11, w11
    146a:	eb 07 b1    	sub.w     #0x7e, w11
    146c:	01 34 b8    	mul.uu    w6, w1, w8
    146e:	00 3a b8    	mul.uu    w7, w0, w4
    1470:	08 04 42    	add.w     w4, w8, w8
    1472:	89 84 4a    	addc.w    w5, w9, w9
    1474:	01 3a b8    	mul.uu    w7, w1, w4
    1476:	00 30 b8    	mul.uu    w6, w0, w0
    1478:	88 80 40    	add.w     w1, w8, w1
    147a:	09 01 4a    	addc.w    w4, w9, w2
    147c:	04 00 33    	bra       N, 0x1486 <formsticky>
    147e:	00 00 40    	add.w     w0, w0, w0
    1480:	81 80 48    	addc.w    w1, w1, w1
    1482:	02 01 49    	addc.w    w2, w2, w2
    1484:	8b 05 e9    	dec.w     w11, w11

00001486 <formsticky>:
    1486:	c9 09 dd    	sl.w      w1, #0x9, w3
    1488:	83 01 70    	ior.w     w0, w3, w3
    148a:	01 00 32    	bra       Z, 0x148e <formRandSig>
    148c:	13 00 20    	mov.w     #0x1, w3

0000148e <formRandSig>:
    148e:	c8 14 de    	lsr.w     w2, #0x8, w9
    1490:	48 14 dd    	sl.w      w2, #0x8, w8
    1492:	47 09 de    	lsr.w     w1, #0x7, w2
    1494:	12 00 b2    	and.w     #0x1, w2
    1496:	c8 08 de    	lsr.w     w1, #0x8, w1
    1498:	08 84 70    	ior.w     w1, w8, w8
    149a:	85 ff 07    	rcall     0x13a6 <__fpack>

0000149c <return0>:
    149c:	01 f0 a1    	bclr.w    w1, #0xf
    149e:	0c f0 a7    	btsc.w    w12, #0xf
    14a0:	01 f0 a0    	bset.w    w1, #0xf
    14a2:	cd ff 37    	bra       0x143e <__fbopExit>

000014a4 <aisinfinite>:
    14a4:	61 20 e1    	cp.w      w4, #0x1
    14a6:	cf ff 32    	bra       Z, 0x1446 <__fbopReturnNaN>

000014a8 <return8>:
    14a8:	08 01 be    	mov.d     w8, w2

000014aa <return2>:
    14aa:	02 00 be    	mov.d     w2, w0
    14ac:	f7 ff 37    	bra       0x149c <return0>

000014ae <bisinfinite>:
    14ae:	61 50 e1    	cp.w      w10, #0x1
    14b0:	fc ff 3a    	bra       NZ, 0x14aa <return2>
    14b2:	c9 ff 37    	bra       0x1446 <__fbopReturnNaN>

000014b4 <___udivsi3>:
    14b4:	60 22 b8    	mul.uu    w4, #0x0, w4
    14b6:	06 02 20    	mov.w     #0x20, w6

000014b8 <nextbit>:
    14b8:	00 00 d0    	sl.w      w0, w0
    14ba:	81 80 d2    	rlc.w     w1, w1
    14bc:	04 82 d2    	rlc.w     w4, w4
    14be:	85 82 d2    	rlc.w     w5, w5
    14c0:	00 00 a0    	bset.w    w0, #0x0
    14c2:	02 02 52    	sub.w     w4, w2, w4
    14c4:	83 82 5a    	subb.w    w5, w3, w5
    14c6:	03 00 31    	bra       C, 0x14ce <iterate>
    14c8:	02 02 42    	add.w     w4, w2, w4
    14ca:	83 82 4a    	addc.w    w5, w3, w5
    14cc:	00 00 a1    	bclr.w    w0, #0x0

000014ce <iterate>:
    14ce:	06 03 e9    	dec.w     w6, w6
    14d0:	f3 ff 3a    	bra       NZ, 0x14b8 <nextbit>
    14d2:	00 00 06    	return    

000014d4 <___umodsi3>:
    14d4:	ef ff 07    	rcall     0x14b4 <___udivsi3>
    14d6:	04 00 be    	mov.d     w4, w0
    14d8:	00 00 06    	return    

000014da <__fcompare>:
    14da:	88 9f be    	mov.d     w8, [w15++]
    14dc:	8a 9f be    	mov.d     w10, [w15++]
    14de:	84 1f 78    	mov.w     w4, [w15++]
    14e0:	9d ff 07    	rcall     0x141c <__funpack2>
    14e2:	4f 00 78    	mov.w     [--w15], w0
    14e4:	11 00 33    	bra       N, 0x1508 <exit>
    14e6:	f0 ff 2f    	mov.w     #0xffff, w0
    14e8:	83 8f 6c    	xor.w     w9, w3, [w15]
    14ea:	06 00 3b    	bra       NN, 0x14f8 <comparemag>
    14ec:	04 05 65    	and.w     w10, w4, w10
    14ee:	0a 00 a7    	btsc.w    w10, #0x0
    14f0:	08 00 37    	bra       0x1502 <returnEqual>
    14f2:	09 f0 a6    	btss.w    w9, #0xf
    14f4:	10 00 20    	mov.w     #0x1, w0
    14f6:	08 00 37    	bra       0x1508 <exit>

000014f8 <comparemag>:
    14f8:	82 0f 54    	sub.w     w8, w2, [w15]
    14fa:	83 8f 5c    	subb.w    w9, w3, [w15]
    14fc:	03 00 39    	bra       NC, 0x1504 <adjust>
    14fe:	10 00 20    	mov.w     #0x1, w0
    1500:	01 00 3e    	bra       GTU, 0x1504 <adjust>

00001502 <returnEqual>:
    1502:	00 00 20    	mov.w     #0x0, w0

00001504 <adjust>:
    1504:	09 f0 a7    	btsc.w    w9, #0xf
    1506:	00 00 ea    	neg.w     w0, w0

00001508 <exit>:
    1508:	4f 05 be    	mov.d     [--w15], w10
    150a:	4f 04 be    	mov.d     [--w15], w8
    150c:	00 00 e0    	cp0.w     w0
    150e:	00 00 06    	return    

00001510 <___floatdisf>:
    1510:	88 1f 78    	mov.w     w8, [w15++]
    1512:	03 04 78    	mov.w     w3, w8
    1514:	03 00 e0    	cp0.w     w3
    1516:	07 00 3d    	bra       GE, 0x1526 <notspecial>

00001518 <negative>:
    1518:	60 00 10    	subr.w    w0, #0x0, w0
    151a:	e0 80 18    	subbr.w   w1, #0x0, w1
    151c:	60 01 19    	subbr.w   w2, #0x0, w2
    151e:	e0 81 19    	subbr.w   w3, #0x0, w3
    1520:	02 00 3b    	bra       NN, 0x1526 <notspecial>
    1522:	01 f0 2d    	mov.w     #0xdf00, w1
    1524:	03 00 37    	bra       0x152c <return0>

00001526 <notspecial>:
    1526:	04 00 07    	rcall     0x1530 <___floatundisf>
    1528:	08 f0 a7    	btsc.w    w8, #0xf
    152a:	01 f0 a0    	bset.w    w1, #0xf

0000152c <return0>:
    152c:	4f 04 78    	mov.w     [--w15], w8
    152e:	00 00 06    	return    

00001530 <___floatundisf>:
    1530:	88 9f be    	mov.d     w8, [w15++]
    1532:	8a 9f be    	mov.d     w10, [w15++]
    1534:	00 82 70    	ior.w     w1, w0, w4
    1536:	04 02 71    	ior.w     w2, w4, w4
    1538:	04 82 71    	ior.w     w3, w4, w4
    153a:	26 00 32    	bra       Z, 0x1588 <return0>
    153c:	00 04 be    	mov.d     w0, w8
    153e:	02 00 be    	mov.d     w2, w0
    1540:	60 11 b8    	mul.uu    w2, #0x0, w2
    1542:	6b 09 20    	mov.w     #0x96, w11
    1544:	95 02 20    	mov.w     #0x29, w5
    1546:	01 82 cf    	ff1l      w1, w4
    1548:	0a 00 39    	bra       NC, 0x155e <fixshift>
    154a:	05 41 b1    	sub.b     #0x10, w5
    154c:	00 82 cf    	ff1l      w0, w4
    154e:	07 00 39    	bra       NC, 0x155e <fixshift>
    1550:	05 41 b1    	sub.b     #0x10, w5
    1552:	09 82 cf    	ff1l      w9, w4
    1554:	04 00 39    	bra       NC, 0x155e <fixshift>
    1556:	05 41 b1    	sub.b     #0x10, w5
    1558:	08 82 cf    	ff1l      w8, w4
    155a:	01 00 39    	bra       NC, 0x155e <fixshift>
    155c:	05 41 b1    	sub.b     #0x10, w5

0000155e <fixshift>:
    155e:	05 42 52    	sub.b     w4, w5, w4
    1560:	12 00 32    	bra       Z, 0x1586 <round>
    1562:	0a 00 3b    	bra       NN, 0x1578 <shiftleft>

00001564 <shiftright>:
    1564:	82 81 71    	ior.w     w3, w2, w3
    1566:	61 01 64    	and.w     w8, #0x1, w2
    1568:	81 00 d1    	lsr.w     w1, w1
    156a:	00 80 d3    	rrc.w     w0, w0
    156c:	89 84 d3    	rrc.w     w9, w9
    156e:	08 84 d3    	rrc.w     w8, w8
    1570:	8b 05 e8    	inc.w     w11, w11
    1572:	04 42 e8    	inc.b     w4, w4
    1574:	f7 ff 3a    	bra       NZ, 0x1564 <shiftright>
    1576:	07 00 37    	bra       0x1586 <round>

00001578 <shiftleft>:
    1578:	08 04 44    	add.w     w8, w8, w8
    157a:	89 84 4c    	addc.w    w9, w9, w9
    157c:	00 00 48    	addc.w    w0, w0, w0
    157e:	81 80 48    	addc.w    w1, w1, w1
    1580:	8b 05 e9    	dec.w     w11, w11
    1582:	04 42 e9    	dec.b     w4, w4
    1584:	f9 ff 3a    	bra       NZ, 0x1578 <shiftleft>

00001586 <round>:
    1586:	0f ff 07    	rcall     0x13a6 <__fpack>

00001588 <return0>:
    1588:	4f 05 be    	mov.d     [--w15], w10
    158a:	4f 04 be    	mov.d     [--w15], w8
    158c:	00 00 06    	return    

0000158e <_memset>:
    158e:	80 01 78    	mov.w     w0, w3
    1590:	02 00 37    	bra       0x1596 <.L2>

00001592 <.L3>:
    1592:	81 59 78    	mov.b     w1, [w3++]
    1594:	02 01 e9    	dec.w     w2, w2

00001596 <.L2>:
    1596:	02 00 e0    	cp0.w     w2
    1598:	fc ff 3a    	bra       NZ, 0x1592 <.L3>
    159a:	00 00 06    	return    
Disassembly of section .application_ivt:

00001000 <__DEFAULT_VECTOR-0x10c>:
    1000:	10 11 04    	goto      0x1110 <__reset>
    1002:	00 00 00 
    1004:	62 27 04    	goto      0x2762 <__DefaultInterrupt>
    1006:	00 00 00 
    1008:	62 27 04    	goto      0x2762 <__DefaultInterrupt>
    100a:	00 00 00 
    100c:	62 27 04    	goto      0x2762 <__DefaultInterrupt>
    100e:	00 00 00 
    1010:	62 27 04    	goto      0x2762 <__DefaultInterrupt>
    1012:	00 00 00 
    1014:	62 27 04    	goto      0x2762 <__DefaultInterrupt>
    1016:	00 00 00 
    1018:	62 27 04    	goto      0x2762 <__DefaultInterrupt>
    101a:	00 00 00 
    101c:	62 27 04    	goto      0x2762 <__DefaultInterrupt>
    101e:	00 00 00 
    1020:	62 27 04    	goto      0x2762 <__DefaultInterrupt>
    1022:	00 00 00 
    1024:	20 27 04    	goto      0x2720 <__T1Interrupt>
    1026:	00 00 00 
    1028:	62 27 04    	goto      0x2762 <__DefaultInterrupt>
    102a:	00 00 00 
    102c:	62 27 04    	goto      0x2762 <__DefaultInterrupt>
    102e:	00 00 00 
    1030:	62 27 04    	goto      0x2762 <__DefaultInterrupt>
    1032:	00 00 00 
    1034:	62 27 04    	goto      0x2762 <__DefaultInterrupt>
    1036:	00 00 00 
    1038:	62 27 04    	goto      0x2762 <__DefaultInterrupt>
    103a:	00 00 00 
    103c:	62 27 04    	goto      0x2762 <__DefaultInterrupt>
    103e:	00 00 00 
    1040:	62 27 04    	goto      0x2762 <__DefaultInterrupt>
    1042:	00 00 00 
    1044:	62 27 04    	goto      0x2762 <__DefaultInterrupt>
    1046:	00 00 00 
    1048:	62 27 04    	goto      0x2762 <__DefaultInterrupt>
    104a:	00 00 00 
    104c:	62 27 04    	goto      0x2762 <__DefaultInterrupt>
    104e:	00 00 00 
    1050:	62 27 04    	goto      0x2762 <__DefaultInterrupt>
    1052:	00 00 00 
    1054:	62 27 04    	goto      0x2762 <__DefaultInterrupt>
    1056:	00 00 00 
    1058:	62 27 04    	goto      0x2762 <__DefaultInterrupt>
    105a:	00 00 00 
    105c:	62 27 04    	goto      0x2762 <__DefaultInterrupt>
    105e:	00 00 00 
    1060:	62 27 04    	goto      0x2762 <__DefaultInterrupt>
    1062:	00 00 00 
    1064:	62 27 04    	goto      0x2762 <__DefaultInterrupt>
    1066:	00 00 00 
    1068:	62 27 04    	goto      0x2762 <__DefaultInterrupt>
    106a:	00 00 00 
    106c:	62 27 04    	goto      0x2762 <__DefaultInterrupt>
    106e:	00 00 00 
    1070:	62 27 04    	goto      0x2762 <__DefaultInterrupt>
    1072:	00 00 00 
    1074:	62 27 04    	goto      0x2762 <__DefaultInterrupt>
    1076:	00 00 00 
    1078:	62 27 04    	goto      0x2762 <__DefaultInterrupt>
    107a:	00 00 00 
    107c:	62 27 04    	goto      0x2762 <__DefaultInterrupt>
    107e:	00 00 00 
    1080:	62 27 04    	goto      0x2762 <__DefaultInterrupt>
    1082:	00 00 00 
    1084:	62 27 04    	goto      0x2762 <__DefaultInterrupt>
    1086:	00 00 00 
    1088:	62 27 04    	goto      0x2762 <__DefaultInterrupt>
    108a:	00 00 00 
    108c:	62 27 04    	goto      0x2762 <__DefaultInterrupt>
    108e:	00 00 00 
    1090:	62 27 04    	goto      0x2762 <__DefaultInterrupt>
    1092:	00 00 00 
    1094:	62 27 04    	goto      0x2762 <__DefaultInterrupt>
    1096:	00 00 00 
    1098:	62 27 04    	goto      0x2762 <__DefaultInterrupt>
    109a:	00 00 00 
    109c:	62 27 04    	goto      0x2762 <__DefaultInterrupt>
    109e:	00 00 00 
    10a0:	62 27 04    	goto      0x2762 <__DefaultInterrupt>
    10a2:	00 00 00 
    10a4:	62 27 04    	goto      0x2762 <__DefaultInterrupt>
    10a6:	00 00 00 
    10a8:	62 27 04    	goto      0x2762 <__DefaultInterrupt>
    10aa:	00 00 00 
    10ac:	62 27 04    	goto      0x2762 <__DefaultInterrupt>
    10ae:	00 00 00 
    10b0:	62 27 04    	goto      0x2762 <__DefaultInterrupt>
    10b2:	00 00 00 
    10b4:	62 27 04    	goto      0x2762 <__DefaultInterrupt>
    10b6:	00 00 00 
    10b8:	62 27 04    	goto      0x2762 <__DefaultInterrupt>
    10ba:	00 00 00 
    10bc:	62 27 04    	goto      0x2762 <__DefaultInterrupt>
    10be:	00 00 00 
    10c0:	62 27 04    	goto      0x2762 <__DefaultInterrupt>
    10c2:	00 00 00 
    10c4:	62 27 04    	goto      0x2762 <__DefaultInterrupt>
    10c6:	00 00 00 
    10c8:	62 27 04    	goto      0x2762 <__DefaultInterrupt>
    10ca:	00 00 00 
    10cc:	62 27 04    	goto      0x2762 <__DefaultInterrupt>
    10ce:	00 00 00 
    10d0:	62 27 04    	goto      0x2762 <__DefaultInterrupt>
    10d2:	00 00 00 
    10d4:	62 27 04    	goto      0x2762 <__DefaultInterrupt>
    10d6:	00 00 00 
    10d8:	62 27 04    	goto      0x2762 <__DefaultInterrupt>
    10da:	00 00 00 
    10dc:	62 27 04    	goto      0x2762 <__DefaultInterrupt>
    10de:	00 00 00 
    10e0:	62 27 04    	goto      0x2762 <__DefaultInterrupt>
    10e2:	00 00 00 
    10e4:	62 27 04    	goto      0x2762 <__DefaultInterrupt>
    10e6:	00 00 00 
    10e8:	62 27 04    	goto      0x2762 <__DefaultInterrupt>
    10ea:	00 00 00 
    10ec:	62 27 04    	goto      0x2762 <__DefaultInterrupt>
    10ee:	00 00 00 
    10f0:	62 27 04    	goto      0x2762 <__DefaultInterrupt>
    10f2:	00 00 00 
    10f4:	62 27 04    	goto      0x2762 <__DefaultInterrupt>
    10f6:	00 00 00 
    10f8:	62 27 04    	goto      0x2762 <__DefaultInterrupt>
    10fa:	00 00 00 
    10fc:	62 27 04    	goto      0x2762 <__DefaultInterrupt>
    10fe:	00 00 00 
    1100:	62 27 04    	goto      0x2762 <__DefaultInterrupt>
    1102:	00 00 00 
    1104:	62 27 04    	goto      0x2762 <__DefaultInterrupt>
    1106:	00 00 00 
    1108:	62 27 04    	goto      0x2762 <__DefaultInterrupt>
    110a:	00 00 00 

0000110c <__DEFAULT_VECTOR>:
    110c:	62 27 04    	goto      0x2762 <__DefaultInterrupt>
    110e:	00 00 00 
Disassembly of section .ivt:

00000004 <.ivt>:
   4:	04 10 00    	nop       
   6:	08 10 00    	nop       
   8:	0c 10 00    	nop       
   a:	10 10 00    	nop       
   c:	14 10 00    	nop       
   e:	0c 11 00    	nop       
  10:	0c 11 00    	nop       
  12:	0c 11 00    	nop       
  14:	18 10 00    	nop       
  16:	1c 10 00    	nop       
  18:	20 10 00    	nop       
  1a:	24 10 00    	nop       
  1c:	0c 11 00    	nop       
  1e:	28 10 00    	nop       
  20:	2c 10 00    	nop       
  22:	30 10 00    	nop       
  24:	34 10 00    	nop       
  26:	38 10 00    	nop       
  28:	3c 10 00    	nop       
  2a:	40 10 00    	nop       
  2c:	44 10 00    	nop       
  2e:	48 10 00    	nop       
  30:	0c 11 00    	nop       
  32:	0c 11 00    	nop       
  34:	4c 10 00    	nop       
  36:	50 10 00    	nop       
  38:	54 10 00    	nop       
  3a:	58 10 00    	nop       
  3c:	5c 10 00    	nop       
  3e:	0c 11 00    	nop       
  40:	60 10 00    	nop       
  42:	64 10 00    	nop       
  44:	0c 11 00    	nop       
  46:	68 10 00    	nop       
  48:	6c 10 00    	nop       
  4a:	70 10 00    	nop       
  4c:	74 10 00    	nop       
  4e:	78 10 00    	nop       
  50:	7c 10 00    	nop       
  52:	80 10 00    	nop       
  54:	84 10 00    	nop       
  56:	88 10 00    	nop       
  58:	0c 11 00    	nop       
  5a:	0c 11 00    	nop       
  5c:	0c 11 00    	nop       
  5e:	8c 10 00    	nop       
  60:	90 10 00    	nop       
  62:	94 10 00    	nop       
  64:	98 10 00    	nop       
  66:	9c 10 00    	nop       
  68:	a0 10 00    	nop       
  6a:	a4 10 00    	nop       
  6c:	a8 10 00    	nop       
  6e:	ac 10 00    	nop       
  70:	0c 11 00    	nop       
  72:	0c 11 00    	nop       
  74:	0c 11 00    	nop       
  76:	b0 10 00    	nop       
  78:	b4 10 00    	nop       
  7a:	0c 11 00    	nop       
  7c:	0c 11 00    	nop       
  7e:	b8 10 00    	nop       
  80:	bc 10 00    	nop       
  82:	0c 11 00    	nop       
  84:	0c 11 00    	nop       
  86:	0c 11 00    	nop       
  88:	0c 11 00    	nop       
  8a:	0c 11 00    	nop       
  8c:	0c 11 00    	nop       
  8e:	0c 11 00    	nop       
  90:	c0 10 00    	nop       
  92:	0c 11 00    	nop       
  94:	0c 11 00    	nop       
  96:	c4 10 00    	nop       
  98:	c8 10 00    	nop       
  9a:	cc 10 00    	nop       
  9c:	0c 11 00    	nop       
  9e:	0c 11 00    	nop       
  a0:	0c 11 00    	nop       
  a2:	0c 11 00    	nop       
  a4:	d0 10 00    	nop       
  a6:	0c 11 00    	nop       
  a8:	0c 11 00    	nop       
  aa:	0c 11 00    	nop       
  ac:	0c 11 00    	nop       
  ae:	d4 10 00    	nop       
  b0:	0c 11 00    	nop       
  b2:	0c 11 00    	nop       
  b4:	0c 11 00    	nop       
  b6:	d8 10 00    	nop       
  b8:	dc 10 00    	nop       
  ba:	e0 10 00    	nop       
  bc:	e4 10 00    	nop       
  be:	e8 10 00    	nop       
  c0:	ec 10 00    	nop       
  c2:	f0 10 00    	nop       
  c4:	f4 10 00    	nop       
  c6:	f8 10 00    	nop       
  c8:	fc 10 00    	nop       
  ca:	00 11 00    	nop       
  cc:	04 11 00    	nop       
  ce:	08 11 00    	nop       
  d0:	0c 11 00    	nop       
  d2:	0c 11 00    	nop       
  d4:	0c 11 00    	nop       
  d6:	0c 11 00    	nop       
  d8:	0c 11 00    	nop       
  da:	0c 11 00    	nop       
  dc:	0c 11 00    	nop       
  de:	0c 11 00    	nop       
  e0:	0c 11 00    	nop       
  e2:	0c 11 00    	nop       
  e4:	0c 11 00    	nop       
  e6:	0c 11 00    	nop       
  e8:	0c 11 00    	nop       
  ea:	0c 11 00    	nop       
  ec:	0c 11 00    	nop       
  ee:	0c 11 00    	nop       
  f0:	0c 11 00    	nop       
  f2:	0c 11 00    	nop       
  f4:	0c 11 00    	nop       
  f6:	0c 11 00    	nop       
  f8:	0c 11 00    	nop       
  fa:	0c 11 00    	nop       
  fc:	0c 11 00    	nop       
  fe:	0c 11 00    	nop       
Disassembly of section .const:

0000959c <_numbertable>:
    959c:	3f 00       	.word 0x3f
    959e:	06 00       	.word 0x6
    95a0:	5b 00       	.word 0x5b
    95a2:	4f 00       	.word 0x4f
    95a4:	66 00       	.word 0x66
    95a6:	6d 00       	.word 0x6d
    95a8:	7d 00       	.word 0x7d
    95aa:	07 00       	.word 0x7
    95ac:	7f 00       	.word 0x7f
    95ae:	6f 00       	.word 0x6f
    95b0:	77 00       	.word 0x77
    95b2:	7c 00       	.word 0x7c
    95b4:	39 00       	.word 0x39
    95b6:	5e 00       	.word 0x5e
    95b8:	79 00       	.word 0x79
    95ba:	71 00       	.word 0x71
	...

000095c0 <_alphafonttable>:
    95c0:	01 00       	.word 0x1
    95c2:	02 00       	.word 0x2
    95c4:	04 00       	.word 0x4
    95c6:	08 00       	.word 0x8
    95c8:	10 00       	.word 0x10
    95ca:	20 00       	.word 0x20
    95cc:	40 00       	.word 0x40
    95ce:	80 00       	.word 0x80
    95d0:	00 01       	.word 0x100
    95d2:	00 02       	.word 0x200
    95d4:	00 04       	.word 0x400
    95d6:	00 08       	.word 0x800
    95d8:	00 10       	.word 0x1000
    95da:	00 20       	.word 0x2000
    95dc:	00 40       	.word 0x4000
    95de:	00 80       	.word 0x8000
	...
    95f0:	c9 12       	.word 0x12c9
    95f2:	c0 15       	.word 0x15c0
    95f4:	f9 12       	.word 0x12f9
    95f6:	e3 00       	.word 0xe3
    95f8:	30 05       	.word 0x530
    95fa:	c8 12       	.word 0x12c8
    95fc:	00 3a       	.word 0x3a00
    95fe:	00 17       	.word 0x1700
    9600:	00 00       	.word 0
    9602:	06 00       	.word 0x6
    9604:	20 02       	.word 0x220
    9606:	ce 12       	.word 0x12ce
    9608:	ed 12       	.word 0x12ed
    960a:	24 0c       	.word 0xc24
    960c:	5d 23       	.word 0x235d
    960e:	00 04       	.word 0x400
    9610:	00 24       	.word 0x2400
    9612:	00 09       	.word 0x900
    9614:	c0 3f       	.word 0x3fc0
    9616:	c0 12       	.word 0x12c0
    9618:	00 08       	.word 0x800
    961a:	c0 00       	.word 0xc0
    961c:	00 00       	.word 0
    961e:	00 0c       	.word 0xc00
    9620:	3f 0c       	.word 0xc3f
    9622:	06 00       	.word 0x6
    9624:	db 00       	.word 0xdb
    9626:	8f 00       	.word 0x8f
    9628:	e6 00       	.word 0xe6
    962a:	69 20       	.word 0x2069
    962c:	fd 00       	.word 0xfd
    962e:	07 00       	.word 0x7
    9630:	ff 00       	.word 0xff
    9632:	ef 00       	.word 0xef
    9634:	00 12       	.word 0x1200
    9636:	00 0a       	.word 0xa00
    9638:	00 24       	.word 0x2400
    963a:	c8 00       	.word 0xc8
    963c:	00 09       	.word 0x900
    963e:	83 10       	.word 0x1083
    9640:	bb 02       	.word 0x2bb
    9642:	f7 00       	.word 0xf7
    9644:	8f 12       	.word 0x128f
    9646:	39 00       	.word 0x39
    9648:	0f 12       	.word 0x120f
    964a:	f9 00       	.word 0xf9
    964c:	71 00       	.word 0x71
    964e:	bd 00       	.word 0xbd
    9650:	f6 00       	.word 0xf6
    9652:	00 12       	.word 0x1200
    9654:	1e 00       	.word 0x1e
    9656:	70 24       	.word 0x2470
    9658:	38 00       	.word 0x38
    965a:	36 05       	.word 0x536
    965c:	36 21       	.word 0x2136
    965e:	3f 00       	.word 0x3f
    9660:	f3 00       	.word 0xf3
    9662:	3f 20       	.word 0x203f
    9664:	f3 20       	.word 0x20f3
    9666:	ed 00       	.word 0xed
    9668:	01 12       	.word 0x1201
    966a:	3e 00       	.word 0x3e
    966c:	30 0c       	.word 0xc30
    966e:	36 28       	.word 0x2836
    9670:	00 2d       	.word 0x2d00
    9672:	00 15       	.word 0x1500
    9674:	09 0c       	.word 0xc09
    9676:	39 00       	.word 0x39
    9678:	00 21       	.word 0x2100
    967a:	0f 00       	.word 0xf
    967c:	03 0c       	.word 0xc03
    967e:	08 00       	.word 0x8
    9680:	00 01       	.word 0x100
    9682:	58 10       	.word 0x1058
    9684:	78 20       	.word 0x2078
    9686:	d8 00       	.word 0xd8
    9688:	8e 08       	.word 0x88e
    968a:	58 08       	.word 0x858
    968c:	71 00       	.word 0x71
    968e:	8e 04       	.word 0x48e
    9690:	70 10       	.word 0x1070
    9692:	00 10       	.word 0x1000
    9694:	0e 00       	.word 0xe
    9696:	00 36       	.word 0x3600
    9698:	30 00       	.word 0x30
    969a:	d4 10       	.word 0x10d4
    969c:	50 10       	.word 0x1050
    969e:	dc 00       	.word 0xdc
    96a0:	70 01       	.word 0x170
    96a2:	86 04       	.word 0x486
    96a4:	50 00       	.word 0x50
    96a6:	88 20       	.word 0x2088
    96a8:	78 00       	.word 0x78
    96aa:	1c 00       	.word 0x1c
    96ac:	04 20       	.word 0x2004
    96ae:	14 28       	.word 0x2814
    96b0:	c0 28       	.word 0x28c0
    96b2:	0c 20       	.word 0x200c
    96b4:	48 08       	.word 0x848
    96b6:	49 09       	.word 0x949
    96b8:	00 12       	.word 0x1200
    96ba:	89 24       	.word 0x2489
    96bc:	20 05       	.word 0x520
    96be:	ff 3f       	.word 0x3fff
Disassembly of section .text:

000016c0 <_strikeLEDOff>:

typedef void (*STATE_HANDLER_T)(void);
STATE_HANDLER_T state, last_state;

void strikeLEDOff() {
    16c0:	00 00 fa    	lnk       #0x0
    STRIKE1_RLED = OFF; delay_by_nop(1);
    16c2:	da a2 a9    	bclr.b    0x2da, #0x5
    16c4:	10 00 20    	mov.w     #0x1, w0
    16c6:	01 00 20    	mov.w     #0x0, w1
    16c8:	99 05 07    	rcall     0x21fc <_delay_by_nop> <.L0> <.LFB0> <.LFE16> <.Letext0> <.Ltext0>
    STRIKE1_GLED = OFF; delay_by_nop(1);
    16ca:	da 82 a9    	bclr.b    0x2da, #0x4
    16cc:	10 00 20    	mov.w     #0x1, w0
    16ce:	01 00 20    	mov.w     #0x0, w1
    16d0:	95 05 07    	rcall     0x21fc <_delay_by_nop> <.L0> <.LFB0> <.LFE16> <.Letext0> <.Ltext0>
    STRIKE2_RLED = OFF; delay_by_nop(1);
    16d2:	da 02 a9    	bclr.b    0x2da, #0x0
    16d4:	10 00 20    	mov.w     #0x1, w0
    16d6:	01 00 20    	mov.w     #0x0, w1
    16d8:	91 05 07    	rcall     0x21fc <_delay_by_nop> <.L0> <.LFB0> <.LFE16> <.Letext0> <.Ltext0>
    STRIKE2_GLED = OFF; delay_by_nop(1);
    16da:	da 22 a9    	bclr.b    0x2da, #0x1
    16dc:	10 00 20    	mov.w     #0x1, w0
    16de:	01 00 20    	mov.w     #0x0, w1
    16e0:	8d 05 07    	rcall     0x21fc <_delay_by_nop> <.L0> <.LFB0> <.LFE16> <.Letext0> <.Ltext0>
    STRIKE3_RLED = OFF; delay_by_nop(1);
    16e2:	cb e2 a9    	bclr.b    0x2cb, #0x7
    16e4:	10 00 20    	mov.w     #0x1, w0
    16e6:	01 00 20    	mov.w     #0x0, w1
    16e8:	89 05 07    	rcall     0x21fc <_delay_by_nop> <.L0> <.LFB0> <.LFE16> <.Letext0> <.Ltext0>
    STRIKE3_GLED = OFF; delay_by_nop(1);
    16ea:	ea 62 a9    	bclr.b    0x2ea, #0x3
    16ec:	10 00 20    	mov.w     #0x1, w0
    16ee:	01 00 20    	mov.w     #0x0, w1
    16f0:	85 05 07    	rcall     0x21fc <_delay_by_nop> <.L0> <.LFB0> <.LFE16> <.Letext0> <.Ltext0>
}
    16f2:	00 80 fa    	ulnk      
    16f4:	00 00 06    	return    

000016f6 <_main>:

// MAIN FUNCTION ***************************************************************

int16_t main(void) {
    16f6:	02 00 fa    	lnk       #0x2
    init_elecanisms();
    16f8:	c3 07 07    	rcall     0x2680 <_init_elecanisms> <.L0> <.LFB0> <.LFE21> <.Letext0> <.Ltext0>
    init_clock(); // not sure if this does anything
    16fa:	00 10 20    	mov.w     #0x100, w0
    16fc:	20 3a 88    	mov.w     w0, 0x744
    // Initializes I2C on I2C3
    i2c_init(1e3);
    16fe:	80 3e 20    	mov.w     #0x3e8, w0
    1700:	90 05 07    	rcall     0x2222 <_i2c_init> <.LFB1> <.LFE0>
    led_begin((_ADAFRUIT_LED*)&matrix.super, matrix_addr); // Set up the HT16K33 and start the oscillator
    1702:	0a c8 bf    	mov.b     0x80a, WREG
    1704:	80 40 78    	mov.b     w0, w1
    1706:	c0 80 20    	mov.w     #0x80c, w0
    1708:	c6 02 07    	rcall     0x1c96 <_led_begin> <.L0> <.LFB0> <.LFE8> <.Letext0> <.Ltext0>

    time_left = max_time; // Set up time left to be max time
    170a:	a0 00 20    	mov.w     #0xa, w0
    170c:	00 40 88    	mov.w     w0, 0x800

    // Setup pins as output
    D0_DIR = 0;
    170e:	d8 a2 a9    	bclr.b    0x2d8, #0x5
    D1_DIR = 0;
    1710:	d8 82 a9    	bclr.b    0x2d8, #0x4
    D10_DIR = 0;
    1712:	d8 02 a9    	bclr.b    0x2d8, #0x0
    D11_DIR = 0;
    1714:	d8 22 a9    	bclr.b    0x2d8, #0x1
    D4_DIR = 0;
    1716:	c9 e2 a9    	bclr.b    0x2c9, #0x7
    D5_DIR = 0;
    1718:	e8 62 a9    	bclr.b    0x2e8, #0x3
    D6_DIR = 0;
    171a:	d9 02 a9    	bclr.b    0x2d9, #0x0
    D7_DIR = 0;
    171c:	d9 62 a9    	bclr.b    0x2d9, #0x3
    D9_DIR = 0;
    171e:	d9 42 a9    	bclr.b    0x2d9, #0x2


    // Init button low
    BUTTON_LED = 0;
    1720:	db 02 a9    	bclr.b    0x2db, #0x0
    BUTTON_LED_LOW = 0;
    1722:	db 62 a9    	bclr.b    0x2db, #0x3

    // Setup D8 as input
    D8_DIR = 1;
    1724:	d9 22 a8    	bset.b    0x2d9, #0x1
    // Set up pull-up resistor on button D8
    CNPU4bits.CN54PUE = 1;
    1726:	74 c0 a8    	bset.b    0x74, #0x6
    // Set D9 as pull-down for button
    D9 = 0;
    1728:	db 42 a9    	bclr.b    0x2db, #0x2

    /* Timer 1 setup for game timing*/
    T1CON = 0x0030;         // set Timer1 period to 1s
    172a:	00 03 20    	mov.w     #0x30, w0
    172c:	20 08 88    	mov.w     w0, 0x104
    PR1 = 0xF422;
    172e:	20 42 2f    	mov.w     #0xf422, w0
    1730:	10 08 88    	mov.w     w0, 0x102
    TMR1 = 0;               // set Timer1 count to 0
    1732:	00 21 ef    	clr.w     0x100
    IFS0bits.T1IF = 0;      // lower Timer1 interrupt flag
    1734:	84 60 a9    	bclr.b    0x84, #0x3
    IEC0bits.T1IE = 1;      // enable Timer1 interrupt
    1736:	94 60 a8    	bset.b    0x94, #0x3

    // /* Timer 2 setup for beep timing*/
    // T2CON = 0x0030;
    // PR2 = 0x186A;           // set Timer2 period to 0.1s
    // TMR2 = 0;               // set Timer1 count to 0
    // IFS0bits.T2IF = 0;      // lower T2 interrupt flag
    // IEC0bits.T2IE = 1;      // enable T2 interrupt


    state = idle;           // Initialize state to idle
    1738:	60 7c 21    	mov.w     #0x17c6, w0
    173a:	30 40 88    	mov.w     w0, 0x806
    last_state = (STATE_HANDLER_T)NULL;
    173c:	08 28 ef    	clr.w     0x808

    memset(peripheral_present, 0, 6); // set arrays to 0
    173e:	62 00 20    	mov.w     #0x6, w2
    1740:	80 00 eb    	clr.w     w1
    1742:	00 c2 20    	mov.w     #0xc20, w0
    1744:	24 ff 07    	rcall     0x158e <_memset>
    memset(peripheral_complete, 0, 6);
    1746:	62 00 20    	mov.w     #0x6, w2
    1748:	80 00 eb    	clr.w     w1
    174a:	60 c2 20    	mov.w     #0xc26, w0
    174c:	20 ff 07    	rcall     0x158e <_memset>
    num_strikes = 0;
    174e:	03 68 ef    	clr.b     0x803
    prev_num_strikes = 0;
    1750:	04 68 ef    	clr.b     0x804
    game_complete = 0;
    1752:	05 68 ef    	clr.b     0x805

    i2c2_init(157);      // initialize I2C for 16Mhz OSC with 100kHz I2C clock
    1754:	d0 09 20    	mov.w     #0x9d, w0
    1756:	a5 06 07    	rcall     0x24a2 <_i2c2_init> <.LFB13> <.LFE12>

    delay_by_nop(300000);
    1758:	00 3e 29    	mov.w     #0x93e0, w0
    175a:	41 00 20    	mov.w     #0x4, w1
    175c:	4f 05 07    	rcall     0x21fc <_delay_by_nop> <.L0> <.LFB0> <.LFE16> <.Letext0> <.Ltext0>


    uint8_t i = 0;
    175e:	00 40 eb    	clr.b     w0
    1760:	00 4f 78    	mov.b     w0, [w14]
    // Poll the peripherals to see who's here
    for (i = 0; i < 6; i++) {
    1762:	00 40 eb    	clr.b     w0
    1764:	00 4f 78    	mov.b     w0, [w14]
    1766:	14 00 37    	bra       0x1790 <.L3>

00001768 <.L5>:
        uint8_t temp = 0;
    1768:	00 40 eb    	clr.b     w0
    176a:	10 47 98    	mov.b     w0, [w14+1]

        i2c2_start();
    176c:	a7 06 07    	rcall     0x24bc <_i2c2_start> <.LFB14> <.LFE13>
        temp = send_i2c2_byte(peripheral_addrs[i]); // set /W bit
    176e:	1e 80 fb    	ze        [w14], w0
    1770:	c1 c2 20    	mov.w     #0xc2c, w1
    1772:	61 40 78    	mov.b     [w1+w0], w0
    1774:	00 80 fb    	ze        w0, w0
    1776:	f1 06 07    	rcall     0x255a <_send_i2c2_byte> <.LFB17> <.LFE16>
    1778:	10 47 98    	mov.b     w0, [w14+1]
        if (temp == 0) {
    177a:	1e 40 90    	mov.b     [w14+1], w0
    177c:	00 04 e0    	cp0.b     w0
    177e:	06 00 3a    	bra       NZ, 0x178c <.L4>
            peripheral_present[i] = 1; // We found it, but we need to reset the FSM for i2c
    1780:	1e 80 fb    	ze        [w14], w0
    1782:	01 c2 20    	mov.w     #0xc20, w1
    1784:	12 c0 b3    	mov.b     #0x1, w2
    1786:	82 70 78    	mov.b     w2, [w1+w0]
            send_i2c2_byte(0xA0); // Send dummy byte to reset FSM
    1788:	00 0a 20    	mov.w     #0xa0, w0
    178a:	e7 06 07    	rcall     0x255a <_send_i2c2_byte> <.LFB17> <.LFE16>

0000178c <.L4>:
        }
        reset_i2c2_bus();
    178c:	cb 06 07    	rcall     0x2524 <_reset_i2c2_bus> <.LFB16> <.LFE15>

0000178e <.LBE2>:
    178e:	1e 4f e8    	inc.b     [w14], [w14]

00001790 <.L3>:
    1790:	1e 40 78    	mov.b     [w14], w0
    1792:	e5 4f 50    	sub.b     w0, #0x5, [w15]
    1794:	e9 ff 36    	bra       LEU, 0x1768 <.L5> <.LBB2>
    }

    //TODO: Send out parameters

    //TODO: Send out start condition
    for (i = 0; i < 6; i++) {
    1796:	00 40 eb    	clr.b     w0
    1798:	00 4f 78    	mov.b     w0, [w14]
    179a:	0f 00 37    	bra       0x17ba <.L6>

0000179c <.L8>:
        if (peripheral_present[i]) {
    179c:	1e 80 fb    	ze        [w14], w0
    179e:	01 c2 20    	mov.w     #0xc20, w1
    17a0:	61 40 78    	mov.b     [w1+w0], w0
    17a2:	00 04 e0    	cp0.b     w0
    17a4:	09 00 32    	bra       Z, 0x17b8 <.L7>
            i2c2_start();
    17a6:	8a 06 07    	rcall     0x24bc <_i2c2_start> <.LFB14> <.LFE13>
            send_i2c2_byte(peripheral_addrs[i] | 0);  // init a write, last to 0
    17a8:	1e 80 fb    	ze        [w14], w0
    17aa:	c1 c2 20    	mov.w     #0xc2c, w1
    17ac:	61 40 78    	mov.b     [w1+w0], w0
    17ae:	00 80 fb    	ze        w0, w0
    17b0:	d4 06 07    	rcall     0x255a <_send_i2c2_byte> <.LFB17> <.LFE16>
            send_i2c2_byte(HEADER_START_GAME << 5);
    17b2:	00 0c 20    	mov.w     #0xc0, w0
    17b4:	d2 06 07    	rcall     0x255a <_send_i2c2_byte> <.LFB17> <.LFE16>
            reset_i2c2_bus();
    17b6:	b6 06 07    	rcall     0x2524 <_reset_i2c2_bus> <.LFB16> <.LFE15>

000017b8 <.L7>:
    17b8:	1e 4f e8    	inc.b     [w14], [w14]

000017ba <.L6>:
    17ba:	1e 40 78    	mov.b     [w14], w0
    17bc:	e5 4f 50    	sub.b     w0, #0x5, [w15]
    17be:	ee ff 36    	bra       LEU, 0x179c <.L8>

000017c0 <.L9>:
        }
    }

    while (1) {
        state();
    17c0:	30 40 80    	mov.w     0x806, w0
    17c2:	00 00 01    	call      w0
    }
    17c4:	fd ff 37    	bra       0x17c0 <.L9>

000017c6 <_idle>:

}

// ISRs ************************************************************************
void __attribute__((interrupt, auto_psv)) _T1Interrupt(void) {
    IFS0bits.T1IF = 0;  // if it's been a second, lower the counter and show it
    time_left--;

}
// STATE MACHINE FUNCTIONS *****************************************************

void idle(void) {
    17c6:	00 00 fa    	lnk       #0x0
    if (state != last_state) {  // if we are entering the state, do initialization stuff
    17c8:	31 40 80    	mov.w     0x806, w1
    17ca:	40 40 80    	mov.w     0x808, w0
    17cc:	80 8f 50    	sub.w     w1, w0, [w15]
    17ce:	05 00 32    	bra       Z, 0x17da <.L12>
        last_state = state;
    17d0:	30 40 80    	mov.w     0x806, w0
    17d2:	40 40 88    	mov.w     w0, 0x808
        dispSeconds(max_time); // Start by showing full time
    17d4:	a0 00 20    	mov.w     #0xa, w0
    17d6:	f7 01 07    	rcall     0x1bc6 <_dispSeconds> <.LFB7> <.LFE6>
        BUTTON_LED = ON;
    17d8:	db 02 a8    	bset.b    0x2db, #0x0

000017da <.L12>:
    }

    // Perform state tasks

    // Check for state transitions
    if (D8 == 0) { // D8 is pulled-up, if button is pressed it pulls it down
    17da:	d1 16 80    	mov.w     0x2da, w1
    17dc:	00 20 20    	mov.w     #0x200, w0
    17de:	00 80 60    	and.w     w1, w0, w0
    17e0:	00 00 e0    	cp0.w     w0
    17e2:	02 00 3a    	bra       NZ, 0x17e8 <.L13>
        state = active;
    17e4:	60 7f 21    	mov.w     #0x17f6, w0
    17e6:	30 40 88    	mov.w     w0, 0x806

000017e8 <.L13>:
    }

    // if we are leaving the state, do clean up stuff
    if (state != last_state) {
    17e8:	31 40 80    	mov.w     0x806, w1
    17ea:	40 40 80    	mov.w     0x808, w0
    17ec:	80 8f 50    	sub.w     w1, w0, [w15]
    17ee:	01 00 32    	bra       Z, 0x17f2 <.L11>
        BUTTON_LED = OFF;
    17f0:	db 02 a9    	bclr.b    0x2db, #0x0

000017f2 <.L11>:
    }
}
    17f2:	00 80 fa    	ulnk      
    17f4:	00 00 06    	return    

000017f6 <_active>:

void active(void) {
    17f6:	02 00 fa    	lnk       #0x2
    if (state != last_state) {  // if we are entering the state, do intitialization stuff
    17f8:	31 40 80    	mov.w     0x806, w1
    17fa:	40 40 80    	mov.w     0x808, w0
    17fc:	80 8f 50    	sub.w     w1, w0, [w15]
    17fe:	12 00 32    	bra       Z, 0x1824 <.L16>
        last_state = state;
    1800:	30 40 80    	mov.w     0x806, w0
    1802:	40 40 88    	mov.w     w0, 0x808
        IFS0bits.T1IF = 0; //lower interrupt flag
    1804:	84 60 a9    	bclr.b    0x84, #0x3
        TMR1 = 0;          // reset timer register
    1806:	00 21 ef    	clr.w     0x100
        T1CONbits.TON = 1; // enable 1 second timer
    1808:	05 e1 a8    	bset.b    0x105, #0x7

        time_left = max_time;
    180a:	a0 00 20    	mov.w     #0xa, w0
    180c:	00 40 88    	mov.w     w0, 0x800
        dispSeconds(time_left);
    180e:	00 40 80    	mov.w     0x800, w0
    1810:	da 01 07    	rcall     0x1bc6 <_dispSeconds> <.LFB7> <.LFE6>
        STRIKE1_GLED = ON; // Turn on strike LEDs to green
    1812:	da 82 a8    	bset.b    0x2da, #0x4
        delay_by_nop(1);
    1814:	10 00 20    	mov.w     #0x1, w0
    1816:	01 00 20    	mov.w     #0x0, w1
    1818:	f1 04 07    	rcall     0x21fc <_delay_by_nop> <.L0> <.LFB0> <.LFE16> <.Letext0> <.Ltext0>
        STRIKE2_GLED = ON;
    181a:	da 22 a8    	bset.b    0x2da, #0x1
        delay_by_nop(1);
    181c:	10 00 20    	mov.w     #0x1, w0
    181e:	01 00 20    	mov.w     #0x0, w1
    1820:	ed 04 07    	rcall     0x21fc <_delay_by_nop> <.L0> <.LFB0> <.LFE16> <.Letext0> <.Ltext0>
        STRIKE3_GLED = ON;
    1822:	ea 62 a8    	bset.b    0x2ea, #0x3

00001824 <.L16>:
    }

    // Perform state tasks
    datareturned = 0;
    1824:	02 68 ef    	clr.b     0x802
    delay_by_nop(500);
    1826:	40 1f 20    	mov.w     #0x1f4, w0
    1828:	01 00 20    	mov.w     #0x0, w1
    182a:	e8 04 07    	rcall     0x21fc <_delay_by_nop> <.L0> <.LFB0> <.LFE16> <.Letext0> <.Ltext0>
    LED3 = ON;
    182c:	ec 22 a8    	bset.b    0x2ec, #0x1
    uint8_t i;

    // Handle time
    dispSeconds(time_left);
    182e:	00 40 80    	mov.w     0x800, w0
    1830:	ca 01 07    	rcall     0x1bc6 <_dispSeconds> <.LFB7> <.LFE6>
    if (time_left == 0) {
    1832:	00 40 80    	mov.w     0x800, w0
    1834:	00 00 e0    	cp0.w     w0
    1836:	17 00 3a    	bra       NZ, 0x1866 <.L17>
        for (i = 0; i < 6; i++) {
    1838:	00 40 eb    	clr.b     w0
    183a:	00 4f 78    	mov.b     w0, [w14]
    183c:	0f 00 37    	bra       0x185c <.L18>

0000183e <.L20>:
            if(peripheral_present[i]) {
    183e:	1e 80 fb    	ze        [w14], w0
    1840:	01 c2 20    	mov.w     #0xc20, w1
    1842:	61 40 78    	mov.b     [w1+w0], w0
    1844:	00 04 e0    	cp0.b     w0
    1846:	09 00 32    	bra       Z, 0x185a <.L19>
                i2c2_start();
    1848:	39 06 07    	rcall     0x24bc <_i2c2_start> <.LFB14> <.LFE13>
                send_i2c2_byte(peripheral_addrs[i] | 0);  // init a write, last to 0
    184a:	1e 80 fb    	ze        [w14], w0
    184c:	c1 c2 20    	mov.w     #0xc2c, w1
    184e:	61 40 78    	mov.b     [w1+w0], w0
    1850:	00 80 fb    	ze        w0, w0
    1852:	83 06 07    	rcall     0x255a <_send_i2c2_byte> <.LFB17> <.LFE16>
                send_i2c2_byte(HEADER_END_LOSE << 5); // Broadcast the current number of strikes
    1854:	00 04 20    	mov.w     #0x40, w0
    1856:	81 06 07    	rcall     0x255a <_send_i2c2_byte> <.LFB17> <.LFE16>
                reset_i2c2_bus();
    1858:	65 06 07    	rcall     0x2524 <_reset_i2c2_bus> <.LFB16> <.LFE15>

0000185a <.L19>:
    185a:	1e 4f e8    	inc.b     [w14], [w14]

0000185c <.L18>:
    185c:	1e 40 78    	mov.b     [w14], w0
    185e:	e5 4f 50    	sub.b     w0, #0x5, [w15]
    1860:	ee ff 36    	bra       LEU, 0x183e <.L20>
            }
        }
       state = end_fail;            // if we're out of time, go to end
    1862:	e0 a3 21    	mov.w     #0x1a3e, w0
    1864:	30 40 88    	mov.w     w0, 0x806

00001866 <.L17>:
    }

    // Get completeness and strikes from every module
    prev_num_strikes = num_strikes;
    1866:	03 c8 bf    	mov.b     0x803, WREG
    1868:	04 e8 b7    	mov.b     WREG, 0x804
    for (i = 0; i < 6; i++) {
    186a:	00 40 eb    	clr.b     w0
    186c:	00 4f 78    	mov.b     w0, [w14]
    186e:	29 00 37    	bra       0x18c2 <.L21>

00001870 <.L25>:
        if(peripheral_present[i]) {
    1870:	1e 80 fb    	ze        [w14], w0
    1872:	01 c2 20    	mov.w     #0xc20, w1
    1874:	61 40 78    	mov.b     [w1+w0], w0
    1876:	00 04 e0    	cp0.b     w0
    1878:	23 00 32    	bra       Z, 0x18c0 <.L22>
            i2c2_start();
    187a:	20 06 07    	rcall     0x24bc <_i2c2_start> <.LFB14> <.LFE13>
            send_i2c2_byte(peripheral_addrs[i] | 1);  // init a read, last to 1
    187c:	1e 80 fb    	ze        [w14], w0
    187e:	c1 c2 20    	mov.w     #0xc2c, w1
    1880:	61 40 78    	mov.b     [w1+w0], w0
    1882:	00 04 a0    	bset.b    w0, #0x0
    1884:	00 80 fb    	ze        w0, w0
    1886:	69 06 07    	rcall     0x255a <_send_i2c2_byte> <.LFB17> <.LFE16>
            datareturned = i2c2_read_nack();
    1888:	ca 06 07    	rcall     0x261e <_i2c2_read_nack> <.LFB20> <.LFE19>
    188a:	02 e8 b7    	mov.b     WREG, 0x802
            reset_i2c2_bus();
    188c:	4b 06 07    	rcall     0x2524 <_reset_i2c2_bus> <.LFB16> <.LFE15>

            if (datareturned & 0b10000000) { // Complete flag
    188e:	02 c8 bf    	mov.b     0x802, WREG
    1890:	00 04 e0    	cp0.b     w0
    1892:	04 00 3d    	bra       GE, 0x189c <.L23>
                peripheral_complete[i] = 1;
    1894:	1e 80 fb    	ze        [w14], w0
    1896:	61 c2 20    	mov.w     #0xc26, w1
    1898:	12 c0 b3    	mov.b     #0x1, w2
    189a:	82 70 78    	mov.b     w2, [w1+w0]

0000189c <.L23>:
            }
            if (((datareturned & 0b01110000) >> 4) > prev_num_strikes) { //If the module recorded any strikes
    189c:	02 c8 bf    	mov.b     0x802, WREG
    189e:	80 80 fb    	ze        w0, w1
    18a0:	00 07 20    	mov.w     #0x70, w0
    18a2:	00 80 60    	and.w     w1, w0, w0
    18a4:	c4 80 de    	asr.w     w0, #0x4, w1
    18a6:	04 c8 bf    	mov.b     0x804, WREG
    18a8:	00 80 fb    	ze        w0, w0
    18aa:	80 8f 50    	sub.w     w1, w0, [w15]
    18ac:	09 00 34    	bra       LE, 0x18c0 <.L22>
                num_strikes+= ((datareturned & 0b01110000) >> 4);
    18ae:	02 c8 bf    	mov.b     0x802, WREG
    18b0:	80 80 fb    	ze        w0, w1
    18b2:	00 07 20    	mov.w     #0x70, w0
    18b4:	00 80 60    	and.w     w1, w0, w0
    18b6:	44 80 de    	asr.w     w0, #0x4, w0
    18b8:	80 40 78    	mov.b     w0, w1
    18ba:	03 c8 bf    	mov.b     0x803, WREG
    18bc:	00 c0 40    	add.b     w1, w0, w0
    18be:	03 e8 b7    	mov.b     WREG, 0x803

000018c0 <.L22>:
    18c0:	1e 4f e8    	inc.b     [w14], [w14]

000018c2 <.L21>:
    18c2:	1e 40 78    	mov.b     [w14], w0
    18c4:	e5 4f 50    	sub.b     w0, #0x5, [w15]
    18c6:	d4 ff 36    	bra       LEU, 0x1870 <.L25>
            }
            if ((datareturned & 0b00001111) != 0) {
                // TODO: implement error codes if necessary
            }
        }
    }
    //Handles completeness
    game_complete = 1;
    18c8:	10 c0 b3    	mov.b     #0x1, w0
    18ca:	05 e8 b7    	mov.b     WREG, 0x805
    for (i = 0; i < 6; i++) {
    18cc:	00 40 eb    	clr.b     w0
    18ce:	00 4f 78    	mov.b     w0, [w14]
    18d0:	0c 00 37    	bra       0x18ea <.L26>

000018d2 <.L28>:
        if (peripheral_present[i] && !peripheral_complete[i]) {
    18d2:	1e 80 fb    	ze        [w14], w0
    18d4:	01 c2 20    	mov.w     #0xc20, w1
    18d6:	61 40 78    	mov.b     [w1+w0], w0
    18d8:	00 04 e0    	cp0.b     w0
    18da:	06 00 32    	bra       Z, 0x18e8 <.L27>
    18dc:	1e 80 fb    	ze        [w14], w0
    18de:	61 c2 20    	mov.w     #0xc26, w1
    18e0:	61 40 78    	mov.b     [w1+w0], w0
    18e2:	00 04 e0    	cp0.b     w0
    18e4:	01 00 3a    	bra       NZ, 0x18e8 <.L27>
            game_complete = 0;
    18e6:	05 68 ef    	clr.b     0x805

000018e8 <.L27>:
    18e8:	1e 4f e8    	inc.b     [w14], [w14]

000018ea <.L26>:
    18ea:	1e 40 78    	mov.b     [w14], w0
    18ec:	e5 4f 50    	sub.b     w0, #0x5, [w15]
    18ee:	f1 ff 36    	bra       LEU, 0x18d2 <.L28>
        }
    }
    // If we checked all of them and the game is still complete, then count it!
    if (game_complete) {
    18f0:	05 c8 bf    	mov.b     0x805, WREG
    18f2:	00 04 e0    	cp0.b     w0
    18f4:	17 00 32    	bra       Z, 0x1924 <.L29>
        for (i = 0; i < 6; i++) {
    18f6:	00 40 eb    	clr.b     w0
    18f8:	00 4f 78    	mov.b     w0, [w14]
    18fa:	0f 00 37    	bra       0x191a <.L30>

000018fc <.L32>:
            if(peripheral_present[i]) {
    18fc:	1e 80 fb    	ze        [w14], w0
    18fe:	01 c2 20    	mov.w     #0xc20, w1
    1900:	61 40 78    	mov.b     [w1+w0], w0
    1902:	00 04 e0    	cp0.b     w0
    1904:	09 00 32    	bra       Z, 0x1918 <.L31>
                i2c2_start();
    1906:	da 05 07    	rcall     0x24bc <_i2c2_start> <.LFB14> <.LFE13>
                send_i2c2_byte(peripheral_addrs[i] | 0);  // init a write, last to 0
    1908:	1e 80 fb    	ze        [w14], w0
    190a:	c1 c2 20    	mov.w     #0xc2c, w1
    190c:	61 40 78    	mov.b     [w1+w0], w0
    190e:	00 80 fb    	ze        w0, w0
    1910:	24 06 07    	rcall     0x255a <_send_i2c2_byte> <.LFB17> <.LFE16>
                send_i2c2_byte(HEADER_END_WIN << 5); // Broadcast that we won
    1912:	00 02 20    	mov.w     #0x20, w0
    1914:	22 06 07    	rcall     0x255a <_send_i2c2_byte> <.LFB17> <.LFE16>
                reset_i2c2_bus();
    1916:	06 06 07    	rcall     0x2524 <_reset_i2c2_bus> <.LFB16> <.LFE15>

00001918 <.L31>:
    1918:	1e 4f e8    	inc.b     [w14], [w14]

0000191a <.L30>:
    191a:	1e 40 78    	mov.b     [w14], w0
    191c:	e5 4f 50    	sub.b     w0, #0x5, [w15]
    191e:	ee ff 36    	bra       LEU, 0x18fc <.L32>
            }
        }
        //TODO: Go to 'win' state
        state = end_win;
    1920:	e0 af 21    	mov.w     #0x1afe, w0
    1922:	30 40 88    	mov.w     w0, 0x806

00001924 <.L29>:
    }

    //Handles strikes
    strikeLEDOff(); // Handle strike LEDs
    1924:	cd fe 07    	rcall     0x16c0 <_strikeLEDOff> <.L0> <.LFB0> <.Ltext0>
    switch (num_strikes){
    1926:	03 c8 bf    	mov.b     0x803, WREG
    1928:	00 80 fb    	ze        w0, w0
    192a:	e1 0f 50    	sub.w     w0, #0x1, [w15]
    192c:	11 00 32    	bra       Z, 0x1950 <.L35>
    192e:	e2 0f 50    	sub.w     w0, #0x2, [w15]
    1930:	1c 00 32    	bra       Z, 0x196a <.L36>
    1932:	00 00 e0    	cp0.w     w0
    1934:	27 00 3a    	bra       NZ, 0x1984 <.L48>
        case 0:
            STRIKE1_GLED = ON; delay_by_nop(1);
    1936:	da 82 a8    	bset.b    0x2da, #0x4
    1938:	10 00 20    	mov.w     #0x1, w0
    193a:	01 00 20    	mov.w     #0x0, w1
    193c:	5f 04 07    	rcall     0x21fc <_delay_by_nop> <.L0> <.LFB0> <.LFE16> <.Letext0> <.Ltext0>
            STRIKE2_GLED = ON; delay_by_nop(1);
    193e:	da 22 a8    	bset.b    0x2da, #0x1
    1940:	10 00 20    	mov.w     #0x1, w0
    1942:	01 00 20    	mov.w     #0x0, w1
    1944:	5b 04 07    	rcall     0x21fc <_delay_by_nop> <.L0> <.LFB0> <.LFE16> <.Letext0> <.Ltext0>
            STRIKE3_GLED = ON; delay_by_nop(1);
    1946:	ea 62 a8    	bset.b    0x2ea, #0x3
    1948:	10 00 20    	mov.w     #0x1, w0
    194a:	01 00 20    	mov.w     #0x0, w1
    194c:	57 04 07    	rcall     0x21fc <_delay_by_nop> <.L0> <.LFB0> <.LFE16> <.Letext0> <.Ltext0>
        break;
    194e:	27 00 37    	bra       0x199e <.L37>

00001950 <.L35>:
        case 1:
            STRIKE1_RLED = ON; delay_by_nop(1);
    1950:	da a2 a8    	bset.b    0x2da, #0x5
    1952:	10 00 20    	mov.w     #0x1, w0
    1954:	01 00 20    	mov.w     #0x0, w1
    1956:	52 04 07    	rcall     0x21fc <_delay_by_nop> <.L0> <.LFB0> <.LFE16> <.Letext0> <.Ltext0>
            STRIKE2_GLED = ON; delay_by_nop(1);
    1958:	da 22 a8    	bset.b    0x2da, #0x1
    195a:	10 00 20    	mov.w     #0x1, w0
    195c:	01 00 20    	mov.w     #0x0, w1
    195e:	4e 04 07    	rcall     0x21fc <_delay_by_nop> <.L0> <.LFB0> <.LFE16> <.Letext0> <.Ltext0>
            STRIKE3_GLED = ON; delay_by_nop(1);
    1960:	ea 62 a8    	bset.b    0x2ea, #0x3
    1962:	10 00 20    	mov.w     #0x1, w0
    1964:	01 00 20    	mov.w     #0x0, w1
    1966:	4a 04 07    	rcall     0x21fc <_delay_by_nop> <.L0> <.LFB0> <.LFE16> <.Letext0> <.Ltext0>
        break;
    1968:	1a 00 37    	bra       0x199e <.L37>

0000196a <.L36>:
        case 2:
            STRIKE1_RLED = ON; delay_by_nop(1);
    196a:	da a2 a8    	bset.b    0x2da, #0x5
    196c:	10 00 20    	mov.w     #0x1, w0
    196e:	01 00 20    	mov.w     #0x0, w1
    1970:	45 04 07    	rcall     0x21fc <_delay_by_nop> <.L0> <.LFB0> <.LFE16> <.Letext0> <.Ltext0>
            STRIKE2_RLED = ON; delay_by_nop(1);
    1972:	da 02 a8    	bset.b    0x2da, #0x0
    1974:	10 00 20    	mov.w     #0x1, w0
    1976:	01 00 20    	mov.w     #0x0, w1
    1978:	41 04 07    	rcall     0x21fc <_delay_by_nop> <.L0> <.LFB0> <.LFE16> <.Letext0> <.Ltext0>
            STRIKE3_GLED = ON; delay_by_nop(1);
    197a:	ea 62 a8    	bset.b    0x2ea, #0x3
    197c:	10 00 20    	mov.w     #0x1, w0
    197e:	01 00 20    	mov.w     #0x0, w1
    1980:	3d 04 07    	rcall     0x21fc <_delay_by_nop> <.L0> <.LFB0> <.LFE16> <.Letext0> <.Ltext0>
        break;
    1982:	0d 00 37    	bra       0x199e <.L37>

00001984 <.L48>:
        default:
            STRIKE1_RLED = ON; delay_by_nop(1);
    1984:	da a2 a8    	bset.b    0x2da, #0x5
    1986:	10 00 20    	mov.w     #0x1, w0
    1988:	01 00 20    	mov.w     #0x0, w1
    198a:	38 04 07    	rcall     0x21fc <_delay_by_nop> <.L0> <.LFB0> <.LFE16> <.Letext0> <.Ltext0>
            STRIKE2_RLED = ON; delay_by_nop(1);
    198c:	da 02 a8    	bset.b    0x2da, #0x0
    198e:	10 00 20    	mov.w     #0x1, w0
    1990:	01 00 20    	mov.w     #0x0, w1
    1992:	34 04 07    	rcall     0x21fc <_delay_by_nop> <.L0> <.LFB0> <.LFE16> <.Letext0> <.Ltext0>
            STRIKE3_RLED = ON; delay_by_nop(1);
    1994:	cb e2 a8    	bset.b    0x2cb, #0x7
    1996:	10 00 20    	mov.w     #0x1, w0
    1998:	01 00 20    	mov.w     #0x0, w1
    199a:	30 04 07    	rcall     0x21fc <_delay_by_nop> <.L0> <.LFB0> <.LFE16> <.Letext0> <.Ltext0>
        break;
    199c:	00 00 00    	nop       

0000199e <.L37>:
    }
    if (num_strikes > 2) {
    199e:	03 c8 bf    	mov.b     0x803, WREG
    19a0:	e2 4f 50    	sub.b     w0, #0x2, [w15]
    19a2:	18 00 36    	bra       LEU, 0x19d4 <.L38>
        for (i = 0; i < 6; i++) {
    19a4:	00 40 eb    	clr.b     w0
    19a6:	00 4f 78    	mov.b     w0, [w14]
    19a8:	0f 00 37    	bra       0x19c8 <.L39>

000019aa <.L41>:
            if(peripheral_present[i]) {
    19aa:	1e 80 fb    	ze        [w14], w0
    19ac:	01 c2 20    	mov.w     #0xc20, w1
    19ae:	61 40 78    	mov.b     [w1+w0], w0
    19b0:	00 04 e0    	cp0.b     w0
    19b2:	09 00 32    	bra       Z, 0x19c6 <.L40>
                i2c2_start();
    19b4:	83 05 07    	rcall     0x24bc <_i2c2_start> <.LFB14> <.LFE13>
                send_i2c2_byte(peripheral_addrs[i] | 0);  // init a write, last to 0
    19b6:	1e 80 fb    	ze        [w14], w0
    19b8:	c1 c2 20    	mov.w     #0xc2c, w1
    19ba:	61 40 78    	mov.b     [w1+w0], w0
    19bc:	00 80 fb    	ze        w0, w0
    19be:	cd 05 07    	rcall     0x255a <_send_i2c2_byte> <.LFB17> <.LFE16>
                send_i2c2_byte(HEADER_END_LOSE << 5); // Broadcast the current number of strikes
    19c0:	00 04 20    	mov.w     #0x40, w0
    19c2:	cb 05 07    	rcall     0x255a <_send_i2c2_byte> <.LFB17> <.LFE16>
                reset_i2c2_bus();
    19c4:	af 05 07    	rcall     0x2524 <_reset_i2c2_bus> <.LFB16> <.LFE15>

000019c6 <.L40>:
    19c6:	1e 4f e8    	inc.b     [w14], [w14]

000019c8 <.L39>:
    19c8:	1e 40 78    	mov.b     [w14], w0
    19ca:	e5 4f 50    	sub.b     w0, #0x5, [w15]
    19cc:	ee ff 36    	bra       LEU, 0x19aa <.L41>
            }
        }
        state = end_fail;
    19ce:	e0 a3 21    	mov.w     #0x1a3e, w0
    19d0:	30 40 88    	mov.w     w0, 0x806
    19d2:	1e 00 37    	bra       0x1a10 <.L42>

000019d4 <.L38>:
    }
    else if (num_strikes > prev_num_strikes) {
    19d4:	31 80 20    	mov.w     #0x803, w1
    19d6:	91 40 78    	mov.b     [w1], w1
    19d8:	04 c8 bf    	mov.b     0x804, WREG
    19da:	80 cf 50    	sub.b     w1, w0, [w15]
    19dc:	19 00 36    	bra       LEU, 0x1a10 <.L42>
        for (i = 0; i < 6; i++) {
    19de:	00 40 eb    	clr.b     w0
    19e0:	00 4f 78    	mov.b     w0, [w14]
    19e2:	13 00 37    	bra       0x1a0a <.L43>

000019e4 <.L45>:
            if (peripheral_present[i]) {
    19e4:	1e 80 fb    	ze        [w14], w0
    19e6:	01 c2 20    	mov.w     #0xc20, w1
    19e8:	61 40 78    	mov.b     [w1+w0], w0
    19ea:	00 04 e0    	cp0.b     w0
    19ec:	0d 00 32    	bra       Z, 0x1a08 <.L44>
                i2c2_start();
    19ee:	66 05 07    	rcall     0x24bc <_i2c2_start> <.LFB14> <.LFE13>
                send_i2c2_byte(peripheral_addrs[i] | 0);  // init a write, last to 0
    19f0:	1e 80 fb    	ze        [w14], w0
    19f2:	c1 c2 20    	mov.w     #0xc2c, w1
    19f4:	61 40 78    	mov.b     [w1+w0], w0
    19f6:	00 80 fb    	ze        w0, w0
    19f8:	b0 05 07    	rcall     0x255a <_send_i2c2_byte> <.LFB17> <.LFE16>
                send_i2c2_byte((HEADER_NUM_STRIKES<<5) | num_strikes); // Broadcast the current number of strikes
    19fa:	31 80 20    	mov.w     #0x803, w1
    19fc:	91 40 78    	mov.b     [w1], w1
    19fe:	00 ce b3    	mov.b     #0xe0, w0
    1a00:	00 c0 70    	ior.b     w1, w0, w0
    1a02:	00 80 fb    	ze        w0, w0
    1a04:	aa 05 07    	rcall     0x255a <_send_i2c2_byte> <.LFB17> <.LFE16>
                reset_i2c2_bus();
    1a06:	8e 05 07    	rcall     0x2524 <_reset_i2c2_bus> <.LFB16> <.LFE15>

00001a08 <.L44>:
    1a08:	1e 4f e8    	inc.b     [w14], [w14]

00001a0a <.L43>:
    1a0a:	1e 40 78    	mov.b     [w14], w0
    1a0c:	e5 4f 50    	sub.b     w0, #0x5, [w15]
    1a0e:	ea ff 36    	bra       LEU, 0x19e4 <.L45>

00001a10 <.L42>:
            }
        }
    }

    // Check for state transitions
    if (SW2 == 0) {
    1a10:	91 16 80    	mov.w     0x2d2, w1
    1a12:	00 00 21    	mov.w     #0x1000, w0
    1a14:	00 80 60    	and.w     w1, w0, w0
    1a16:	00 00 e0    	cp0.w     w0
    1a18:	02 00 3a    	bra       NZ, 0x1a1e <.L46>
        state = idle;           // SW2 resets to idle
    1a1a:	60 7c 21    	mov.w     #0x17c6, w0
    1a1c:	30 40 88    	mov.w     w0, 0x806

00001a1e <.L46>:
    }

    // if we are leaving the state, do clean up stuff
    if (state != last_state) {
    1a1e:	31 40 80    	mov.w     0x806, w1
    1a20:	40 40 80    	mov.w     0x808, w0
    1a22:	80 8f 50    	sub.w     w1, w0, [w15]
    1a24:	0a 00 32    	bra       Z, 0x1a3a <.L15>
        T1CONbits.TON = 0;
    1a26:	05 e1 a9    	bclr.b    0x105, #0x7
        STRIKE1_GLED = OFF; // Turn off strike LEDs.
    1a28:	da 82 a9    	bclr.b    0x2da, #0x4
        delay_by_nop(1);
    1a2a:	10 00 20    	mov.w     #0x1, w0
    1a2c:	01 00 20    	mov.w     #0x0, w1
    1a2e:	e6 03 07    	rcall     0x21fc <_delay_by_nop> <.L0> <.LFB0> <.LFE16> <.Letext0> <.Ltext0>
        STRIKE2_GLED = OFF;
    1a30:	da 22 a9    	bclr.b    0x2da, #0x1
        delay_by_nop(1);
    1a32:	10 00 20    	mov.w     #0x1, w0
    1a34:	01 00 20    	mov.w     #0x0, w1
    1a36:	e2 03 07    	rcall     0x21fc <_delay_by_nop> <.L0> <.LFB0> <.LFE16> <.Letext0> <.Ltext0>
        STRIKE3_GLED = OFF;
    1a38:	ea 62 a9    	bclr.b    0x2ea, #0x3

00001a3a <.L15>:
    }
}
    1a3a:	00 80 fa    	ulnk      
    1a3c:	00 00 06    	return    

00001a3e <_end_fail>:

void end_fail(void) {
    1a3e:	00 00 fa    	lnk       #0x0
    if (state != last_state) {  // if we are entering the state, do initialization stuff
    1a40:	31 40 80    	mov.w     0x806, w1
    1a42:	40 40 80    	mov.w     0x808, w0
    1a44:	80 8f 50    	sub.w     w1, w0, [w15]
    1a46:	11 00 32    	bra       Z, 0x1a6a <.L50>
        last_state = state;
    1a48:	30 40 80    	mov.w     0x806, w0
    1a4a:	40 40 88    	mov.w     w0, 0x808
        // start timer again to blink red LEDs
        IFS0bits.T1IF = 0; //lower interrupt flag
    1a4c:	84 60 a9    	bclr.b    0x84, #0x3
        TMR1 = 0;          // reset timer register
    1a4e:	00 21 ef    	clr.w     0x100
        T1CONbits.TON = 1; // enable 1 second timer
    1a50:	05 e1 a8    	bset.b    0x105, #0x7
        STRIKE1_RLED = ON; delay_by_nop(1); // Turn on strike LEDs red
    1a52:	da a2 a8    	bset.b    0x2da, #0x5
    1a54:	10 00 20    	mov.w     #0x1, w0
    1a56:	01 00 20    	mov.w     #0x0, w1
    1a58:	d1 03 07    	rcall     0x21fc <_delay_by_nop> <.L0> <.LFB0> <.LFE16> <.Letext0> <.Ltext0>
        STRIKE2_RLED = ON; delay_by_nop(1);
    1a5a:	da 02 a8    	bset.b    0x2da, #0x0
    1a5c:	10 00 20    	mov.w     #0x1, w0
    1a5e:	01 00 20    	mov.w     #0x0, w1
    1a60:	cd 03 07    	rcall     0x21fc <_delay_by_nop> <.L0> <.LFB0> <.LFE16> <.Letext0> <.Ltext0>
        STRIKE3_RLED = ON; delay_by_nop(1);
    1a62:	cb e2 a8    	bset.b    0x2cb, #0x7
    1a64:	10 00 20    	mov.w     #0x1, w0
    1a66:	01 00 20    	mov.w     #0x0, w1
    1a68:	c9 03 07    	rcall     0x21fc <_delay_by_nop> <.L0> <.LFB0> <.LFE16> <.Letext0> <.Ltext0>

00001a6a <.L50>:
    }

    // Perform state tasks
    if (IFS0bits.T1IF == 1) {
    1a6a:	20 04 80    	mov.w     0x84, w0
    1a6c:	68 00 60    	and.w     w0, #0x8, w0
    1a6e:	00 00 e0    	cp0.w     w0
    1a70:	33 00 32    	bra       Z, 0x1ad8 <.L51>
        IFS0bits.T1IF = 0;  // if it's been a second, lower the counter and show it
    1a72:	84 60 a9    	bclr.b    0x84, #0x3
        // Blink RLEDs
        STRIKE1_RLED = !STRIKE1_RLED; delay_by_nop(1);
    1a74:	d1 16 80    	mov.w     0x2da, w1
    1a76:	00 02 20    	mov.w     #0x20, w0
    1a78:	00 80 60    	and.w     w1, w0, w0
    1a7a:	00 f0 a7    	btsc.w    w0, #0xf
    1a7c:	00 00 ea    	neg.w     w0, w0
    1a7e:	00 00 e9    	dec.w     w0, w0
    1a80:	4f 00 de    	lsr.w     w0, #0xf, w0
    1a82:	00 40 78    	mov.b     w0, w0
    1a84:	00 80 fb    	ze        w0, w0
    1a86:	61 00 60    	and.w     w0, #0x1, w0
    1a88:	45 00 dd    	sl.w      w0, #0x5, w0
    1a8a:	d2 16 80    	mov.w     0x2da, w2
    1a8c:	f1 fd 2f    	mov.w     #0xffdf, w1
    1a8e:	81 00 61    	and.w     w2, w1, w1
    1a90:	01 00 70    	ior.w     w0, w1, w0
    1a92:	d0 16 88    	mov.w     w0, 0x2da
    1a94:	10 00 20    	mov.w     #0x1, w0
    1a96:	01 00 20    	mov.w     #0x0, w1
    1a98:	b1 03 07    	rcall     0x21fc <_delay_by_nop> <.L0> <.LFB0> <.LFE16> <.Letext0> <.Ltext0>
        STRIKE2_RLED = !STRIKE2_RLED; delay_by_nop(1);
    1a9a:	d0 16 80    	mov.w     0x2da, w0
    1a9c:	61 00 60    	and.w     w0, #0x1, w0
    1a9e:	00 f0 a7    	btsc.w    w0, #0xf
    1aa0:	00 00 ea    	neg.w     w0, w0
    1aa2:	00 00 e9    	dec.w     w0, w0
    1aa4:	4f 00 de    	lsr.w     w0, #0xf, w0
    1aa6:	00 40 78    	mov.b     w0, w0
    1aa8:	00 80 fb    	ze        w0, w0
    1aaa:	61 00 60    	and.w     w0, #0x1, w0
    1aac:	d2 16 80    	mov.w     0x2da, w2
    1aae:	e1 ff 2f    	mov.w     #0xfffe, w1
    1ab0:	81 00 61    	and.w     w2, w1, w1
    1ab2:	01 00 70    	ior.w     w0, w1, w0
    1ab4:	d0 16 88    	mov.w     w0, 0x2da
    1ab6:	10 00 20    	mov.w     #0x1, w0
    1ab8:	01 00 20    	mov.w     #0x0, w1
    1aba:	a0 03 07    	rcall     0x21fc <_delay_by_nop> <.L0> <.LFB0> <.LFE16> <.Letext0> <.Ltext0>
        STRIKE3_RLED = !STRIKE3_RLED; delay_by_nop(1);
    1abc:	50 16 80    	mov.w     0x2ca, w0
    1abe:	00 80 ea    	com.w     w0, w0
    1ac0:	4f 00 de    	lsr.w     w0, #0xf, w0
    1ac2:	00 40 78    	mov.b     w0, w0
    1ac4:	00 80 fb    	ze        w0, w0
    1ac6:	4f 00 dd    	sl.w      w0, #0xf, w0
    1ac8:	52 16 80    	mov.w     0x2ca, w2
    1aca:	f1 ff 27    	mov.w     #0x7fff, w1
    1acc:	81 00 61    	and.w     w2, w1, w1
    1ace:	01 00 70    	ior.w     w0, w1, w0
    1ad0:	50 16 88    	mov.w     w0, 0x2ca
    1ad2:	10 00 20    	mov.w     #0x1, w0
    1ad4:	01 00 20    	mov.w     #0x0, w1
    1ad6:	92 03 07    	rcall     0x21fc <_delay_by_nop> <.L0> <.LFB0> <.LFE16> <.Letext0> <.Ltext0>

00001ad8 <.L51>:
    }

    // Check for state transitions

    /* NO TRANSITIONS */

    // if we are leaving the state, do clean up stuff
    if (state != last_state) {
    1ad8:	31 40 80    	mov.w     0x806, w1
    1ada:	40 40 80    	mov.w     0x808, w0
    1adc:	80 8f 50    	sub.w     w1, w0, [w15]
    1ade:	0d 00 32    	bra       Z, 0x1afa <.L49>
        T1CONbits.TON = 0;
    1ae0:	05 e1 a9    	bclr.b    0x105, #0x7
        STRIKE1_RLED = OFF; delay_by_nop(1);
    1ae2:	da a2 a9    	bclr.b    0x2da, #0x5
    1ae4:	10 00 20    	mov.w     #0x1, w0
    1ae6:	01 00 20    	mov.w     #0x0, w1
    1ae8:	89 03 07    	rcall     0x21fc <_delay_by_nop> <.L0> <.LFB0> <.LFE16> <.Letext0> <.Ltext0>
        STRIKE2_RLED = OFF; delay_by_nop(1); // turn off strike LEDs
    1aea:	da 02 a9    	bclr.b    0x2da, #0x0
    1aec:	10 00 20    	mov.w     #0x1, w0
    1aee:	01 00 20    	mov.w     #0x0, w1
    1af0:	85 03 07    	rcall     0x21fc <_delay_by_nop> <.L0> <.LFB0> <.LFE16> <.Letext0> <.Ltext0>
        STRIKE3_RLED = OFF; delay_by_nop(1);
    1af2:	cb e2 a9    	bclr.b    0x2cb, #0x7
    1af4:	10 00 20    	mov.w     #0x1, w0
    1af6:	01 00 20    	mov.w     #0x0, w1
    1af8:	81 03 07    	rcall     0x21fc <_delay_by_nop> <.L0> <.LFB0> <.LFE16> <.Letext0> <.Ltext0>

00001afa <.L49>:
    }
}
    1afa:	00 80 fa    	ulnk      
    1afc:	00 00 06    	return    

00001afe <_end_win>:

void end_win(void) {
    1afe:	00 00 fa    	lnk       #0x0
    if (state != last_state) {  // if we are entering the state, do initialization stuff
    1b00:	31 40 80    	mov.w     0x806, w1
    1b02:	40 40 80    	mov.w     0x808, w0
    1b04:	80 8f 50    	sub.w     w1, w0, [w15]
    1b06:	11 00 32    	bra       Z, 0x1b2a <.L54>
        last_state = state;
    1b08:	30 40 80    	mov.w     0x806, w0
    1b0a:	40 40 88    	mov.w     w0, 0x808
        // start timer again to blink red LEDs
        IFS0bits.T1IF = 0; //lower interrupt flag
    1b0c:	84 60 a9    	bclr.b    0x84, #0x3
        TMR1 = 0;          // reset timer register
    1b0e:	00 21 ef    	clr.w     0x100
        T1CONbits.TON = 1; // enable 1 second timer
    1b10:	05 e1 a8    	bset.b    0x105, #0x7
        STRIKE1_GLED = ON; delay_by_nop(1); // Turn on strike LEDs red
    1b12:	da 82 a8    	bset.b    0x2da, #0x4
    1b14:	10 00 20    	mov.w     #0x1, w0
    1b16:	01 00 20    	mov.w     #0x0, w1
    1b18:	71 03 07    	rcall     0x21fc <_delay_by_nop> <.L0> <.LFB0> <.LFE16> <.Letext0> <.Ltext0>
        STRIKE2_GLED = ON; delay_by_nop(1);
    1b1a:	da 22 a8    	bset.b    0x2da, #0x1
    1b1c:	10 00 20    	mov.w     #0x1, w0
    1b1e:	01 00 20    	mov.w     #0x0, w1
    1b20:	6d 03 07    	rcall     0x21fc <_delay_by_nop> <.L0> <.LFB0> <.LFE16> <.Letext0> <.Ltext0>
        STRIKE3_GLED = ON; delay_by_nop(1);
    1b22:	ea 62 a8    	bset.b    0x2ea, #0x3
    1b24:	10 00 20    	mov.w     #0x1, w0
    1b26:	01 00 20    	mov.w     #0x0, w1
    1b28:	69 03 07    	rcall     0x21fc <_delay_by_nop> <.L0> <.LFB0> <.LFE16> <.Letext0> <.Ltext0>

00001b2a <.L54>:
    }

    // Perform state tasks
    if (IFS0bits.T1IF == 1) {
    1b2a:	20 04 80    	mov.w     0x84, w0
    1b2c:	68 00 60    	and.w     w0, #0x8, w0
    1b2e:	00 00 e0    	cp0.w     w0
    1b30:	37 00 32    	bra       Z, 0x1ba0 <.L55>
        IFS0bits.T1IF = 0;  // if it's been a second, lower the counter and show it
    1b32:	84 60 a9    	bclr.b    0x84, #0x3
        // Blink GLEDs
        STRIKE1_GLED = !STRIKE1_GLED; delay_by_nop(1);
    1b34:	d0 16 80    	mov.w     0x2da, w0
    1b36:	70 00 60    	and.w     w0, #0x10, w0
    1b38:	00 f0 a7    	btsc.w    w0, #0xf
    1b3a:	00 00 ea    	neg.w     w0, w0
    1b3c:	00 00 e9    	dec.w     w0, w0
    1b3e:	4f 00 de    	lsr.w     w0, #0xf, w0
    1b40:	00 40 78    	mov.b     w0, w0
    1b42:	00 80 fb    	ze        w0, w0
    1b44:	61 00 60    	and.w     w0, #0x1, w0
    1b46:	44 00 dd    	sl.w      w0, #0x4, w0
    1b48:	d2 16 80    	mov.w     0x2da, w2
    1b4a:	f1 fe 2f    	mov.w     #0xffef, w1
    1b4c:	81 00 61    	and.w     w2, w1, w1
    1b4e:	01 00 70    	ior.w     w0, w1, w0
    1b50:	d0 16 88    	mov.w     w0, 0x2da
    1b52:	10 00 20    	mov.w     #0x1, w0
    1b54:	01 00 20    	mov.w     #0x0, w1
    1b56:	52 03 07    	rcall     0x21fc <_delay_by_nop> <.L0> <.LFB0> <.LFE16> <.Letext0> <.Ltext0>
        STRIKE2_GLED = !STRIKE2_GLED; delay_by_nop(1);
    1b58:	d0 16 80    	mov.w     0x2da, w0
    1b5a:	62 00 60    	and.w     w0, #0x2, w0
    1b5c:	00 f0 a7    	btsc.w    w0, #0xf
    1b5e:	00 00 ea    	neg.w     w0, w0
    1b60:	00 00 e9    	dec.w     w0, w0
    1b62:	4f 00 de    	lsr.w     w0, #0xf, w0
    1b64:	00 40 78    	mov.b     w0, w0
    1b66:	00 80 fb    	ze        w0, w0
    1b68:	61 00 60    	and.w     w0, #0x1, w0
    1b6a:	00 00 40    	add.w     w0, w0, w0
    1b6c:	d2 16 80    	mov.w     0x2da, w2
    1b6e:	d1 ff 2f    	mov.w     #0xfffd, w1
    1b70:	81 00 61    	and.w     w2, w1, w1
    1b72:	01 00 70    	ior.w     w0, w1, w0
    1b74:	d0 16 88    	mov.w     w0, 0x2da
    1b76:	10 00 20    	mov.w     #0x1, w0
    1b78:	01 00 20    	mov.w     #0x0, w1
    1b7a:	40 03 07    	rcall     0x21fc <_delay_by_nop> <.L0> <.LFB0> <.LFE16> <.Letext0> <.Ltext0>
        STRIKE3_GLED = !STRIKE3_GLED; delay_by_nop(1);
    1b7c:	50 17 80    	mov.w     0x2ea, w0
    1b7e:	68 00 60    	and.w     w0, #0x8, w0
    1b80:	00 f0 a7    	btsc.w    w0, #0xf
    1b82:	00 00 ea    	neg.w     w0, w0
    1b84:	00 00 e9    	dec.w     w0, w0
    1b86:	4f 00 de    	lsr.w     w0, #0xf, w0
    1b88:	00 40 78    	mov.b     w0, w0
    1b8a:	00 80 fb    	ze        w0, w0
    1b8c:	61 00 60    	and.w     w0, #0x1, w0
    1b8e:	43 00 dd    	sl.w      w0, #0x3, w0
    1b90:	52 17 80    	mov.w     0x2ea, w2
    1b92:	71 ff 2f    	mov.w     #0xfff7, w1
    1b94:	81 00 61    	and.w     w2, w1, w1
    1b96:	01 00 70    	ior.w     w0, w1, w0
    1b98:	50 17 88    	mov.w     w0, 0x2ea
    1b9a:	10 00 20    	mov.w     #0x1, w0
    1b9c:	01 00 20    	mov.w     #0x0, w1
    1b9e:	2e 03 07    	rcall     0x21fc <_delay_by_nop> <.L0> <.LFB0> <.LFE16> <.Letext0> <.Ltext0>

00001ba0 <.L55>:
    }

    // Check for state transitions

    /* NO TRANSITIONS */

    // if we are leaving the state, do clean up stuff
    if (state != last_state) {
    1ba0:	31 40 80    	mov.w     0x806, w1
    1ba2:	40 40 80    	mov.w     0x808, w0
    1ba4:	80 8f 50    	sub.w     w1, w0, [w15]
    1ba6:	0d 00 32    	bra       Z, 0x1bc2 <.L53>
        T1CONbits.TON = 0;
    1ba8:	05 e1 a9    	bclr.b    0x105, #0x7
        STRIKE1_GLED = OFF; delay_by_nop(1);
    1baa:	da 82 a9    	bclr.b    0x2da, #0x4
    1bac:	10 00 20    	mov.w     #0x1, w0
    1bae:	01 00 20    	mov.w     #0x0, w1
    1bb0:	25 03 07    	rcall     0x21fc <_delay_by_nop> <.L0> <.LFB0> <.LFE16> <.Letext0> <.Ltext0>
        STRIKE2_GLED = OFF; delay_by_nop(1); // turn off strike LEDs
    1bb2:	da 22 a9    	bclr.b    0x2da, #0x1
    1bb4:	10 00 20    	mov.w     #0x1, w0
    1bb6:	01 00 20    	mov.w     #0x0, w1
    1bb8:	21 03 07    	rcall     0x21fc <_delay_by_nop> <.L0> <.LFB0> <.LFE16> <.Letext0> <.Ltext0>
        STRIKE3_GLED = OFF; delay_by_nop(1);
    1bba:	ea 62 a9    	bclr.b    0x2ea, #0x3
    1bbc:	10 00 20    	mov.w     #0x1, w0
    1bbe:	01 00 20    	mov.w     #0x0, w1
    1bc0:	1d 03 07    	rcall     0x21fc <_delay_by_nop> <.L0> <.LFB0> <.LFE16> <.Letext0> <.Ltext0>

00001bc2 <.L53>:
    }
}
    1bc2:	00 80 fa    	ulnk      
    1bc4:	00 00 06    	return    

00001bc6 <_dispSeconds>:

// HELPER FUNCTIONS ************************************************************

// Display a seconds variable in minutes and seconds on the seven segment
void dispSeconds(uint16_t seconds) {
    1bc6:	06 00 fa    	lnk       #0x6
    1bc8:	20 07 98    	mov.w     w0, [w14+4]
    // Turn seconds into minutes and seconds
    uint16_t minutes = seconds / 60;
    1bca:	ae 00 90    	mov.w     [w14+4], w1
    1bcc:	90 88 28    	mov.w     #0x8889, w0
    1bce:	00 08 b8    	mul.uu    w1, w0, w0
    1bd0:	45 08 de    	lsr.w     w1, #0x5, w0
    1bd2:	00 0f 78    	mov.w     w0, [w14]
    uint8_t displaySeconds = seconds % 60;
    1bd4:	2e 01 90    	mov.w     [w14+4], w2
    1bd6:	90 88 28    	mov.w     #0x8889, w0
    1bd8:	00 10 b8    	mul.uu    w2, w0, w0
    1bda:	45 08 de    	lsr.w     w1, #0x5, w0
    1bdc:	c1 03 20    	mov.w     #0x3c, w1
    1bde:	01 80 b9    	mul.ss    w0, w1, w0
    1be0:	00 00 78    	mov.w     w0, w0
    1be2:	00 00 51    	sub.w     w2, w0, w0
    1be4:	20 47 98    	mov.b     w0, [w14+2]
    sevseg_writeDigitNum(&matrix, 0, minutes / 10, 0);
    1be6:	9e 00 78    	mov.w     [w14], w1
    1be8:	d0 cc 2c    	mov.w     #0xcccd, w0
    1bea:	00 08 b8    	mul.uu    w1, w0, w0
    1bec:	43 08 de    	lsr.w     w1, #0x3, w0
    1bee:	00 40 78    	mov.b     w0, w0
    1bf0:	80 41 eb    	clr.b     w3
    1bf2:	00 41 78    	mov.b     w0, w2
    1bf4:	80 40 eb    	clr.b     w1
    1bf6:	c0 80 20    	mov.w     #0x80c, w0
    1bf8:	a0 01 07    	rcall     0x1f3a <_sevseg_writeDigitNum> <.LFB11> <.LFE10>
    sevseg_writeDigitNum(&matrix, 1, minutes % 10, 0);
    1bfa:	1e 01 78    	mov.w     [w14], w2
    1bfc:	d0 cc 2c    	mov.w     #0xcccd, w0
    1bfe:	00 10 b8    	mul.uu    w2, w0, w0
    1c00:	43 08 de    	lsr.w     w1, #0x3, w0
    1c02:	6a 00 b9    	mul.su    w0, #0xa, w0
    1c04:	00 00 78    	mov.w     w0, w0
    1c06:	00 00 51    	sub.w     w2, w0, w0
    1c08:	00 40 78    	mov.b     w0, w0
    1c0a:	80 41 eb    	clr.b     w3
    1c0c:	00 41 78    	mov.b     w0, w2
    1c0e:	11 c0 b3    	mov.b     #0x1, w1
    1c10:	c0 80 20    	mov.w     #0x80c, w0
    1c12:	93 01 07    	rcall     0x1f3a <_sevseg_writeDigitNum> <.LFB11> <.LFE10>
    sevseg_drawColon(&matrix, 1); // Times are supposed to have a colon I guess
    1c14:	11 c0 b3    	mov.b     #0x1, w1
    1c16:	c0 80 20    	mov.w     #0x80c, w0
    1c18:	ac 01 07    	rcall     0x1f72 <_sevseg_drawColon> <.LFB12> <.LFE11>
    sevseg_writeDigitNum(&matrix, 3, (displaySeconds / 10) % 10, 0);
    1c1a:	2e 40 90    	mov.b     [w14+2], w0
    1c1c:	80 80 fb    	ze        w0, w1
    1c1e:	d0 cc 2c    	mov.w     #0xcccd, w0
    1c20:	00 08 b8    	mul.uu    w1, w0, w0
    1c22:	43 08 de    	lsr.w     w1, #0x3, w0
    1c24:	00 40 78    	mov.b     w0, w0
    1c26:	00 81 fb    	ze        w0, w2
    1c28:	d0 cc 2c    	mov.w     #0xcccd, w0
    1c2a:	00 10 b8    	mul.uu    w2, w0, w0
    1c2c:	43 08 de    	lsr.w     w1, #0x3, w0
    1c2e:	6a 00 b9    	mul.su    w0, #0xa, w0
    1c30:	00 00 78    	mov.w     w0, w0
    1c32:	00 00 51    	sub.w     w2, w0, w0
    1c34:	00 40 78    	mov.b     w0, w0
    1c36:	80 41 eb    	clr.b     w3
    1c38:	00 41 78    	mov.b     w0, w2
    1c3a:	31 c0 b3    	mov.b     #0x3, w1
    1c3c:	c0 80 20    	mov.w     #0x80c, w0
    1c3e:	7d 01 07    	rcall     0x1f3a <_sevseg_writeDigitNum> <.LFB11> <.LFE10>
    sevseg_writeDigitNum(&matrix, 4, displaySeconds % 10, 0);
    1c40:	2e 40 90    	mov.b     [w14+2], w0
    1c42:	00 81 fb    	ze        w0, w2
    1c44:	d0 cc 2c    	mov.w     #0xcccd, w0
    1c46:	00 10 b8    	mul.uu    w2, w0, w0
    1c48:	43 08 de    	lsr.w     w1, #0x3, w0
    1c4a:	6a 00 b9    	mul.su    w0, #0xa, w0
    1c4c:	00 00 78    	mov.w     w0, w0
    1c4e:	00 00 51    	sub.w     w2, w0, w0
    1c50:	00 40 78    	mov.b     w0, w0
    1c52:	80 41 eb    	clr.b     w3
    1c54:	00 41 78    	mov.b     w0, w2
    1c56:	41 c0 b3    	mov.b     #0x4, w1
    1c58:	c0 80 20    	mov.w     #0x80c, w0
    1c5a:	6f 01 07    	rcall     0x1f3a <_sevseg_writeDigitNum> <.LFB11> <.LFE10>

    led_writeDisplay((_ADAFRUIT_LED*)&matrix.super); //Don't forget to actually write the data!
    1c5c:	c0 80 20    	mov.w     #0x80c, w0
    1c5e:	5e 00 07    	rcall     0x1d1c <_led_writeDisplay> <.LFB3> <.LFE2>
}
    1c60:	00 80 fa    	ulnk      
    1c62:	00 00 06    	return    

00001c64 <_drawOnce>:

// Draw 1234 on the seven segment
void drawOnce(void) {
    1c64:	00 00 fa    	lnk       #0x0
    sevseg_writeDigitNum(&matrix, 0, 1, 0);
    1c66:	80 41 eb    	clr.b     w3
    1c68:	12 c0 b3    	mov.b     #0x1, w2
    1c6a:	80 40 eb    	clr.b     w1
    1c6c:	c0 80 20    	mov.w     #0x80c, w0
    1c6e:	65 01 07    	rcall     0x1f3a <_sevseg_writeDigitNum> <.LFB11> <.LFE10>
    sevseg_writeDigitNum(&matrix, 1, 2, 0);
    1c70:	80 41 eb    	clr.b     w3
    1c72:	22 c0 b3    	mov.b     #0x2, w2
    1c74:	11 c0 b3    	mov.b     #0x1, w1
    1c76:	c0 80 20    	mov.w     #0x80c, w0
    1c78:	60 01 07    	rcall     0x1f3a <_sevseg_writeDigitNum> <.LFB11> <.LFE10>
    sevseg_writeDigitNum(&matrix, 3, 3, 0);
    1c7a:	80 41 eb    	clr.b     w3
    1c7c:	32 c0 b3    	mov.b     #0x3, w2
    1c7e:	31 c0 b3    	mov.b     #0x3, w1
    1c80:	c0 80 20    	mov.w     #0x80c, w0
    1c82:	5b 01 07    	rcall     0x1f3a <_sevseg_writeDigitNum> <.LFB11> <.LFE10>
    sevseg_writeDigitNum(&matrix, 4, 4, 0);
    1c84:	80 41 eb    	clr.b     w3
    1c86:	42 c0 b3    	mov.b     #0x4, w2
    1c88:	41 c0 b3    	mov.b     #0x4, w1
    1c8a:	c0 80 20    	mov.w     #0x80c, w0
    1c8c:	56 01 07    	rcall     0x1f3a <_sevseg_writeDigitNum> <.LFB11> <.LFE10>
    led_writeDisplay((_ADAFRUIT_LED*)&matrix.super);
    1c8e:	c0 80 20    	mov.w     #0x80c, w0
    1c90:	45 00 07    	rcall     0x1d1c <_led_writeDisplay> <.LFB3> <.LFE2>
}
    1c92:	00 80 fa    	ulnk      
    1c94:	00 00 06    	return    

00001c96 <_led_begin>:

};


void led_begin(_ADAFRUIT_LED* ptr, uint8_t addr){
    1c96:	04 00 fa    	lnk       #0x4
    1c98:	00 0f 78    	mov.w     w0, [w14]
    1c9a:	21 47 98    	mov.b     w1, [w14+2]
  ptr->i2c_addr = addr;
    1c9c:	1e 00 78    	mov.w     [w14], w0
    1c9e:	ae 40 90    	mov.b     [w14+2], w1
    1ca0:	01 50 98    	mov.b     w1, [w0+16]
	LED1 = 1;
    1ca2:	dc e2 a8    	bset.b    0x2dc, #0x7
  i2c_start();
    1ca4:	cb 02 07    	rcall     0x223c <_i2c_start> <.LFB2> <.LFE1>
  send_i2c_byte(ptr->i2c_addr);
    1ca6:	1e 00 78    	mov.w     [w14], w0
    1ca8:	00 50 90    	mov.b     [w0+16], w0
    1caa:	00 80 fb    	ze        w0, w0
    1cac:	16 03 07    	rcall     0x22da <_send_i2c_byte> <.LFB5> <.LFE4>
  send_i2c_byte(0x21); // turn on oscillator
    1cae:	10 02 20    	mov.w     #0x21, w0
    1cb0:	14 03 07    	rcall     0x22da <_send_i2c_byte> <.LFB5> <.LFE4>
  reset_i2c_bus();
    1cb2:	f8 02 07    	rcall     0x22a4 <_reset_i2c_bus> <.LFB4> <.LFE3>
  led_blinkRate((_ADAFRUIT_LED *)ptr, HT16K33_BLINK_OFF);
    1cb4:	80 40 eb    	clr.b     w1
    1cb6:	1e 00 78    	mov.w     [w14], w0
    1cb8:	1a 00 07    	rcall     0x1cee <_led_blinkRate> <.LFB2> <.LFE1>
  led_setBrightness((_ADAFRUIT_LED *)ptr,15); // set max brightness
    1cba:	f1 c0 b3    	mov.b     #0xf, w1
    1cbc:	1e 00 78    	mov.w     [w14], w0
    1cbe:	02 00 07    	rcall     0x1cc4 <_led_setBrightness> <.LFB1> <.LFE0>
}
    1cc0:	00 80 fa    	ulnk      
    1cc2:	00 00 06    	return    

00001cc4 <_led_setBrightness>:

void led_setBrightness(_ADAFRUIT_LED* ptr, uint8_t b){
    1cc4:	04 00 fa    	lnk       #0x4
    1cc6:	00 0f 78    	mov.w     w0, [w14]
    1cc8:	21 47 98    	mov.b     w1, [w14+2]
  if (b > 15) b = 15;
    1cca:	2e 40 90    	mov.b     [w14+2], w0
    1ccc:	ef 4f 50    	sub.b     w0, #0xf, [w15]
    1cce:	02 00 36    	bra       LEU, 0x1cd4 <.L3>
    1cd0:	f0 c0 b3    	mov.b     #0xf, w0
    1cd2:	20 47 98    	mov.b     w0, [w14+2]

00001cd4 <.L3>:
  i2c_start();
    1cd4:	b3 02 07    	rcall     0x223c <_i2c_start> <.LFB2> <.LFE1>
  send_i2c_byte(ptr->i2c_addr);
    1cd6:	1e 00 78    	mov.w     [w14], w0
    1cd8:	00 50 90    	mov.b     [w0+16], w0
    1cda:	00 80 fb    	ze        w0, w0
    1cdc:	fe 02 07    	rcall     0x22da <_send_i2c_byte> <.LFB5> <.LFE4>
  send_i2c_byte(HT16K33_CMD_BRIGHTNESS | b);
    1cde:	ae 40 90    	mov.b     [w14+2], w1
    1ce0:	00 ce b3    	mov.b     #0xe0, w0
    1ce2:	00 c0 70    	ior.b     w1, w0, w0
    1ce4:	00 80 fb    	ze        w0, w0
    1ce6:	f9 02 07    	rcall     0x22da <_send_i2c_byte> <.LFB5> <.LFE4>
  reset_i2c_bus();
    1ce8:	dd 02 07    	rcall     0x22a4 <_reset_i2c_bus> <.LFB4> <.LFE3>
}
    1cea:	00 80 fa    	ulnk      
    1cec:	00 00 06    	return    

00001cee <_led_blinkRate>:

void led_blinkRate(_ADAFRUIT_LED* ptr, uint8_t b){
    1cee:	04 00 fa    	lnk       #0x4
    1cf0:	00 0f 78    	mov.w     w0, [w14]
    1cf2:	21 47 98    	mov.b     w1, [w14+2]
  i2c_start();
    1cf4:	a3 02 07    	rcall     0x223c <_i2c_start> <.LFB2> <.LFE1>
  send_i2c_byte(ptr->i2c_addr);
    1cf6:	1e 00 78    	mov.w     [w14], w0
    1cf8:	00 50 90    	mov.b     [w0+16], w0
    1cfa:	00 80 fb    	ze        w0, w0
    1cfc:	ee 02 07    	rcall     0x22da <_send_i2c_byte> <.LFB5> <.LFE4>
  if (b > 3) b = 0; // turn off if not sure
    1cfe:	2e 40 90    	mov.b     [w14+2], w0
    1d00:	e3 4f 50    	sub.b     w0, #0x3, [w15]
    1d02:	02 00 36    	bra       LEU, 0x1d08 <.L5>
    1d04:	00 40 eb    	clr.b     w0
    1d06:	20 47 98    	mov.b     w0, [w14+2]

00001d08 <.L5>:
  send_i2c_byte(HT16K33_BLINK_CMD | HT16K33_BLINK_DISPLAYON | (b << 1));
    1d08:	2e 40 90    	mov.b     [w14+2], w0
    1d0a:	00 80 fb    	ze        w0, w0
    1d0c:	00 00 40    	add.w     w0, w0, w0
    1d0e:	80 00 78    	mov.w     w0, w1
    1d10:	10 08 20    	mov.w     #0x81, w0
    1d12:	01 00 70    	ior.w     w0, w1, w0
    1d14:	e2 02 07    	rcall     0x22da <_send_i2c_byte> <.LFB5> <.LFE4>
  reset_i2c_bus();
    1d16:	c6 02 07    	rcall     0x22a4 <_reset_i2c_bus> <.LFB4> <.LFE3>
}
    1d18:	00 80 fa    	ulnk      
    1d1a:	00 00 06    	return    

00001d1c <_led_writeDisplay>:

void led_writeDisplay(_ADAFRUIT_LED* ptr){
    1d1c:	04 00 fa    	lnk       #0x4
    1d1e:	10 07 98    	mov.w     w0, [w14+2]
  i2c_start();
    1d20:	8d 02 07    	rcall     0x223c <_i2c_start> <.LFB2> <.LFE1>
  send_i2c_byte(ptr->i2c_addr);
    1d22:	1e 00 90    	mov.w     [w14+2], w0
    1d24:	00 50 90    	mov.b     [w0+16], w0
    1d26:	00 80 fb    	ze        w0, w0
    1d28:	d8 02 07    	rcall     0x22da <_send_i2c_byte> <.LFB5> <.LFE4>
	send_i2c_byte(0x00); // Start at address 0
    1d2a:	00 00 eb    	clr.w     w0
    1d2c:	d6 02 07    	rcall     0x22da <_send_i2c_byte> <.LFB5> <.LFE4>
	uint8_t i;
  for (i=0; i<8; i++) {
    1d2e:	00 40 eb    	clr.b     w0
    1d30:	00 4f 78    	mov.b     w0, [w14]
    1d32:	0f 00 37    	bra       0x1d52 <.L7>

00001d34 <.L8>:
    send_i2c_byte(ptr->displaybuffer[i] & 0xFF);
    1d34:	1e 80 fb    	ze        [w14], w0
    1d36:	9e 00 90    	mov.w     [w14+2], w1
    1d38:	00 00 40    	add.w     w0, w0, w0
    1d3a:	61 00 78    	mov.w     [w1+w0], w0
    1d3c:	80 00 78    	mov.w     w0, w1
    1d3e:	f0 0f 20    	mov.w     #0xff, w0
    1d40:	00 80 60    	and.w     w1, w0, w0
    1d42:	cb 02 07    	rcall     0x22da <_send_i2c_byte> <.LFB5> <.LFE4>
    send_i2c_byte(ptr->displaybuffer[i] >> 8);
    1d44:	1e 80 fb    	ze        [w14], w0
    1d46:	9e 00 90    	mov.w     [w14+2], w1
    1d48:	00 00 40    	add.w     w0, w0, w0
    1d4a:	61 00 78    	mov.w     [w1+w0], w0
    1d4c:	48 00 de    	lsr.w     w0, #0x8, w0
    1d4e:	c5 02 07    	rcall     0x22da <_send_i2c_byte> <.LFB5> <.LFE4>
    1d50:	1e 4f e8    	inc.b     [w14], [w14]

00001d52 <.L7>:
    1d52:	1e 40 78    	mov.b     [w14], w0
    1d54:	e7 4f 50    	sub.b     w0, #0x7, [w15]
    1d56:	ee ff 36    	bra       LEU, 0x1d34 <.L8>
  }
  reset_i2c_bus();
    1d58:	a5 02 07    	rcall     0x22a4 <_reset_i2c_bus> <.LFB4> <.LFE3>
}
    1d5a:	00 80 fa    	ulnk      
    1d5c:	00 00 06    	return    

00001d5e <_led_clear>:

void led_clear(_ADAFRUIT_LED* ptr){
    1d5e:	04 00 fa    	lnk       #0x4
    1d60:	10 07 98    	mov.w     w0, [w14+2]
	uint8_t i;
	for (i=0; i<8; i++) {
    1d62:	00 40 eb    	clr.b     w0
    1d64:	00 4f 78    	mov.b     w0, [w14]
    1d66:	07 00 37    	bra       0x1d76 <.L10>

00001d68 <.L11>:
    ptr->displaybuffer[i] = 0;
    1d68:	1e 80 fb    	ze        [w14], w0
    1d6a:	9e 00 90    	mov.w     [w14+2], w1
    1d6c:	00 00 40    	add.w     w0, w0, w0
    1d6e:	00 80 40    	add.w     w1, w0, w0
    1d70:	80 00 eb    	clr.w     w1
    1d72:	01 08 78    	mov.w     w1, [w0]
    1d74:	1e 4f e8    	inc.b     [w14], [w14]

00001d76 <.L10>:
    1d76:	1e 40 78    	mov.b     [w14], w0
    1d78:	e7 4f 50    	sub.b     w0, #0x7, [w15]
    1d7a:	f6 ff 36    	bra       LEU, 0x1d68 <.L11>
  }
}
    1d7c:	00 80 fa    	ulnk      
    1d7e:	00 00 06    	return    

00001d80 <_alphanum_begin>:

// ALPHANUM ********************************************************************

void alphanum_begin(_ALPHANUM* ptr, uint8_t addr){
    1d80:	04 00 fa    	lnk       #0x4
    1d82:	00 0f 78    	mov.w     w0, [w14]
    1d84:	21 47 98    	mov.b     w1, [w14+2]
  led_begin((_ADAFRUIT_LED *)ptr, addr); // Call super constructor
    1d86:	1e 00 78    	mov.w     [w14], w0
    1d88:	ae 40 90    	mov.b     [w14+2], w1
    1d8a:	85 ff 07    	rcall     0x1c96 <_led_begin> <.L0> <.LFB0> <.LFE8> <.Letext0> <.Ltext0>
}
    1d8c:	00 80 fa    	ulnk      
    1d8e:	00 00 06    	return    

00001d90 <_alphanum_writeDigitRaw>:

void alphanum_writeDigitRaw(_ALPHANUM* ptr, uint8_t n, uint16_t bitmask){
    1d90:	06 00 fa    	lnk       #0x6
    1d92:	00 0f 78    	mov.w     w0, [w14]
    1d94:	21 47 98    	mov.b     w1, [w14+2]
    1d96:	22 07 98    	mov.w     w2, [w14+4]
  ptr->super.displaybuffer[n] = bitmask;
    1d98:	2e 40 90    	mov.b     [w14+2], w0
    1d9a:	00 80 fb    	ze        w0, w0
    1d9c:	9e 00 78    	mov.w     [w14], w1
    1d9e:	00 00 40    	add.w     w0, w0, w0
    1da0:	00 80 40    	add.w     w1, w0, w0
    1da2:	ae 00 90    	mov.w     [w14+4], w1
    1da4:	01 08 78    	mov.w     w1, [w0]
}
    1da6:	00 80 fa    	ulnk      
    1da8:	00 00 06    	return    

00001daa <_alphanum_writeDigitAscii>:

void alphanum_writeDigitAscii(_ALPHANUM* ptr, uint8_t n, uint8_t ascii, uint8_t dot){
    1daa:	08 00 fa    	lnk       #0x8
    1dac:	10 07 98    	mov.w     w0, [w14+2]
    1dae:	41 47 98    	mov.b     w1, [w14+4]
    1db0:	52 47 98    	mov.b     w2, [w14+5]
    1db2:	63 47 98    	mov.b     w3, [w14+6]
  uint16_t font = alphafonttable[ascii];
    1db4:	5e 40 90    	mov.b     [w14+5], w0
    1db6:	00 80 fb    	ze        w0, w0
    1db8:	80 00 40    	add.w     w0, w0, w1
    1dba:	00 5c 29    	mov.w     #0x95c0, w0
    1dbc:	00 80 40    	add.w     w1, w0, w0
    1dbe:	10 0f 78    	mov.w     [w0], [w14]
  ptr->super.displaybuffer[n] = font;
    1dc0:	4e 40 90    	mov.b     [w14+4], w0
    1dc2:	00 80 fb    	ze        w0, w0
    1dc4:	9e 00 90    	mov.w     [w14+2], w1
    1dc6:	00 00 40    	add.w     w0, w0, w0
    1dc8:	00 80 40    	add.w     w1, w0, w0
    1dca:	1e 08 78    	mov.w     [w14], [w0]
  if (dot) ptr->super.displaybuffer[n] |= (1<<14);
    1dcc:	6e 40 90    	mov.b     [w14+6], w0
    1dce:	00 04 e0    	cp0.b     w0
    1dd0:	0c 00 32    	bra       Z, 0x1dea <.L14>
    1dd2:	4e 40 90    	mov.b     [w14+4], w0
    1dd4:	00 80 fb    	ze        w0, w0
    1dd6:	ce 40 90    	mov.b     [w14+4], w1
    1dd8:	81 80 fb    	ze        w1, w1
    1dda:	1e 01 90    	mov.w     [w14+2], w2
    1ddc:	81 80 40    	add.w     w1, w1, w1
    1dde:	e2 80 78    	mov.w     [w2+w1], w1
    1de0:	01 e0 a0    	bset.w    w1, #0xe
    1de2:	1e 01 90    	mov.w     [w14+2], w2
    1de4:	00 00 40    	add.w     w0, w0, w0
    1de6:	00 00 41    	add.w     w2, w0, w0
    1de8:	01 08 78    	mov.w     w1, [w0]

00001dea <.L14>:
}
    1dea:	00 80 fa    	ulnk      
    1dec:	00 00 06    	return    

00001dee <_bargraph_begin>:

// 24 BARGRAPH *****************************************************************

void bargraph_begin(_BARGRAPH* ptr, uint8_t addr){
    1dee:	04 00 fa    	lnk       #0x4
    1df0:	00 0f 78    	mov.w     w0, [w14]
    1df2:	21 47 98    	mov.b     w1, [w14+2]
  led_begin((_ADAFRUIT_LED *)ptr, addr);
    1df4:	1e 00 78    	mov.w     [w14], w0
    1df6:	ae 40 90    	mov.b     [w14+2], w1
    1df8:	4e ff 07    	rcall     0x1c96 <_led_begin> <.L0> <.LFB0> <.LFE8> <.Letext0> <.Ltext0>
}
    1dfa:	00 80 fa    	ulnk      
    1dfc:	00 00 06    	return    

00001dfe <_bargraph_setBar>:

void bargraph_setBar(_BARGRAPH* ptr, uint8_t bar, uint8_t color){
    1dfe:	08 00 fa    	lnk       #0x8
    1e00:	20 07 98    	mov.w     w0, [w14+4]
    1e02:	61 47 98    	mov.b     w1, [w14+6]
    1e04:	72 47 98    	mov.b     w2, [w14+7]
  uint16_t a, c;

  if (bar < 12)
    1e06:	6e 40 90    	mov.b     [w14+6], w0
    1e08:	eb 4f 50    	sub.b     w0, #0xb, [w15]
    1e0a:	07 00 3e    	bra       GTU, 0x1e1a <.L18>
    c = bar / 4;
    1e0c:	6e 40 90    	mov.b     [w14+6], w0
    1e0e:	00 80 fb    	ze        w0, w0
    1e10:	42 00 de    	lsr.w     w0, #0x2, w0
    1e12:	00 40 78    	mov.b     w0, w0
    1e14:	00 80 fb    	ze        w0, w0
    1e16:	10 07 98    	mov.w     w0, [w14+2]
    1e18:	08 00 37    	bra       0x1e2a <.L19>

00001e1a <.L18>:
  else
    c = (bar - 12) / 4;
    1e1a:	6e 40 90    	mov.b     [w14+6], w0
    1e1c:	00 80 fb    	ze        w0, w0
    1e1e:	6c 00 50    	sub.w     w0, #0xc, w0
    1e20:	00 00 e0    	cp0.w     w0
    1e22:	01 00 3d    	bra       GE, 0x1e26 <.L20>
    1e24:	63 00 40    	add.w     w0, #0x3, w0

00001e26 <.L20>:
    1e26:	42 80 de    	asr.w     w0, #0x2, w0
    1e28:	10 07 98    	mov.w     w0, [w14+2]

00001e2a <.L19>:

  a = bar % 4;
    1e2a:	6e 40 90    	mov.b     [w14+6], w0
    1e2c:	00 80 fb    	ze        w0, w0
    1e2e:	63 0f 60    	and.w     w0, #0x3, [w14]
  if (bar >= 12)
    1e30:	6e 40 90    	mov.b     [w14+6], w0
    1e32:	eb 4f 50    	sub.b     w0, #0xb, [w15]
    1e34:	02 00 36    	bra       LEU, 0x1e3a <.L21>
    a += 4;
    1e36:	9e 00 78    	mov.w     [w14], w1
    1e38:	64 8f 40    	add.w     w1, #0x4, [w14]

00001e3a <.L21>:

  //Serial.print("Ano = "); Serial.print(a); Serial.print(" Cath = "); Serial.println(c);
  if (color == LED_RED) {
    1e3a:	7e 40 90    	mov.b     [w14+7], w0
    1e3c:	e1 4f 50    	sub.b     w0, #0x1, [w15]
    1e3e:	1d 00 3a    	bra       NZ, 0x1e7a <.L22>
    // Turn on red LED.
    ptr->super.displaybuffer[c] |= _BV(a);
    1e40:	ae 00 90    	mov.w     [w14+4], w1
    1e42:	1e 00 90    	mov.w     [w14+2], w0
    1e44:	00 00 40    	add.w     w0, w0, w0
    1e46:	e1 00 78    	mov.w     [w1+w0], w1
    1e48:	1e 00 78    	mov.w     [w14], w0
    1e4a:	12 00 20    	mov.w     #0x1, w2
    1e4c:	00 10 dd    	sl.w      w2, w0, w0
    1e4e:	81 00 70    	ior.w     w0, w1, w1
    1e50:	2e 01 90    	mov.w     [w14+4], w2
    1e52:	1e 00 90    	mov.w     [w14+2], w0
    1e54:	00 00 40    	add.w     w0, w0, w0
    1e56:	00 00 41    	add.w     w2, w0, w0
    1e58:	01 08 78    	mov.w     w1, [w0]
    // Turn off green LED.
    ptr->super.displaybuffer[c] &= ~_BV(a+8);
    1e5a:	ae 00 90    	mov.w     [w14+4], w1
    1e5c:	1e 00 90    	mov.w     [w14+2], w0
    1e5e:	00 00 40    	add.w     w0, w0, w0
    1e60:	e1 00 78    	mov.w     [w1+w0], w1
    1e62:	1e 01 78    	mov.w     [w14], w2
    1e64:	68 00 41    	add.w     w2, #0x8, w0
    1e66:	12 00 20    	mov.w     #0x1, w2
    1e68:	00 10 dd    	sl.w      w2, w0, w0
    1e6a:	00 80 ea    	com.w     w0, w0
    1e6c:	80 80 60    	and.w     w1, w0, w1
    1e6e:	2e 01 90    	mov.w     [w14+4], w2
    1e70:	1e 00 90    	mov.w     [w14+2], w0
    1e72:	00 00 40    	add.w     w0, w0, w0
    1e74:	00 00 41    	add.w     w2, w0, w0
    1e76:	01 08 78    	mov.w     w1, [w0]
    1e78:	4c 00 37    	bra       0x1f12 <.L17>

00001e7a <.L22>:
  } else if (color == LED_YELLOW) {
    1e7a:	7e 40 90    	mov.b     [w14+7], w0
    1e7c:	e2 4f 50    	sub.b     w0, #0x2, [w15]
    1e7e:	13 00 3a    	bra       NZ, 0x1ea6 <.L24>
    // Turn on red and green LED.
    ptr->super.displaybuffer[c] |= _BV(a) | _BV(a+8);
    1e80:	ae 00 90    	mov.w     [w14+4], w1
    1e82:	1e 00 90    	mov.w     [w14+2], w0
    1e84:	00 00 40    	add.w     w0, w0, w0
    1e86:	e1 00 78    	mov.w     [w1+w0], w1
    1e88:	1e 00 78    	mov.w     [w14], w0
    1e8a:	12 00 20    	mov.w     #0x1, w2
    1e8c:	00 11 dd    	sl.w      w2, w0, w2
    1e8e:	9e 01 78    	mov.w     [w14], w3
    1e90:	68 80 41    	add.w     w3, #0x8, w0
    1e92:	13 00 20    	mov.w     #0x1, w3
    1e94:	00 18 dd    	sl.w      w3, w0, w0
    1e96:	02 00 70    	ior.w     w0, w2, w0
    1e98:	81 00 70    	ior.w     w0, w1, w1
    1e9a:	2e 01 90    	mov.w     [w14+4], w2
    1e9c:	1e 00 90    	mov.w     [w14+2], w0
    1e9e:	00 00 40    	add.w     w0, w0, w0
    1ea0:	00 00 41    	add.w     w2, w0, w0
    1ea2:	01 08 78    	mov.w     w1, [w0]
    1ea4:	36 00 37    	bra       0x1f12 <.L17>

00001ea6 <.L24>:
  } else if (color == LED_OFF) {
    1ea6:	7e 40 90    	mov.b     [w14+7], w0
    1ea8:	00 04 e0    	cp0.b     w0
    1eaa:	14 00 3a    	bra       NZ, 0x1ed4 <.L25>
    // Turn off red and green LED.
    ptr->super.displaybuffer[c] &= ~_BV(a) & ~_BV(a+8);
    1eac:	ae 00 90    	mov.w     [w14+4], w1
    1eae:	1e 00 90    	mov.w     [w14+2], w0
    1eb0:	00 00 40    	add.w     w0, w0, w0
    1eb2:	e1 00 78    	mov.w     [w1+w0], w1
    1eb4:	1e 00 78    	mov.w     [w14], w0
    1eb6:	12 00 20    	mov.w     #0x1, w2
    1eb8:	00 11 dd    	sl.w      w2, w0, w2
    1eba:	9e 01 78    	mov.w     [w14], w3
    1ebc:	68 80 41    	add.w     w3, #0x8, w0
    1ebe:	13 00 20    	mov.w     #0x1, w3
    1ec0:	00 18 dd    	sl.w      w3, w0, w0
    1ec2:	02 00 70    	ior.w     w0, w2, w0
    1ec4:	00 80 ea    	com.w     w0, w0
    1ec6:	80 80 60    	and.w     w1, w0, w1
    1ec8:	2e 01 90    	mov.w     [w14+4], w2
    1eca:	1e 00 90    	mov.w     [w14+2], w0
    1ecc:	00 00 40    	add.w     w0, w0, w0
    1ece:	00 00 41    	add.w     w2, w0, w0
    1ed0:	01 08 78    	mov.w     w1, [w0]
    1ed2:	1f 00 37    	bra       0x1f12 <.L17>

00001ed4 <.L25>:
  } else if (color == LED_GREEN) {
    1ed4:	7e 40 90    	mov.b     [w14+7], w0
    1ed6:	e3 4f 50    	sub.b     w0, #0x3, [w15]
    1ed8:	1c 00 3a    	bra       NZ, 0x1f12 <.L17>
    // Turn on green LED.
    ptr->super.displaybuffer[c] |= _BV(a+8);
    1eda:	ae 00 90    	mov.w     [w14+4], w1
    1edc:	1e 00 90    	mov.w     [w14+2], w0
    1ede:	00 00 40    	add.w     w0, w0, w0
    1ee0:	e1 00 78    	mov.w     [w1+w0], w1
    1ee2:	1e 01 78    	mov.w     [w14], w2
    1ee4:	68 00 41    	add.w     w2, #0x8, w0
    1ee6:	12 00 20    	mov.w     #0x1, w2
    1ee8:	00 10 dd    	sl.w      w2, w0, w0
    1eea:	81 00 70    	ior.w     w0, w1, w1
    1eec:	2e 01 90    	mov.w     [w14+4], w2
    1eee:	1e 00 90    	mov.w     [w14+2], w0
    1ef0:	00 00 40    	add.w     w0, w0, w0
    1ef2:	00 00 41    	add.w     w2, w0, w0
    1ef4:	01 08 78    	mov.w     w1, [w0]
    // Turn off red LED.
    ptr->super.displaybuffer[c] &= ~_BV(a);
    1ef6:	ae 00 90    	mov.w     [w14+4], w1
    1ef8:	1e 00 90    	mov.w     [w14+2], w0
    1efa:	00 00 40    	add.w     w0, w0, w0
    1efc:	e1 00 78    	mov.w     [w1+w0], w1
    1efe:	1e 00 78    	mov.w     [w14], w0
    1f00:	12 00 20    	mov.w     #0x1, w2
    1f02:	00 10 dd    	sl.w      w2, w0, w0
    1f04:	00 80 ea    	com.w     w0, w0
    1f06:	80 80 60    	and.w     w1, w0, w1
    1f08:	2e 01 90    	mov.w     [w14+4], w2
    1f0a:	1e 00 90    	mov.w     [w14+2], w0
    1f0c:	00 00 40    	add.w     w0, w0, w0
    1f0e:	00 00 41    	add.w     w2, w0, w0
    1f10:	01 08 78    	mov.w     w1, [w0]

00001f12 <.L17>:
  }
}
    1f12:	00 80 fa    	ulnk      
    1f14:	00 00 06    	return    

00001f16 <_sevseg_writeDigitRaw>:

// 7SEGMENT ********************************************************************

// uint8_t write(_7SEGMENT* ptr, uint8_t c){
//
//   uint8_t r = 0;
//
//   if (c == '\n') ptr->position = 0;
//   if (c == '\r') ptr->position = 0;
//
//   if ((c >= '0') && (c <= '9')) {
//     sevseg_writeDigitNum(ptr, ptr->position, c-'0', 0);
//     r = 1;
//   }
//
//   ptr->position++;
//   if (ptr->position == 2) ptr->position++;
//
//   return r;
// }

void sevseg_writeDigitRaw(_7SEGMENT* ptr, uint8_t x, uint16_t bitmask){
    1f16:	06 00 fa    	lnk       #0x6
    1f18:	00 0f 78    	mov.w     w0, [w14]
    1f1a:	21 47 98    	mov.b     w1, [w14+2]
    1f1c:	22 07 98    	mov.w     w2, [w14+4]
  if (x > 4) return;
    1f1e:	2e 40 90    	mov.b     [w14+2], w0
    1f20:	e4 4f 50    	sub.b     w0, #0x4, [w15]
    1f22:	08 00 3e    	bra       GTU, 0x1f34 <.L29>
  ptr->super.displaybuffer[x] = bitmask;
    1f24:	2e 40 90    	mov.b     [w14+2], w0
    1f26:	00 80 fb    	ze        w0, w0
    1f28:	9e 00 78    	mov.w     [w14], w1
    1f2a:	00 00 40    	add.w     w0, w0, w0
    1f2c:	00 80 40    	add.w     w1, w0, w0
    1f2e:	ae 00 90    	mov.w     [w14+4], w1
    1f30:	01 08 78    	mov.w     w1, [w0]
    1f32:	01 00 37    	bra       0x1f36 <.L26>

00001f34 <.L29>:
    1f34:	00 00 00    	nop       

00001f36 <.L26>:
}
    1f36:	00 80 fa    	ulnk      
    1f38:	00 00 06    	return    

00001f3a <_sevseg_writeDigitNum>:

void sevseg_writeDigitNum(_7SEGMENT* ptr, uint8_t x, uint8_t num, uint8_t dot){
    1f3a:	08 00 fa    	lnk       #0x8
    1f3c:	10 07 98    	mov.w     w0, [w14+2]
    1f3e:	41 47 98    	mov.b     w1, [w14+4]
    1f40:	52 47 98    	mov.b     w2, [w14+5]
    1f42:	63 47 98    	mov.b     w3, [w14+6]
  if (x > 4) return;
    1f44:	4e 40 90    	mov.b     [w14+4], w0
    1f46:	e4 4f 50    	sub.b     w0, #0x4, [w15]
    1f48:	11 00 3e    	bra       GTU, 0x1f6c <.L33>
	uint16_t zero = 0x0000;
    1f4a:	00 00 eb    	clr.w     w0
    1f4c:	00 0f 78    	mov.w     w0, [w14]
  sevseg_writeDigitRaw(ptr, x, (numbertable[num] | (dot << 7)));
    1f4e:	5e 40 90    	mov.b     [w14+5], w0
    1f50:	00 80 fb    	ze        w0, w0
    1f52:	80 00 40    	add.w     w0, w0, w1
    1f54:	c0 59 29    	mov.w     #0x959c, w0
    1f56:	00 80 40    	add.w     w1, w0, w0
    1f58:	90 00 78    	mov.w     [w0], w1
    1f5a:	6e 40 90    	mov.b     [w14+6], w0
    1f5c:	00 80 fb    	ze        w0, w0
    1f5e:	47 00 dd    	sl.w      w0, #0x7, w0
    1f60:	01 00 70    	ior.w     w0, w1, w0
    1f62:	00 01 78    	mov.w     w0, w2
    1f64:	ce 40 90    	mov.b     [w14+4], w1
    1f66:	1e 00 90    	mov.w     [w14+2], w0
    1f68:	d6 ff 07    	rcall     0x1f16 <_sevseg_writeDigitRaw> <.LFB10> <.LFE9>
    1f6a:	01 00 37    	bra       0x1f6e <.L30>

00001f6c <.L33>:
    1f6c:	00 00 00    	nop       

00001f6e <.L30>:
}
    1f6e:	00 80 fa    	ulnk      
    1f70:	00 00 06    	return    

00001f72 <_sevseg_drawColon>:

void sevseg_drawColon(_7SEGMENT* ptr, uint8_t state){
    1f72:	04 00 fa    	lnk       #0x4
    1f74:	00 0f 78    	mov.w     w0, [w14]
    1f76:	21 47 98    	mov.b     w1, [w14+2]
  if (state)
    1f78:	2e 40 90    	mov.b     [w14+2], w0
    1f7a:	00 04 e0    	cp0.b     w0
    1f7c:	04 00 32    	bra       Z, 0x1f86 <.L35>
    ptr->super.displaybuffer[2] = 0x2;
    1f7e:	1e 00 78    	mov.w     [w14], w0
    1f80:	21 00 20    	mov.w     #0x2, w1
    1f82:	21 00 98    	mov.w     w1, [w0+4]
    1f84:	03 00 37    	bra       0x1f8c <.L34>

00001f86 <.L35>:
  else
    ptr->super.displaybuffer[2] = 0;
    1f86:	1e 00 78    	mov.w     [w14], w0
    1f88:	80 00 eb    	clr.w     w1
    1f8a:	21 00 98    	mov.w     w1, [w0+4]

00001f8c <.L34>:
}
    1f8c:	00 80 fa    	ulnk      
    1f8e:	00 00 06    	return    

00001f90 <_sevseg_printNumber>:

void sevseg_printNumber(_7SEGMENT* ptr, long n, uint8_t base){
    1f90:	08 00 fa    	lnk       #0x8
    1f92:	00 0f 78    	mov.w     w0, [w14]
    1f94:	12 07 98    	mov.w     w2, [w14+2]
    1f96:	23 07 98    	mov.w     w3, [w14+4]
    1f98:	61 47 98    	mov.b     w1, [w14+6]
  sevseg_printFloat(ptr, n, 0, base);
    1f9a:	1e 00 90    	mov.w     [w14+2], w0
    1f9c:	ae 00 90    	mov.w     [w14+4], w1
    1f9e:	00 fa 07    	rcall     0x13a0 <___floatsisf>
    1fa0:	00 01 be    	mov.d     w0, w2
    1fa2:	6e 42 90    	mov.b     [w14+6], w4
    1fa4:	80 40 eb    	clr.b     w1
    1fa6:	1e 00 78    	mov.w     [w14], w0
    1fa8:	02 00 07    	rcall     0x1fae <_sevseg_printFloat> <.LFB14> <.LFE13>
}
    1faa:	00 80 fa    	ulnk      
    1fac:	00 00 06    	return    

00001fae <_sevseg_printFloat>:

void sevseg_printFloat(_7SEGMENT* ptr, double n, uint8_t fracDigits, uint8_t base){
    1fae:	1c 00 fa    	lnk       #0x1c
    1fb0:	88 1f 78    	mov.w     w8, [w15++]
    1fb2:	20 0f 98    	mov.w     w0, [w14+20]
    1fb4:	32 0f 98    	mov.w     w2, [w14+22]
    1fb6:	43 0f 98    	mov.w     w3, [w14+24]
    1fb8:	21 5f 98    	mov.b     w1, [w14+26]
    1fba:	34 5f 98    	mov.b     w4, [w14+27]
  uint8_t numericDigits = 4;   // available digits on display
    1fbc:	40 c0 b3    	mov.b     #0x4, w0
    1fbe:	00 4f 78    	mov.b     w0, [w14]
  uint8_t isNegative = 0;  // true if the number is negative
    1fc0:	00 40 eb    	clr.b     w0
    1fc2:	10 47 98    	mov.b     w0, [w14+1]

  // is the number negative?
  if(n < 0) {
    1fc4:	18 c0 b3    	mov.b     #0x1, w8
    1fc6:	60 11 b8    	mul.uu    w2, #0x0, w2
    1fc8:	3e 08 90    	mov.w     [w14+22], w0
    1fca:	ce 08 90    	mov.w     [w14+24], w1
    1fcc:	cc f9 07    	rcall     0x1366 <___eqsf2> <___lesf2> <___ltsf2>
    1fce:	00 00 e0    	cp0.w     w0
    1fd0:	01 00 35    	bra       LT, 0x1fd4 <.L39>
    1fd2:	00 44 eb    	clr.b     w8

00001fd4 <.L39>:
    1fd4:	08 04 e0    	cp0.b     w8
    1fd6:	08 00 32    	bra       Z, 0x1fe8 <.L40>
    isNegative = 1;  // need to draw sign later
    1fd8:	10 c0 b3    	mov.b     #0x1, w0
    1fda:	10 47 98    	mov.b     w0, [w14+1]
    --numericDigits;    // the sign will take up one digit
    1fdc:	1e 4f e9    	dec.b     [w14], [w14]
    n *= -1;            // pretend the number is positive
    1fde:	3e 08 90    	mov.w     [w14+22], w0
    1fe0:	ce 08 90    	mov.w     [w14+24], w1
    1fe2:	01 f0 a2    	btg.w     w1, #0xf
    1fe4:	30 0f 98    	mov.w     w0, [w14+22]
    1fe6:	41 0f 98    	mov.w     w1, [w14+24]

00001fe8 <.L40>:
  }

  // calculate the factor required to shift all fractional digits
  // into the integer part of the number
  double toIntFactor = 1.0;
    1fe8:	00 00 20    	mov.w     #0x0, w0
    1fea:	01 f8 23    	mov.w     #0x3f80, w1
    1fec:	10 07 98    	mov.w     w0, [w14+2]
    1fee:	21 07 98    	mov.w     w1, [w14+4]
	int i = 0;
    1ff0:	00 00 eb    	clr.w     w0
    1ff2:	30 07 98    	mov.w     w0, [w14+6]
  for(i = 0; i < fracDigits; ++i) toIntFactor *= base;
    1ff4:	00 00 eb    	clr.w     w0
    1ff6:	30 07 98    	mov.w     w0, [w14+6]
    1ff8:	0d 00 37    	bra       0x2014 <.L41>

00001ffa <.L42>:
    1ffa:	3e 58 90    	mov.b     [w14+27], w0
    1ffc:	00 80 fb    	ze        w0, w0
    1ffe:	cf 80 de    	asr.w     w0, #0xf, w1
    2000:	cf f9 07    	rcall     0x13a0 <___floatsisf>
    2002:	00 01 be    	mov.d     w0, w2
    2004:	1e 00 90    	mov.w     [w14+2], w0
    2006:	ae 00 90    	mov.w     [w14+4], w1
    2008:	21 fa 07    	rcall     0x144c <___mulsf3>
    200a:	10 07 98    	mov.w     w0, [w14+2]
    200c:	21 07 98    	mov.w     w1, [w14+4]
    200e:	3e 00 90    	mov.w     [w14+6], w0
    2010:	00 00 e8    	inc.w     w0, w0
    2012:	30 07 98    	mov.w     w0, [w14+6]

00002014 <.L41>:
    2014:	2e 58 90    	mov.b     [w14+26], w0
    2016:	80 80 fb    	ze        w0, w1
    2018:	3e 00 90    	mov.w     [w14+6], w0
    201a:	80 8f 50    	sub.w     w1, w0, [w15]
    201c:	ee ff 3c    	bra       GT, 0x1ffa <.L42>

  // create integer containing digits to display by applying
  // shifting factor and rounding adjustment
  uint32_t displayNumber = n * toIntFactor + 0.5;
    201e:	1e 01 90    	mov.w     [w14+2], w2
    2020:	ae 01 90    	mov.w     [w14+4], w3
    2022:	3e 08 90    	mov.w     [w14+22], w0
    2024:	ce 08 90    	mov.w     [w14+24], w1
    2026:	12 fa 07    	rcall     0x144c <___mulsf3>
    2028:	02 00 20    	mov.w     #0x0, w2
    202a:	03 f0 23    	mov.w     #0x3f00, w3
    202c:	fd f8 07    	rcall     0x1228 <___addsf3>
    202e:	9d f9 07    	rcall     0x136a <___fixunssfsi>
    2030:	40 07 98    	mov.w     w0, [w14+8]
    2032:	51 07 98    	mov.w     w1, [w14+10]

  // calculate upper bound on displayNumber given
  // available digits on display
  uint32_t tooBig = 1;
    2034:	10 00 20    	mov.w     #0x1, w0
    2036:	01 00 20    	mov.w     #0x0, w1
    2038:	60 07 98    	mov.w     w0, [w14+12]
    203a:	71 07 98    	mov.w     w1, [w14+14]
  for(i = 0; i < numericDigits; ++i) tooBig *= base;
    203c:	00 00 eb    	clr.w     w0
    203e:	30 07 98    	mov.w     w0, [w14+6]
    2040:	15 00 37    	bra       0x206c <.L43>

00002042 <.L44>:
    2042:	3e 58 90    	mov.b     [w14+27], w0
    2044:	00 80 fb    	ze        w0, w0
    2046:	80 00 eb    	clr.w     w1
    2048:	7e 01 90    	mov.w     [w14+14], w2
    204a:	00 91 b9    	mul.ss    w2, w0, w2
    204c:	02 01 78    	mov.w     w2, w2
    204e:	ee 01 90    	mov.w     [w14+12], w3
    2050:	01 9a b9    	mul.ss    w3, w1, w4
    2052:	84 01 78    	mov.w     w4, w3
    2054:	03 01 41    	add.w     w2, w3, w2
    2056:	ee 01 90    	mov.w     [w14+12], w3
    2058:	00 18 b8    	mul.uu    w3, w0, w0
    205a:	01 01 41    	add.w     w2, w1, w2
    205c:	82 00 78    	mov.w     w2, w1
    205e:	60 07 98    	mov.w     w0, [w14+12]
    2060:	71 07 98    	mov.w     w1, [w14+14]
    2062:	60 07 98    	mov.w     w0, [w14+12]
    2064:	71 07 98    	mov.w     w1, [w14+14]
    2066:	3e 00 90    	mov.w     [w14+6], w0
    2068:	00 00 e8    	inc.w     w0, w0
    206a:	30 07 98    	mov.w     w0, [w14+6]

0000206c <.L43>:
    206c:	9e 80 fb    	ze        [w14], w1
    206e:	3e 00 90    	mov.w     [w14+6], w0
    2070:	80 8f 50    	sub.w     w1, w0, [w15]
    2072:	e7 ff 3c    	bra       GT, 0x2042 <.L44>

  // if displayNumber is too large, try fewer fractional digits
  while(displayNumber >= tooBig) {
    2074:	18 00 37    	bra       0x20a6 <.L45>

00002076 <.L46>:
    --fracDigits;
    2076:	2e 58 90    	mov.b     [w14+26], w0
    2078:	00 40 e9    	dec.b     w0, w0
    207a:	20 5f 98    	mov.b     w0, [w14+26]
    toIntFactor /= base;
    207c:	3e 58 90    	mov.b     [w14+27], w0
    207e:	00 80 fb    	ze        w0, w0
    2080:	cf 80 de    	asr.w     w0, #0xf, w1
    2082:	8e f9 07    	rcall     0x13a0 <___floatsisf>
    2084:	00 01 be    	mov.d     w0, w2
    2086:	1e 00 90    	mov.w     [w14+2], w0
    2088:	ae 00 90    	mov.w     [w14+4], w1
    208a:	2b f9 07    	rcall     0x12e2 <___divsf3>
    208c:	10 07 98    	mov.w     w0, [w14+2]
    208e:	21 07 98    	mov.w     w1, [w14+4]
    displayNumber = n * toIntFactor + 0.5;
    2090:	1e 01 90    	mov.w     [w14+2], w2
    2092:	ae 01 90    	mov.w     [w14+4], w3
    2094:	3e 08 90    	mov.w     [w14+22], w0
    2096:	ce 08 90    	mov.w     [w14+24], w1
    2098:	d9 f9 07    	rcall     0x144c <___mulsf3>
    209a:	02 00 20    	mov.w     #0x0, w2
    209c:	03 f0 23    	mov.w     #0x3f00, w3
    209e:	c4 f8 07    	rcall     0x1228 <___addsf3>
    20a0:	64 f9 07    	rcall     0x136a <___fixunssfsi>
    20a2:	40 07 98    	mov.w     w0, [w14+8]
    20a4:	51 07 98    	mov.w     w1, [w14+10]

000020a6 <.L45>:
    20a6:	4e 01 90    	mov.w     [w14+8], w2
    20a8:	de 01 90    	mov.w     [w14+10], w3
    20aa:	6e 00 90    	mov.w     [w14+12], w0
    20ac:	fe 00 90    	mov.w     [w14+14], w1
    20ae:	80 0f 51    	sub.w     w2, w0, [w15]
    20b0:	81 8f 59    	subb.w    w3, w1, [w15]
    20b2:	e1 ff 31    	bra       C, 0x2076 <.L46>
  }

  // did toIntFactor shift the decimal off the display?
  if (toIntFactor < 1) {
    20b4:	18 c0 b3    	mov.b     #0x1, w8
    20b6:	02 00 20    	mov.w     #0x0, w2
    20b8:	03 f8 23    	mov.w     #0x3f80, w3
    20ba:	1e 00 90    	mov.w     [w14+2], w0
    20bc:	ae 00 90    	mov.w     [w14+4], w1
    20be:	53 f9 07    	rcall     0x1366 <___eqsf2> <___lesf2> <___ltsf2>
    20c0:	00 00 e0    	cp0.w     w0
    20c2:	01 00 35    	bra       LT, 0x20c6 <.L47>
    20c4:	00 44 eb    	clr.b     w8

000020c6 <.L47>:
    20c6:	08 04 e0    	cp0.b     w8
    20c8:	03 00 32    	bra       Z, 0x20d0 <.L48> <.LBB2>
    sevseg_printError(ptr);
    20ca:	2e 08 90    	mov.w     [w14+20], w0
    20cc:	6c 00 07    	rcall     0x21a6 <_sevseg_printError> <.LFB15> <.LFE14>
    20ce:	68 00 37    	bra       0x21a0 <.L38> <.LBE2>

000020d0 <.L48>:
  } else {
    // otherwise, display the number
    int8_t displayPos = 4;
    20d0:	40 c0 b3    	mov.b     #0x4, w0
    20d2:	00 57 98    	mov.b     w0, [w14+16]

    if (displayNumber)  //if displayNumber is not 0
    20d4:	4e 00 90    	mov.w     [w14+8], w0
    20d6:	de 00 90    	mov.w     [w14+10], w1
    20d8:	e0 0f 50    	sub.w     w0, #0x0, [w15]
    20da:	e0 8f 58    	subb.w    w1, #0x0, [w15]
    20dc:	41 00 32    	bra       Z, 0x2160 <.L50> <.LBE3>

000020de <.LBB3>:
    {
			uint8_t i;
      for(i = 0; displayNumber || i <= fracDigits; ++i) {
    20de:	00 40 eb    	clr.b     w0
    20e0:	10 57 98    	mov.b     w0, [w14+17]
    20e2:	34 00 37    	bra       0x214c <.L51>

000020e4 <.L55>:
        uint8_t displayDecimal = (fracDigits != 0 && i == fracDigits);
    20e4:	2e 58 90    	mov.b     [w14+26], w0
    20e6:	00 04 e0    	cp0.b     w0
    20e8:	06 00 32    	bra       Z, 0x20f6 <.L52>
    20ea:	9e 50 90    	mov.b     [w14+17], w1
    20ec:	2e 58 90    	mov.b     [w14+26], w0
    20ee:	80 cf 50    	sub.b     w1, w0, [w15]
    20f0:	02 00 3a    	bra       NZ, 0x20f6 <.L52>
    20f2:	10 00 20    	mov.w     #0x1, w0
    20f4:	01 00 37    	bra       0x20f8 <.L53>

000020f6 <.L52>:
    20f6:	00 00 eb    	clr.w     w0

000020f8 <.L53>:
    20f8:	20 57 98    	mov.b     w0, [w14+18]
        sevseg_writeDigitNum(ptr, displayPos--, displayNumber % base, displayDecimal);
    20fa:	3e 58 90    	mov.b     [w14+27], w0
    20fc:	00 80 fb    	ze        w0, w0
    20fe:	80 00 eb    	clr.w     w1
    2100:	4e 02 90    	mov.w     [w14+8], w4
    2102:	de 02 90    	mov.w     [w14+10], w5
    2104:	00 01 be    	mov.d     w0, w2
    2106:	04 00 be    	mov.d     w4, w0
    2108:	e5 f9 07    	rcall     0x14d4 <___umodsi3>
    210a:	80 40 78    	mov.b     w0, w1
    210c:	0e 50 90    	mov.b     [w14+16], w0
    210e:	0e 51 90    	mov.b     [w14+16], w2
    2110:	02 41 e9    	dec.b     w2, w2
    2112:	02 57 98    	mov.b     w2, [w14+16]
    2114:	ae 51 90    	mov.b     [w14+18], w3
    2116:	01 41 78    	mov.b     w1, w2
    2118:	80 40 78    	mov.b     w0, w1
    211a:	2e 08 90    	mov.w     [w14+20], w0
    211c:	0e ff 07    	rcall     0x1f3a <_sevseg_writeDigitNum> <.LFB11> <.LFE10>
        if(displayPos == 2) sevseg_writeDigitRaw(ptr, displayPos--, 0x00);
    211e:	0e 50 90    	mov.b     [w14+16], w0
    2120:	e2 4f 50    	sub.b     w0, #0x2, [w15]
    2122:	08 00 3a    	bra       NZ, 0x2134 <.L54>
    2124:	0e 50 90    	mov.b     [w14+16], w0
    2126:	8e 50 90    	mov.b     [w14+16], w1
    2128:	81 40 e9    	dec.b     w1, w1
    212a:	01 57 98    	mov.b     w1, [w14+16]
    212c:	00 01 eb    	clr.w     w2
    212e:	80 40 78    	mov.b     w0, w1
    2130:	2e 08 90    	mov.w     [w14+20], w0
    2132:	f1 fe 07    	rcall     0x1f16 <_sevseg_writeDigitRaw> <.LFB10> <.LFE9>

00002134 <.L54>:
        displayNumber /= base;
    2134:	3e 58 90    	mov.b     [w14+27], w0
    2136:	00 80 fb    	ze        w0, w0
    2138:	80 00 eb    	clr.w     w1
    213a:	00 01 be    	mov.d     w0, w2
    213c:	4e 00 90    	mov.w     [w14+8], w0
    213e:	de 00 90    	mov.w     [w14+10], w1
    2140:	b9 f9 07    	rcall     0x14b4 <___udivsi3>
    2142:	40 07 98    	mov.w     w0, [w14+8]
    2144:	51 07 98    	mov.w     w1, [w14+10]

00002146 <.LBE4>:
    2146:	1e 50 90    	mov.b     [w14+17], w0
    2148:	00 40 e8    	inc.b     w0, w0
    214a:	10 57 98    	mov.b     w0, [w14+17]

0000214c <.L51>:
    214c:	4e 00 90    	mov.w     [w14+8], w0
    214e:	de 00 90    	mov.w     [w14+10], w1
    2150:	e0 0f 50    	sub.w     w0, #0x0, [w15]
    2152:	e0 8f 58    	subb.w    w1, #0x0, [w15]
    2154:	c7 ff 3a    	bra       NZ, 0x20e4 <.L55> <.LBB4>
    2156:	9e 50 90    	mov.b     [w14+17], w1
    2158:	2e 58 90    	mov.b     [w14+26], w0
    215a:	80 cf 50    	sub.b     w1, w0, [w15]
    215c:	c3 ff 36    	bra       LEU, 0x20e4 <.L55> <.LBB4>
    215e:	09 00 37    	bra       0x2172 <.L56>

00002160 <.L50>:
      }
    }
    else {
      sevseg_writeDigitNum(ptr, displayPos--, 0, 0);
    2160:	0e 50 90    	mov.b     [w14+16], w0
    2162:	8e 50 90    	mov.b     [w14+16], w1
    2164:	81 40 e9    	dec.b     w1, w1
    2166:	01 57 98    	mov.b     w1, [w14+16]
    2168:	80 41 eb    	clr.b     w3
    216a:	00 41 eb    	clr.b     w2
    216c:	80 40 78    	mov.b     w0, w1
    216e:	2e 08 90    	mov.w     [w14+20], w0
    2170:	e4 fe 07    	rcall     0x1f3a <_sevseg_writeDigitNum> <.LFB11> <.LFE10>

00002172 <.L56>:
    }

    // display negative sign if negative
    if(isNegative) sevseg_writeDigitRaw(ptr, displayPos--, 0x40);
    2172:	1e 40 90    	mov.b     [w14+1], w0
    2174:	00 04 e0    	cp0.b     w0
    2176:	11 00 32    	bra       Z, 0x219a <.L58>
    2178:	0e 50 90    	mov.b     [w14+16], w0
    217a:	8e 50 90    	mov.b     [w14+16], w1
    217c:	81 40 e9    	dec.b     w1, w1
    217e:	01 57 98    	mov.b     w1, [w14+16]
    2180:	02 04 20    	mov.w     #0x40, w2
    2182:	80 40 78    	mov.b     w0, w1
    2184:	2e 08 90    	mov.w     [w14+20], w0
    2186:	c7 fe 07    	rcall     0x1f16 <_sevseg_writeDigitRaw> <.LFB10> <.LFE9>

    // clear remaining display positions
    while(displayPos >= 0) sevseg_writeDigitRaw(ptr, displayPos--, 0x00);
    2188:	08 00 37    	bra       0x219a <.L58>

0000218a <.L59>:
    218a:	0e 50 90    	mov.b     [w14+16], w0
    218c:	8e 50 90    	mov.b     [w14+16], w1
    218e:	81 40 e9    	dec.b     w1, w1
    2190:	01 57 98    	mov.b     w1, [w14+16]
    2192:	00 01 eb    	clr.w     w2
    2194:	80 40 78    	mov.b     w0, w1
    2196:	2e 08 90    	mov.w     [w14+20], w0
    2198:	be fe 07    	rcall     0x1f16 <_sevseg_writeDigitRaw> <.LFB10> <.LFE9>

0000219a <.L58>:
    219a:	0e 50 90    	mov.b     [w14+16], w0
    219c:	00 04 e0    	cp0.b     w0
    219e:	f5 ff 3d    	bra       GE, 0x218a <.L59>

000021a0 <.L38>:
  }
}
    21a0:	4f 04 78    	mov.w     [--w15], w8
    21a2:	00 80 fa    	ulnk      
    21a4:	00 00 06    	return    

000021a6 <_sevseg_printError>:

void sevseg_printError(_7SEGMENT* ptr){
    21a6:	04 00 fa    	lnk       #0x4
    21a8:	10 07 98    	mov.w     w0, [w14+2]
	uint8_t i;
  for(i = 0; i < SEVENSEG_DIGITS; ++i) {
    21aa:	00 40 eb    	clr.b     w0
    21ac:	00 4f 78    	mov.b     w0, [w14]
    21ae:	0b 00 37    	bra       0x21c6 <.L61>

000021b0 <.L64>:
    sevseg_writeDigitRaw(ptr, i, (i == 2 ? 0x00 : 0x40));
    21b0:	1e 40 78    	mov.b     [w14], w0
    21b2:	e2 4f 50    	sub.b     w0, #0x2, [w15]
    21b4:	02 00 3a    	bra       NZ, 0x21ba <.L62>
    21b6:	00 00 eb    	clr.w     w0
    21b8:	01 00 37    	bra       0x21bc <.L63>

000021ba <.L62>:
    21ba:	00 04 20    	mov.w     #0x40, w0

000021bc <.L63>:
    21bc:	00 01 78    	mov.w     w0, w2
    21be:	9e 40 78    	mov.b     [w14], w1
    21c0:	1e 00 90    	mov.w     [w14+2], w0
    21c2:	a9 fe 07    	rcall     0x1f16 <_sevseg_writeDigitRaw> <.LFB10> <.LFE9>
    21c4:	1e 4f e8    	inc.b     [w14], [w14]

000021c6 <.L61>:
    21c6:	1e 40 78    	mov.b     [w14], w0
    21c8:	e4 4f 50    	sub.b     w0, #0x4, [w15]
    21ca:	f2 ff 36    	bra       LEU, 0x21b0 <.L64>
  }
}
    21cc:	00 80 fa    	ulnk      
    21ce:	00 00 06    	return    

000021d0 <_sevseg_writeColon>:


void sevseg_writeColon(_7SEGMENT* ptr){
    21d0:	02 00 fa    	lnk       #0x2
    21d2:	00 0f 78    	mov.w     w0, [w14]
  /*
  Wire.beginTransmission(i2c_addr);
  Wire.write((uint8_t)0x04);

  Wire.write(displaybuffer[2] & 0xFF);
  Wire.write(displaybuffer[2] >> 8);

  Wire.endTransmission();
  */
  i2c_start();
    21d4:	33 00 07    	rcall     0x223c <_i2c_start> <.LFB2> <.LFE1>
  send_i2c_byte(ptr->super.i2c_addr);
    21d6:	1e 00 78    	mov.w     [w14], w0
    21d8:	00 50 90    	mov.b     [w0+16], w0
    21da:	00 80 fb    	ze        w0, w0
    21dc:	7e 00 07    	rcall     0x22da <_send_i2c_byte> <.LFB5> <.LFE4>
  send_i2c_byte((uint8_t)0x04); // start at address $02
    21de:	40 00 20    	mov.w     #0x4, w0
    21e0:	7c 00 07    	rcall     0x22da <_send_i2c_byte> <.LFB5> <.LFE4>
  send_i2c_byte(ptr->super.displaybuffer[2] & 0xFF);
    21e2:	1e 00 78    	mov.w     [w14], w0
    21e4:	20 00 90    	mov.w     [w0+4], w0
    21e6:	80 00 78    	mov.w     w0, w1
    21e8:	f0 0f 20    	mov.w     #0xff, w0
    21ea:	00 80 60    	and.w     w1, w0, w0
    21ec:	76 00 07    	rcall     0x22da <_send_i2c_byte> <.LFB5> <.LFE4>
  send_i2c_byte(ptr->super.displaybuffer[2] >> 8);
    21ee:	1e 00 78    	mov.w     [w14], w0
    21f0:	20 00 90    	mov.w     [w0+4], w0
    21f2:	48 00 de    	lsr.w     w0, #0x8, w0
    21f4:	72 00 07    	rcall     0x22da <_send_i2c_byte> <.LFB5> <.LFE4>
  reset_i2c_bus();
    21f6:	56 00 07    	rcall     0x22a4 <_reset_i2c_bus> <.LFB4> <.LFE3>
}
    21f8:	00 80 fa    	ulnk      
    21fa:	00 00 06    	return    

000021fc <_delay_by_nop>:
    21fc:	08 00 fa    	lnk       #0x8
    21fe:	20 07 98    	mov.w     w0, [w14+4]
    2200:	31 07 98    	mov.w     w1, [w14+6]
    2202:	60 00 b8    	mul.uu    w0, #0x0, w0
    2204:	00 8f be    	mov.d     w0, [w14]
    2206:	05 00 37    	bra       0x2212 <.L2>

00002208 <.L3>:
    2208:	00 00 00    	nop       
    220a:	12 00 20    	mov.w     #0x1, w2
    220c:	03 00 20    	mov.w     #0x0, w3
    220e:	1e 0f 41    	add.w     w2, [w14], [w14]
    2210:	5e 97 49    	addc.w    w3, [++w14], [w14--]

00002212 <.L2>:
    2212:	2e 00 90    	mov.w     [w14+4], w0
    2214:	be 00 90    	mov.w     [w14+6], w1
    2216:	1e 01 be    	mov.d     [w14], w2
    2218:	80 0f 51    	sub.w     w2, w0, [w15]
    221a:	81 8f 59    	subb.w    w3, w1, [w15]
    221c:	f5 ff 39    	bra       NC, 0x2208 <.L3>
    221e:	00 80 fa    	ulnk      
    2220:	00 00 06    	return    

00002222 <_i2c_init>:
    2222:	04 00 fa    	lnk       #0x4
    2224:	10 07 98    	mov.w     w0, [w14+2]
    2226:	1e 00 90    	mov.w     [w14+2], w0
    2228:	a0 13 88    	mov.w     w0, 0x274
    222a:	77 e2 a9    	bclr.b    0x277, #0x7
    222c:	77 22 a8    	bset.b    0x277, #0x1
    222e:	8e a0 a9    	bclr.b    0x8e, #0x5
    2230:	77 e2 a8    	bset.b    0x277, #0x7
    2232:	80 13 80    	mov.w     0x270, w0
    2234:	00 0f 78    	mov.w     w0, [w14]
    2236:	36 00 07    	rcall     0x22a4 <_reset_i2c_bus> <.LFB4> <.LFE3>
    2238:	00 80 fa    	ulnk      
    223a:	00 00 06    	return    

0000223c <_i2c_start>:
    223c:	02 00 fa    	lnk       #0x2
    223e:	00 00 eb    	clr.w     w0
    2240:	00 0f 78    	mov.w     w0, [w14]
    2242:	76 a2 a9    	bclr.b    0x276, #0x5
    2244:	a0 00 20    	mov.w     #0xa, w0
    2246:	01 00 20    	mov.w     #0x0, w1
    2248:	d9 ff 07    	rcall     0x21fc <_delay_by_nop> <.L0> <.LFB0> <.LFE16> <.Letext0> <.Ltext0>
    224a:	76 02 a8    	bset.b    0x276, #0x0
    224c:	00 00 00    	nop       
    224e:	07 00 37    	bra       0x225e <.L6>

00002250 <.L8>:
    2250:	10 00 20    	mov.w     #0x1, w0
    2252:	01 00 20    	mov.w     #0x0, w1
    2254:	d3 ff 07    	rcall     0x21fc <_delay_by_nop> <.L0> <.LFB0> <.LFE16> <.Letext0> <.Ltext0>
    2256:	1e 0f e8    	inc.w     [w14], [w14]
    2258:	1e 00 78    	mov.w     [w14], w0
    225a:	f4 0f 50    	sub.w     w0, #0x14, [w15]
    225c:	05 00 3c    	bra       GT, 0x2268 <.L9>

0000225e <.L6>:
    225e:	b0 13 80    	mov.w     0x276, w0
    2260:	61 00 60    	and.w     w0, #0x1, w0
    2262:	00 00 e0    	cp0.w     w0
    2264:	f5 ff 3a    	bra       NZ, 0x2250 <.L8>
    2266:	01 00 37    	bra       0x226a <.L7>

00002268 <.L9>:
    2268:	00 00 00    	nop       

0000226a <.L7>:
    226a:	20 00 20    	mov.w     #0x2, w0
    226c:	01 00 20    	mov.w     #0x0, w1
    226e:	c6 ff 07    	rcall     0x21fc <_delay_by_nop> <.L0> <.LFB0> <.LFE16> <.Letext0> <.Ltext0>
    2270:	00 80 fa    	ulnk      
    2272:	00 00 06    	return    

00002274 <_i2c_restart>:
    2274:	02 00 fa    	lnk       #0x2
    2276:	00 00 eb    	clr.w     w0
    2278:	00 0f 78    	mov.w     w0, [w14]
    227a:	76 22 a8    	bset.b    0x276, #0x1
    227c:	00 00 00    	nop       
    227e:	07 00 37    	bra       0x228e <.L11>

00002280 <.L13>:
    2280:	10 00 20    	mov.w     #0x1, w0
    2282:	01 00 20    	mov.w     #0x0, w1
    2284:	bb ff 07    	rcall     0x21fc <_delay_by_nop> <.L0> <.LFB0> <.LFE16> <.Letext0> <.Ltext0>
    2286:	1e 0f e8    	inc.w     [w14], [w14]
    2288:	1e 00 78    	mov.w     [w14], w0
    228a:	f4 0f 50    	sub.w     w0, #0x14, [w15]
    228c:	05 00 3c    	bra       GT, 0x2298 <.L14>

0000228e <.L11>:
    228e:	b0 13 80    	mov.w     0x276, w0
    2290:	62 00 60    	and.w     w0, #0x2, w0
    2292:	00 00 e0    	cp0.w     w0
    2294:	f5 ff 3a    	bra       NZ, 0x2280 <.L13>
    2296:	01 00 37    	bra       0x229a <.L12>

00002298 <.L14>:
    2298:	00 00 00    	nop       

0000229a <.L12>:
    229a:	20 00 20    	mov.w     #0x2, w0
    229c:	01 00 20    	mov.w     #0x0, w1
    229e:	ae ff 07    	rcall     0x21fc <_delay_by_nop> <.L0> <.LFB0> <.LFE16> <.Letext0> <.Ltext0>
    22a0:	00 80 fa    	ulnk      
    22a2:	00 00 06    	return    

000022a4 <_reset_i2c_bus>:
    22a4:	02 00 fa    	lnk       #0x2
    22a6:	00 00 eb    	clr.w     w0
    22a8:	00 0f 78    	mov.w     w0, [w14]
    22aa:	76 42 a8    	bset.b    0x276, #0x2
    22ac:	07 00 37    	bra       0x22bc <.L16>

000022ae <.L18>:
    22ae:	10 00 20    	mov.w     #0x1, w0
    22b0:	01 00 20    	mov.w     #0x0, w1
    22b2:	a4 ff 07    	rcall     0x21fc <_delay_by_nop> <.L0> <.LFB0> <.LFE16> <.Letext0> <.Ltext0>
    22b4:	1e 0f e8    	inc.w     [w14], [w14]
    22b6:	1e 00 78    	mov.w     [w14], w0
    22b8:	f4 0f 50    	sub.w     w0, #0x14, [w15]
    22ba:	05 00 3c    	bra       GT, 0x22c6 <.L19>

000022bc <.L16>:
    22bc:	b0 13 80    	mov.w     0x276, w0
    22be:	64 00 60    	and.w     w0, #0x4, w0
    22c0:	00 00 e0    	cp0.w     w0
    22c2:	f5 ff 3a    	bra       NZ, 0x22ae <.L18>
    22c4:	01 00 37    	bra       0x22c8 <.L17>

000022c6 <.L19>:
    22c6:	00 00 00    	nop       

000022c8 <.L17>:
    22c8:	76 62 a9    	bclr.b    0x276, #0x3
    22ca:	8e a0 a9    	bclr.b    0x8e, #0x5
    22cc:	78 e2 a9    	bclr.b    0x278, #0x7
    22ce:	79 42 a9    	bclr.b    0x279, #0x2
    22d0:	40 01 20    	mov.w     #0x14, w0
    22d2:	01 00 20    	mov.w     #0x0, w1
    22d4:	93 ff 07    	rcall     0x21fc <_delay_by_nop> <.L0> <.LFB0> <.LFE16> <.Letext0> <.Ltext0>
    22d6:	00 80 fa    	ulnk      
    22d8:	00 00 06    	return    

000022da <_send_i2c_byte>:
    22da:	04 00 fa    	lnk       #0x4
    22dc:	10 07 98    	mov.w     w0, [w14+2]
    22de:	00 00 00    	nop       

000022e0 <.L21>:
    22e0:	c0 13 80    	mov.w     0x278, w0
    22e2:	61 00 60    	and.w     w0, #0x1, w0
    22e4:	00 00 e0    	cp0.w     w0
    22e6:	fc ff 3a    	bra       NZ, 0x22e0 <.L21>
    22e8:	8e a0 a9    	bclr.b    0x8e, #0x5
    22ea:	1e 00 90    	mov.w     [w14+2], w0
    22ec:	90 13 88    	mov.w     w0, 0x272
    22ee:	00 00 eb    	clr.w     w0
    22f0:	00 0f 78    	mov.w     w0, [w14]
    22f2:	09 00 37    	bra       0x2306 <.L22>

000022f4 <.L25>:
    22f4:	c1 13 80    	mov.w     0x278, w1
    22f6:	00 00 24    	mov.w     #0x4000, w0
    22f8:	00 80 60    	and.w     w1, w0, w0
    22fa:	00 00 e0    	cp0.w     w0
    22fc:	09 00 32    	bra       Z, 0x2310 <.L29>
    22fe:	10 00 20    	mov.w     #0x1, w0
    2300:	01 00 20    	mov.w     #0x0, w1
    2302:	7c ff 07    	rcall     0x21fc <_delay_by_nop> <.L0> <.LFB0> <.LFE16> <.Letext0> <.Ltext0>
    2304:	1e 0f e8    	inc.w     [w14], [w14]

00002306 <.L22>:
    2306:	30 1f 20    	mov.w     #0x1f3, w0
    2308:	9e 00 78    	mov.w     [w14], w1
    230a:	80 8f 50    	sub.w     w1, w0, [w15]
    230c:	f3 ff 34    	bra       LE, 0x22f4 <.L25>
    230e:	01 00 37    	bra       0x2312 <.L24>

00002310 <.L29>:
    2310:	00 00 00    	nop       

00002312 <.L24>:
    2312:	40 1f 20    	mov.w     #0x1f4, w0
    2314:	9e 00 78    	mov.w     [w14], w1
    2316:	80 8f 50    	sub.w     w1, w0, [w15]
    2318:	02 00 3a    	bra       NZ, 0x231e <.L26>
    231a:	10 c0 b3    	mov.b     #0x1, w0
    231c:	0c 00 37    	bra       0x2336 <.L27>

0000231e <.L26>:
    231e:	c1 13 80    	mov.w     0x278, w1
    2320:	00 00 28    	mov.w     #0x8000, w0
    2322:	00 80 60    	and.w     w1, w0, w0
    2324:	00 00 e0    	cp0.w     w0
    2326:	03 00 32    	bra       Z, 0x232e <.L28>
    2328:	bd ff 07    	rcall     0x22a4 <_reset_i2c_bus> <.LFB4> <.LFE3>
    232a:	10 c0 b3    	mov.b     #0x1, w0
    232c:	04 00 37    	bra       0x2336 <.L27>

0000232e <.L28>:
    232e:	20 00 20    	mov.w     #0x2, w0
    2330:	01 00 20    	mov.w     #0x0, w1
    2332:	64 ff 07    	rcall     0x21fc <_delay_by_nop> <.L0> <.LFB0> <.LFE16> <.Letext0> <.Ltext0>
    2334:	00 40 eb    	clr.b     w0

00002336 <.L27>:
    2336:	00 80 fa    	ulnk      
    2338:	00 00 06    	return    

0000233a <_i2c_read>:
    233a:	04 00 fa    	lnk       #0x4
    233c:	00 00 eb    	clr.w     w0
    233e:	00 0f 78    	mov.w     w0, [w14]
    2340:	00 40 eb    	clr.b     w0
    2342:	20 47 98    	mov.b     w0, [w14+2]
    2344:	76 62 a8    	bset.b    0x276, #0x3
    2346:	05 00 37    	bra       0x2352 <.L31>

00002348 <.L33>:
    2348:	1e 0f e8    	inc.w     [w14], [w14]
    234a:	00 7d 20    	mov.w     #0x7d0, w0
    234c:	9e 00 78    	mov.w     [w14], w1
    234e:	80 8f 50    	sub.w     w1, w0, [w15]
    2350:	05 00 3c    	bra       GT, 0x235c <.L34>

00002352 <.L31>:
    2352:	c0 13 80    	mov.w     0x278, w0
    2354:	62 00 60    	and.w     w0, #0x2, w0
    2356:	00 00 e0    	cp0.w     w0
    2358:	f7 ff 32    	bra       Z, 0x2348 <.L33>
    235a:	01 00 37    	bra       0x235e <.L32>

0000235c <.L34>:
    235c:	00 00 00    	nop       

0000235e <.L32>:
    235e:	80 13 80    	mov.w     0x270, w0
    2360:	20 47 98    	mov.b     w0, [w14+2]
    2362:	2e 40 90    	mov.b     [w14+2], w0
    2364:	00 80 fa    	ulnk      
    2366:	00 00 06    	return    

00002368 <_i2c_read_ack>:
    2368:	04 00 fa    	lnk       #0x4
    236a:	00 00 eb    	clr.w     w0
    236c:	00 0f 78    	mov.w     w0, [w14]
    236e:	00 40 eb    	clr.b     w0
    2370:	20 47 98    	mov.b     w0, [w14+2]
    2372:	76 62 a8    	bset.b    0x276, #0x3
    2374:	05 00 37    	bra       0x2380 <.L36>

00002376 <.L38>:
    2376:	1e 0f e8    	inc.w     [w14], [w14]
    2378:	00 7d 20    	mov.w     #0x7d0, w0
    237a:	9e 00 78    	mov.w     [w14], w1
    237c:	80 8f 50    	sub.w     w1, w0, [w15]
    237e:	05 00 3c    	bra       GT, 0x238a <.L39>

00002380 <.L36>:
    2380:	c0 13 80    	mov.w     0x278, w0
    2382:	62 00 60    	and.w     w0, #0x2, w0
    2384:	00 00 e0    	cp0.w     w0
    2386:	f7 ff 32    	bra       Z, 0x2376 <.L38>
    2388:	01 00 37    	bra       0x238c <.L37>

0000238a <.L39>:
    238a:	00 00 00    	nop       

0000238c <.L37>:
    238c:	80 13 80    	mov.w     0x270, w0
    238e:	20 47 98    	mov.b     w0, [w14+2]
    2390:	76 82 a8    	bset.b    0x276, #0x4
    2392:	a0 00 20    	mov.w     #0xa, w0
    2394:	01 00 20    	mov.w     #0x0, w1
    2396:	32 ff 07    	rcall     0x21fc <_delay_by_nop> <.L0> <.LFB0> <.LFE16> <.Letext0> <.Ltext0>
    2398:	2e 40 90    	mov.b     [w14+2], w0
    239a:	00 80 fa    	ulnk      
    239c:	00 00 06    	return    

0000239e <_i2c_read_nack>:
    239e:	04 00 fa    	lnk       #0x4
    23a0:	00 00 eb    	clr.w     w0
    23a2:	00 0f 78    	mov.w     w0, [w14]
    23a4:	00 40 eb    	clr.b     w0
    23a6:	20 47 98    	mov.b     w0, [w14+2]
    23a8:	76 62 a8    	bset.b    0x276, #0x3
    23aa:	05 00 37    	bra       0x23b6 <.L41>

000023ac <.L43>:
    23ac:	1e 0f e8    	inc.w     [w14], [w14]
    23ae:	00 7d 20    	mov.w     #0x7d0, w0
    23b0:	9e 00 78    	mov.w     [w14], w1
    23b2:	80 8f 50    	sub.w     w1, w0, [w15]
    23b4:	05 00 3c    	bra       GT, 0x23c0 <.L44>

000023b6 <.L41>:
    23b6:	c0 13 80    	mov.w     0x278, w0
    23b8:	62 00 60    	and.w     w0, #0x2, w0
    23ba:	00 00 e0    	cp0.w     w0
    23bc:	f7 ff 32    	bra       Z, 0x23ac <.L43>
    23be:	01 00 37    	bra       0x23c2 <.L42>

000023c0 <.L44>:
    23c0:	00 00 00    	nop       

000023c2 <.L42>:
    23c2:	80 13 80    	mov.w     0x270, w0
    23c4:	20 47 98    	mov.b     w0, [w14+2]
    23c6:	76 a2 a8    	bset.b    0x276, #0x5
    23c8:	76 82 a8    	bset.b    0x276, #0x4
    23ca:	a0 00 20    	mov.w     #0xa, w0
    23cc:	01 00 20    	mov.w     #0x0, w1
    23ce:	16 ff 07    	rcall     0x21fc <_delay_by_nop> <.L0> <.LFB0> <.LFE16> <.Letext0> <.Ltext0>
    23d0:	2e 40 90    	mov.b     [w14+2], w0
    23d2:	00 80 fa    	ulnk      
    23d4:	00 00 06    	return    

000023d6 <_I2Cwrite>:
    23d6:	04 00 fa    	lnk       #0x4
    23d8:	00 4f 78    	mov.b     w0, [w14]
    23da:	11 47 98    	mov.b     w1, [w14+1]
    23dc:	22 47 98    	mov.b     w2, [w14+2]
    23de:	2e ff 07    	rcall     0x223c <_i2c_start> <.LFB2> <.LFE1>
    23e0:	1e 00 fb    	se        [w14], w0
    23e2:	80 00 78    	mov.w     w0, w1
    23e4:	e0 ff 2f    	mov.w     #0xfffe, w0
    23e6:	00 80 60    	and.w     w1, w0, w0
    23e8:	78 ff 07    	rcall     0x22da <_send_i2c_byte> <.LFB5> <.LFE4>
    23ea:	1e 40 90    	mov.b     [w14+1], w0
    23ec:	00 00 fb    	se        w0, w0
    23ee:	75 ff 07    	rcall     0x22da <_send_i2c_byte> <.LFB5> <.LFE4>
    23f0:	2e 40 90    	mov.b     [w14+2], w0
    23f2:	00 00 fb    	se        w0, w0
    23f4:	72 ff 07    	rcall     0x22da <_send_i2c_byte> <.LFB5> <.LFE4>
    23f6:	56 ff 07    	rcall     0x22a4 <_reset_i2c_bus> <.LFB4> <.LFE3>
    23f8:	00 80 fa    	ulnk      
    23fa:	00 00 06    	return    

000023fc <_I2Cread>:
    23fc:	04 00 fa    	lnk       #0x4
    23fe:	20 47 98    	mov.b     w0, [w14+2]
    2400:	31 47 98    	mov.b     w1, [w14+3]
    2402:	1c ff 07    	rcall     0x223c <_i2c_start> <.LFB2> <.LFE1>
    2404:	2e 40 90    	mov.b     [w14+2], w0
    2406:	00 00 fb    	se        w0, w0
    2408:	68 ff 07    	rcall     0x22da <_send_i2c_byte> <.LFB5> <.LFE4>
    240a:	3e 40 90    	mov.b     [w14+3], w0
    240c:	00 00 fb    	se        w0, w0
    240e:	65 ff 07    	rcall     0x22da <_send_i2c_byte> <.LFB5> <.LFE4>
    2410:	a0 00 20    	mov.w     #0xa, w0
    2412:	01 00 20    	mov.w     #0x0, w1
    2414:	f3 fe 07    	rcall     0x21fc <_delay_by_nop> <.L0> <.LFB0> <.LFE16> <.Letext0> <.Ltext0>
    2416:	2e ff 07    	rcall     0x2274 <_i2c_restart> <.LFB3> <.LFE2>
    2418:	2e 40 90    	mov.b     [w14+2], w0
    241a:	00 04 a0    	bset.b    w0, #0x0
    241c:	00 00 fb    	se        w0, w0
    241e:	5d ff 07    	rcall     0x22da <_send_i2c_byte> <.LFB5> <.LFE4>
    2420:	8c ff 07    	rcall     0x233a <_i2c_read> <.LFB6> <.LFE5>
    2422:	00 4f 78    	mov.b     w0, [w14]
    2424:	3f ff 07    	rcall     0x22a4 <_reset_i2c_bus> <.LFB4> <.LFE3>
    2426:	1e 40 78    	mov.b     [w14], w0
    2428:	00 80 fa    	ulnk      
    242a:	00 00 06    	return    

0000242c <_I2Cpoll>:
    242c:	04 00 fa    	lnk       #0x4
    242e:	20 47 98    	mov.b     w0, [w14+2]
    2430:	00 40 eb    	clr.b     w0
    2432:	00 4f 78    	mov.b     w0, [w14]
    2434:	03 ff 07    	rcall     0x223c <_i2c_start> <.LFB2> <.LFE1>
    2436:	2e 40 90    	mov.b     [w14+2], w0
    2438:	00 00 fb    	se        w0, w0
    243a:	80 00 78    	mov.w     w0, w1
    243c:	e0 ff 2f    	mov.w     #0xfffe, w0
    243e:	00 80 60    	and.w     w1, w0, w0
    2440:	4c ff 07    	rcall     0x22da <_send_i2c_byte> <.LFB5> <.LFE4>
    2442:	00 4f 78    	mov.b     w0, [w14]
    2444:	2f ff 07    	rcall     0x22a4 <_reset_i2c_bus> <.LFB4> <.LFE3>
    2446:	1e 40 78    	mov.b     [w14], w0
    2448:	00 04 e0    	cp0.b     w0
    244a:	02 00 3a    	bra       NZ, 0x2450 <.L48>
    244c:	10 c0 b3    	mov.b     #0x1, w0
    244e:	01 00 37    	bra       0x2452 <.L49>

00002450 <.L48>:
    2450:	00 40 eb    	clr.b     w0

00002452 <.L49>:
    2452:	00 80 fa    	ulnk      
    2454:	00 00 06    	return    

00002456 <_I2Cwritearray>:
    2456:	08 00 fa    	lnk       #0x8
    2458:	20 47 98    	mov.b     w0, [w14+2]
    245a:	21 07 98    	mov.w     w1, [w14+4]
    245c:	62 47 98    	mov.b     w2, [w14+6]
    245e:	00 40 eb    	clr.b     w0
    2460:	00 4f 78    	mov.b     w0, [w14]
    2462:	ec fe 07    	rcall     0x223c <_i2c_start> <.LFB2> <.LFE1>
    2464:	2e 40 90    	mov.b     [w14+2], w0
    2466:	00 00 fb    	se        w0, w0
    2468:	80 00 78    	mov.w     w0, w1
    246a:	e0 ff 2f    	mov.w     #0xfffe, w0
    246c:	00 80 60    	and.w     w1, w0, w0
    246e:	35 ff 07    	rcall     0x22da <_send_i2c_byte> <.LFB5> <.LFE4>
    2470:	00 4f 78    	mov.b     w0, [w14]
    2472:	00 40 eb    	clr.b     w0
    2474:	10 47 98    	mov.b     w0, [w14+1]
    2476:	0d 00 37    	bra       0x2492 <.L51>

00002478 <.L52>:
    2478:	1e 40 90    	mov.b     [w14+1], w0
    247a:	00 80 fb    	ze        w0, w0
    247c:	ae 00 90    	mov.w     [w14+4], w1
    247e:	00 80 40    	add.w     w1, w0, w0
    2480:	10 40 78    	mov.b     [w0], w0
    2482:	00 00 fb    	se        w0, w0
    2484:	2a ff 07    	rcall     0x22da <_send_i2c_byte> <.LFB5> <.LFE4>
    2486:	9e 40 78    	mov.b     [w14], w1
    2488:	01 40 70    	ior.b     w0, w1, w0
    248a:	00 4f 78    	mov.b     w0, [w14]
    248c:	1e 40 90    	mov.b     [w14+1], w0
    248e:	00 40 e8    	inc.b     w0, w0
    2490:	10 47 98    	mov.b     w0, [w14+1]

00002492 <.L51>:
    2492:	9e 40 90    	mov.b     [w14+1], w1
    2494:	6e 40 90    	mov.b     [w14+6], w0
    2496:	80 cf 50    	sub.b     w1, w0, [w15]
    2498:	ef ff 39    	bra       NC, 0x2478 <.L52>
    249a:	04 ff 07    	rcall     0x22a4 <_reset_i2c_bus> <.LFB4> <.LFE3>
    249c:	1e 40 78    	mov.b     [w14], w0
    249e:	00 80 fa    	ulnk      
    24a0:	00 00 06    	return    

000024a2 <_i2c2_init>:
    24a2:	04 00 fa    	lnk       #0x4
    24a4:	10 07 98    	mov.w     w0, [w14+2]
    24a6:	1e 00 90    	mov.w     [w14+2], w0
    24a8:	a0 10 88    	mov.w     w0, 0x214
    24aa:	17 e2 a9    	bclr.b    0x217, #0x7
    24ac:	17 22 a8    	bset.b    0x217, #0x1
    24ae:	8a 40 a9    	bclr.b    0x8a, #0x2
    24b0:	17 e2 a8    	bset.b    0x217, #0x7
    24b2:	80 10 80    	mov.w     0x210, w0
    24b4:	00 0f 78    	mov.w     w0, [w14]
    24b6:	f6 fe 07    	rcall     0x22a4 <_reset_i2c_bus> <.LFB4> <.LFE3>
    24b8:	00 80 fa    	ulnk      
    24ba:	00 00 06    	return    

000024bc <_i2c2_start>:
    24bc:	02 00 fa    	lnk       #0x2
    24be:	00 00 eb    	clr.w     w0
    24c0:	00 0f 78    	mov.w     w0, [w14]
    24c2:	16 a2 a9    	bclr.b    0x216, #0x5
    24c4:	a0 00 20    	mov.w     #0xa, w0
    24c6:	01 00 20    	mov.w     #0x0, w1
    24c8:	99 fe 07    	rcall     0x21fc <_delay_by_nop> <.L0> <.LFB0> <.LFE16> <.Letext0> <.Ltext0>
    24ca:	16 02 a8    	bset.b    0x216, #0x0
    24cc:	00 00 00    	nop       
    24ce:	07 00 37    	bra       0x24de <.L55>

000024d0 <.L57>:
    24d0:	10 00 20    	mov.w     #0x1, w0
    24d2:	01 00 20    	mov.w     #0x0, w1
    24d4:	93 fe 07    	rcall     0x21fc <_delay_by_nop> <.L0> <.LFB0> <.LFE16> <.Letext0> <.Ltext0>
    24d6:	1e 0f e8    	inc.w     [w14], [w14]
    24d8:	1e 00 78    	mov.w     [w14], w0
    24da:	f4 0f 50    	sub.w     w0, #0x14, [w15]
    24dc:	05 00 3c    	bra       GT, 0x24e8 <.L58>

000024de <.L55>:
    24de:	b0 10 80    	mov.w     0x216, w0
    24e0:	61 00 60    	and.w     w0, #0x1, w0
    24e2:	00 00 e0    	cp0.w     w0
    24e4:	f5 ff 3a    	bra       NZ, 0x24d0 <.L57>
    24e6:	01 00 37    	bra       0x24ea <.L56>

000024e8 <.L58>:
    24e8:	00 00 00    	nop       

000024ea <.L56>:
    24ea:	20 00 20    	mov.w     #0x2, w0
    24ec:	01 00 20    	mov.w     #0x0, w1
    24ee:	86 fe 07    	rcall     0x21fc <_delay_by_nop> <.L0> <.LFB0> <.LFE16> <.Letext0> <.Ltext0>
    24f0:	00 80 fa    	ulnk      
    24f2:	00 00 06    	return    

000024f4 <_i2c2_restart>:
    24f4:	02 00 fa    	lnk       #0x2
    24f6:	00 00 eb    	clr.w     w0
    24f8:	00 0f 78    	mov.w     w0, [w14]
    24fa:	16 22 a8    	bset.b    0x216, #0x1
    24fc:	00 00 00    	nop       
    24fe:	07 00 37    	bra       0x250e <.L60>

00002500 <.L62>:
    2500:	10 00 20    	mov.w     #0x1, w0
    2502:	01 00 20    	mov.w     #0x0, w1
    2504:	7b fe 07    	rcall     0x21fc <_delay_by_nop> <.L0> <.LFB0> <.LFE16> <.Letext0> <.Ltext0>
    2506:	1e 0f e8    	inc.w     [w14], [w14]
    2508:	1e 00 78    	mov.w     [w14], w0
    250a:	f4 0f 50    	sub.w     w0, #0x14, [w15]
    250c:	05 00 3c    	bra       GT, 0x2518 <.L63>

0000250e <.L60>:
    250e:	b0 10 80    	mov.w     0x216, w0
    2510:	62 00 60    	and.w     w0, #0x2, w0
    2512:	00 00 e0    	cp0.w     w0
    2514:	f5 ff 3a    	bra       NZ, 0x2500 <.L62>
    2516:	01 00 37    	bra       0x251a <.L61>

00002518 <.L63>:
    2518:	00 00 00    	nop       

0000251a <.L61>:
    251a:	20 00 20    	mov.w     #0x2, w0
    251c:	01 00 20    	mov.w     #0x0, w1
    251e:	6e fe 07    	rcall     0x21fc <_delay_by_nop> <.L0> <.LFB0> <.LFE16> <.Letext0> <.Ltext0>
    2520:	00 80 fa    	ulnk      
    2522:	00 00 06    	return    

00002524 <_reset_i2c2_bus>:
    2524:	02 00 fa    	lnk       #0x2
    2526:	00 00 eb    	clr.w     w0
    2528:	00 0f 78    	mov.w     w0, [w14]
    252a:	16 42 a8    	bset.b    0x216, #0x2
    252c:	07 00 37    	bra       0x253c <.L65>

0000252e <.L67>:
    252e:	10 00 20    	mov.w     #0x1, w0
    2530:	01 00 20    	mov.w     #0x0, w1
    2532:	64 fe 07    	rcall     0x21fc <_delay_by_nop> <.L0> <.LFB0> <.LFE16> <.Letext0> <.Ltext0>
    2534:	1e 0f e8    	inc.w     [w14], [w14]
    2536:	1e 00 78    	mov.w     [w14], w0
    2538:	f4 0f 50    	sub.w     w0, #0x14, [w15]
    253a:	05 00 3c    	bra       GT, 0x2546 <.L68>

0000253c <.L65>:
    253c:	b0 10 80    	mov.w     0x216, w0
    253e:	64 00 60    	and.w     w0, #0x4, w0
    2540:	00 00 e0    	cp0.w     w0
    2542:	f5 ff 3a    	bra       NZ, 0x252e <.L67>
    2544:	01 00 37    	bra       0x2548 <.L66>

00002546 <.L68>:
    2546:	00 00 00    	nop       

00002548 <.L66>:
    2548:	16 62 a9    	bclr.b    0x216, #0x3
    254a:	8a 40 a9    	bclr.b    0x8a, #0x2
    254c:	18 e2 a9    	bclr.b    0x218, #0x7
    254e:	19 42 a9    	bclr.b    0x219, #0x2
    2550:	40 01 20    	mov.w     #0x14, w0
    2552:	01 00 20    	mov.w     #0x0, w1
    2554:	53 fe 07    	rcall     0x21fc <_delay_by_nop> <.L0> <.LFB0> <.LFE16> <.Letext0> <.Ltext0>
    2556:	00 80 fa    	ulnk      
    2558:	00 00 06    	return    

0000255a <_send_i2c2_byte>:
    255a:	04 00 fa    	lnk       #0x4
    255c:	10 07 98    	mov.w     w0, [w14+2]
    255e:	00 00 00    	nop       

00002560 <.L70>:
    2560:	c0 10 80    	mov.w     0x218, w0
    2562:	61 00 60    	and.w     w0, #0x1, w0
    2564:	00 00 e0    	cp0.w     w0
    2566:	fc ff 3a    	bra       NZ, 0x2560 <.L70>
    2568:	8a 40 a9    	bclr.b    0x8a, #0x2
    256a:	1e 00 90    	mov.w     [w14+2], w0
    256c:	90 10 88    	mov.w     w0, 0x212
    256e:	00 00 eb    	clr.w     w0
    2570:	00 0f 78    	mov.w     w0, [w14]
    2572:	09 00 37    	bra       0x2586 <.L71>

00002574 <.L74>:
    2574:	c1 10 80    	mov.w     0x218, w1
    2576:	00 00 24    	mov.w     #0x4000, w0
    2578:	00 80 60    	and.w     w1, w0, w0
    257a:	00 00 e0    	cp0.w     w0
    257c:	09 00 32    	bra       Z, 0x2590 <.L78>
    257e:	10 00 20    	mov.w     #0x1, w0
    2580:	01 00 20    	mov.w     #0x0, w1
    2582:	3c fe 07    	rcall     0x21fc <_delay_by_nop> <.L0> <.LFB0> <.LFE16> <.Letext0> <.Ltext0>
    2584:	1e 0f e8    	inc.w     [w14], [w14]

00002586 <.L71>:
    2586:	30 1f 20    	mov.w     #0x1f3, w0
    2588:	9e 00 78    	mov.w     [w14], w1
    258a:	80 8f 50    	sub.w     w1, w0, [w15]
    258c:	f3 ff 34    	bra       LE, 0x2574 <.L74>
    258e:	01 00 37    	bra       0x2592 <.L73>

00002590 <.L78>:
    2590:	00 00 00    	nop       

00002592 <.L73>:
    2592:	40 1f 20    	mov.w     #0x1f4, w0
    2594:	9e 00 78    	mov.w     [w14], w1
    2596:	80 8f 50    	sub.w     w1, w0, [w15]
    2598:	02 00 3a    	bra       NZ, 0x259e <.L75>
    259a:	10 c0 b3    	mov.b     #0x1, w0
    259c:	0c 00 37    	bra       0x25b6 <.L76>

0000259e <.L75>:
    259e:	c1 10 80    	mov.w     0x218, w1
    25a0:	00 00 28    	mov.w     #0x8000, w0
    25a2:	00 80 60    	and.w     w1, w0, w0
    25a4:	00 00 e0    	cp0.w     w0
    25a6:	03 00 32    	bra       Z, 0x25ae <.L77>
    25a8:	bd ff 07    	rcall     0x2524 <_reset_i2c2_bus> <.LFB16> <.LFE15>
    25aa:	10 c0 b3    	mov.b     #0x1, w0
    25ac:	04 00 37    	bra       0x25b6 <.L76>

000025ae <.L77>:
    25ae:	20 00 20    	mov.w     #0x2, w0
    25b0:	01 00 20    	mov.w     #0x0, w1
    25b2:	24 fe 07    	rcall     0x21fc <_delay_by_nop> <.L0> <.LFB0> <.LFE16> <.Letext0> <.Ltext0>
    25b4:	00 40 eb    	clr.b     w0

000025b6 <.L76>:
    25b6:	00 80 fa    	ulnk      
    25b8:	00 00 06    	return    

000025ba <_i2c2_read>:
    25ba:	04 00 fa    	lnk       #0x4
    25bc:	00 00 eb    	clr.w     w0
    25be:	00 0f 78    	mov.w     w0, [w14]
    25c0:	00 40 eb    	clr.b     w0
    25c2:	20 47 98    	mov.b     w0, [w14+2]
    25c4:	16 62 a8    	bset.b    0x216, #0x3
    25c6:	05 00 37    	bra       0x25d2 <.L80>

000025c8 <.L82>:
    25c8:	1e 0f e8    	inc.w     [w14], [w14]
    25ca:	00 7d 20    	mov.w     #0x7d0, w0
    25cc:	9e 00 78    	mov.w     [w14], w1
    25ce:	80 8f 50    	sub.w     w1, w0, [w15]
    25d0:	05 00 3c    	bra       GT, 0x25dc <.L83>

000025d2 <.L80>:
    25d2:	c0 10 80    	mov.w     0x218, w0
    25d4:	62 00 60    	and.w     w0, #0x2, w0
    25d6:	00 00 e0    	cp0.w     w0
    25d8:	f7 ff 32    	bra       Z, 0x25c8 <.L82>
    25da:	01 00 37    	bra       0x25de <.L81>

000025dc <.L83>:
    25dc:	00 00 00    	nop       

000025de <.L81>:
    25de:	80 10 80    	mov.w     0x210, w0
    25e0:	20 47 98    	mov.b     w0, [w14+2]
    25e2:	2e 40 90    	mov.b     [w14+2], w0
    25e4:	00 80 fa    	ulnk      
    25e6:	00 00 06    	return    

000025e8 <_i2c2_read_ack>:
    25e8:	04 00 fa    	lnk       #0x4
    25ea:	00 00 eb    	clr.w     w0
    25ec:	00 0f 78    	mov.w     w0, [w14]
    25ee:	00 40 eb    	clr.b     w0
    25f0:	20 47 98    	mov.b     w0, [w14+2]
    25f2:	16 62 a8    	bset.b    0x216, #0x3
    25f4:	05 00 37    	bra       0x2600 <.L85>

000025f6 <.L87>:
    25f6:	1e 0f e8    	inc.w     [w14], [w14]
    25f8:	00 7d 20    	mov.w     #0x7d0, w0
    25fa:	9e 00 78    	mov.w     [w14], w1
    25fc:	80 8f 50    	sub.w     w1, w0, [w15]
    25fe:	05 00 3c    	bra       GT, 0x260a <.L88>

00002600 <.L85>:
    2600:	c0 10 80    	mov.w     0x218, w0
    2602:	62 00 60    	and.w     w0, #0x2, w0
    2604:	00 00 e0    	cp0.w     w0
    2606:	f7 ff 32    	bra       Z, 0x25f6 <.L87>
    2608:	01 00 37    	bra       0x260c <.L86>

0000260a <.L88>:
    260a:	00 00 00    	nop       

0000260c <.L86>:
    260c:	80 10 80    	mov.w     0x210, w0
    260e:	20 47 98    	mov.b     w0, [w14+2]
    2610:	16 82 a8    	bset.b    0x216, #0x4
    2612:	a0 00 20    	mov.w     #0xa, w0
    2614:	01 00 20    	mov.w     #0x0, w1
    2616:	f2 fd 07    	rcall     0x21fc <_delay_by_nop> <.L0> <.LFB0> <.LFE16> <.Letext0> <.Ltext0>
    2618:	2e 40 90    	mov.b     [w14+2], w0
    261a:	00 80 fa    	ulnk      
    261c:	00 00 06    	return    

0000261e <_i2c2_read_nack>:
    261e:	04 00 fa    	lnk       #0x4
    2620:	00 00 eb    	clr.w     w0
    2622:	00 0f 78    	mov.w     w0, [w14]
    2624:	00 40 eb    	clr.b     w0
    2626:	20 47 98    	mov.b     w0, [w14+2]
    2628:	16 62 a8    	bset.b    0x216, #0x3
    262a:	05 00 37    	bra       0x2636 <.L90>

0000262c <.L92>:
    262c:	1e 0f e8    	inc.w     [w14], [w14]
    262e:	00 7d 20    	mov.w     #0x7d0, w0
    2630:	9e 00 78    	mov.w     [w14], w1
    2632:	80 8f 50    	sub.w     w1, w0, [w15]
    2634:	05 00 3c    	bra       GT, 0x2640 <.L93>

00002636 <.L90>:
    2636:	c0 10 80    	mov.w     0x218, w0
    2638:	62 00 60    	and.w     w0, #0x2, w0
    263a:	00 00 e0    	cp0.w     w0
    263c:	f7 ff 32    	bra       Z, 0x262c <.L92>
    263e:	01 00 37    	bra       0x2642 <.L91>

00002640 <.L93>:
    2640:	00 00 00    	nop       

00002642 <.L91>:
    2642:	80 10 80    	mov.w     0x210, w0
    2644:	20 47 98    	mov.b     w0, [w14+2]
    2646:	16 a2 a8    	bset.b    0x216, #0x5
    2648:	16 82 a8    	bset.b    0x216, #0x4
    264a:	a0 00 20    	mov.w     #0xa, w0
    264c:	01 00 20    	mov.w     #0x0, w1
    264e:	d6 fd 07    	rcall     0x21fc <_delay_by_nop> <.L0> <.LFB0> <.LFE16> <.Letext0> <.Ltext0>
    2650:	2e 40 90    	mov.b     [w14+2], w0
    2652:	00 80 fa    	ulnk      
    2654:	00 00 06    	return    

00002656 <_I2C2poll>:
    2656:	04 00 fa    	lnk       #0x4
    2658:	20 47 98    	mov.b     w0, [w14+2]
    265a:	00 40 eb    	clr.b     w0
    265c:	00 4f 78    	mov.b     w0, [w14]
    265e:	2e ff 07    	rcall     0x24bc <_i2c2_start> <.LFB14> <.LFE13>
    2660:	2e 40 90    	mov.b     [w14+2], w0
    2662:	00 00 fb    	se        w0, w0
    2664:	80 00 78    	mov.w     w0, w1
    2666:	e0 ff 2f    	mov.w     #0xfffe, w0
    2668:	00 80 60    	and.w     w1, w0, w0
    266a:	77 ff 07    	rcall     0x255a <_send_i2c2_byte> <.LFB17> <.LFE16>
    266c:	00 4f 78    	mov.b     w0, [w14]
    266e:	5a ff 07    	rcall     0x2524 <_reset_i2c2_bus> <.LFB16> <.LFE15>
    2670:	1e 40 78    	mov.b     [w14], w0
    2672:	00 04 e0    	cp0.b     w0
    2674:	02 00 3a    	bra       NZ, 0x267a <.L95>
    2676:	10 c0 b3    	mov.b     #0x1, w0
    2678:	01 00 37    	bra       0x267c <.L96>

0000267a <.L95>:
    267a:	00 40 eb    	clr.b     w0

0000267c <.L96>:
    267c:	00 80 fa    	ulnk      
    267e:	00 00 06    	return    

00002680 <_init_elecanisms>:
*/

#include "elecanisms.h"

void init_elecanisms(void) {
    2680:	00 00 fa    	lnk       #0x0
    CLKDIV = 0x0100;        // RCDIV = 001 (4MHz, div2), 
    2682:	00 10 20    	mov.w     #0x100, w0
    2684:	20 3a 88    	mov.w     w0, 0x744
                            // CPDIV = 00 (FOSC = 32MHz, FCY = 16MHz)

    // Configure all pins on the digital headers to be inputs
    D0_DIR = IN;
    2686:	d8 a2 a8    	bset.b    0x2d8, #0x5
    D1_DIR = IN;
    2688:	d8 82 a8    	bset.b    0x2d8, #0x4
    D2_DIR = IN;
    268a:	e8 82 a8    	bset.b    0x2e8, #0x4
    D3_DIR = IN;
    268c:	e8 a2 a8    	bset.b    0x2e8, #0x5
    D4_DIR = IN;
    268e:	c9 e2 a8    	bset.b    0x2c9, #0x7
    D5_DIR = IN;
    2690:	e8 62 a8    	bset.b    0x2e8, #0x3
    D6_DIR = IN;
    2692:	d9 02 a8    	bset.b    0x2d9, #0x0
    D7_DIR = IN;
    2694:	d9 62 a8    	bset.b    0x2d9, #0x3
    D8_DIR = IN;
    2696:	d9 22 a8    	bset.b    0x2d9, #0x1
    D9_DIR = IN;
    2698:	d9 42 a8    	bset.b    0x2d9, #0x2
    D10_DIR = IN;
    269a:	d8 02 a8    	bset.b    0x2d8, #0x0
    D11_DIR = IN;
    269c:	d8 22 a8    	bset.b    0x2d8, #0x1
    D12_DIR = IN;
    269e:	d8 42 a8    	bset.b    0x2d8, #0x2
    D13_DIR = IN;
    26a0:	d8 62 a8    	bset.b    0x2d8, #0x3

    // Configure all pins on the analog header to be inputs
    A0_DIR = IN;
    26a2:	c8 a2 a8    	bset.b    0x2c8, #0x5
    A1_DIR = IN;
    26a4:	c8 82 a8    	bset.b    0x2c8, #0x4
    A2_DIR = IN;
    26a6:	c8 62 a8    	bset.b    0x2c8, #0x3
    A3_DIR = IN;
    26a8:	c8 42 a8    	bset.b    0x2c8, #0x2
    A4_DIR = IN;
    26aa:	c8 22 a8    	bset.b    0x2c8, #0x1
    A5_DIR = IN;
    26ac:	c8 02 a8    	bset.b    0x2c8, #0x0

    // Make all pins digital I/Os except for A0,...,A5
    ANSB = 0x003F;
    26ae:	f0 03 20    	mov.w     #0x3f, w0
    26b0:	10 27 88    	mov.w     w0, 0x4e2
    ANSC = 0;
    26b2:	e4 24 ef    	clr.w     0x4e4
    ANSD = 0;
    26b4:	e6 24 ef    	clr.w     0x4e6
    ANSF = 0;
    26b6:	ea 24 ef    	clr.w     0x4ea
    ANSG = 0;
    26b8:	ec 24 ef    	clr.w     0x4ec

    // Configure and enable the ADC module: 
    //   set output data format to integer (FORM<1:0> = 0b00)
    //   set conversion trigger source select bits to internal counter 
    //     (SSRC<2:0> = 0b111)
    //   set auto-sample time bits to 12*TAD (SAMC<4:0> = 12)
    //   set conversion clock select bits to 64*TCY (ADCS<7:0> = 64)
    //   set initial channel selection to A0
    AD1CON1 = 0x00E0; 
    26ba:	00 0e 20    	mov.w     #0xe0, w0
    26bc:	00 19 88    	mov.w     w0, 0x320
    AD1CON2 = 0;
    26be:	22 23 ef    	clr.w     0x322
    AD1CON3 = 0x0C40;
    26c0:	00 c4 20    	mov.w     #0xc40, w0
    26c2:	20 19 88    	mov.w     w0, 0x324
    AD1CHS = A0_AN;
    26c4:	50 00 20    	mov.w     #0x5, w0
    26c6:	40 19 88    	mov.w     w0, 0x328
    AD1CON1bits.ADON = 1;
    26c8:	21 e3 a8    	bset.b    0x321, #0x7

    // Configure LED pins as outputs, set to low (off)
    LED1_DIR = OUT; LED1 = 0;
    26ca:	d8 e2 a9    	bclr.b    0x2d8, #0x7
    26cc:	dc e2 a9    	bclr.b    0x2dc, #0x7
    LED2_DIR = OUT; LED2 = 0;
    26ce:	e8 02 a9    	bclr.b    0x2e8, #0x0
    26d0:	ec 02 a9    	bclr.b    0x2ec, #0x0
    LED3_DIR = OUT; LED3 = 0;
    26d2:	e8 22 a9    	bclr.b    0x2e8, #0x1
    26d4:	ec 22 a9    	bclr.b    0x2ec, #0x1

    // Configure SW pins as inputs
    SW1_DIR = IN;
    26d6:	d1 e2 a8    	bset.b    0x2d1, #0x7
    SW2_DIR = IN;
    26d8:	d1 82 a8    	bset.b    0x2d1, #0x4
    SW3_DIR = IN;
    26da:	c9 82 a8    	bset.b    0x2c9, #0x4
}
    26dc:	00 80 fa    	ulnk      
    26de:	00 00 06    	return    

000026e0 <_read_analog>:

uint16_t read_analog(uint16_t pin_an) {
    26e0:	02 00 fa    	lnk       #0x2
    26e2:	00 0f 78    	mov.w     w0, [w14]
    AD1CHS = pin_an;
    26e4:	9e 00 78    	mov.w     [w14], w1
    26e6:	41 19 88    	mov.w     w1, 0x328
    AD1CON1bits.SAMP = 1;
    26e8:	20 23 a8    	bset.b    0x320, #0x1
    while (AD1CON1bits.DONE == 0) {}
    26ea:	00 00 00    	nop       

000026ec <.L3>:
    26ec:	00 19 80    	mov.w     0x320, w0
    26ee:	61 00 60    	and.w     w0, #0x1, w0
    26f0:	00 00 e0    	cp0.w     w0
    26f2:	fc ff 32    	bra       Z, 0x26ec <.L3>
    return ADC1BUF0;
    26f4:	00 18 80    	mov.w     0x300, w0
}
    26f6:	00 80 fa    	ulnk      
    26f8:	00 00 06    	return    

000026fa <_parity>:
    26fa:	02 00 fa    	lnk       #0x2
    26fc:	00 0f 78    	mov.w     w0, [w14]
    26fe:	1e 00 78    	mov.w     [w14], w0
    2700:	48 00 de    	lsr.w     w0, #0x8, w0
    2702:	1e 0f 68    	xor.w     w0, [w14], [w14]
    2704:	1e 00 78    	mov.w     [w14], w0
    2706:	44 00 de    	lsr.w     w0, #0x4, w0
    2708:	1e 0f 68    	xor.w     w0, [w14], [w14]
    270a:	1e 00 78    	mov.w     [w14], w0
    270c:	42 00 de    	lsr.w     w0, #0x2, w0
    270e:	1e 0f 68    	xor.w     w0, [w14], [w14]
    2710:	1e 00 78    	mov.w     [w14], w0
    2712:	00 00 d1    	lsr.w     w0, w0
    2714:	1e 0f 68    	xor.w     w0, [w14], [w14]
    2716:	1e 00 78    	mov.w     [w14], w0
    2718:	00 40 78    	mov.b     w0, w0
    271a:	61 40 60    	and.b     w0, #0x1, w0
    271c:	00 80 fa    	ulnk      
    271e:	00 00 06    	return    
Disassembly of section .isr.text:

00002720 <__T1Interrupt>:
    2720:	80 1f 78    	mov.w     w0, [w15++]
    2722:	32 00 f8    	push      0x32
    2724:	34 00 f8    	push      0x34
    2726:	10 00 20    	mov.w     #0x1, w0
    2728:	a0 01 88    	mov.w     w0, 0x34
    272a:	00 20 20    	mov.w     #0x200, w0
    272c:	90 01 88    	mov.w     w0, 0x32
    272e:	00 00 fa    	lnk       #0x0
    2730:	84 60 a9    	bclr.b    0x84, #0x3
    2732:	00 40 80    	mov.w     0x800, w0
    2734:	00 00 e9    	dec.w     w0, w0
    2736:	00 40 88    	mov.w     w0, 0x800
    2738:	00 80 fa    	ulnk      
    273a:	34 00 f9    	pop       0x34
    273c:	32 00 f9    	pop       0x32
    273e:	4f 00 78    	mov.w     [--w15], w0
    2740:	00 40 06    	retfie    
Disassembly of section .dinit:

00002742 <.dinit>:
    2742:	2c 0c 00    	nop       
    2744:	06 00 00    	nop       
    2746:	82 00 00    	nop       
    2748:	10 20 30    	bra       OV, 0x676a
    274a:	40 50 60    	and.b     w0, [--w0], [w0--]
    274c:	0c 08 00    	nop       
    274e:	20 04 00    	nop       
    2750:	80 00 00    	nop       
    2752:	00 08 00    	nop       
    2754:	0a 00 00    	nop       
    2756:	80 00 00    	nop       
    2758:	0a 08 00    	nop       
    275a:	02 00 00    	nop       
    275c:	82 00 00    	nop       
    275e:	e0 00 00    	nop       
    2760:	00 00 00    	nop       
Disassembly of section .isr:

00002762 <__DefaultInterrupt>:
    2762:	00 40 da    	break     
    2764:	00 00 fe    	reset     
