
master.elf:     file format elf32-pic30

Disassembly of section .aivt._AltADC1Interrupt:

0000012e <.aivt._AltADC1Interrupt>:
 12e:	92 36 00    	nop       
Disassembly of section .aivt._AltAddressError:

00000108 <.aivt._AltAddressError>:
 108:	92 36 00    	nop       
Disassembly of section .aivt._AltCNInterrupt:

0000013a <.aivt._AltCNInterrupt>:
 13a:	92 36 00    	nop       
Disassembly of section .aivt._AltCRCInterrupt:

0000019a <.aivt._AltCRCInterrupt>:
 19a:	92 36 00    	nop       
Disassembly of section .aivt._AltCTMUInterrupt:

000001ae <.aivt._AltCTMUInterrupt>:
 1ae:	92 36 00    	nop       
Disassembly of section .aivt._AltCompInterrupt:

00000138 <.aivt._AltCompInterrupt>:
 138:	92 36 00    	nop       
Disassembly of section .aivt._AltIC1Interrupt:

00000116 <.aivt._AltIC1Interrupt>:
 116:	92 36 00    	nop       
Disassembly of section .aivt._AltIC2Interrupt:

0000011e <.aivt._AltIC2Interrupt>:
 11e:	92 36 00    	nop       
Disassembly of section .aivt._AltIC3Interrupt:

0000015e <.aivt._AltIC3Interrupt>:
 15e:	92 36 00    	nop       
Disassembly of section .aivt._AltIC4Interrupt:

00000160 <.aivt._AltIC4Interrupt>:
 160:	92 36 00    	nop       
Disassembly of section .aivt._AltIC5Interrupt:

00000162 <.aivt._AltIC5Interrupt>:
 162:	92 36 00    	nop       
Disassembly of section .aivt._AltIC6Interrupt:

00000164 <.aivt._AltIC6Interrupt>:
 164:	92 36 00    	nop       
Disassembly of section .aivt._AltIC7Interrupt:

00000140 <.aivt._AltIC7Interrupt>:
 140:	92 36 00    	nop       
Disassembly of section .aivt._AltIC8Interrupt:

00000142 <.aivt._AltIC8Interrupt>:
 142:	92 36 00    	nop       
Disassembly of section .aivt._AltIC9Interrupt:

000001ce <.aivt._AltIC9Interrupt>:
 1ce:	92 36 00    	nop       
Disassembly of section .aivt._AltINT0Interrupt:

00000114 <.aivt._AltINT0Interrupt>:
 114:	92 36 00    	nop       
Disassembly of section .aivt._AltINT1Interrupt:

0000013c <.aivt._AltINT1Interrupt>:
 13c:	92 36 00    	nop       
Disassembly of section .aivt._AltINT2Interrupt:

0000014e <.aivt._AltINT2Interrupt>:
 14e:	92 36 00    	nop       
Disassembly of section .aivt._AltINT3Interrupt:

0000017e <.aivt._AltINT3Interrupt>:
 17e:	92 36 00    	nop       
Disassembly of section .aivt._AltINT4Interrupt:

00000180 <.aivt._AltINT4Interrupt>:
 180:	92 36 00    	nop       
Disassembly of section .aivt._AltInterrupt14:

00000130 <.aivt._AltInterrupt14>:
 130:	92 36 00    	nop       
Disassembly of section .aivt._AltInterrupt15:

00000132 <.aivt._AltInterrupt15>:
 132:	92 36 00    	nop       
Disassembly of section .aivt._AltInterrupt21:

0000013e <.aivt._AltInterrupt21>:
 13e:	92 36 00    	nop       
Disassembly of section .aivt._AltInterrupt24:

00000144 <.aivt._AltInterrupt24>:
 144:	92 36 00    	nop       
Disassembly of section .aivt._AltInterrupt34:

00000158 <.aivt._AltInterrupt34>:
 158:	92 36 00    	nop       
Disassembly of section .aivt._AltInterrupt35:

0000015a <.aivt._AltInterrupt35>:
 15a:	92 36 00    	nop       
Disassembly of section .aivt._AltInterrupt36:

0000015c <.aivt._AltInterrupt36>:
 15c:	92 36 00    	nop       
Disassembly of section .aivt._AltInterrupt4:

0000011c <.aivt._AltInterrupt4>:
 11c:	92 36 00    	nop       
Disassembly of section .aivt._AltInterrupt46:

00000170 <.aivt._AltInterrupt46>:
 170:	92 36 00    	nop       
Disassembly of section .aivt._AltInterrupt47:

00000172 <.aivt._AltInterrupt47>:
 172:	92 36 00    	nop       
Disassembly of section .aivt._AltInterrupt48:

00000174 <.aivt._AltInterrupt48>:
 174:	92 36 00    	nop       
Disassembly of section .aivt._AltInterrupt51:

0000017a <.aivt._AltInterrupt51>:
 17a:	92 36 00    	nop       
Disassembly of section .aivt._AltInterrupt52:

0000017c <.aivt._AltInterrupt52>:
 17c:	92 36 00    	nop       
Disassembly of section .aivt._AltInterrupt55:

00000182 <.aivt._AltInterrupt55>:
 182:	92 36 00    	nop       
Disassembly of section .aivt._AltInterrupt56:

00000184 <.aivt._AltInterrupt56>:
 184:	92 36 00    	nop       
Disassembly of section .aivt._AltInterrupt57:

00000186 <.aivt._AltInterrupt57>:
 186:	92 36 00    	nop       
Disassembly of section .aivt._AltInterrupt58:

00000188 <.aivt._AltInterrupt58>:
 188:	92 36 00    	nop       
Disassembly of section .aivt._AltInterrupt59:

0000018a <.aivt._AltInterrupt59>:
 18a:	92 36 00    	nop       
Disassembly of section .aivt._AltInterrupt60:

0000018c <.aivt._AltInterrupt60>:
 18c:	92 36 00    	nop       
Disassembly of section .aivt._AltInterrupt61:

0000018e <.aivt._AltInterrupt61>:
 18e:	92 36 00    	nop       
Disassembly of section .aivt._AltInterrupt63:

00000192 <.aivt._AltInterrupt63>:
 192:	92 36 00    	nop       
Disassembly of section .aivt._AltInterrupt64:

00000194 <.aivt._AltInterrupt64>:
 194:	92 36 00    	nop       
Disassembly of section .aivt._AltInterrupt68:

0000019c <.aivt._AltInterrupt68>:
 19c:	92 36 00    	nop       
Disassembly of section .aivt._AltInterrupt69:

0000019e <.aivt._AltInterrupt69>:
 19e:	92 36 00    	nop       
Disassembly of section .aivt._AltInterrupt70:

000001a0 <.aivt._AltInterrupt70>:
 1a0:	92 36 00    	nop       
Disassembly of section .aivt._AltInterrupt71:

000001a2 <.aivt._AltInterrupt71>:
 1a2:	92 36 00    	nop       
Disassembly of section .aivt._AltInterrupt73:

000001a6 <.aivt._AltInterrupt73>:
 1a6:	92 36 00    	nop       
Disassembly of section .aivt._AltInterrupt74:

000001a8 <.aivt._AltInterrupt74>:
 1a8:	92 36 00    	nop       
Disassembly of section .aivt._AltInterrupt75:

000001aa <.aivt._AltInterrupt75>:
 1aa:	92 36 00    	nop       
Disassembly of section .aivt._AltInterrupt76:

000001ac <.aivt._AltInterrupt76>:
 1ac:	92 36 00    	nop       
Disassembly of section .aivt._AltInterrupt78:

000001b0 <.aivt._AltInterrupt78>:
 1b0:	92 36 00    	nop       
Disassembly of section .aivt._AltInterrupt79:

000001b2 <.aivt._AltInterrupt79>:
 1b2:	92 36 00    	nop       
Disassembly of section .aivt._AltInterrupt80:

000001b4 <.aivt._AltInterrupt80>:
 1b4:	92 36 00    	nop       
Disassembly of section .aivt._AltLVDInterrupt:

000001a4 <.aivt._AltLVDInterrupt>:
 1a4:	92 36 00    	nop       
Disassembly of section .aivt._AltMI2C1Interrupt:

00000136 <.aivt._AltMI2C1Interrupt>:
 136:	92 36 00    	nop       
Disassembly of section .aivt._AltMI2C2Interrupt:

00000178 <.aivt._AltMI2C2Interrupt>:
 178:	92 36 00    	nop       
Disassembly of section .aivt._AltMI2C3Interrupt:

000001be <.aivt._AltMI2C3Interrupt>:
 1be:	92 36 00    	nop       
Disassembly of section .aivt._AltMathError:

0000010c <.aivt._AltMathError>:
 10c:	92 36 00    	nop       
Disassembly of section .aivt._AltOC1Interrupt:

00000118 <.aivt._AltOC1Interrupt>:
 118:	92 36 00    	nop       
Disassembly of section .aivt._AltOC2Interrupt:

00000120 <.aivt._AltOC2Interrupt>:
 120:	92 36 00    	nop       
Disassembly of section .aivt._AltOC3Interrupt:

00000146 <.aivt._AltOC3Interrupt>:
 146:	92 36 00    	nop       
Disassembly of section .aivt._AltOC4Interrupt:

00000148 <.aivt._AltOC4Interrupt>:
 148:	92 36 00    	nop       
Disassembly of section .aivt._AltOC5Interrupt:

00000166 <.aivt._AltOC5Interrupt>:
 166:	92 36 00    	nop       
Disassembly of section .aivt._AltOC6Interrupt:

00000168 <.aivt._AltOC6Interrupt>:
 168:	92 36 00    	nop       
Disassembly of section .aivt._AltOC7Interrupt:

0000016a <.aivt._AltOC7Interrupt>:
 16a:	92 36 00    	nop       
Disassembly of section .aivt._AltOC8Interrupt:

0000016c <.aivt._AltOC8Interrupt>:
 16c:	92 36 00    	nop       
Disassembly of section .aivt._AltOC9Interrupt:

000001cc <.aivt._AltOC9Interrupt>:
 1cc:	92 36 00    	nop       
Disassembly of section .aivt._AltOscillatorFail:

00000106 <.aivt._AltOscillatorFail>:
 106:	92 36 00    	nop       
Disassembly of section .aivt._AltPMPInterrupt:

0000016e <.aivt._AltPMPInterrupt>:
 16e:	92 36 00    	nop       
Disassembly of section .aivt._AltRTCCInterrupt:

00000190 <.aivt._AltRTCCInterrupt>:
 190:	92 36 00    	nop       
Disassembly of section .aivt._AltReservedTrap0:

00000104 <.aivt._AltReservedTrap0>:
 104:	92 36 00    	nop       
Disassembly of section .aivt._AltReservedTrap5:

0000010e <.aivt._AltReservedTrap5>:
 10e:	92 36 00    	nop       
Disassembly of section .aivt._AltReservedTrap6:

00000110 <.aivt._AltReservedTrap6>:
 110:	92 36 00    	nop       
Disassembly of section .aivt._AltReservedTrap7:

00000112 <.aivt._AltReservedTrap7>:
 112:	92 36 00    	nop       
Disassembly of section .aivt._AltSI2C1Interrupt:

00000134 <.aivt._AltSI2C1Interrupt>:
 134:	92 36 00    	nop       
Disassembly of section .aivt._AltSI2C2Interrupt:

00000176 <.aivt._AltSI2C2Interrupt>:
 176:	92 36 00    	nop       
Disassembly of section .aivt._AltSI2C3Interrupt:

000001bc <.aivt._AltSI2C3Interrupt>:
 1bc:	92 36 00    	nop       
Disassembly of section .aivt._AltSPI1ErrInterrupt:

00000126 <.aivt._AltSPI1ErrInterrupt>:
 126:	92 36 00    	nop       
Disassembly of section .aivt._AltSPI1Interrupt:

00000128 <.aivt._AltSPI1Interrupt>:
 128:	92 36 00    	nop       
Disassembly of section .aivt._AltSPI2ErrInterrupt:

00000154 <.aivt._AltSPI2ErrInterrupt>:
 154:	92 36 00    	nop       
Disassembly of section .aivt._AltSPI2Interrupt:

00000156 <.aivt._AltSPI2Interrupt>:
 156:	92 36 00    	nop       
Disassembly of section .aivt._AltSPI3ErrInterrupt:

000001c8 <.aivt._AltSPI3ErrInterrupt>:
 1c8:	92 36 00    	nop       
Disassembly of section .aivt._AltSPI3Interrupt:

000001ca <.aivt._AltSPI3Interrupt>:
 1ca:	92 36 00    	nop       
Disassembly of section .aivt._AltStackError:

0000010a <.aivt._AltStackError>:
 10a:	92 36 00    	nop       
Disassembly of section .aivt._AltT1Interrupt:

0000011a <.aivt._AltT1Interrupt>:
 11a:	92 36 00    	nop       
Disassembly of section .aivt._AltT2Interrupt:

00000122 <.aivt._AltT2Interrupt>:
 122:	92 36 00    	nop       
Disassembly of section .aivt._AltT3Interrupt:

00000124 <.aivt._AltT3Interrupt>:
 124:	92 36 00    	nop       
Disassembly of section .aivt._AltT4Interrupt:

0000014a <.aivt._AltT4Interrupt>:
 14a:	92 36 00    	nop       
Disassembly of section .aivt._AltT5Interrupt:

0000014c <.aivt._AltT5Interrupt>:
 14c:	92 36 00    	nop       
Disassembly of section .aivt._AltU1ErrInterrupt:

00000196 <.aivt._AltU1ErrInterrupt>:
 196:	92 36 00    	nop       
Disassembly of section .aivt._AltU1RXInterrupt:

0000012a <.aivt._AltU1RXInterrupt>:
 12a:	92 36 00    	nop       
Disassembly of section .aivt._AltU1TXInterrupt:

0000012c <.aivt._AltU1TXInterrupt>:
 12c:	92 36 00    	nop       
Disassembly of section .aivt._AltU2ErrInterrupt:

00000198 <.aivt._AltU2ErrInterrupt>:
 198:	92 36 00    	nop       
Disassembly of section .aivt._AltU2RXInterrupt:

00000150 <.aivt._AltU2RXInterrupt>:
 150:	92 36 00    	nop       
Disassembly of section .aivt._AltU2TXInterrupt:

00000152 <.aivt._AltU2TXInterrupt>:
 152:	92 36 00    	nop       
Disassembly of section .aivt._AltU3ErrInterrupt:

000001b6 <.aivt._AltU3ErrInterrupt>:
 1b6:	92 36 00    	nop       
Disassembly of section .aivt._AltU3RXInterrupt:

000001b8 <.aivt._AltU3RXInterrupt>:
 1b8:	92 36 00    	nop       
Disassembly of section .aivt._AltU3TXInterrupt:

000001ba <.aivt._AltU3TXInterrupt>:
 1ba:	92 36 00    	nop       
Disassembly of section .aivt._AltU4ErrInterrupt:

000001c2 <.aivt._AltU4ErrInterrupt>:
 1c2:	92 36 00    	nop       
Disassembly of section .aivt._AltU4RXInterrupt:

000001c4 <.aivt._AltU4RXInterrupt>:
 1c4:	92 36 00    	nop       
Disassembly of section .aivt._AltU4TXInterrupt:

000001c6 <.aivt._AltU4TXInterrupt>:
 1c6:	92 36 00    	nop       
Disassembly of section .aivt._AltUSB1Interrupt:

000001c0 <.aivt._AltUSB1Interrupt>:
 1c0:	92 36 00    	nop       
Disassembly of section .reset:

00000000 <.reset>:
   0:	10 11 04    	goto      0x1110 <__reset>
   2:	00 00 00 
Disassembly of section .text:

00001110 <__reset>:
    1110:	6f 10 21    	mov.w     #0x1106, w15
    1112:	0e ff 27    	mov.w     #0x7ff0, w14
    1114:	0e 01 88    	mov.w     w14, 0x20
    1116:	00 00 00    	nop       
    1118:	00 00 20    	mov.w     #0x0, w0
    111a:	00 00 e0    	cp0.w     w0
    111c:	02 00 32    	bra       Z, 0x1122 <CORCON_RESET>
    111e:	00 01 20    	mov.w     #0x10, w0
    1120:	20 02 88    	mov.w     w0, 0x44

00001122 <CORCON_RESET>:
    1122:	14 00 07    	rcall     0x114c <__psv_init>
    1124:	81 00 07    	rcall     0x1228 <__crt_start_mode> <__crt_start_mode_normal>
    1126:	00 00 e0    	cp0.w     w0
    1128:	03 00 3a    	bra       NZ, 0x1130 <L11>
    112a:	a0 60 23    	mov.w     #0x360a, w0
    112c:	01 00 20    	mov.w     #0x0, w1
    112e:	02 00 37    	bra       0x1134 <L21>

00001130 <L11>:
    1130:	00 00 20    	mov.w     #0x0, w0
    1132:	01 00 20    	mov.w     #0x0, w1

00001134 <L21>:
    1134:	81 0f 70    	ior.w     w0, w1, [w15]
    1136:	01 00 32    	bra       Z, 0x113a <L12>
    1138:	14 00 07    	rcall     0x1162 <__data_init> <__data_init_da>

0000113a <L12>:
    113a:	00 00 20    	mov.w     #0x0, w0
    113c:	00 00 e0    	cp0.w     w0
    113e:	02 00 32    	bra       Z, 0x1144 <L13>
    1140:	00 00 02    	call      0x0 <__DEFAULT_VECTOR-0x110c>
    1142:	00 00 00 

00001144 <L13>:
    1144:	e6 20 02    	call      0x20e6 <_main>
    1146:	00 00 00 
    1148:	00 40 da    	break     
    114a:	00 00 fe    	reset     

0000114c <__psv_init>:
    114c:	44 40 a9    	bclr.b    0x44, #0x2
    114e:	80 14 20    	mov.w     #0x148, w0
    1150:	00 00 e0    	cp0.w     w0
    1152:	03 00 32    	bra       Z, 0x115a <L14>
    1154:	00 20 20    	mov.w     #0x200, w0
    1156:	90 01 88    	mov.w     w0, 0x32
    1158:	44 40 a8    	bset.b    0x44, #0x2

0000115a <L14>:
    115a:	00 00 06    	return    

0000115c <__long_indirect_call>:
    115c:	8a 1f 78    	mov.w     w10, [w15++]
    115e:	8b 1f 78    	mov.w     w11, [w15++]
    1160:	00 00 06    	return    

00001162 <__data_init>:
    1162:	a1 02 88    	mov.w     w1, 0x54
    1164:	80 04 78    	mov.w     w0, w9
    1166:	00 00 eb    	clr.w     w0
    1168:	1f 00 37    	bra       0x11a8 <L41>

0000116a <L11>:
    116a:	e2 84 44    	add.w     w9, #0x2, w9
    116c:	54 a0 b4    	addc.w    0x54
    116e:	99 05 ba    	tblrdl.w  [w9], w11
    1170:	e2 84 44    	add.w     w9, #0x2, w9
    1172:	54 a0 b4    	addc.w    0x54
    1174:	99 06 ba    	tblrdl.w  [w9], w13
    1176:	e2 84 44    	add.w     w9, #0x2, w9
    1178:	54 a0 b4    	addc.w    0x54
    117a:	00 06 eb    	clr.w     w12
    117c:	47 6f de    	lsr.w     w13, #0x7, w14
    117e:	fd 07 b2    	and.w     #0x7f, w13
    1180:	ae 01 88    	mov.w     w14, 0x34
    1182:	63 6c e1    	cp.b      w13, #0x3
    1184:	03 00 3a    	bra       NZ, 0x118c <L21>
    1186:	ea ff 07    	rcall     0x115c <__long_indirect_call>
    1188:	00 00 eb    	clr.w     w0
    118a:	0e 00 37    	bra       0x11a8 <L41>

0000118c <L21>:
    118c:	60 6c e1    	cp.b      w13, #0x0
    118e:	08 00 3a    	bra       NZ, 0x11a0 <L22>

00001190 <L91>:
    1190:	00 4d eb    	clr.b     [w10]
    1192:	0a 05 e8    	inc.w     w10, w10
    1194:	02 00 39    	bra       NC, 0x119a <L81>
    1196:	34 20 ec    	inc.w     0x34
    1198:	0a f0 a0    	bset.w    w10, #0xf

0000119a <L81>:
    119a:	8b 05 e9    	dec.w     w11, w11
    119c:	f9 ff 3e    	bra       GTU, 0x1190 <L91>
    119e:	04 00 37    	bra       0x11a8 <L41>

000011a0 <L22>:
    11a0:	61 68 e1    	cp.w      w13, #0x1
    11a2:	01 00 32    	bra       Z, 0x11a6 <L31>
    11a4:	00 86 eb    	setm.w    w12

000011a6 <L31>:
    11a6:	0b 00 07    	rcall     0x11be <L13> <__memcpyd3extended>

000011a8 <L41>:
    11a8:	19 c7 ba    	tblrdh.b  [w9], w14
    11aa:	19 05 ba    	tblrdl.w  [w9], w10
    11ac:	0e 04 e0    	cp0.b     w14
    11ae:	03 00 3a    	bra       NZ, 0x11b6 <L12>
    11b0:	0a 00 e0    	cp0.w     w10
    11b2:	db ff 3a    	bra       NZ, 0x116a <L11>
    11b4:	00 00 06    	return    

000011b6 <L12>:
    11b6:	fe 07 b2    	and.w     #0x7f, w14
    11b8:	ae 02 88    	mov.w     w14, 0x54
    11ba:	8a 04 78    	mov.w     w10, w9
    11bc:	f5 ff 37    	bra       0x11a8 <L41>

000011be <L13>:
    11be:	0c d0 a3    	btst.c    w12, #0xd
    11c0:	e2 0f 4d    	addc.w    w10, #0x2, [w15]
    11c2:	1c 00 39    	bra       NC, 0x11fc <L23>
    11c4:	89 02 78    	mov.w     w9, w5
    11c6:	35 4d ba    	tblrdl.b  [w5++], [w10]
    11c8:	0a 05 e8    	inc.w     w10, w10
    11ca:	02 00 39    	bra       NC, 0x11d0 <L32>
    11cc:	34 20 ec    	inc.w     0x34
    11ce:	0a f0 a0    	bset.w    w10, #0xf

000011d0 <L32>:
    11d0:	8b 05 e9    	dec.w     w11, w11
    11d2:	0f 00 32    	bra       Z, 0x11f2 <L42>
    11d4:	25 4d ba    	tblrdl.b  [w5--], [w10]
    11d6:	0a 05 e8    	inc.w     w10, w10
    11d8:	02 00 39    	bra       NC, 0x11de <L33>
    11da:	34 20 ec    	inc.w     0x34
    11dc:	0a f0 a0    	bset.w    w10, #0xf

000011de <L33>:
    11de:	8b 05 e9    	dec.w     w11, w11
    11e0:	08 00 32    	bra       Z, 0x11f2 <L42>
    11e2:	0c 00 e0    	cp0.w     w12
    11e4:	06 00 32    	bra       Z, 0x11f2 <L42>
    11e6:	15 cd ba    	tblrdh.b  [w5], [w10]
    11e8:	0a 05 e8    	inc.w     w10, w10
    11ea:	02 00 39    	bra       NC, 0x11f0 <L34>
    11ec:	34 20 ec    	inc.w     0x34
    11ee:	0a f0 a0    	bset.w    w10, #0xf

000011f0 <L34>:
    11f0:	8b 05 e9    	dec.w     w11, w11

000011f2 <L42>:
    11f2:	89 84 e8    	inc2.w    w9, w9
    11f4:	54 a0 b4    	addc.w    0x54
    11f6:	0b 00 e0    	cp0.w     w11
    11f8:	e2 ff 3a    	bra       NZ, 0x11be <L13> <__memcpyd3extended>
    11fa:	00 00 06    	return    

000011fc <L23>:
    11fc:	99 02 ba    	tblrdl.w  [w9], w5
    11fe:	05 5d 78    	mov.b     w5, [w10++]
    1200:	8b 05 e9    	dec.w     w11, w11
    1202:	f7 ff 32    	bra       Z, 0x11f2 <L42>
    1204:	c8 2a de    	lsr.w     w5, #0x8, w5
    1206:	05 5d 78    	mov.b     w5, [w10++]
    1208:	8b 05 e9    	dec.w     w11, w11
    120a:	f3 ff 32    	bra       Z, 0x11f2 <L42>
    120c:	0c 00 e0    	cp0.w     w12
    120e:	f1 ff 32    	bra       Z, 0x11f2 <L42>
    1210:	19 dd ba    	tblrdh.b  [w9], [w10++]
    1212:	ee ff 37    	bra       0x11f0 <L34>

00001214 <.handle>:
    1214:	0c 22 04    	goto      0x220c <_idle>
    1216:	00 00 00 
    1218:	46 22 04    	goto      0x2246 <_run>
    121a:	00 00 00 
    121c:	10 25 04    	goto      0x2510 <_end_fail>
    121e:	00 00 00 
    1220:	dc 25 04    	goto      0x25dc <_end_win>
    1222:	00 00 00 
    1224:	92 15 04    	goto      0x1592 <_prout>
    1226:	00 00 00 

00001228 <__crt_start_mode>:
    1228:	00 00 05    	retlw.w   #0x0, w0

0000122a <___subsf3>:
    122a:	03 f0 a2    	btg.w     w3, #0xf

0000122c <___addsf3>:
    122c:	88 9f be    	mov.d     w8, [w15++]
    122e:	8a 9f be    	mov.d     w10, [w15++]
    1230:	8c 1f 78    	mov.w     w12, [w15++]
    1232:	f6 00 07    	rcall     0x1420 <__funpack2>
    1234:	fd 00 33    	bra       N, 0x1430 <__fPropagateNaN>
    1236:	64 50 e1    	cp.w      w10, #0x4
    1238:	4f 00 32    	bra       Z, 0x12d8 <aisinfinite>

0000123a <checkspecialb>:
    123a:	64 20 e1    	cp.w      w4, #0x4
    123c:	52 00 32    	bra       Z, 0x12e2 <return2>
    123e:	03 82 6c    	xor.w     w9, w3, w4
    1240:	07 00 3b    	bra       NN, 0x1250 <getsign>
    1242:	09 05 d0    	sl.w      w9, w10
    1244:	03 06 d0    	sl.w      w3, w12
    1246:	82 0f 54    	sub.w     w8, w2, [w15]
    1248:	0c 06 5d    	subb.w    w10, w12, w12
    124a:	02 00 39    	bra       NC, 0x1250 <getsign>
    124c:	02 00 32    	bra       Z, 0x1252 <gotsign>
    124e:	89 01 78    	mov.w     w9, w3

00001250 <getsign>:
    1250:	03 06 78    	mov.w     w3, w12

00001252 <gotsign>:
    1252:	85 82 55    	sub.w     w11, w5, w5
    1254:	04 00 3d    	bra       GE, 0x125e <expcanonical>
    1256:	00 03 fd    	exch      w0, w6
    1258:	81 03 fd    	exch      w1, w7
    125a:	85 02 ea    	neg.w     w5, w5
    125c:	8b 85 42    	add.w     w5, w11, w11

0000125e <expcanonical>:
    125e:	84 0f 72    	ior.w     w4, w4, [w15]
    1260:	02 00 3b    	bra       NN, 0x1266 <nonegate>
    1262:	60 00 10    	subr.w    w0, #0x0, w0
    1264:	e0 80 18    	subbr.w   w1, #0x0, w1

00001266 <nonegate>:
    1266:	60 11 b8    	mul.uu    w2, #0x0, w2
    1268:	00 05 eb    	clr.w     w10
    126a:	7a 28 e1    	cp.w      w5, #0x1a
    126c:	0a 00 39    	bra       NC, 0x1282 <aligniter>
    126e:	06 00 78    	mov.w     w6, w0
    1270:	c7 5d dd    	sl.w      w11, #0x7, w11
    1272:	f7 07 b2    	and.w     #0x7f, w7
    1274:	87 80 75    	ior.w     w11, w7, w1
    1276:	2d 00 37    	bra       0x12d2 <signoff>

00001278 <align>:
    1278:	82 81 71    	ior.w     w3, w2, w3
    127a:	0a 01 78    	mov.w     w10, w2
    127c:	61 05 60    	and.w     w0, #0x1, w10
    127e:	81 80 d1    	asr.w     w1, w1
    1280:	00 80 d3    	rrc.w     w0, w0

00001282 <aligniter>:
    1282:	85 02 e9    	dec.w     w5, w5
    1284:	f9 ff 3b    	bra       NN, 0x1278 <align>

00001286 <aligned>:
    1286:	06 04 40    	add.w     w0, w6, w8
    1288:	87 84 48    	addc.w    w1, w7, w9
    128a:	02 00 3b    	bra       NN, 0x1290 <normalizesum>
    128c:	60 04 14    	subr.w    w8, #0x0, w8
    128e:	e0 84 1c    	subbr.w   w9, #0x0, w9

00001290 <normalizesum>:
    1290:	09 88 a3    	btst.z    w9, #0x8
    1292:	07 00 32    	bra       Z, 0x12a2 <checknormal>
    1294:	8a 81 71    	ior.w     w3, w10, w3
    1296:	82 81 71    	ior.w     w3, w2, w3
    1298:	61 01 64    	and.w     w8, #0x1, w2
    129a:	89 04 d1    	lsr.w     w9, w9
    129c:	08 84 d3    	rrc.w     w8, w8
    129e:	8b 05 e8    	inc.w     w11, w11
    12a0:	17 00 37    	bra       0x12d0 <round>

000012a2 <checknormal>:
    12a2:	09 78 a3    	btst.z    w9, #0x7
    12a4:	13 00 3a    	bra       NZ, 0x12cc <discardguard>

000012a6 <underflow>:
    12a6:	0b 00 e0    	cp0.w     w11
    12a8:	13 00 34    	bra       LE, 0x12d0 <round>
    12aa:	8b 05 e9    	dec.w     w11, w11
    12ac:	08 04 44    	add.w     w8, w8, w8
    12ae:	89 84 4c    	addc.w    w9, w9, w9
    12b0:	0a 44 74    	ior.b     w8, w10, w8
    12b2:	09 78 a3    	btst.z    w9, #0x7
    12b4:	0d 00 3a    	bra       NZ, 0x12d0 <round>

000012b6 <normalizeloop>:
    12b6:	0b 00 e0    	cp0.w     w11
    12b8:	07 00 34    	bra       LE, 0x12c8 <normalizeexit>
    12ba:	8b 05 e9    	dec.w     w11, w11
    12bc:	08 04 44    	add.w     w8, w8, w8
    12be:	89 84 4c    	addc.w    w9, w9, w9
    12c0:	01 00 3a    	bra       NZ, 0x12c4 <normalizetest>
    12c2:	0b 00 20    	mov.w     #0x0, w11

000012c4 <normalizetest>:
    12c4:	09 78 a3    	btst.z    w9, #0x7
    12c6:	f7 ff 32    	bra       Z, 0x12b6 <normalizeloop>

000012c8 <normalizeexit>:
    12c8:	00 01 eb    	clr.w     w2
    12ca:	02 00 37    	bra       0x12d0 <round>

000012cc <discardguard>:
    12cc:	82 81 71    	ior.w     w3, w2, w3
    12ce:	0a 01 78    	mov.w     w10, w2

000012d0 <round>:
    12d0:	6c 00 07    	rcall     0x13aa <__fpack>

000012d2 <signoff>:
    12d2:	0c f0 a7    	btsc.w    w12, #0xf
    12d4:	01 f0 a0    	bset.w    w1, #0xf
    12d6:	b5 00 37    	bra       0x1442 <__fbopExit>

000012d8 <aisinfinite>:
    12d8:	64 20 e1    	cp.w      w4, #0x4
    12da:	02 00 3a    	bra       NZ, 0x12e0 <return8>
    12dc:	83 8f 6c    	xor.w     w9, w3, [w15]
    12de:	b5 00 33    	bra       N, 0x144a <__fbopReturnNaN>

000012e0 <return8>:
    12e0:	08 01 be    	mov.d     w8, w2

000012e2 <return2>:
    12e2:	02 00 be    	mov.d     w2, w0
    12e4:	ae 00 37    	bra       0x1442 <__fbopExit>

000012e6 <___divsf3>:
    12e6:	88 9f be    	mov.d     w8, [w15++]
    12e8:	8a 9f be    	mov.d     w10, [w15++]
    12ea:	8c 1f 78    	mov.w     w12, [w15++]
    12ec:	99 00 07    	rcall     0x1420 <__funpack2>
    12ee:	a0 00 33    	bra       N, 0x1430 <__fPropagateNaN>
    12f0:	03 86 6c    	xor.w     w9, w3, w12
    12f2:	64 50 e1    	cp.w      w10, #0x4
    12f4:	2e 00 32    	bra       Z, 0x1352 <aisinfinite>
    12f6:	64 20 e1    	cp.w      w4, #0x4
    12f8:	33 00 32    	bra       Z, 0x1360 <returnZero>
    12fa:	61 50 e1    	cp.w      w10, #0x1
    12fc:	2f 00 32    	bra       Z, 0x135c <aiszero>
    12fe:	61 20 e1    	cp.w      w4, #0x1
    1300:	31 00 32    	bra       Z, 0x1364 <returnInf>

00001302 <finitenonzero>:
    1302:	85 85 55    	sub.w     w11, w5, w11
    1304:	eb 07 b0    	add.w     #0x7e, w11
    1306:	09 00 20    	mov.w     #0x0, w9
    1308:	08 04 20    	mov.w     #0x40, w8
    130a:	05 00 37    	bra       0x1316 <diventry>

0000130c <divnext>:
    130c:	08 04 44    	add.w     w8, w8, w8
    130e:	89 84 4c    	addc.w    w9, w9, w9
    1310:	0a 00 31    	bra       C, 0x1326 <divdone> <formsticky>

00001312 <divloop>:
    1312:	06 03 43    	add.w     w6, w6, w6
    1314:	87 83 4b    	addc.w    w7, w7, w7

00001316 <diventry>:
    1316:	00 01 53    	sub.w     w6, w0, w2
    1318:	81 81 5b    	subb.w    w7, w1, w3
    131a:	f8 ff 33    	bra       N, 0x130c <divnext>
    131c:	02 03 be    	mov.d     w2, w6
    131e:	08 00 a0    	bset.w    w8, #0x0
    1320:	08 04 44    	add.w     w8, w8, w8
    1322:	89 84 4c    	addc.w    w9, w9, w9
    1324:	f6 ff 39    	bra       NC, 0x1312 <divloop>

00001326 <divdone>:
    1326:	c6 39 dd    	sl.w      w7, #0x6, w3
    1328:	83 01 73    	ior.w     w6, w3, w3
    132a:	01 00 32    	bra       Z, 0x132e <stickyok>
    132c:	13 00 20    	mov.w     #0x1, w3

0000132e <stickyok>:
    132e:	89 04 d1    	lsr.w     w9, w9
    1330:	08 84 d3    	rrc.w     w8, w8
    1332:	09 98 a3    	btst.z    w9, #0x9
    1334:	05 00 32    	bra       Z, 0x1340 <guardused>
    1336:	08 00 a7    	btsc.w    w8, #0x0
    1338:	03 00 a0    	bset.w    w3, #0x0
    133a:	89 04 d1    	lsr.w     w9, w9
    133c:	08 84 d3    	rrc.w     w8, w8
    133e:	8b 05 e8    	inc.w     w11, w11

00001340 <guardused>:
    1340:	89 04 d1    	lsr.w     w9, w9
    1342:	08 84 d3    	rrc.w     w8, w8
    1344:	00 01 eb    	clr.w     w2
    1346:	02 81 d2    	rlc.w     w2, w2
    1348:	30 00 07    	rcall     0x13aa <__fpack>

0000134a <return0>:
    134a:	01 f0 a1    	bclr.w    w1, #0xf
    134c:	0c f0 a7    	btsc.w    w12, #0xf
    134e:	01 f0 a0    	bset.w    w1, #0xf
    1350:	78 00 37    	bra       0x1442 <__fbopExit>

00001352 <aisinfinite>:
    1352:	64 20 e1    	cp.w      w4, #0x4
    1354:	7a 00 32    	bra       Z, 0x144a <__fbopReturnNaN>

00001356 <return8>:
    1356:	08 01 be    	mov.d     w8, w2

00001358 <return2>:
    1358:	02 00 be    	mov.d     w2, w0
    135a:	f7 ff 37    	bra       0x134a <return0>

0000135c <aiszero>:
    135c:	61 20 e1    	cp.w      w4, #0x1
    135e:	75 00 32    	bra       Z, 0x144a <__fbopReturnNaN>

00001360 <returnZero>:
    1360:	60 00 b8    	mul.uu    w0, #0x0, w0
    1362:	f3 ff 37    	bra       0x134a <return0>

00001364 <returnInf>:
    1364:	00 00 20    	mov.w     #0x0, w0
    1366:	01 f8 27    	mov.w     #0x7f80, w1
    1368:	f0 ff 37    	bra       0x134a <return0>

0000136a <___eqsf2>:
    136a:	14 00 20    	mov.w     #0x1, w4
    136c:	b8 00 37    	bra       0x14de <__fcompare>

0000136e <___fixunssfsi>:
    136e:	00 01 be    	mov.d     w0, w2
    1370:	42 00 07    	rcall     0x13f6 <__funpack>
    1372:	04 70 a7    	btsc.w    w4, #0x7
    1374:	03 f0 a1    	bclr.w    w3, #0xf
    1376:	03 f8 a3    	btst.z    w3, #0xf
    1378:	13 00 3a    	bra       NZ, 0x13a0 <returnzero>
    137a:	65 09 b1    	sub.w     #0x96, w5
    137c:	10 00 32    	bra       Z, 0x139e <exit>
    137e:	09 00 35    	bra       LT, 0x1392 <shiftright>
    1380:	69 28 e1    	cp.w      w5, #0x9
    1382:	02 00 35    	bra       LT, 0x1388 <shiftleft>
    1384:	01 00 28    	mov.w     #0x8000, w1
    1386:	00 00 05    	retlw.w   #0x0, w0

00001388 <shiftleft>:
    1388:	00 00 40    	add.w     w0, w0, w0
    138a:	81 80 48    	addc.w    w1, w1, w1
    138c:	85 02 e9    	dec.w     w5, w5
    138e:	fc ff 3a    	bra       NZ, 0x1388 <shiftleft>
    1390:	00 00 06    	return    

00001392 <shiftright>:
    1392:	f8 8f 42    	add.w     w5, #0x18, [w15]
    1394:	05 00 35    	bra       LT, 0x13a0 <returnzero>

00001396 <shiftrightloop>:
    1396:	81 00 d1    	lsr.w     w1, w1
    1398:	00 80 d3    	rrc.w     w0, w0
    139a:	85 02 e8    	inc.w     w5, w5
    139c:	fc ff 3a    	bra       NZ, 0x1396 <shiftrightloop>

0000139e <exit>:
    139e:	00 00 06    	return    

000013a0 <returnzero>:
    13a0:	80 00 eb    	clr.w     w1
    13a2:	00 00 05    	retlw.w   #0x0, w0

000013a4 <___floatsisf>:
    13a4:	4f 89 de    	asr.w     w1, #0xf, w2
    13a6:	82 01 78    	mov.w     w2, w3
    13a8:	b5 00 37    	bra       0x1514 <___floatdisf>

000013aa <__fpack>:
    13aa:	81 00 20    	mov.w     #0x8, w1
    13ac:	61 80 55    	sub.w     w11, #0x1, w0
    13ae:	0b 00 3d    	bra       GE, 0x13c6 <notsubnormal>
    13b0:	0b 00 20    	mov.w     #0x0, w11
    13b2:	61 fe 2f    	mov.w     #0xffe6, w1
    13b4:	01 00 e1    	cp.w      w0, w1
    13b6:	1d 00 34    	bra       LE, 0x13f2 <zerosig>

000013b8 <subnormal>:
    13b8:	82 81 71    	ior.w     w3, w2, w3
    13ba:	61 01 64    	and.w     w8, #0x1, w2
    13bc:	89 04 d1    	lsr.w     w9, w9
    13be:	08 84 d3    	rrc.w     w8, w8
    13c0:	00 00 e8    	inc.w     w0, w0
    13c2:	fa ff 3a    	bra       NZ, 0x13b8 <subnormal>
    13c4:	71 00 20    	mov.w     #0x7, w1

000013c6 <notsubnormal>:
    13c6:	61 00 64    	and.w     w8, #0x1, w0
    13c8:	03 00 70    	ior.w     w0, w3, w0
    13ca:	02 00 60    	and.w     w0, w2, w0
    13cc:	09 00 32    	bra       Z, 0x13e0 <packupandgo>
    13ce:	61 04 44    	add.w     w8, #0x1, w8
    13d0:	e0 84 4c    	addc.w    w9, #0x0, w9
    13d2:	09 88 a5    	btst.z    w9, w1
    13d4:	05 00 32    	bra       Z, 0x13e0 <packupandgo>
    13d6:	8b 05 e8    	inc.w     w11, w11
    13d8:	68 08 e1    	cp.w      w1, #0x8
    13da:	02 00 3a    	bra       NZ, 0x13e0 <packupandgo>
    13dc:	89 04 d1    	lsr.w     w9, w9
    13de:	08 84 d3    	rrc.w     w8, w8

000013e0 <packupandgo>:
    13e0:	f2 0f 20    	mov.w     #0xff, w2
    13e2:	02 58 e1    	cp.w      w11, w2
    13e4:	05 00 3d    	bra       GE, 0x13f0 <overflow>
    13e6:	c7 5d dd    	sl.w      w11, #0x7, w11
    13e8:	f9 07 b2    	and.w     #0x7f, w9
    13ea:	89 80 75    	ior.w     w11, w9, w1
    13ec:	08 00 78    	mov.w     w8, w0
    13ee:	00 00 06    	return    

000013f0 <overflow>:
    13f0:	0b f8 27    	mov.w     #0x7f80, w11

000013f2 <zerosig>:
    13f2:	8b 00 78    	mov.w     w11, w1
    13f4:	00 00 05    	retlw.w   #0x0, w0

000013f6 <__funpack>:
    13f6:	c7 0a de    	lsr.w     w1, #0x7, w5
    13f8:	f1 07 b2    	and.w     #0x7f, w1
    13fa:	f5 0f b2    	and.w     #0xff, w5
    13fc:	08 00 32    	bra       Z, 0x140e <zeroorsub>
    13fe:	e1 cf 42    	add.b     w5, #0x1, [w15]
    1400:	02 00 32    	bra       Z, 0x1406 <nanorinf>

00001402 <finitereturn>:
    1402:	01 70 a0    	bset.w    w1, #0x7
    1404:	24 00 05    	retlw.w   #0x2, w4

00001406 <nanorinf>:
    1406:	81 0f 70    	ior.w     w0, w1, [w15]
    1408:	01 00 32    	bra       Z, 0x140c <infinite>
    140a:	04 08 05    	retlw.w   #0x80, w4

0000140c <infinite>:
    140c:	44 00 05    	retlw.w   #0x4, w4

0000140e <zeroorsub>:
    140e:	81 0f 70    	ior.w     w0, w1, [w15]
    1410:	02 00 3a    	bra       NZ, 0x1416 <subnormal>
    1412:	14 00 05    	retlw.w   #0x1, w4

00001414 <normalize>:
    1414:	85 02 e9    	dec.w     w5, w5

00001416 <subnormal>:
    1416:	00 00 40    	add.w     w0, w0, w0
    1418:	81 c0 48    	addc.b    w1, w1, w1
    141a:	fc ff 3b    	bra       NN, 0x1414 <normalize>
    141c:	01 70 a0    	bset.w    w1, #0x7
    141e:	24 00 05    	retlw.w   #0x2, w4

00001420 <__funpack2>:
    1420:	00 04 be    	mov.d     w0, w8
    1422:	e9 ff 07    	rcall     0x13f6 <__funpack>
    1424:	00 03 be    	mov.d     w0, w6
    1426:	04 05 be    	mov.d     w4, w10
    1428:	02 00 be    	mov.d     w2, w0
    142a:	e5 ff 07    	rcall     0x13f6 <__funpack>
    142c:	84 4f 75    	ior.b     w10, w4, [w15]
    142e:	00 00 06    	return    

00001430 <__fPropagateNaN>:
    1430:	02 00 be    	mov.d     w2, w0
    1432:	64 50 e1    	cp.w      w10, #0x4
    1434:	05 00 36    	bra       LEU, 0x1440 <return0>
    1436:	64 20 e1    	cp.w      w4, #0x4
    1438:	02 00 36    	bra       LEU, 0x143e <return8>
    143a:	09 68 a3    	btst.z    w9, #0x6
    143c:	01 00 3a    	bra       NZ, 0x1440 <return0>

0000143e <return8>:
    143e:	08 00 be    	mov.d     w8, w0

00001440 <return0>:
    1440:	01 60 a0    	bset.w    w1, #0x6

00001442 <__fbopExit>:
    1442:	4f 06 78    	mov.w     [--w15], w12
    1444:	4f 05 be    	mov.d     [--w15], w10
    1446:	4f 04 be    	mov.d     [--w15], w8
    1448:	00 00 06    	return    

0000144a <__fbopReturnNaN>:
    144a:	f0 ff 2f    	mov.w     #0xffff, w0
    144c:	f1 ff 27    	mov.w     #0x7fff, w1
    144e:	f9 ff 37    	bra       0x1442 <__fbopExit>

00001450 <___mulsf3>:
    1450:	88 9f be    	mov.d     w8, [w15++]
    1452:	8a 9f be    	mov.d     w10, [w15++]
    1454:	8c 1f 78    	mov.w     w12, [w15++]
    1456:	e4 ff 07    	rcall     0x1420 <__funpack2>
    1458:	eb ff 33    	bra       N, 0x1430 <__fPropagateNaN>
    145a:	03 86 6c    	xor.w     w9, w3, w12
    145c:	64 50 e1    	cp.w      w10, #0x4
    145e:	24 00 32    	bra       Z, 0x14a8 <aisinfinite>
    1460:	64 20 e1    	cp.w      w4, #0x4
    1462:	27 00 32    	bra       Z, 0x14b2 <bisinfinite>
    1464:	61 50 e1    	cp.w      w10, #0x1
    1466:	22 00 32    	bra       Z, 0x14ac <return8>
    1468:	61 20 e1    	cp.w      w4, #0x1
    146a:	21 00 32    	bra       Z, 0x14ae <return2>
    146c:	8b 85 42    	add.w     w5, w11, w11
    146e:	eb 07 b1    	sub.w     #0x7e, w11
    1470:	01 34 b8    	mul.uu    w6, w1, w8
    1472:	00 3a b8    	mul.uu    w7, w0, w4
    1474:	08 04 42    	add.w     w4, w8, w8
    1476:	89 84 4a    	addc.w    w5, w9, w9
    1478:	01 3a b8    	mul.uu    w7, w1, w4
    147a:	00 30 b8    	mul.uu    w6, w0, w0
    147c:	88 80 40    	add.w     w1, w8, w1
    147e:	09 01 4a    	addc.w    w4, w9, w2
    1480:	04 00 33    	bra       N, 0x148a <formsticky>
    1482:	00 00 40    	add.w     w0, w0, w0
    1484:	81 80 48    	addc.w    w1, w1, w1
    1486:	02 01 49    	addc.w    w2, w2, w2
    1488:	8b 05 e9    	dec.w     w11, w11

0000148a <formsticky>:
    148a:	c9 09 dd    	sl.w      w1, #0x9, w3
    148c:	83 01 70    	ior.w     w0, w3, w3
    148e:	01 00 32    	bra       Z, 0x1492 <formRandSig>
    1490:	13 00 20    	mov.w     #0x1, w3

00001492 <formRandSig>:
    1492:	c8 14 de    	lsr.w     w2, #0x8, w9
    1494:	48 14 dd    	sl.w      w2, #0x8, w8
    1496:	47 09 de    	lsr.w     w1, #0x7, w2
    1498:	12 00 b2    	and.w     #0x1, w2
    149a:	c8 08 de    	lsr.w     w1, #0x8, w1
    149c:	08 84 70    	ior.w     w1, w8, w8
    149e:	85 ff 07    	rcall     0x13aa <__fpack>

000014a0 <return0>:
    14a0:	01 f0 a1    	bclr.w    w1, #0xf
    14a2:	0c f0 a7    	btsc.w    w12, #0xf
    14a4:	01 f0 a0    	bset.w    w1, #0xf
    14a6:	cd ff 37    	bra       0x1442 <__fbopExit>

000014a8 <aisinfinite>:
    14a8:	61 20 e1    	cp.w      w4, #0x1
    14aa:	cf ff 32    	bra       Z, 0x144a <__fbopReturnNaN>

000014ac <return8>:
    14ac:	08 01 be    	mov.d     w8, w2

000014ae <return2>:
    14ae:	02 00 be    	mov.d     w2, w0
    14b0:	f7 ff 37    	bra       0x14a0 <return0>

000014b2 <bisinfinite>:
    14b2:	61 50 e1    	cp.w      w10, #0x1
    14b4:	fc ff 3a    	bra       NZ, 0x14ae <return2>
    14b6:	c9 ff 37    	bra       0x144a <__fbopReturnNaN>

000014b8 <___udivsi3>:
    14b8:	60 22 b8    	mul.uu    w4, #0x0, w4
    14ba:	06 02 20    	mov.w     #0x20, w6

000014bc <nextbit>:
    14bc:	00 00 d0    	sl.w      w0, w0
    14be:	81 80 d2    	rlc.w     w1, w1
    14c0:	04 82 d2    	rlc.w     w4, w4
    14c2:	85 82 d2    	rlc.w     w5, w5
    14c4:	00 00 a0    	bset.w    w0, #0x0
    14c6:	02 02 52    	sub.w     w4, w2, w4
    14c8:	83 82 5a    	subb.w    w5, w3, w5
    14ca:	03 00 31    	bra       C, 0x14d2 <iterate>
    14cc:	02 02 42    	add.w     w4, w2, w4
    14ce:	83 82 4a    	addc.w    w5, w3, w5
    14d0:	00 00 a1    	bclr.w    w0, #0x0

000014d2 <iterate>:
    14d2:	06 03 e9    	dec.w     w6, w6
    14d4:	f3 ff 3a    	bra       NZ, 0x14bc <nextbit>
    14d6:	00 00 06    	return    

000014d8 <___umodsi3>:
    14d8:	ef ff 07    	rcall     0x14b8 <___udivsi3>
    14da:	04 00 be    	mov.d     w4, w0
    14dc:	00 00 06    	return    

000014de <__fcompare>:
    14de:	88 9f be    	mov.d     w8, [w15++]
    14e0:	8a 9f be    	mov.d     w10, [w15++]
    14e2:	84 1f 78    	mov.w     w4, [w15++]
    14e4:	9d ff 07    	rcall     0x1420 <__funpack2>
    14e6:	4f 00 78    	mov.w     [--w15], w0
    14e8:	11 00 33    	bra       N, 0x150c <exit>
    14ea:	f0 ff 2f    	mov.w     #0xffff, w0
    14ec:	83 8f 6c    	xor.w     w9, w3, [w15]
    14ee:	06 00 3b    	bra       NN, 0x14fc <comparemag>
    14f0:	04 05 65    	and.w     w10, w4, w10
    14f2:	0a 00 a7    	btsc.w    w10, #0x0
    14f4:	08 00 37    	bra       0x1506 <returnEqual>
    14f6:	09 f0 a6    	btss.w    w9, #0xf
    14f8:	10 00 20    	mov.w     #0x1, w0
    14fa:	08 00 37    	bra       0x150c <exit>

000014fc <comparemag>:
    14fc:	82 0f 54    	sub.w     w8, w2, [w15]
    14fe:	83 8f 5c    	subb.w    w9, w3, [w15]
    1500:	03 00 39    	bra       NC, 0x1508 <adjust>
    1502:	10 00 20    	mov.w     #0x1, w0
    1504:	01 00 3e    	bra       GTU, 0x1508 <adjust>

00001506 <returnEqual>:
    1506:	00 00 20    	mov.w     #0x0, w0

00001508 <adjust>:
    1508:	09 f0 a7    	btsc.w    w9, #0xf
    150a:	00 00 ea    	neg.w     w0, w0

0000150c <exit>:
    150c:	4f 05 be    	mov.d     [--w15], w10
    150e:	4f 04 be    	mov.d     [--w15], w8
    1510:	00 00 e0    	cp0.w     w0
    1512:	00 00 06    	return    

00001514 <___floatdisf>:
    1514:	88 1f 78    	mov.w     w8, [w15++]
    1516:	03 04 78    	mov.w     w3, w8
    1518:	03 00 e0    	cp0.w     w3
    151a:	07 00 3d    	bra       GE, 0x152a <notspecial>

0000151c <negative>:
    151c:	60 00 10    	subr.w    w0, #0x0, w0
    151e:	e0 80 18    	subbr.w   w1, #0x0, w1
    1520:	60 01 19    	subbr.w   w2, #0x0, w2
    1522:	e0 81 19    	subbr.w   w3, #0x0, w3
    1524:	02 00 3b    	bra       NN, 0x152a <notspecial>
    1526:	01 f0 2d    	mov.w     #0xdf00, w1
    1528:	03 00 37    	bra       0x1530 <return0>

0000152a <notspecial>:
    152a:	04 00 07    	rcall     0x1534 <___floatundisf>
    152c:	08 f0 a7    	btsc.w    w8, #0xf
    152e:	01 f0 a0    	bset.w    w1, #0xf

00001530 <return0>:
    1530:	4f 04 78    	mov.w     [--w15], w8
    1532:	00 00 06    	return    

00001534 <___floatundisf>:
    1534:	88 9f be    	mov.d     w8, [w15++]
    1536:	8a 9f be    	mov.d     w10, [w15++]
    1538:	00 82 70    	ior.w     w1, w0, w4
    153a:	04 02 71    	ior.w     w2, w4, w4
    153c:	04 82 71    	ior.w     w3, w4, w4
    153e:	26 00 32    	bra       Z, 0x158c <return0>
    1540:	00 04 be    	mov.d     w0, w8
    1542:	02 00 be    	mov.d     w2, w0
    1544:	60 11 b8    	mul.uu    w2, #0x0, w2
    1546:	6b 09 20    	mov.w     #0x96, w11
    1548:	95 02 20    	mov.w     #0x29, w5
    154a:	01 82 cf    	ff1l      w1, w4
    154c:	0a 00 39    	bra       NC, 0x1562 <fixshift>
    154e:	05 41 b1    	sub.b     #0x10, w5
    1550:	00 82 cf    	ff1l      w0, w4
    1552:	07 00 39    	bra       NC, 0x1562 <fixshift>
    1554:	05 41 b1    	sub.b     #0x10, w5
    1556:	09 82 cf    	ff1l      w9, w4
    1558:	04 00 39    	bra       NC, 0x1562 <fixshift>
    155a:	05 41 b1    	sub.b     #0x10, w5
    155c:	08 82 cf    	ff1l      w8, w4
    155e:	01 00 39    	bra       NC, 0x1562 <fixshift>
    1560:	05 41 b1    	sub.b     #0x10, w5

00001562 <fixshift>:
    1562:	05 42 52    	sub.b     w4, w5, w4
    1564:	12 00 32    	bra       Z, 0x158a <round>
    1566:	0a 00 3b    	bra       NN, 0x157c <shiftleft>

00001568 <shiftright>:
    1568:	82 81 71    	ior.w     w3, w2, w3
    156a:	61 01 64    	and.w     w8, #0x1, w2
    156c:	81 00 d1    	lsr.w     w1, w1
    156e:	00 80 d3    	rrc.w     w0, w0
    1570:	89 84 d3    	rrc.w     w9, w9
    1572:	08 84 d3    	rrc.w     w8, w8
    1574:	8b 05 e8    	inc.w     w11, w11
    1576:	04 42 e8    	inc.b     w4, w4
    1578:	f7 ff 3a    	bra       NZ, 0x1568 <shiftright>
    157a:	07 00 37    	bra       0x158a <round>

0000157c <shiftleft>:
    157c:	08 04 44    	add.w     w8, w8, w8
    157e:	89 84 4c    	addc.w    w9, w9, w9
    1580:	00 00 48    	addc.w    w0, w0, w0
    1582:	81 80 48    	addc.w    w1, w1, w1
    1584:	8b 05 e9    	dec.w     w11, w11
    1586:	04 42 e9    	dec.b     w4, w4
    1588:	f9 ff 3a    	bra       NZ, 0x157c <shiftleft>

0000158a <round>:
    158a:	0f ff 07    	rcall     0x13aa <__fpack>

0000158c <return0>:
    158c:	4f 05 be    	mov.d     [--w15], w10
    158e:	4f 04 be    	mov.d     [--w15], w8
    1590:	00 00 06    	return    

00001592 <_prout>:
    1592:	88 1f 78    	mov.w     w8, [w15++]
    1594:	02 04 78    	mov.w     w2, w8
    1596:	08 01 78    	mov.w     w8, w2
    1598:	c4 00 07    	rcall     0x1722 <_memcpy>
    159a:	08 00 40    	add.w     w0, w8, w0
    159c:	4f 04 78    	mov.w     [--w15], w8
    159e:	00 00 06    	return    

000015a0 <__sprintf_cdnopuxX>:
    15a0:	00 00 fa    	lnk       #0x0
    15a2:	88 1f 78    	mov.w     w8, [w15++]
    15a4:	00 04 78    	mov.w     w0, w8
    15a6:	ea 81 57    	sub.w     w15, #0xa, w3
    15a8:	3f b9 97    	mov.w     [w15-10], w2
    15aa:	88 00 78    	mov.w     w8, w1
    15ac:	20 59 21    	mov.w     #0x1592, w0
    15ae:	07 00 07    	rcall     0x15be <___Printf_cdnopuxX>
    15b0:	00 00 e0    	cp0.w     w0
    15b2:	02 00 35    	bra       LT, 0x15b8 <.L3>
    15b4:	80 40 eb    	clr.b     w1
    15b6:	01 74 78    	mov.b     w1, [w8+w0]

000015b8 <.L3>:
    15b8:	4f 04 78    	mov.w     [--w15], w8
    15ba:	00 80 fa    	ulnk      
    15bc:	00 00 06    	return    

000015be <___Printf_cdnopuxX>:
    15be:	62 00 fa    	lnk       #0x62
    15c0:	88 9f be    	mov.d     w8, [w15++]
    15c2:	8a 1f 78    	mov.w     w10, [w15++]
    15c4:	00 05 78    	mov.w     w0, w10
    15c6:	81 04 78    	mov.w     w1, w9
    15c8:	02 04 78    	mov.w     w2, w8
    15ca:	83 00 78    	mov.w     w3, w1
    15cc:	80 f9 2f    	mov.w     #0xff98, w0
    15ce:	0f 00 40    	add.w     w0, w15, w0
    15d0:	77 01 07    	rcall     0x18c0 <__Vacopy>
    15d2:	9a 97 9f    	mov.w     w10, [w15-94]
    15d4:	a9 97 9f    	mov.w     w9, [w15-92]
    15d6:	00 00 eb    	clr.w     w0
    15d8:	b0 9f 9f    	mov.w     w0, [w15-74]

000015da <.L31>:
    15da:	18 85 fb    	ze        [w8], w10
    15dc:	8a 04 fb    	se        w10, w9
    15de:	0a 05 ea    	neg.w     w10, w10
    15e0:	4f 55 de    	lsr.w     w10, #0xf, w10
    15e2:	50 02 20    	mov.w     #0x25, w0
    15e4:	80 8f 54    	sub.w     w9, w0, [w15]
    15e6:	0d 00 32    	bra       Z, 0x1602 <.L3>
    15e8:	e1 0f 55    	sub.w     w10, #0x1, [w15]
    15ea:	0b 00 3a    	bra       NZ, 0x1602 <.L3>
    15ec:	0a 01 78    	mov.w     w10, w2
    15ee:	88 00 78    	mov.w     w8, w1
    15f0:	2f 90 97    	mov.w     [w15-92], w0
    15f2:	9f 91 97    	mov.w     [w15-94], w3
    15f4:	03 00 01    	call      w3
    15f6:	a0 97 9f    	mov.w     w0, [w15-92]
    15f8:	00 00 e0    	cp0.w     w0
    15fa:	8e 00 32    	bra       Z, 0x1718 <.L27>
    15fc:	3f 98 97    	mov.w     [w15-74], w0
    15fe:	00 00 e8    	inc.w     w0, w0
    1600:	b0 9f 9f    	mov.w     w0, [w15-74]

00001602 <.L3>:
    1602:	0a 04 44    	add.w     w8, w10, w8
    1604:	50 02 20    	mov.w     #0x25, w0
    1606:	80 8f 54    	sub.w     w9, w0, [w15]
    1608:	04 00 32    	bra       Z, 0x1612 <.L5>
    160a:	09 00 e0    	cp0.w     w9
    160c:	e6 ff 3a    	bra       NZ, 0x15da <.L31>
    160e:	3f 98 97    	mov.w     [w15-74], w0
    1610:	84 00 37    	bra       0x171a <.L4>

00001612 <.L5>:
    1612:	00 00 eb    	clr.w     w0
    1614:	90 9f 9f    	mov.w     w0, [w15-78]
    1616:	80 9f 9f    	mov.w     w0, [w15-80]
    1618:	f0 97 9f    	mov.w     w0, [w15-82]
    161a:	e0 97 9f    	mov.w     w0, [w15-84]
    161c:	d0 97 9f    	mov.w     w0, [w15-86]
    161e:	c0 97 9f    	mov.w     w0, [w15-88]
    1620:	07 00 37    	bra       0x1630 <.L34>

00001622 <.L8>:
    1622:	a1 0f 21    	mov.w     #0x10fa, w1
    1624:	01 00 50    	sub.w     w0, w1, w0
    1626:	00 00 40    	add.w     w0, w0, w0
    1628:	e1 0e 21    	mov.w     #0x10ee, w1
    162a:	61 00 78    	mov.w     [w1+w0], w0
    162c:	df 98 97    	mov.w     [w15-70], w1
    162e:	01 00 70    	ior.w     w0, w1, w0

00001630 <.L34>:
    1630:	d0 9f 9f    	mov.w     w0, [w15-70]
    1632:	88 04 78    	mov.w     w8, w9
    1634:	09 04 78    	mov.w     w9, w8
    1636:	38 45 78    	mov.b     [w8++], w10
    1638:	8a 00 fb    	se        w10, w1
    163a:	a0 0f 21    	mov.w     #0x10fa, w0
    163c:	79 00 07    	rcall     0x1730 <_strchr>
    163e:	00 00 e0    	cp0.w     w0
    1640:	f0 ff 3a    	bra       NZ, 0x1622 <.L8>
    1642:	a1 c2 b3    	mov.b     #0x2a, w1
    1644:	81 4f 55    	sub.b     w10, w1, [w15]
    1646:	0e 00 3a    	bra       NZ, 0x1664 <.L9>
    1648:	cf 88 97    	mov.w     [w15-104], w1
    164a:	01 80 e9    	dec2.w    w1, w0
    164c:	c0 8f 9f    	mov.w     w0, [w15-104]
    164e:	10 00 78    	mov.w     [w0], w0
    1650:	c0 9f 9f    	mov.w     w0, [w15-72]
    1652:	00 00 e0    	cp0.w     w0
    1654:	05 00 3d    	bra       GE, 0x1660 <.L10>
    1656:	00 00 ea    	neg.w     w0, w0
    1658:	c0 9f 9f    	mov.w     w0, [w15-72]
    165a:	5f 98 97    	mov.w     [w15-70], w0
    165c:	00 20 a0    	bset.w    w0, #0x2
    165e:	d0 9f 9f    	mov.w     w0, [w15-70]

00001660 <.L10>:
    1660:	09 04 e8    	inc.w     w9, w8
    1662:	0f 00 37    	bra       0x1682 <.L11>

00001664 <.L9>:
    1664:	c0 9f 9f    	mov.w     w0, [w15-72]
    1666:	00 00 eb    	clr.w     w0
    1668:	05 00 37    	bra       0x1674 <.L32>

0000166a <.L14>:
    166a:	f2 ff 27    	mov.w     #0x7fff, w2
    166c:	82 0f 50    	sub.w     w0, w2, [w15]
    166e:	02 00 32    	bra       Z, 0x1674 <.L32>
    1670:	6a 01 b9    	mul.su    w0, #0xa, w2
    1672:	02 80 40    	add.w     w1, w2, w0

00001674 <.L32>:
    1674:	09 04 78    	mov.w     w9, w8
    1676:	88 04 78    	mov.w     w8, w9
    1678:	b9 00 fb    	se        [w9++], w1
    167a:	01 03 b1    	sub.w     #0x30, w1
    167c:	e9 8f 50    	sub.w     w1, #0x9, [w15]
    167e:	f5 ff 36    	bra       LEU, 0x166a <.L14>
    1680:	c0 9f 9f    	mov.w     w0, [w15-72]

00001682 <.L11>:
    1682:	e0 c2 b3    	mov.b     #0x2e, w0
    1684:	98 4f 10    	subr.b    w0, [w8], [w15]
    1686:	02 00 32    	bra       Z, 0x168c <.L15>
    1688:	00 80 eb    	setm.w    w0
    168a:	19 00 37    	bra       0x16be <.L35>

0000168c <.L15>:
    168c:	a0 c2 b3    	mov.b     #0x2a, w0
    168e:	d8 4f 10    	subr.b    w0, [++w8], [w15]
    1690:	07 00 3a    	bra       NZ, 0x16a0 <.L17>
    1692:	cf 88 97    	mov.w     [w15-104], w1
    1694:	01 80 e9    	dec2.w    w1, w0
    1696:	c0 8f 9f    	mov.w     w0, [w15-104]
    1698:	10 00 78    	mov.w     [w0], w0
    169a:	a0 9f 9f    	mov.w     w0, [w15-76]
    169c:	08 04 e8    	inc.w     w8, w8
    169e:	10 00 37    	bra       0x16c0 <.L16>

000016a0 <.L17>:
    16a0:	00 00 eb    	clr.w     w0
    16a2:	a0 9f 9f    	mov.w     w0, [w15-76]
    16a4:	88 00 78    	mov.w     w8, w1
    16a6:	05 00 37    	bra       0x16b2 <.L33>

000016a8 <.L20>:
    16a8:	f3 ff 27    	mov.w     #0x7fff, w3
    16aa:	83 0f 50    	sub.w     w0, w3, [w15]
    16ac:	02 00 32    	bra       Z, 0x16b2 <.L33>
    16ae:	6a 02 b9    	mul.su    w0, #0xa, w4
    16b0:	04 00 41    	add.w     w2, w4, w0

000016b2 <.L33>:
    16b2:	01 04 78    	mov.w     w1, w8
    16b4:	88 00 78    	mov.w     w8, w1
    16b6:	31 01 fb    	se        [w1++], w2
    16b8:	02 03 b1    	sub.w     #0x30, w2
    16ba:	e9 0f 51    	sub.w     w2, #0x9, [w15]
    16bc:	f5 ff 36    	bra       LEU, 0x16a8 <.L20>

000016be <.L35>:
    16be:	a0 9f 9f    	mov.w     w0, [w15-76]

000016c0 <.L16>:
    16c0:	98 44 78    	mov.b     [w8], w9
    16c2:	89 00 fb    	se        w9, w1
    16c4:	60 0e 21    	mov.w     #0x10e6, w0
    16c6:	34 00 07    	rcall     0x1730 <_strchr>
    16c8:	00 00 e0    	cp0.w     w0
    16ca:	02 00 32    	bra       Z, 0x16d0 <.L25>
    16cc:	08 04 e8    	inc.w     w8, w8
    16ce:	01 00 37    	bra       0x16d2 <.L21>

000016d0 <.L25>:
    16d0:	80 44 eb    	clr.b     w9

000016d2 <.L21>:
    16d2:	c9 7f 9f    	mov.b     w9, [w15-68]
    16d4:	80 c6 b3    	mov.b     #0x68, w0
    16d6:	80 cf 54    	sub.b     w9, w0, [w15]
    16d8:	04 00 3a    	bra       NZ, 0x16e2 <.L22>
    16da:	98 cf 14    	subr.b    w9, [w8], [w15]
    16dc:	0a 00 3a    	bra       NZ, 0x16f2 <.L23>
    16de:	66 40 50    	sub.b     w0, #0x6, w0
    16e0:	06 00 37    	bra       0x16ee <.L36>

000016e2 <.L22>:
    16e2:	c0 c6 b3    	mov.b     #0x6c, w0
    16e4:	80 cf 54    	sub.b     w9, w0, [w15]
    16e6:	05 00 3a    	bra       NZ, 0x16f2 <.L23>
    16e8:	98 cf 14    	subr.b    w9, [w8], [w15]
    16ea:	03 00 3a    	bra       NZ, 0x16f2 <.L23>
    16ec:	65 40 40    	add.b     w0, #0x5, w0

000016ee <.L36>:
    16ee:	c0 7f 9f    	mov.b     w0, [w15-68]
    16f0:	08 04 e8    	inc.w     w8, w8

000016f2 <.L23>:
    16f2:	18 01 fb    	se        [w8], w2
    16f4:	e3 fb 2f    	mov.w     #0xffbe, w3
    16f6:	8f 81 41    	add.w     w3, w15, w3
    16f8:	81 f9 2f    	mov.w     #0xff98, w1
    16fa:	8f 80 40    	add.w     w1, w15, w1
    16fc:	a0 f9 2f    	mov.w     #0xff9a, w0
    16fe:	0f 00 40    	add.w     w0, w15, w0
    1700:	e1 00 07    	rcall     0x18c4 <___Putfld_cdnopuxX>
    1702:	00 00 e0    	cp0.w     w0
    1704:	09 00 3a    	bra       NZ, 0x1718 <.L27>
    1706:	e1 fb 2f    	mov.w     #0xffbe, w1
    1708:	8f 80 40    	add.w     w1, w15, w1
    170a:	a0 f9 2f    	mov.w     #0xff9a, w0
    170c:	0f 00 40    	add.w     w0, w15, w0
    170e:	1c 00 07    	rcall     0x1748 <__Puttxt>
    1710:	00 00 e0    	cp0.w     w0
    1712:	02 00 35    	bra       LT, 0x1718 <.L27>
    1714:	08 04 e8    	inc.w     w8, w8
    1716:	61 ff 37    	bra       0x15da <.L31>

00001718 <.L27>:
    1718:	00 80 eb    	setm.w    w0

0000171a <.L4>:
    171a:	4f 05 78    	mov.w     [--w15], w10
    171c:	4f 04 be    	mov.d     [--w15], w8
    171e:	00 80 fa    	ulnk      
    1720:	00 00 06    	return    

00001722 <_memcpy>:
    1722:	80 01 78    	mov.w     w0, w3
    1724:	02 00 37    	bra       0x172a <.L2>

00001726 <.L3>:
    1726:	b1 59 78    	mov.b     [w1++], [w3++]
    1728:	02 01 e9    	dec.w     w2, w2

0000172a <.L2>:
    172a:	02 00 e0    	cp0.w     w2
    172c:	fc ff 3a    	bra       NZ, 0x1726 <.L3>
    172e:	00 00 06    	return    

00001730 <_strchr>:
    1730:	02 00 37    	bra       0x1736 <.L2>

00001732 <.L4>:
    1732:	03 04 e0    	cp0.b     w3
    1734:	06 00 32    	bra       Z, 0x1742 <.L5>

00001736 <.L2>:
    1736:	00 01 78    	mov.w     w0, w2
    1738:	02 00 78    	mov.w     w2, w0
    173a:	b0 41 78    	mov.b     [w0++], w3
    173c:	81 cf 51    	sub.b     w3, w1, [w15]
    173e:	f9 ff 3a    	bra       NZ, 0x1732 <.L4>
    1740:	01 00 37    	bra       0x1744 <.L3>

00001742 <.L5>:
    1742:	00 01 eb    	clr.w     w2

00001744 <.L3>:
    1744:	02 00 78    	mov.w     w2, w0
    1746:	00 00 06    	return    

00001748 <__Puttxt>:
    1748:	04 00 fa    	lnk       #0x4
    174a:	88 9f be    	mov.d     w8, [w15++]
    174c:	8a 9f be    	mov.d     w10, [w15++]
    174e:	8c 1f 78    	mov.w     w12, [w15++]
    1750:	00 04 78    	mov.w     w0, w8
    1752:	01 06 78    	mov.w     w1, w12
    1754:	f8 0d 90    	mov.w     [w8+30], w11
    1756:	78 00 90    	mov.w     [w8+14], w0
    1758:	80 85 55    	sub.w     w11, w0, w11
    175a:	08 08 90    	mov.w     [w8+16], w0
    175c:	80 85 55    	sub.w     w11, w0, w11
    175e:	18 08 90    	mov.w     [w8+18], w0
    1760:	80 85 55    	sub.w     w11, w0, w11
    1762:	28 08 90    	mov.w     [w8+20], w0
    1764:	80 85 55    	sub.w     w11, w0, w11
    1766:	38 08 90    	mov.w     [w8+22], w0
    1768:	80 85 55    	sub.w     w11, w0, w11
    176a:	48 08 90    	mov.w     [w8+24], w0
    176c:	80 85 55    	sub.w     w11, w0, w11
    176e:	00 02 22    	mov.w     #0x2020, w0
    1770:	90 bf 9f    	mov.w     w0, [w15-14]
    1772:	00 03 23    	mov.w     #0x3030, w0
    1774:	a0 bf 9f    	mov.w     w0, [w15-12]
    1776:	08 10 90    	mov.w     [w8+32], w0
    1778:	00 28 a3    	btst.z    w0, #0x2
    177a:	15 00 3a    	bra       NZ, 0x17a6 <.L2>
    177c:	0b 00 e0    	cp0.w     w11
    177e:	13 00 34    	bra       LE, 0x17a6 <.L2>
    1780:	0b 05 78    	mov.w     w11, w10

00001782 <.L5>:
    1782:	8a 04 78    	mov.w     w10, w9
    1784:	e2 0f 55    	sub.w     w10, #0x2, [w15]
    1786:	01 00 36    	bra       LEU, 0x178a <.L3>
    1788:	29 00 20    	mov.w     #0x2, w9

0000178a <.L3>:
    178a:	c8 01 90    	mov.w     [w8+8], w3
    178c:	09 01 78    	mov.w     w9, w2
    178e:	ee 80 57    	sub.w     w15, #0xe, w1
    1790:	58 00 90    	mov.w     [w8+10], w0
    1792:	03 00 01    	call      w3
    1794:	50 04 98    	mov.w     w0, [w8+10]
    1796:	00 00 e0    	cp0.w     w0
    1798:	8c 00 32    	bra       Z, 0x18b2 <.L29>
    179a:	68 08 90    	mov.w     [w8+28], w0
    179c:	09 00 40    	add.w     w0, w9, w0
    179e:	60 0c 98    	mov.w     w0, [w8+28]
    17a0:	09 05 55    	sub.w     w10, w9, w10
    17a2:	42 40 a9    	bclr.b    0x42, #0x2
    17a4:	ee ff 3c    	bra       GT, 0x1782 <.L5>

000017a6 <.L2>:
    17a6:	78 01 90    	mov.w     [w8+14], w2
    17a8:	02 00 e0    	cp0.w     w2
    17aa:	0c 00 34    	bra       LE, 0x17c4 <.L6>
    17ac:	c8 01 90    	mov.w     [w8+8], w3
    17ae:	8c 00 78    	mov.w     w12, w1
    17b0:	58 00 90    	mov.w     [w8+10], w0
    17b2:	03 00 01    	call      w3
    17b4:	50 04 98    	mov.w     w0, [w8+10]
    17b6:	80 80 eb    	setm.w    w1
    17b8:	00 00 e0    	cp0.w     w0
    17ba:	7c 00 32    	bra       Z, 0x18b4 <.L4>
    17bc:	e8 08 90    	mov.w     [w8+28], w1
    17be:	78 00 90    	mov.w     [w8+14], w0
    17c0:	00 80 40    	add.w     w1, w0, w0
    17c2:	60 0c 98    	mov.w     w0, [w8+28]

000017c4 <.L6>:
    17c4:	88 0c 90    	mov.w     [w8+16], w9

000017c6 <.L30>:
    17c6:	09 00 e0    	cp0.w     w9
    17c8:	11 00 34    	bra       LE, 0x17ec <.L7>
    17ca:	09 05 78    	mov.w     w9, w10
    17cc:	e2 8f 54    	sub.w     w9, #0x2, [w15]
    17ce:	01 00 36    	bra       LEU, 0x17d2 <.L8>
    17d0:	2a 00 20    	mov.w     #0x2, w10

000017d2 <.L8>:
    17d2:	c8 01 90    	mov.w     [w8+8], w3
    17d4:	0a 01 78    	mov.w     w10, w2
    17d6:	ec 80 57    	sub.w     w15, #0xc, w1
    17d8:	58 00 90    	mov.w     [w8+10], w0
    17da:	03 00 01    	call      w3
    17dc:	50 04 98    	mov.w     w0, [w8+10]
    17de:	00 00 e0    	cp0.w     w0
    17e0:	68 00 32    	bra       Z, 0x18b2 <.L29>
    17e2:	68 08 90    	mov.w     [w8+28], w0
    17e4:	0a 00 40    	add.w     w0, w10, w0
    17e6:	60 0c 98    	mov.w     w0, [w8+28]
    17e8:	8a 84 54    	sub.w     w9, w10, w9
    17ea:	ed ff 37    	bra       0x17c6 <.L30>

000017ec <.L7>:
    17ec:	18 09 90    	mov.w     [w8+18], w2
    17ee:	02 00 e0    	cp0.w     w2
    17f0:	0c 00 34    	bra       LE, 0x180a <.L10>
    17f2:	c8 01 90    	mov.w     [w8+8], w3
    17f4:	e8 00 90    	mov.w     [w8+12], w1
    17f6:	58 00 90    	mov.w     [w8+10], w0
    17f8:	03 00 01    	call      w3
    17fa:	50 04 98    	mov.w     w0, [w8+10]
    17fc:	80 80 eb    	setm.w    w1
    17fe:	00 00 e0    	cp0.w     w0
    1800:	59 00 32    	bra       Z, 0x18b4 <.L4>
    1802:	e8 08 90    	mov.w     [w8+28], w1
    1804:	18 08 90    	mov.w     [w8+18], w0
    1806:	00 80 40    	add.w     w1, w0, w0
    1808:	60 0c 98    	mov.w     w0, [w8+28]

0000180a <.L10>:
    180a:	a8 0c 90    	mov.w     [w8+20], w9

0000180c <.L31>:
    180c:	09 00 e0    	cp0.w     w9
    180e:	11 00 34    	bra       LE, 0x1832 <.L11>
    1810:	09 05 78    	mov.w     w9, w10
    1812:	e2 8f 54    	sub.w     w9, #0x2, [w15]
    1814:	01 00 36    	bra       LEU, 0x1818 <.L12>
    1816:	2a 00 20    	mov.w     #0x2, w10

00001818 <.L12>:
    1818:	c8 01 90    	mov.w     [w8+8], w3
    181a:	0a 01 78    	mov.w     w10, w2
    181c:	ec 80 57    	sub.w     w15, #0xc, w1
    181e:	58 00 90    	mov.w     [w8+10], w0
    1820:	03 00 01    	call      w3
    1822:	50 04 98    	mov.w     w0, [w8+10]
    1824:	00 00 e0    	cp0.w     w0
    1826:	45 00 32    	bra       Z, 0x18b2 <.L29>
    1828:	68 08 90    	mov.w     [w8+28], w0
    182a:	0a 00 40    	add.w     w0, w10, w0
    182c:	60 0c 98    	mov.w     w0, [w8+28]
    182e:	8a 84 54    	sub.w     w9, w10, w9
    1830:	ed ff 37    	bra       0x180c <.L31>

00001832 <.L11>:
    1832:	38 09 90    	mov.w     [w8+22], w2
    1834:	02 00 e0    	cp0.w     w2
    1836:	0e 00 34    	bra       LE, 0x1854 <.L14>
    1838:	e8 00 90    	mov.w     [w8+12], w1
    183a:	18 08 90    	mov.w     [w8+18], w0
    183c:	80 80 40    	add.w     w1, w0, w1
    183e:	c8 01 90    	mov.w     [w8+8], w3
    1840:	58 00 90    	mov.w     [w8+10], w0
    1842:	03 00 01    	call      w3
    1844:	50 04 98    	mov.w     w0, [w8+10]
    1846:	80 80 eb    	setm.w    w1
    1848:	00 00 e0    	cp0.w     w0
    184a:	34 00 32    	bra       Z, 0x18b4 <.L4>
    184c:	e8 08 90    	mov.w     [w8+28], w1
    184e:	38 08 90    	mov.w     [w8+22], w0
    1850:	00 80 40    	add.w     w1, w0, w0
    1852:	60 0c 98    	mov.w     w0, [w8+28]

00001854 <.L14>:
    1854:	c8 0c 90    	mov.w     [w8+24], w9

00001856 <.L32>:
    1856:	09 00 e0    	cp0.w     w9
    1858:	11 00 34    	bra       LE, 0x187c <.L15>
    185a:	09 05 78    	mov.w     w9, w10
    185c:	e2 8f 54    	sub.w     w9, #0x2, [w15]
    185e:	01 00 36    	bra       LEU, 0x1862 <.L16>
    1860:	2a 00 20    	mov.w     #0x2, w10

00001862 <.L16>:
    1862:	c8 01 90    	mov.w     [w8+8], w3
    1864:	0a 01 78    	mov.w     w10, w2
    1866:	ec 80 57    	sub.w     w15, #0xc, w1
    1868:	58 00 90    	mov.w     [w8+10], w0
    186a:	03 00 01    	call      w3
    186c:	50 04 98    	mov.w     w0, [w8+10]
    186e:	00 00 e0    	cp0.w     w0
    1870:	20 00 32    	bra       Z, 0x18b2 <.L29>
    1872:	68 08 90    	mov.w     [w8+28], w0
    1874:	0a 00 40    	add.w     w0, w10, w0
    1876:	60 0c 98    	mov.w     w0, [w8+28]
    1878:	8a 84 54    	sub.w     w9, w10, w9
    187a:	ed ff 37    	bra       0x1856 <.L32>

0000187c <.L15>:
    187c:	08 10 90    	mov.w     [w8+32], w0
    187e:	80 00 eb    	clr.w     w1
    1880:	00 28 a3    	btst.z    w0, #0x2
    1882:	18 00 32    	bra       Z, 0x18b4 <.L4>
    1884:	0b 00 e0    	cp0.w     w11
    1886:	16 00 34    	bra       LE, 0x18b4 <.L4>
    1888:	8b 04 78    	mov.w     w11, w9

0000188a <.L19>:
    188a:	09 05 78    	mov.w     w9, w10
    188c:	e2 8f 54    	sub.w     w9, #0x2, [w15]
    188e:	01 00 36    	bra       LEU, 0x1892 <.L18>
    1890:	2a 00 20    	mov.w     #0x2, w10

00001892 <.L18>:
    1892:	c8 01 90    	mov.w     [w8+8], w3
    1894:	0a 01 78    	mov.w     w10, w2
    1896:	ee 80 57    	sub.w     w15, #0xe, w1
    1898:	58 00 90    	mov.w     [w8+10], w0
    189a:	03 00 01    	call      w3
    189c:	50 04 98    	mov.w     w0, [w8+10]
    189e:	00 00 e0    	cp0.w     w0
    18a0:	08 00 32    	bra       Z, 0x18b2 <.L29>
    18a2:	68 08 90    	mov.w     [w8+28], w0
    18a4:	0a 00 40    	add.w     w0, w10, w0
    18a6:	60 0c 98    	mov.w     w0, [w8+28]
    18a8:	8a 84 54    	sub.w     w9, w10, w9
    18aa:	42 40 a9    	bclr.b    0x42, #0x2
    18ac:	ee ff 3c    	bra       GT, 0x188a <.L19>
    18ae:	80 00 eb    	clr.w     w1
    18b0:	01 00 37    	bra       0x18b4 <.L4>

000018b2 <.L29>:
    18b2:	80 80 eb    	setm.w    w1

000018b4 <.L4>:
    18b4:	01 00 78    	mov.w     w1, w0
    18b6:	4f 06 78    	mov.w     [--w15], w12
    18b8:	4f 05 be    	mov.d     [--w15], w10
    18ba:	4f 04 be    	mov.d     [--w15], w8
    18bc:	00 80 fa    	ulnk      
    18be:	00 00 06    	return    

000018c0 <__Vacopy>:
    18c0:	01 08 78    	mov.w     w1, [w0]
    18c2:	00 00 06    	return    

000018c4 <___Putfld_cdnopuxX>:
    18c4:	88 9f be    	mov.d     w8, [w15++]
    18c6:	8a 9f be    	mov.d     w10, [w15++]
    18c8:	e4 c6 b3    	mov.b     #0x6e, w4
    18ca:	84 4f 51    	sub.b     w2, w4, [w15]
    18cc:	be 00 32    	bra       Z, 0x1a4a <.L7>
    18ce:	10 00 3c    	bra       GT, 0x18f0 <.L9>
    18d0:	6b 42 52    	sub.b     w4, #0xb, w4
    18d2:	84 4f 51    	sub.b     w2, w4, [w15]
    18d4:	18 00 32    	bra       Z, 0x1906 <.L5>
    18d6:	05 00 3c    	bra       GT, 0x18e2 <.L10>
    18d8:	54 c2 b3    	mov.b     #0x25, w4
    18da:	84 4f 51    	sub.b     w2, w4, [w15]
    18dc:	f6 00 32    	bra       Z, 0x1aca <.L3>
    18de:	84 c5 b3    	mov.b     #0x58, w4
    18e0:	0f 00 37    	bra       0x1900 <.L47>

000018e2 <.L10>:
    18e2:	44 c6 b3    	mov.b     #0x64, w4
    18e4:	84 4f 51    	sub.b     w2, w4, [w15]
    18e6:	14 00 32    	bra       Z, 0x1910 <.L6>
    18e8:	65 42 42    	add.b     w4, #0x5, w4
    18ea:	84 4f 51    	sub.b     w2, w4, [w15]
    18ec:	f1 00 3a    	bra       NZ, 0x1ad0 <.L2>
    18ee:	10 00 37    	bra       0x1910 <.L6>

000018f0 <.L9>:
    18f0:	04 c7 b3    	mov.b     #0x70, w4
    18f2:	84 4f 51    	sub.b     w2, w4, [w15]
    18f4:	dd 00 32    	bra       Z, 0x1ab0 <.L8>
    18f6:	56 00 35    	bra       LT, 0x19a4 <.L4>
    18f8:	65 42 42    	add.b     w4, #0x5, w4
    18fa:	84 4f 51    	sub.b     w2, w4, [w15]
    18fc:	53 00 32    	bra       Z, 0x19a4 <.L4>
    18fe:	63 42 42    	add.b     w4, #0x3, w4

00001900 <.L47>:
    1900:	84 4f 51    	sub.b     w2, w4, [w15]
    1902:	e6 00 3a    	bra       NZ, 0x1ad0 <.L2>
    1904:	4f 00 37    	bra       0x19a4 <.L4>

00001906 <.L5>:
    1906:	11 81 e9    	dec2.w    [w1], w2
    1908:	82 08 78    	mov.w     w2, [w1]
    190a:	f0 00 90    	mov.w     [w0+14], w1
    190c:	12 41 78    	mov.b     [w2], w2
    190e:	de 00 37    	bra       0x1acc <.L53>

00001910 <.L6>:
    1910:	20 62 90    	mov.b     [w0+34], w4
    1912:	c5 c6 b3    	mov.b     #0x6c, w5
    1914:	85 4f 52    	sub.b     w4, w5, [w15]
    1916:	07 00 3a    	bra       NZ, 0x1926 <.L12>
    1918:	91 02 78    	mov.w     [w1], w5
    191a:	64 82 52    	sub.w     w5, #0x4, w4
    191c:	84 08 78    	mov.w     w4, [w1]
    191e:	14 02 be    	mov.d     [w4], w4
    1920:	4f ab de    	asr.w     w5, #0xf, w6
    1922:	86 03 78    	mov.w     w6, w7
    1924:	14 00 37    	bra       0x194e <.L13>

00001926 <.L12>:
    1926:	15 c7 b3    	mov.b     #0x71, w5
    1928:	85 4f 52    	sub.b     w4, w5, [w15]
    192a:	03 00 3a    	bra       NZ, 0x1932 <.L14>
    192c:	11 04 78    	mov.w     [w1], w8
    192e:	68 02 54    	sub.w     w8, #0x8, w4
    1930:	05 00 37    	bra       0x193c <.L43>

00001932 <.L14>:
    1932:	a5 c6 b3    	mov.b     #0x6a, w5
    1934:	85 4f 52    	sub.b     w4, w5, [w15]
    1936:	06 00 3a    	bra       NZ, 0x1944 <.L15>
    1938:	91 04 78    	mov.w     [w1], w9
    193a:	68 82 54    	sub.w     w9, #0x8, w4

0000193c <.L43>:
    193c:	84 08 78    	mov.w     w4, [w1]
    193e:	54 03 be    	mov.d     [++w4], w6
    1940:	44 02 be    	mov.d     [--w4], w4
    1942:	05 00 37    	bra       0x194e <.L13>

00001944 <.L15>:
    1944:	11 82 e9    	dec2.w    [w1], w4
    1946:	84 08 78    	mov.w     w4, [w1]
    1948:	14 02 78    	mov.w     [w4], w4
    194a:	cf a2 de    	asr.w     w4, #0xf, w5
    194c:	61 2b b9    	mul.su    w5, #0x1, w6

0000194e <.L13>:
    194e:	04 98 be    	mov.d     w4, [w0++]
    1950:	06 90 be    	mov.d     w6, [w0--]
    1952:	a0 60 90    	mov.b     [w0+34], w1
    1954:	88 c6 b3    	mov.b     #0x68, w8
    1956:	88 cf 50    	sub.b     w1, w8, [w15]
    1958:	0d 00 32    	bra       Z, 0x1974 <.L19>
    195a:	28 c6 b3    	mov.b     #0x62, w8
    195c:	88 cf 50    	sub.b     w1, w8, [w15]
    195e:	04 00 3a    	bra       NZ, 0x1968 <.L18>
    1960:	04 02 fb    	se        w4, w4
    1962:	cf a2 de    	asr.w     w4, #0xf, w5
    1964:	61 2b b9    	mul.su    w5, #0x1, w6
    1966:	08 00 37    	bra       0x1978 <.L44>

00001968 <.L18>:
    1968:	48 c7 b3    	mov.b     #0x74, w8
    196a:	88 cf 50    	sub.b     w1, w8, [w15]
    196c:	03 00 32    	bra       Z, 0x1974 <.L19>
    196e:	66 44 44    	add.b     w8, #0x6, w8
    1970:	88 cf 50    	sub.b     w1, w8, [w15]
    1972:	04 00 3a    	bra       NZ, 0x197c <.L17>

00001974 <.L19>:
    1974:	cf a2 de    	asr.w     w4, #0xf, w5
    1976:	61 2b b9    	mul.su    w5, #0x1, w6

00001978 <.L44>:
    1978:	04 98 be    	mov.d     w4, [w0++]
    197a:	06 90 be    	mov.d     w6, [w0--]

0000197c <.L17>:
    197c:	30 02 be    	mov.d     [w0++], w4
    197e:	20 03 be    	mov.d     [w0--], w6
    1980:	f0 00 90    	mov.w     [w0+14], w1
    1982:	e0 0f 52    	sub.w     w4, #0x0, [w15]
    1984:	e0 8f 5a    	subb.w    w5, #0x0, [w15]
    1986:	e0 0f 5b    	subb.w    w6, #0x0, [w15]
    1988:	e0 8f 5b    	subb.w    w7, #0x0, [w15]
    198a:	02 00 3d    	bra       GE, 0x1990 <.L20>
    198c:	d4 c2 b3    	mov.b     #0x2d, w4
    198e:	08 00 37    	bra       0x19a0 <.L45>

00001990 <.L20>:
    1990:	00 12 90    	mov.w     [w0+32], w4
    1992:	04 18 a3    	btst.z    w4, #0x1
    1994:	02 00 32    	bra       Z, 0x199a <.L22>
    1996:	b4 c2 b3    	mov.b     #0x2b, w4
    1998:	03 00 37    	bra       0x19a0 <.L45>

0000199a <.L22>:
    199a:	04 08 a3    	btst.z    w4, #0x0
    199c:	51 00 32    	bra       Z, 0x1a40 <.L31>
    199e:	04 c2 b3    	mov.b     #0x20, w4

000019a0 <.L45>:
    19a0:	84 f1 78    	mov.b     w4, [w3+w1]
    19a2:	4c 00 37    	bra       0x1a3c <.L54>

000019a4 <.L4>:
    19a4:	20 62 90    	mov.b     [w0+34], w4
    19a6:	c5 c6 b3    	mov.b     #0x6c, w5
    19a8:	85 4f 52    	sub.b     w4, w5, [w15]
    19aa:	08 00 3a    	bra       NZ, 0x19bc <.L23>
    19ac:	11 05 78    	mov.w     [w1], w10
    19ae:	64 02 55    	sub.w     w10, #0x4, w4
    19b0:	84 08 78    	mov.w     w4, [w1]
    19b2:	14 04 be    	mov.d     [w4], w8
    19b4:	60 55 b8    	mul.uu    w10, #0x0, w10
    19b6:	08 02 be    	mov.d     w8, w4
    19b8:	0a 03 be    	mov.d     w10, w6
    19ba:	14 00 37    	bra       0x19e4 <.L24>

000019bc <.L23>:
    19bc:	15 c7 b3    	mov.b     #0x71, w5
    19be:	85 4f 52    	sub.b     w4, w5, [w15]
    19c0:	03 00 3a    	bra       NZ, 0x19c8 <.L25>
    19c2:	91 04 78    	mov.w     [w1], w9
    19c4:	68 82 54    	sub.w     w9, #0x8, w4
    19c6:	05 00 37    	bra       0x19d2 <.L48>

000019c8 <.L25>:
    19c8:	a5 c6 b3    	mov.b     #0x6a, w5
    19ca:	85 4f 52    	sub.b     w4, w5, [w15]
    19cc:	06 00 3a    	bra       NZ, 0x19da <.L26>
    19ce:	11 05 78    	mov.w     [w1], w10
    19d0:	68 02 55    	sub.w     w10, #0x8, w4

000019d2 <.L48>:
    19d2:	84 08 78    	mov.w     w4, [w1]
    19d4:	54 03 be    	mov.d     [++w4], w6
    19d6:	44 02 be    	mov.d     [--w4], w4
    19d8:	05 00 37    	bra       0x19e4 <.L24>

000019da <.L26>:
    19da:	11 82 e9    	dec2.w    [w1], w4
    19dc:	84 08 78    	mov.w     w4, [w1]
    19de:	14 02 78    	mov.w     [w4], w4
    19e0:	80 02 eb    	clr.w     w5
    19e2:	60 33 b8    	mul.uu    w6, #0x0, w6

000019e4 <.L24>:
    19e4:	04 98 be    	mov.d     w4, [w0++]
    19e6:	06 90 be    	mov.d     w6, [w0--]
    19e8:	a0 60 90    	mov.b     [w0+34], w1
    19ea:	88 c6 b3    	mov.b     #0x68, w8
    19ec:	88 cf 50    	sub.b     w1, w8, [w15]
    19ee:	0d 00 32    	bra       Z, 0x1a0a <.L30>
    19f0:	28 c6 b3    	mov.b     #0x62, w8
    19f2:	88 cf 50    	sub.b     w1, w8, [w15]
    19f4:	04 00 3a    	bra       NZ, 0x19fe <.L29>
    19f6:	04 82 fb    	ze        w4, w4
    19f8:	80 02 eb    	clr.w     w5
    19fa:	60 33 b8    	mul.uu    w6, #0x0, w6
    19fc:	08 00 37    	bra       0x1a0e <.L49>

000019fe <.L29>:
    19fe:	48 c7 b3    	mov.b     #0x74, w8
    1a00:	88 cf 50    	sub.b     w1, w8, [w15]
    1a02:	03 00 32    	bra       Z, 0x1a0a <.L30>
    1a04:	66 44 44    	add.b     w8, #0x6, w8
    1a06:	88 cf 50    	sub.b     w1, w8, [w15]
    1a08:	04 00 3a    	bra       NZ, 0x1a12 <.L28>

00001a0a <.L30>:
    1a0a:	80 02 eb    	clr.w     w5
    1a0c:	60 33 b8    	mul.uu    w6, #0x0, w6

00001a0e <.L49>:
    1a0e:	04 98 be    	mov.d     w4, [w0++]
    1a10:	06 90 be    	mov.d     w6, [w0--]

00001a12 <.L28>:
    1a12:	80 10 90    	mov.w     [w0+32], w1
    1a14:	01 38 a3    	btst.z    w1, #0x3
    1a16:	14 00 32    	bra       Z, 0x1a40 <.L31>
    1a18:	30 02 be    	mov.d     [w0++], w4
    1a1a:	20 03 be    	mov.d     [w0--], w6
    1a1c:	e0 0f 52    	sub.w     w4, #0x0, [w15]
    1a1e:	e0 8f 5a    	subb.w    w5, #0x0, [w15]
    1a20:	e0 0f 5b    	subb.w    w6, #0x0, [w15]
    1a22:	e0 8f 5b    	subb.w    w7, #0x0, [w15]
    1a24:	0d 00 32    	bra       Z, 0x1a40 <.L31>
    1a26:	81 c7 b3    	mov.b     #0x78, w1
    1a28:	81 4f 51    	sub.b     w2, w1, [w15]
    1a2a:	03 00 32    	bra       Z, 0x1a32 <.L32>
    1a2c:	81 c5 b3    	mov.b     #0x58, w1
    1a2e:	81 4f 51    	sub.b     w2, w1, [w15]
    1a30:	07 00 3a    	bra       NZ, 0x1a40 <.L31>

00001a32 <.L32>:
    1a32:	f0 00 90    	mov.w     [w0+14], w1
    1a34:	04 c3 b3    	mov.b     #0x30, w4
    1a36:	84 f1 78    	mov.b     w4, [w3+w1]
    1a38:	81 00 e8    	inc.w     w1, w1
    1a3a:	82 f1 78    	mov.b     w2, [w3+w1]

00001a3c <.L54>:
    1a3c:	81 00 e8    	inc.w     w1, w1
    1a3e:	71 00 98    	mov.w     w1, [w0+14]

00001a40 <.L31>:
    1a40:	f0 00 90    	mov.w     [w0+14], w1
    1a42:	81 81 41    	add.w     w3, w1, w3
    1a44:	63 00 98    	mov.w     w3, [w0+12]
    1a46:	82 40 78    	mov.b     w2, w1
    1a48:	3e 00 37    	bra       0x1ac6 <.L52>

00001a4a <.L7>:
    1a4a:	a0 61 90    	mov.b     [w0+34], w3
    1a4c:	c4 c6 b3    	mov.b     #0x6c, w4
    1a4e:	11 81 e9    	dec2.w    [w1], w2
    1a50:	84 cf 51    	sub.b     w3, w4, [w15]
    1a52:	22 00 32    	bra       Z, 0x1a98 <.L37>
    1a54:	0a 00 3c    	bra       GT, 0x1a6a <.L41>
    1a56:	64 42 52    	sub.b     w4, #0x4, w4
    1a58:	84 cf 51    	sub.b     w3, w4, [w15]
    1a5a:	25 00 32    	bra       Z, 0x1aa6 <.L51>
    1a5c:	04 c2 e8    	inc2.b    w4, w4
    1a5e:	84 cf 51    	sub.b     w3, w4, [w15]
    1a60:	13 00 32    	bra       Z, 0x1a88 <.L36>
    1a62:	68 42 52    	sub.b     w4, #0x8, w4
    1a64:	84 cf 51    	sub.b     w3, w4, [w15]
    1a66:	1e 00 3a    	bra       NZ, 0x1aa4 <.L33>
    1a68:	0a 00 37    	bra       0x1a7e <.L55>

00001a6a <.L41>:
    1a6a:	44 c7 b3    	mov.b     #0x74, w4
    1a6c:	84 cf 51    	sub.b     w3, w4, [w15]
    1a6e:	1b 00 32    	bra       Z, 0x1aa6 <.L51>
    1a70:	66 42 42    	add.b     w4, #0x6, w4
    1a72:	84 cf 51    	sub.b     w3, w4, [w15]
    1a74:	18 00 32    	bra       Z, 0x1aa6 <.L51>
    1a76:	69 42 52    	sub.b     w4, #0x9, w4
    1a78:	84 cf 51    	sub.b     w3, w4, [w15]
    1a7a:	14 00 3a    	bra       NZ, 0x1aa4 <.L33>
    1a7c:	05 00 37    	bra       0x1a88 <.L36>

00001a7e <.L55>:
    1a7e:	82 08 78    	mov.w     w2, [w1]
    1a80:	92 00 78    	mov.w     [w2], w1
    1a82:	40 58 90    	mov.b     [w0+28], w0
    1a84:	80 48 78    	mov.b     w0, [w1]
    1a86:	2c 00 37    	bra       0x1ae0 <.L11>

00001a88 <.L36>:
    1a88:	82 08 78    	mov.w     w2, [w1]
    1a8a:	92 00 78    	mov.w     [w2], w1
    1a8c:	60 0a 90    	mov.w     [w0+28], w4
    1a8e:	cf a2 de    	asr.w     w4, #0xf, w5
    1a90:	61 2b b9    	mul.su    w5, #0x1, w6
    1a92:	84 98 be    	mov.d     w4, [w1++]
    1a94:	86 90 be    	mov.d     w6, [w1--]
    1a96:	24 00 37    	bra       0x1ae0 <.L11>

00001a98 <.L37>:
    1a98:	82 08 78    	mov.w     w2, [w1]
    1a9a:	92 00 78    	mov.w     [w2], w1
    1a9c:	60 09 90    	mov.w     [w0+28], w2
    1a9e:	cf 91 de    	asr.w     w2, #0xf, w3
    1aa0:	82 88 be    	mov.d     w2, [w1]
    1aa2:	1e 00 37    	bra       0x1ae0 <.L11>

00001aa4 <.L33>:
    1aa4:	11 81 e9    	dec2.w    [w1], w2

00001aa6 <.L51>:
    1aa6:	82 08 78    	mov.w     w2, [w1]
    1aa8:	92 00 78    	mov.w     [w2], w1
    1aaa:	60 08 90    	mov.w     [w0+28], w0
    1aac:	80 08 78    	mov.w     w0, [w1]
    1aae:	18 00 37    	bra       0x1ae0 <.L11>

00001ab0 <.L8>:
    1ab0:	11 81 e9    	dec2.w    [w1], w2
    1ab2:	82 08 78    	mov.w     w2, [w1]
    1ab4:	12 02 78    	mov.w     [w2], w4
    1ab6:	cf a2 de    	asr.w     w4, #0xf, w5
    1ab8:	61 2b b9    	mul.su    w5, #0x1, w6
    1aba:	04 98 be    	mov.d     w4, [w0++]
    1abc:	06 90 be    	mov.d     w6, [w0--]
    1abe:	f0 00 90    	mov.w     [w0+14], w1
    1ac0:	81 81 41    	add.w     w3, w1, w3
    1ac2:	63 00 98    	mov.w     w3, [w0+12]
    1ac4:	81 c7 b3    	mov.b     #0x78, w1

00001ac6 <.L52>:
    1ac6:	10 00 07    	rcall     0x1ae8 <__Litob>
    1ac8:	0b 00 37    	bra       0x1ae0 <.L11>

00001aca <.L3>:
    1aca:	f0 00 90    	mov.w     [w0+14], w1

00001acc <.L53>:
    1acc:	82 f1 78    	mov.b     w2, [w3+w1]
    1ace:	06 00 37    	bra       0x1adc <.L50>

00001ad0 <.L2>:
    1ad0:	f0 00 90    	mov.w     [w0+14], w1
    1ad2:	81 81 41    	add.w     w3, w1, w3
    1ad4:	02 04 e0    	cp0.b     w2
    1ad6:	01 00 3a    	bra       NZ, 0x1ada <.L42>
    1ad8:	52 c2 b3    	mov.b     #0x25, w2

00001ada <.L42>:
    1ada:	82 49 78    	mov.b     w2, [w3]

00001adc <.L50>:
    1adc:	81 00 e8    	inc.w     w1, w1
    1ade:	71 00 98    	mov.w     w1, [w0+14]

00001ae0 <.L11>:
    1ae0:	00 00 eb    	clr.w     w0
    1ae2:	4f 05 be    	mov.d     [--w15], w10
    1ae4:	4f 04 be    	mov.d     [--w15], w8
    1ae6:	00 00 06    	return    

00001ae8 <__Litob>:
    1ae8:	fc 87 47    	add.w     w15, #0x1c, w15
    1aea:	88 9f be    	mov.d     w8, [w15++]
    1aec:	8a 9f be    	mov.d     w10, [w15++]
    1aee:	8c 9f be    	mov.d     w12, [w15++]
    1af0:	8e 1f 78    	mov.w     w14, [w15++]
    1af2:	00 06 78    	mov.w     w0, w12
    1af4:	80 c5 b3    	mov.b     #0x58, w0
    1af6:	80 cf 50    	sub.b     w1, w0, [w15]
    1af8:	0a 00 32    	bra       Z, 0x1b0e <.L35>
    1afa:	77 40 40    	add.b     w0, #0x17, w0
    1afc:	80 cf 50    	sub.b     w1, w0, [w15]
    1afe:	0a 00 32    	bra       Z, 0x1b14 <.L36>
    1b00:	69 40 40    	add.b     w0, #0x9, w0
    1b02:	80 cf 50    	sub.b     w1, w0, [w15]
    1b04:	0b 00 32    	bra       Z, 0x1b1c <.L37>
    1b06:	50 0d 21    	mov.w     #0x10d5, w0
    1b08:	80 bf 9f    	mov.w     w0, [w15-16]
    1b0a:	ae 00 20    	mov.w     #0xa, w14
    1b0c:	0a 00 37    	bra       0x1b22 <.L2>

00001b0e <.L35>:
    1b0e:	42 0c 21    	mov.w     #0x10c4, w2
    1b10:	82 bf 9f    	mov.w     w2, [w15-16]
    1b12:	06 00 37    	bra       0x1b20 <.L46>

00001b14 <.L36>:
    1b14:	53 0d 21    	mov.w     #0x10d5, w3
    1b16:	83 bf 9f    	mov.w     w3, [w15-16]
    1b18:	8e 00 20    	mov.w     #0x8, w14
    1b1a:	03 00 37    	bra       0x1b22 <.L2>

00001b1c <.L37>:
    1b1c:	54 0d 21    	mov.w     #0x10d5, w4
    1b1e:	84 bf 9f    	mov.w     w4, [w15-16]

00001b20 <.L46>:
    1b20:	0e 01 20    	mov.w     #0x10, w14

00001b22 <.L2>:
    1b22:	3c 02 be    	mov.d     [w12++], w4
    1b24:	2c 03 be    	mov.d     [w12--], w6
    1b26:	06 05 be    	mov.d     w6, w10
    1b28:	04 04 be    	mov.d     w4, w8
    1b2a:	40 c6 b3    	mov.b     #0x64, w0
    1b2c:	80 cf 50    	sub.b     w1, w0, [w15]
    1b2e:	03 00 32    	bra       Z, 0x1b36 <.L3>
    1b30:	65 40 40    	add.b     w0, #0x5, w0
    1b32:	80 cf 50    	sub.b     w1, w0, [w15]
    1b34:	0b 00 3a    	bra       NZ, 0x1b4c <.L4>

00001b36 <.L3>:
    1b36:	e0 0f 52    	sub.w     w4, #0x0, [w15]
    1b38:	e0 8f 5a    	subb.w    w5, #0x0, [w15]
    1b3a:	e0 0f 5b    	subb.w    w6, #0x0, [w15]
    1b3c:	e0 8f 5b    	subb.w    w7, #0x0, [w15]
    1b3e:	06 00 3d    	bra       GE, 0x1b4c <.L4>
    1b40:	60 00 b8    	mul.uu    w0, #0x0, w0
    1b42:	60 11 b8    	mul.uu    w2, #0x0, w2
    1b44:	04 04 50    	sub.w     w0, w4, w8
    1b46:	85 84 58    	subb.w    w1, w5, w9
    1b48:	06 05 59    	subb.w    w2, w6, w10
    1b4a:	87 85 59    	subb.w    w3, w7, w11

00001b4c <.L4>:
    1b4c:	e8 0f 57    	sub.w     w14, #0x8, [w15]
    1b4e:	04 00 32    	bra       Z, 0x1b58 <.L38>
    1b50:	40 00 20    	mov.w     #0x4, w0
    1b52:	f0 0f 57    	sub.w     w14, #0x10, [w15]
    1b54:	38 00 3a    	bra       NZ, 0x1bc6 <.L51>
    1b56:	01 00 37    	bra       0x1b5a <.L6>

00001b58 <.L38>:
    1b58:	30 00 20    	mov.w     #0x3, w0

00001b5a <.L6>:
    1b5a:	e0 0f 54    	sub.w     w8, #0x0, [w15]
    1b5c:	e0 8f 5c    	subb.w    w9, #0x0, [w15]
    1b5e:	e0 0f 5d    	subb.w    w10, #0x0, [w15]
    1b60:	e0 8f 5d    	subb.w    w11, #0x0, [w15]
    1b62:	04 00 3a    	bra       NZ, 0x1b6c <.L8>
    1b64:	dc 08 90    	mov.w     [w12+26], w1
    1b66:	8d 01 20    	mov.w     #0x18, w13
    1b68:	01 00 e0    	cp0.w     w1
    1b6a:	06 00 32    	bra       Z, 0x1b78 <.L9>

00001b6c <.L8>:
    1b6c:	8e 00 e9    	dec.w     w14, w1
    1b6e:	88 80 60    	and.w     w1, w8, w1
    1b70:	8f ba 97    	mov.w     [w15-16], w5
    1b72:	e5 c0 78    	mov.b     [w5+w1], w1
    1b74:	f1 ef 9f    	mov.b     w1, [w15-17]
    1b76:	7d 01 20    	mov.w     #0x17, w13

00001b78 <.L9>:
    1b78:	80 00 78    	mov.w     w0, w1

00001b7a <.LB101>:
    1b7a:	81 00 e9    	dec.w     w1, w1
    1b7c:	05 00 33    	bra       N, 0x1b88 <.LE101>
    1b7e:	8b 05 d1    	lsr.w     w11, w11
    1b80:	0a 85 d3    	rrc.w     w10, w10
    1b82:	89 84 d3    	rrc.w     w9, w9
    1b84:	08 84 d3    	rrc.w     w8, w8
    1b86:	f9 ff 37    	bra       0x1b7a <.LB101>

00001b88 <.LE101>:
    1b88:	08 9e be    	mov.d     w8, [w12++]
    1b8a:	0a 96 be    	mov.d     w10, [w12--]
    1b8c:	12 00 37    	bra       0x1bb2 <.L10>

00001b8e <.L12>:
    1b8e:	8d 06 e9    	dec.w     w13, w13
    1b90:	8e 00 e9    	dec.w     w14, w1
    1b92:	84 80 60    	and.w     w1, w4, w1
    1b94:	0f b9 97    	mov.w     [w15-16], w2
    1b96:	e2 c1 78    	mov.b     [w2+w1], w3
    1b98:	82 fd 2f    	mov.w     #0xffd8, w2
    1b9a:	0f 01 41    	add.w     w2, w15, w2
    1b9c:	03 f1 7e    	mov.b     w3, [w2+w13]
    1b9e:	80 00 78    	mov.w     w0, w1

00001ba0 <.LB115>:
    1ba0:	81 00 e9    	dec.w     w1, w1
    1ba2:	05 00 33    	bra       N, 0x1bae <.LE115>
    1ba4:	87 83 d1    	asr.w     w7, w7
    1ba6:	06 83 d3    	rrc.w     w6, w6
    1ba8:	85 82 d3    	rrc.w     w5, w5
    1baa:	04 82 d3    	rrc.w     w4, w4
    1bac:	f9 ff 37    	bra       0x1ba0 <.LB115>

00001bae <.LE115>:
    1bae:	04 9e be    	mov.d     w4, [w12++]
    1bb0:	06 96 be    	mov.d     w6, [w12--]

00001bb2 <.L10>:
    1bb2:	3c 02 be    	mov.d     [w12++], w4
    1bb4:	2c 03 be    	mov.d     [w12--], w6
    1bb6:	e0 0f 52    	sub.w     w4, #0x0, [w15]
    1bb8:	e0 8f 5a    	subb.w    w5, #0x0, [w15]
    1bba:	e0 0f 5b    	subb.w    w6, #0x0, [w15]
    1bbc:	e0 8f 5b    	subb.w    w7, #0x0, [w15]
    1bbe:	8b 00 34    	bra       LE, 0x1cd6 <.L11>
    1bc0:	0d 00 e0    	cp0.w     w13
    1bc2:	e5 ff 3c    	bra       GT, 0x1b8e <.L12>
    1bc4:	88 00 37    	bra       0x1cd6 <.L11>

00001bc6 <.L51>:
    1bc6:	2c 60 90    	mov.b     [w12+34], w0
    1bc8:	81 c6 b3    	mov.b     #0x68, w1
    1bca:	81 4f 50    	sub.b     w0, w1, [w15]
    1bcc:	0b 00 32    	bra       Z, 0x1be4 <.L14> <.Ldebug_info0>
    1bce:	06 00 3c    	bra       GT, 0x1bdc <.L16>
    1bd0:	00 04 e0    	cp0.b     w0
    1bd2:	08 00 32    	bra       Z, 0x1be4 <.L14> <.Ldebug_info0>
    1bd4:	e6 c0 50    	sub.b     w1, #0x6, w1
    1bd6:	81 4f 50    	sub.b     w0, w1, [w15]
    1bd8:	4e 00 3a    	bra       NZ, 0x1c76 <.L13>
    1bda:	04 00 37    	bra       0x1be4 <.L14> <.Ldebug_info0>

00001bdc <.L16>:
    1bdc:	c1 c6 b3    	mov.b     #0x6c, w1
    1bde:	81 4f 50    	sub.b     w0, w1, [w15]
    1be0:	4a 00 3a    	bra       NZ, 0x1c76 <.L13>
    1be2:	21 00 37    	bra       0x1c26 <.L52>

00001be4 <.L14>:
    1be4:	08 00 e0    	cp0.w     w8
    1be6:	04 00 3a    	bra       NZ, 0x1bf0 <.L17>
    1be8:	5c 08 90    	mov.w     [w12+26], w0
    1bea:	8d 01 20    	mov.w     #0x18, w13
    1bec:	00 00 e0    	cp0.w     w0
    1bee:	06 00 32    	bra       Z, 0x1bfc <.L18>

00001bf0 <.L17>:
    1bf0:	11 00 09    	repeat    #0x11
    1bf2:	0e 84 d8    	div.uw    w8, w14
    1bf4:	0f b9 97    	mov.w     [w15-16], w2
    1bf6:	e2 c0 78    	mov.b     [w2+w1], w1
    1bf8:	f1 ef 9f    	mov.b     w1, [w15-17]
    1bfa:	7d 01 20    	mov.w     #0x17, w13

00001bfc <.L18>:
    1bfc:	11 00 09    	repeat    #0x11
    1bfe:	0e 84 d8    	div.uw    w8, w14
    1c00:	0a 00 37    	bra       0x1c16 <.L47>

00001c02 <.L21>:
    1c02:	11 00 09    	repeat    #0x11
    1c04:	0e 04 d8    	div.sw    w8, w14
    1c06:	8d 06 e9    	dec.w     w13, w13
    1c08:	0e 81 b9    	mul.ss    w0, w14, w2
    1c0a:	02 04 54    	sub.w     w8, w2, w8
    1c0c:	8f b8 97    	mov.w     [w15-16], w1
    1c0e:	61 41 7c    	mov.b     [w1+w8], w2
    1c10:	81 fd 2f    	mov.w     #0xffd8, w1
    1c12:	8f 80 40    	add.w     w1, w15, w1
    1c14:	82 f0 7e    	mov.b     w2, [w1+w13]

00001c16 <.L47>:
    1c16:	00 04 78    	mov.w     w0, w8
    1c18:	08 00 e0    	cp0.w     w8
    1c1a:	02 00 32    	bra       Z, 0x1c20 <.L20>
    1c1c:	0d 00 e0    	cp0.w     w13
    1c1e:	f1 ff 3c    	bra       GT, 0x1c02 <.L21>

00001c20 <.L20>:
    1c20:	cf c4 de    	asr.w     w8, #0xf, w9
    1c22:	61 4d b9    	mul.su    w9, #0x1, w10
    1c24:	25 00 37    	bra       0x1c70 <.L50>

00001c26 <.L52>:
    1c26:	e0 0f 54    	sub.w     w8, #0x0, [w15]
    1c28:	e0 8f 5c    	subb.w    w9, #0x0, [w15]
    1c2a:	04 00 3a    	bra       NZ, 0x1c34 <.L22>
    1c2c:	5c 08 90    	mov.w     [w12+26], w0
    1c2e:	8d 01 20    	mov.w     #0x18, w13
    1c30:	00 00 e0    	cp0.w     w0
    1c32:	07 00 32    	bra       Z, 0x1c42 <.L23>

00001c34 <.L22>:
    1c34:	61 71 b9    	mul.su    w14, #0x1, w2
    1c36:	08 00 be    	mov.d     w8, w0
    1c38:	4f fc 07    	rcall     0x14d8 <___umodsi3>
    1c3a:	8f b9 97    	mov.w     [w15-16], w3
    1c3c:	e3 41 78    	mov.b     [w3+w0], w3
    1c3e:	f3 ef 9f    	mov.b     w3, [w15-17]
    1c40:	7d 01 20    	mov.w     #0x17, w13

00001c42 <.L23>:
    1c42:	61 71 b9    	mul.su    w14, #0x1, w2
    1c44:	08 00 be    	mov.d     w8, w0
    1c46:	38 fc 07    	rcall     0x14b8 <___udivsi3>
    1c48:	0b 00 37    	bra       0x1c60 <.L48>

00001c4a <.L26>:
    1c4a:	61 71 b9    	mul.su    w14, #0x1, w2
    1c4c:	08 00 be    	mov.d     w8, w0
    1c4e:	7b 00 07    	rcall     0x1d46 <___divsi3>
    1c50:	8d 06 e9    	dec.w     w13, w13
    1c52:	00 f1 b9    	mul.ss    w14, w0, w2
    1c54:	02 04 54    	sub.w     w8, w2, w8
    1c56:	0f ba 97    	mov.w     [w15-16], w4
    1c58:	e4 42 7c    	mov.b     [w4+w8], w5
    1c5a:	84 fd 2f    	mov.w     #0xffd8, w4
    1c5c:	0f 02 42    	add.w     w4, w15, w4
    1c5e:	05 f2 7e    	mov.b     w5, [w4+w13]

00001c60 <.L48>:
    1c60:	00 04 be    	mov.d     w0, w8
    1c62:	e0 0f 50    	sub.w     w0, #0x0, [w15]
    1c64:	e0 8f 58    	subb.w    w1, #0x0, [w15]
    1c66:	02 00 32    	bra       Z, 0x1c6c <.L25>
    1c68:	0d 00 e0    	cp0.w     w13
    1c6a:	ef ff 3c    	bra       GT, 0x1c4a <.L26>

00001c6c <.L25>:
    1c6c:	4f cd de    	asr.w     w9, #0xf, w10
    1c6e:	8a 05 78    	mov.w     w10, w11

00001c70 <.L50>:
    1c70:	08 9e be    	mov.d     w8, [w12++]
    1c72:	0a 96 be    	mov.d     w10, [w12--]
    1c74:	30 00 37    	bra       0x1cd6 <.L11>

00001c76 <.L13>:
    1c76:	e0 0f 54    	sub.w     w8, #0x0, [w15]
    1c78:	e0 8f 5c    	subb.w    w9, #0x0, [w15]
    1c7a:	e0 0f 5d    	subb.w    w10, #0x0, [w15]
    1c7c:	e0 8f 5d    	subb.w    w11, #0x0, [w15]
    1c7e:	04 00 3a    	bra       NZ, 0x1c88 <.L27>
    1c80:	5c 08 90    	mov.w     [w12+26], w0
    1c82:	8d 01 20    	mov.w     #0x18, w13
    1c84:	00 00 e0    	cp0.w     w0
    1c86:	09 00 32    	bra       Z, 0x1c9a <.L28>

00001c88 <.L27>:
    1c88:	61 72 b9    	mul.su    w14, #0x1, w4
    1c8a:	61 2b b9    	mul.su    w5, #0x1, w6
    1c8c:	08 00 be    	mov.d     w8, w0
    1c8e:	0a 01 be    	mov.d     w10, w2
    1c90:	09 01 07    	rcall     0x1ea4 <___umoddi3>
    1c92:	0f ba 97    	mov.w     [w15-16], w4
    1c94:	64 42 78    	mov.b     [w4+w0], w4
    1c96:	f4 ef 9f    	mov.b     w4, [w15-17]
    1c98:	7d 01 20    	mov.w     #0x17, w13

00001c9a <.L28>:
    1c9a:	61 72 b9    	mul.su    w14, #0x1, w4
    1c9c:	61 2b b9    	mul.su    w5, #0x1, w6
    1c9e:	08 00 be    	mov.d     w8, w0
    1ca0:	0a 01 be    	mov.d     w10, w2
    1ca2:	f9 00 07    	rcall     0x1e96 <___udivdi3>
    1ca4:	0d 00 37    	bra       0x1cc0 <.L49>

00001ca6 <.L30>:
    1ca6:	61 72 b9    	mul.su    w14, #0x1, w4
    1ca8:	61 2b b9    	mul.su    w5, #0x1, w6
    1caa:	08 00 be    	mov.d     w8, w0
    1cac:	0a 01 be    	mov.d     w10, w2
    1cae:	fe 00 07    	rcall     0x1eac <___divdi3>
    1cb0:	8d 06 e9    	dec.w     w13, w13
    1cb2:	00 f2 b9    	mul.ss    w14, w0, w4
    1cb4:	04 04 54    	sub.w     w8, w4, w8
    1cb6:	8f ba 97    	mov.w     [w15-16], w5
    1cb8:	65 42 7c    	mov.b     [w5+w8], w4
    1cba:	85 fd 2f    	mov.w     #0xffd8, w5
    1cbc:	8f 82 42    	add.w     w5, w15, w5
    1cbe:	84 f2 7e    	mov.b     w4, [w5+w13]

00001cc0 <.L49>:
    1cc0:	00 9e be    	mov.d     w0, [w12++]
    1cc2:	02 96 be    	mov.d     w2, [w12--]
    1cc4:	3c 04 be    	mov.d     [w12++], w8
    1cc6:	2c 05 be    	mov.d     [w12--], w10
    1cc8:	e0 0f 54    	sub.w     w8, #0x0, [w15]
    1cca:	e0 8f 5c    	subb.w    w9, #0x0, [w15]
    1ccc:	e0 0f 5d    	subb.w    w10, #0x0, [w15]
    1cce:	e0 8f 5d    	subb.w    w11, #0x0, [w15]
    1cd0:	02 00 34    	bra       LE, 0x1cd6 <.L11>
    1cd2:	0d 00 e0    	cp0.w     w13
    1cd4:	e8 ff 3c    	bra       GT, 0x1ca6 <.L30>

00001cd6 <.L11>:
    1cd6:	e8 0f 57    	sub.w     w14, #0x8, [w15]
    1cd8:	10 00 3a    	bra       NZ, 0x1cfa <.L31>
    1cda:	0c 10 90    	mov.w     [w12+32], w0
    1cdc:	00 38 a3    	btst.z    w0, #0x3
    1cde:	0d 00 32    	bra       Z, 0x1cfa <.L31>
    1ce0:	f7 8f 56    	sub.w     w13, #0x17, [w15]
    1ce2:	06 00 3e    	bra       GTU, 0x1cf0 <.L32>
    1ce4:	85 fd 2f    	mov.w     #0xffd8, w5
    1ce6:	8f 82 42    	add.w     w5, w15, w5
    1ce8:	e5 c0 7e    	mov.b     [w5+w13], w1
    1cea:	00 c3 b3    	mov.b     #0x30, w0
    1cec:	80 cf 50    	sub.b     w1, w0, [w15]
    1cee:	05 00 32    	bra       Z, 0x1cfa <.L31>

00001cf0 <.L32>:
    1cf0:	8d 06 e9    	dec.w     w13, w13
    1cf2:	02 c3 b3    	mov.b     #0x30, w2
    1cf4:	81 fd 2f    	mov.w     #0xffd8, w1
    1cf6:	8f 80 40    	add.w     w1, w15, w1
    1cf8:	82 f0 7e    	mov.b     w2, [w1+w13]

00001cfa <.L31>:
    1cfa:	78 81 16    	subr.w    w13, #0x18, w2
    1cfc:	12 0e 98    	mov.w     w2, [w12+18]
    1cfe:	6c 00 90    	mov.w     [w12+12], w0
    1d00:	83 fd 2f    	mov.w     #0xffd8, w3
    1d02:	8f 81 41    	add.w     w3, w15, w3
    1d04:	8d 80 41    	add.w     w3, w13, w1
    1d06:	0d fd 07    	rcall     0x1722 <_memcpy>
    1d08:	1c 08 90    	mov.w     [w12+18], w0
    1d0a:	dc 08 90    	mov.w     [w12+26], w1
    1d0c:	81 0f 50    	sub.w     w0, w1, [w15]
    1d0e:	06 00 3d    	bra       GE, 0x1d1c <.L33>
    1d10:	00 80 50    	sub.w     w1, w0, w0
    1d12:	00 0e 98    	mov.w     w0, [w12+16]
    1d14:	0c 10 90    	mov.w     [w12+32], w0
    1d16:	00 40 a1    	bclr.w    w0, #0x4
    1d18:	00 16 98    	mov.w     w0, [w12+32]
    1d1a:	0f 00 37    	bra       0x1d3a <.L1>

00001d1c <.L33>:
    1d1c:	01 00 e0    	cp0.w     w1
    1d1e:	0d 00 3d    	bra       GE, 0x1d3a <.L1>
    1d20:	8c 10 90    	mov.w     [w12+32], w1
    1d22:	f4 80 60    	and.w     w1, #0x14, w1
    1d24:	f0 8f 50    	sub.w     w1, #0x10, [w15]
    1d26:	09 00 3a    	bra       NZ, 0x1d3a <.L1>
    1d28:	7c 09 90    	mov.w     [w12+30], w2
    1d2a:	fc 00 90    	mov.w     [w12+14], w1
    1d2c:	81 00 51    	sub.w     w2, w1, w1
    1d2e:	0c 09 90    	mov.w     [w12+16], w2
    1d30:	82 80 50    	sub.w     w1, w2, w1
    1d32:	00 80 50    	sub.w     w1, w0, w0
    1d34:	42 40 a9    	bclr.b    0x42, #0x2
    1d36:	01 00 34    	bra       LE, 0x1d3a <.L1>
    1d38:	00 0e 98    	mov.w     w0, [w12+16]

00001d3a <.L1>:
    1d3a:	4f 07 78    	mov.w     [--w15], w14
    1d3c:	4f 06 be    	mov.d     [--w15], w12
    1d3e:	4f 05 be    	mov.d     [--w15], w10
    1d40:	4f 04 be    	mov.d     [--w15], w8
    1d42:	cf 01 b1    	sub.w     #0x1c, w15
    1d44:	00 00 06    	return    

00001d46 <___divsi3>:
    1d46:	83 9f 68    	xor.w     w1, w3, [w15++]
    1d48:	01 00 e0    	cp0.w     w1
    1d4a:	02 00 3d    	bra       GE, 0x1d50 <divtestb>
    1d4c:	60 00 10    	subr.w    w0, #0x0, w0
    1d4e:	e0 80 18    	subbr.w   w1, #0x0, w1

00001d50 <divtestb>:
    1d50:	03 00 e0    	cp0.w     w3
    1d52:	02 00 3d    	bra       GE, 0x1d58 <calcquot>
    1d54:	60 01 11    	subr.w    w2, #0x0, w2
    1d56:	e0 81 19    	subbr.w   w3, #0x0, w3

00001d58 <calcquot>:
    1d58:	af fb 07    	rcall     0x14b8 <___udivsi3>
    1d5a:	4f 00 e0    	cp0.w     [--w15]
    1d5c:	02 00 3b    	bra       NN, 0x1d62 <returnq>
    1d5e:	60 00 10    	subr.w    w0, #0x0, w0
    1d60:	e0 80 18    	subbr.w   w1, #0x0, w1

00001d62 <returnq>:
    1d62:	00 00 06    	return    

00001d64 <___PplusBdi>:
    1d64:	88 9f be    	mov.d     w8, [w15++]
    1d66:	8a 9f be    	mov.d     w10, [w15++]
    1d68:	30 04 42    	add.w     w4, [w0++], w8
    1d6a:	b0 84 4a    	addc.w    w5, [w0++], w9
    1d6c:	30 05 4b    	addc.w    w6, [w0++], w10
    1d6e:	90 85 4b    	addc.w    w7, [w0], w11
    1d70:	60 00 b1    	sub.w     #0x6, w0
    1d72:	08 98 be    	mov.d     w8, [w0++]
    1d74:	0a 90 be    	mov.d     w10, [w0--]
    1d76:	04 40 e1    	cp.w      w8, w4
    1d78:	05 c8 e1    	cpb.w     w9, w5
    1d7a:	06 d0 e1    	cpb.w     w10, w6
    1d7c:	07 d8 e1    	cpb.w     w11, w7
    1d7e:	02 00 31    	bra       C, 0x1d84 <.L1>
    1d80:	68 00 40    	add.w     w0, #0x8, w0
    1d82:	10 08 e8    	inc.w     [w0], [w0]

00001d84 <.L1>:
    1d84:	4f 05 be    	mov.d     [--w15], w10
    1d86:	4f 04 be    	mov.d     [--w15], w8
    1d88:	00 00 06    	return    

00001d8a <___PminusBdi>:
    1d8a:	88 9f be    	mov.d     w8, [w15++]
    1d8c:	8a 9f be    	mov.d     w10, [w15++]
    1d8e:	30 04 be    	mov.d     [w0++], w8
    1d90:	20 05 be    	mov.d     [w0--], w10
    1d92:	04 18 54    	sub.w     w8, w4, [w0++]
    1d94:	05 98 5c    	subb.w    w9, w5, [w0++]
    1d96:	06 18 5d    	subb.w    w10, w6, [w0++]
    1d98:	07 98 5d    	subb.w    w11, w7, [w0++]
    1d9a:	11 00 20    	mov.w     #0x1, w1
    1d9c:	04 40 e1    	cp.w      w8, w4
    1d9e:	05 c8 e1    	cpb.w     w9, w5
    1da0:	06 d0 e1    	cpb.w     w10, w6
    1da2:	07 d8 e1    	cpb.w     w11, w7
    1da4:	01 00 39    	bra       NC, 0x1da8 <.L4>
    1da6:	80 00 eb    	clr.w     w1

00001da8 <.L4>:
    1da8:	10 88 10    	subr.w    w1, [w0], [w0]
    1daa:	4f 05 be    	mov.d     [--w15], w10
    1dac:	4f 04 be    	mov.d     [--w15], w8
    1dae:	00 00 06    	return    

00001db0 <___udivmoddi3>:
    1db0:	12 00 fa    	lnk       #0x12
    1db2:	88 9f be    	mov.d     w8, [w15++]
    1db4:	8a 9f be    	mov.d     w10, [w15++]
    1db6:	8c 9f be    	mov.d     w12, [w15++]
    1db8:	e0 b7 9f    	mov.w     w0, [w15-20]
    1dba:	f1 b7 9f    	mov.w     w1, [w15-18]
    1dbc:	82 bf 9f    	mov.w     w2, [w15-16]
    1dbe:	93 bf 9f    	mov.w     w3, [w15-14]
    1dc0:	06 05 be    	mov.d     w6, w10
    1dc2:	04 04 be    	mov.d     w4, w8
    1dc4:	00 00 eb    	clr.w     w0
    1dc6:	d0 b7 9f    	mov.w     w0, [w15-22]
    1dc8:	c0 b7 9f    	mov.w     w0, [w15-24]
    1dca:	b0 b7 9f    	mov.w     w0, [w15-26]
    1dcc:	a0 b7 9f    	mov.w     w0, [w15-28]
    1dce:	90 b7 9f    	mov.w     w0, [w15-30]
    1dd0:	00 06 eb    	clr.w     w12

00001dd2 <.L9>:
    1dd2:	5f b1 97    	mov.w     [w15-22], w2
    1dd4:	cf b0 97    	mov.w     [w15-24], w1
    1dd6:	82 01 41    	add.w     w2, w2, w3
    1dd8:	3f b0 97    	mov.w     [w15-26], w0
    1dda:	02 00 e0    	cp0.w     w2
    1ddc:	04 00 3d    	bra       GE, 0x1de6 <.L6>
    1dde:	37 00 07    	rcall     0x1e4e <.LPA0>
    1de0:	7e 80 57    	sub.w     w15, #0x1e, w0
    1de2:	c0 ff 07    	rcall     0x1d64 <___PplusBdi>
    1de4:	03 00 37    	bra       0x1dec <.L7>

00001de6 <.L6>:
    1de6:	33 00 07    	rcall     0x1e4e <.LPA0>
    1de8:	7e 80 57    	sub.w     w15, #0x1e, w0
    1dea:	cf ff 07    	rcall     0x1d8a <___PminusBdi>

00001dec <.L7>:
    1dec:	df b6 97    	mov.w     [w15-22], w13
    1dee:	0d 00 e0    	cp0.w     w13
    1df0:	0c 00 35    	bra       LT, 0x1e0a <.L8>
    1df2:	6f b2 97    	mov.w     [w15-20], w4
    1df4:	ff b2 97    	mov.w     [w15-18], w5
    1df6:	0f bb 97    	mov.w     [w15-16], w6
    1df8:	9f bb 97    	mov.w     [w15-14], w7
    1dfa:	10 00 20    	mov.w     #0x1, w0
    1dfc:	01 00 20    	mov.w     #0x0, w1
    1dfe:	60 11 b8    	mul.uu    w2, #0x0, w2
    1e00:	00 02 72    	ior.w     w4, w0, w4
    1e02:	81 82 72    	ior.w     w5, w1, w5
    1e04:	02 03 73    	ior.w     w6, w2, w6
    1e06:	83 83 73    	ior.w     w7, w3, w7
    1e08:	1b 00 07    	rcall     0x1e40 <.LPA2>

00001e0a <.L8>:
    1e0a:	0c 06 e8    	inc.w     w12, w12
    1e0c:	01 04 20    	mov.w     #0x40, w1
    1e0e:	81 0f 56    	sub.w     w12, w1, [w15]
    1e10:	e0 ff 3a    	bra       NZ, 0x1dd2 <.L9>
    1e12:	0d 00 e0    	cp0.w     w13
    1e14:	04 00 3d    	bra       GE, 0x1e1e <.L10>
    1e16:	08 02 be    	mov.d     w8, w4
    1e18:	0a 03 be    	mov.d     w10, w6
    1e1a:	7e 80 57    	sub.w     w15, #0x1e, w0
    1e1c:	a3 ff 07    	rcall     0x1d64 <___PplusBdi>

00001e1e <.L10>:
    1e1e:	5f a8 97    	mov.w     [w15-38], w0
    1e20:	00 00 e0    	cp0.w     w0
    1e22:	05 00 3a    	bra       NZ, 0x1e2e <.L11>
    1e24:	1f b2 97    	mov.w     [w15-30], w4
    1e26:	af b2 97    	mov.w     [w15-28], w5
    1e28:	3f b3 97    	mov.w     [w15-26], w6
    1e2a:	cf b3 97    	mov.w     [w15-24], w7
    1e2c:	09 00 07    	rcall     0x1e40 <.LPA2>

00001e2e <.L11>:
    1e2e:	6f b0 97    	mov.w     [w15-20], w0
    1e30:	ff b0 97    	mov.w     [w15-18], w1
    1e32:	0f b9 97    	mov.w     [w15-16], w2
    1e34:	9f b9 97    	mov.w     [w15-14], w3
    1e36:	4f 06 be    	mov.d     [--w15], w12
    1e38:	4f 05 be    	mov.d     [--w15], w10
    1e3a:	4f 04 be    	mov.d     [--w15], w8
    1e3c:	00 80 fa    	ulnk      
    1e3e:	00 00 06    	return    

00001e40 <.LPA2>:
    1e40:	01 00 07    	rcall     0x1e44 <.LPA5>
    1e42:	00 00 06    	return    

00001e44 <.LPA5>:
    1e44:	a4 b7 9f    	mov.w     w4, [w15-28]
    1e46:	b5 b7 9f    	mov.w     w5, [w15-26]
    1e48:	c6 b7 9f    	mov.w     w6, [w15-24]
    1e4a:	d7 b7 9f    	mov.w     w7, [w15-22]
    1e4c:	00 00 06    	return    

00001e4e <.LPA0>:
    1e4e:	4f 09 de    	lsr.w     w1, #0xf, w2
    1e50:	82 81 71    	ior.w     w3, w2, w3
    1e52:	b3 b7 9f    	mov.w     w3, [w15-26]
    1e54:	4f 01 de    	lsr.w     w0, #0xf, w2
    1e56:	81 80 40    	add.w     w1, w1, w1
    1e58:	82 80 70    	ior.w     w1, w2, w1
    1e5a:	a1 b7 9f    	mov.w     w1, [w15-28]
    1e5c:	8f b0 97    	mov.w     [w15-32], w1
    1e5e:	4f 09 de    	lsr.w     w1, #0xf, w2
    1e60:	00 00 40    	add.w     w0, w0, w0
    1e62:	02 00 70    	ior.w     w0, w2, w0
    1e64:	90 b7 9f    	mov.w     w0, [w15-30]
    1e66:	7f a8 97    	mov.w     [w15-34], w0
    1e68:	4f 01 de    	lsr.w     w0, #0xf, w2
    1e6a:	81 80 40    	add.w     w1, w1, w1
    1e6c:	82 80 70    	ior.w     w1, w2, w1
    1e6e:	81 b7 9f    	mov.w     w1, [w15-32]
    1e70:	0d 00 07    	rcall     0x1e8c <.LPA4>
    1e72:	4f 3a de    	lsr.w     w7, #0xf, w4
    1e74:	00 00 40    	add.w     w0, w0, w0
    1e76:	04 00 70    	ior.w     w0, w4, w0
    1e78:	f0 af 9f    	mov.w     w0, [w15-34]
    1e7a:	08 00 07    	rcall     0x1e8c <.LPA4>
    1e7c:	04 02 42    	add.w     w4, w4, w4
    1e7e:	85 82 4a    	addc.w    w5, w5, w5
    1e80:	06 03 4b    	addc.w    w6, w6, w6
    1e82:	87 83 4b    	addc.w    w7, w7, w7
    1e84:	df ff 07    	rcall     0x1e44 <.LPA5>
    1e86:	08 02 be    	mov.d     w8, w4
    1e88:	0a 03 be    	mov.d     w10, w6
    1e8a:	00 00 06    	return    

00001e8c <.LPA4>:
    1e8c:	2f b2 97    	mov.w     [w15-28], w4
    1e8e:	bf b2 97    	mov.w     [w15-26], w5
    1e90:	4f b3 97    	mov.w     [w15-24], w6
    1e92:	df b3 97    	mov.w     [w15-22], w7
    1e94:	00 00 06    	return    

00001e96 <___udivdi3>:
    1e96:	88 1f 78    	mov.w     w8, [w15++]
    1e98:	18 00 20    	mov.w     #0x1, w8
    1e9a:	88 1f 78    	mov.w     w8, [w15++]
    1e9c:	89 ff 07    	rcall     0x1db0 <___udivmoddi3>
    1e9e:	8f 87 e9    	dec2.w    w15, w15
    1ea0:	4f 04 78    	mov.w     [--w15], w8
    1ea2:	00 00 06    	return    

00001ea4 <___umoddi3>:
    1ea4:	80 1f eb    	clr.w     [w15++]
    1ea6:	84 ff 07    	rcall     0x1db0 <___udivmoddi3>
    1ea8:	8f 87 e9    	dec2.w    w15, w15
    1eaa:	00 00 06    	return    

00001eac <___divdi3>:
    1eac:	88 9f be    	mov.d     w8, [w15++]
    1eae:	8a 9f be    	mov.d     w10, [w15++]
    1eb0:	e0 0f 50    	sub.w     w0, #0x0, [w15]
    1eb2:	e0 8f 58    	subb.w    w1, #0x0, [w15]
    1eb4:	e0 0f 59    	subb.w    w2, #0x0, [w15]
    1eb6:	e0 8f 59    	subb.w    w3, #0x0, [w15]
    1eb8:	0c 00 3d    	bra       GE, 0x1ed2 <.L15>
    1eba:	60 44 b8    	mul.uu    w8, #0x0, w8
    1ebc:	60 55 b8    	mul.uu    w10, #0x0, w10
    1ebe:	00 00 54    	sub.w     w8, w0, w0
    1ec0:	81 80 5c    	subb.w    w9, w1, w1
    1ec2:	02 01 5d    	subb.w    w10, w2, w2
    1ec4:	83 81 5d    	subb.w    w11, w3, w3
    1ec6:	18 00 20    	mov.w     #0x1, w8
    1ec8:	15 00 07    	rcall     0x1ef4 <.LPA3>
    1eca:	08 00 3d    	bra       GE, 0x1edc <.L16>
    1ecc:	18 00 07    	rcall     0x1efe <.LPA1>
    1ece:	00 04 eb    	clr.w     w8
    1ed0:	05 00 37    	bra       0x1edc <.L16>

00001ed2 <.L15>:
    1ed2:	00 04 eb    	clr.w     w8
    1ed4:	0f 00 07    	rcall     0x1ef4 <.LPA3>
    1ed6:	02 00 3d    	bra       GE, 0x1edc <.L16>
    1ed8:	12 00 07    	rcall     0x1efe <.LPA1>
    1eda:	18 00 20    	mov.w     #0x1, w8

00001edc <.L16>:
    1edc:	dc ff 07    	rcall     0x1e96 <___udivdi3>
    1ede:	08 00 e0    	cp0.w     w8
    1ee0:	06 00 32    	bra       Z, 0x1eee <.L17>
    1ee2:	60 22 b8    	mul.uu    w4, #0x0, w4
    1ee4:	60 33 b8    	mul.uu    w6, #0x0, w6
    1ee6:	00 00 52    	sub.w     w4, w0, w0
    1ee8:	81 80 5a    	subb.w    w5, w1, w1
    1eea:	02 01 5b    	subb.w    w6, w2, w2
    1eec:	83 81 5b    	subb.w    w7, w3, w3

00001eee <.L17>:
    1eee:	4f 05 be    	mov.d     [--w15], w10
    1ef0:	4f 04 be    	mov.d     [--w15], w8
    1ef2:	00 00 06    	return    

00001ef4 <.LPA3>:
    1ef4:	e0 0f 52    	sub.w     w4, #0x0, [w15]
    1ef6:	e0 8f 5a    	subb.w    w5, #0x0, [w15]
    1ef8:	e0 0f 5b    	subb.w    w6, #0x0, [w15]
    1efa:	e0 8f 5b    	subb.w    w7, #0x0, [w15]
    1efc:	00 00 06    	return    

00001efe <.LPA1>:
    1efe:	60 44 b8    	mul.uu    w8, #0x0, w8
    1f00:	60 55 b8    	mul.uu    w10, #0x0, w10
    1f02:	04 02 54    	sub.w     w8, w4, w4
    1f04:	85 82 5c    	subb.w    w9, w5, w5
    1f06:	06 03 5d    	subb.w    w10, w6, w6
    1f08:	87 83 5d    	subb.w    w11, w7, w7
    1f0a:	00 00 06    	return    

00001f0c <___moddi3>:
    1f0c:	88 9f be    	mov.d     w8, [w15++]
    1f0e:	8a 9f be    	mov.d     w10, [w15++]
    1f10:	8c 1f 78    	mov.w     w12, [w15++]
    1f12:	e0 0f 50    	sub.w     w0, #0x0, [w15]
    1f14:	e0 8f 58    	subb.w    w1, #0x0, [w15]
    1f16:	e0 0f 59    	subb.w    w2, #0x0, [w15]
    1f18:	e0 8f 59    	subb.w    w3, #0x0, [w15]
    1f1a:	0d 00 3d    	bra       GE, 0x1f36 <.L21>
    1f1c:	60 44 b8    	mul.uu    w8, #0x0, w8
    1f1e:	60 55 b8    	mul.uu    w10, #0x0, w10
    1f20:	00 00 54    	sub.w     w8, w0, w0
    1f22:	81 80 5c    	subb.w    w9, w1, w1
    1f24:	02 01 5d    	subb.w    w10, w2, w2
    1f26:	83 81 5d    	subb.w    w11, w3, w3
    1f28:	1c 00 20    	mov.w     #0x1, w12
    1f2a:	08 20 e1    	cp.w      w4, w8
    1f2c:	09 a8 e1    	cpb.w     w5, w9
    1f2e:	0a b0 e1    	cpb.w     w6, w10
    1f30:	0b b8 e1    	cpb.w     w7, w11
    1f32:	0d 00 3d    	bra       GE, 0x1f4e <.L22>
    1f34:	08 00 37    	bra       0x1f46 <.L26>

00001f36 <.L21>:
    1f36:	00 06 eb    	clr.w     w12
    1f38:	e0 0f 52    	sub.w     w4, #0x0, [w15]
    1f3a:	e0 8f 5a    	subb.w    w5, #0x0, [w15]
    1f3c:	e0 0f 5b    	subb.w    w6, #0x0, [w15]
    1f3e:	e0 8f 5b    	subb.w    w7, #0x0, [w15]
    1f40:	06 00 3d    	bra       GE, 0x1f4e <.L22>
    1f42:	60 44 b8    	mul.uu    w8, #0x0, w8
    1f44:	60 55 b8    	mul.uu    w10, #0x0, w10

00001f46 <.L26>:
    1f46:	04 02 54    	sub.w     w8, w4, w4
    1f48:	85 82 5c    	subb.w    w9, w5, w5
    1f4a:	06 03 5d    	subb.w    w10, w6, w6
    1f4c:	87 83 5d    	subb.w    w11, w7, w7

00001f4e <.L22>:
    1f4e:	aa ff 07    	rcall     0x1ea4 <___umoddi3>
    1f50:	0c 00 e0    	cp0.w     w12
    1f52:	06 00 32    	bra       Z, 0x1f60 <.L23>
    1f54:	60 22 b8    	mul.uu    w4, #0x0, w4
    1f56:	60 33 b8    	mul.uu    w6, #0x0, w6
    1f58:	00 00 52    	sub.w     w4, w0, w0
    1f5a:	81 80 5a    	subb.w    w5, w1, w1
    1f5c:	02 01 5b    	subb.w    w6, w2, w2
    1f5e:	83 81 5b    	subb.w    w7, w3, w3

00001f60 <.L23>:
    1f60:	4f 06 78    	mov.w     [--w15], w12
    1f62:	4f 05 be    	mov.d     [--w15], w10
    1f64:	4f 04 be    	mov.d     [--w15], w8
    1f66:	00 00 06    	return    
Disassembly of section .application_ivt:

00001000 <__DEFAULT_VECTOR-0x10c>:
    1000:	10 11 04    	goto      0x1110 <__reset>
    1002:	00 00 00 
    1004:	92 36 04    	goto      0x3692 <__DefaultInterrupt>
    1006:	00 00 00 
    1008:	92 36 04    	goto      0x3692 <__DefaultInterrupt>
    100a:	00 00 00 
    100c:	92 36 04    	goto      0x3692 <__DefaultInterrupt>
    100e:	00 00 00 
    1010:	92 36 04    	goto      0x3692 <__DefaultInterrupt>
    1012:	00 00 00 
    1014:	92 36 04    	goto      0x3692 <__DefaultInterrupt>
    1016:	00 00 00 
    1018:	92 36 04    	goto      0x3692 <__DefaultInterrupt>
    101a:	00 00 00 
    101c:	92 36 04    	goto      0x3692 <__DefaultInterrupt>
    101e:	00 00 00 
    1020:	92 36 04    	goto      0x3692 <__DefaultInterrupt>
    1022:	00 00 00 
    1024:	02 34 04    	goto      0x3402 <__T1Interrupt>
    1026:	00 00 00 
    1028:	92 36 04    	goto      0x3692 <__DefaultInterrupt>
    102a:	00 00 00 
    102c:	92 36 04    	goto      0x3692 <__DefaultInterrupt>
    102e:	00 00 00 
    1030:	3e 34 04    	goto      0x343e <__T2Interrupt>
    1032:	00 00 00 
    1034:	92 36 04    	goto      0x3692 <__DefaultInterrupt>
    1036:	00 00 00 
    1038:	92 36 04    	goto      0x3692 <__DefaultInterrupt>
    103a:	00 00 00 
    103c:	92 36 04    	goto      0x3692 <__DefaultInterrupt>
    103e:	00 00 00 
    1040:	3a 35 04    	goto      0x353a <__U1RXInterrupt>
    1042:	00 00 00 
    1044:	d8 34 04    	goto      0x34d8 <__U1TXInterrupt>
    1046:	00 00 00 
    1048:	92 36 04    	goto      0x3692 <__DefaultInterrupt>
    104a:	00 00 00 
    104c:	92 36 04    	goto      0x3692 <__DefaultInterrupt>
    104e:	00 00 00 
    1050:	92 36 04    	goto      0x3692 <__DefaultInterrupt>
    1052:	00 00 00 
    1054:	92 36 04    	goto      0x3692 <__DefaultInterrupt>
    1056:	00 00 00 
    1058:	92 36 04    	goto      0x3692 <__DefaultInterrupt>
    105a:	00 00 00 
    105c:	92 36 04    	goto      0x3692 <__DefaultInterrupt>
    105e:	00 00 00 
    1060:	92 36 04    	goto      0x3692 <__DefaultInterrupt>
    1062:	00 00 00 
    1064:	92 36 04    	goto      0x3692 <__DefaultInterrupt>
    1066:	00 00 00 
    1068:	92 36 04    	goto      0x3692 <__DefaultInterrupt>
    106a:	00 00 00 
    106c:	92 36 04    	goto      0x3692 <__DefaultInterrupt>
    106e:	00 00 00 
    1070:	92 36 04    	goto      0x3692 <__DefaultInterrupt>
    1072:	00 00 00 
    1074:	92 36 04    	goto      0x3692 <__DefaultInterrupt>
    1076:	00 00 00 
    1078:	92 36 04    	goto      0x3692 <__DefaultInterrupt>
    107a:	00 00 00 
    107c:	92 36 04    	goto      0x3692 <__DefaultInterrupt>
    107e:	00 00 00 
    1080:	92 36 04    	goto      0x3692 <__DefaultInterrupt>
    1082:	00 00 00 
    1084:	92 36 04    	goto      0x3692 <__DefaultInterrupt>
    1086:	00 00 00 
    1088:	92 36 04    	goto      0x3692 <__DefaultInterrupt>
    108a:	00 00 00 
    108c:	92 36 04    	goto      0x3692 <__DefaultInterrupt>
    108e:	00 00 00 
    1090:	92 36 04    	goto      0x3692 <__DefaultInterrupt>
    1092:	00 00 00 
    1094:	92 36 04    	goto      0x3692 <__DefaultInterrupt>
    1096:	00 00 00 
    1098:	92 36 04    	goto      0x3692 <__DefaultInterrupt>
    109a:	00 00 00 
    109c:	92 36 04    	goto      0x3692 <__DefaultInterrupt>
    109e:	00 00 00 
    10a0:	92 36 04    	goto      0x3692 <__DefaultInterrupt>
    10a2:	00 00 00 
    10a4:	92 36 04    	goto      0x3692 <__DefaultInterrupt>
    10a6:	00 00 00 
    10a8:	92 36 04    	goto      0x3692 <__DefaultInterrupt>
    10aa:	00 00 00 
    10ac:	92 36 04    	goto      0x3692 <__DefaultInterrupt>
    10ae:	00 00 00 
    10b0:	92 36 04    	goto      0x3692 <__DefaultInterrupt>
    10b2:	00 00 00 
    10b4:	92 36 04    	goto      0x3692 <__DefaultInterrupt>
    10b6:	00 00 00 
    10b8:	92 36 04    	goto      0x3692 <__DefaultInterrupt>
    10ba:	00 00 00 
    10bc:	92 36 04    	goto      0x3692 <__DefaultInterrupt>
    10be:	00 00 00 
    10c0:	92 36 04    	goto      0x3692 <__DefaultInterrupt>
    10c2:	00 00 00 
    10c4:	92 36 04    	goto      0x3692 <__DefaultInterrupt>
    10c6:	00 00 00 
    10c8:	92 36 04    	goto      0x3692 <__DefaultInterrupt>
    10ca:	00 00 00 
    10cc:	92 36 04    	goto      0x3692 <__DefaultInterrupt>
    10ce:	00 00 00 
    10d0:	92 36 04    	goto      0x3692 <__DefaultInterrupt>
    10d2:	00 00 00 
    10d4:	92 36 04    	goto      0x3692 <__DefaultInterrupt>
    10d6:	00 00 00 
    10d8:	92 36 04    	goto      0x3692 <__DefaultInterrupt>
    10da:	00 00 00 
    10dc:	92 36 04    	goto      0x3692 <__DefaultInterrupt>
    10de:	00 00 00 
    10e0:	92 36 04    	goto      0x3692 <__DefaultInterrupt>
    10e2:	00 00 00 
    10e4:	92 36 04    	goto      0x3692 <__DefaultInterrupt>
    10e6:	00 00 00 
    10e8:	92 36 04    	goto      0x3692 <__DefaultInterrupt>
    10ea:	00 00 00 
    10ec:	92 36 04    	goto      0x3692 <__DefaultInterrupt>
    10ee:	00 00 00 
    10f0:	92 36 04    	goto      0x3692 <__DefaultInterrupt>
    10f2:	00 00 00 
    10f4:	92 36 04    	goto      0x3692 <__DefaultInterrupt>
    10f6:	00 00 00 
    10f8:	92 36 04    	goto      0x3692 <__DefaultInterrupt>
    10fa:	00 00 00 
    10fc:	92 36 04    	goto      0x3692 <__DefaultInterrupt>
    10fe:	00 00 00 
    1100:	92 36 04    	goto      0x3692 <__DefaultInterrupt>
    1102:	00 00 00 
    1104:	92 36 04    	goto      0x3692 <__DefaultInterrupt>
    1106:	00 00 00 
    1108:	92 36 04    	goto      0x3692 <__DefaultInterrupt>
    110a:	00 00 00 

0000110c <__DEFAULT_VECTOR>:
    110c:	92 36 04    	goto      0x3692 <__DefaultInterrupt>
    110e:	00 00 00 
Disassembly of section .ivt:

00000004 <.ivt>:
   4:	04 10 00    	nop       
   6:	08 10 00    	nop       
   8:	0c 10 00    	nop       
   a:	10 10 00    	nop       
   c:	14 10 00    	nop       
   e:	0c 11 00    	nop       
  10:	0c 11 00    	nop       
  12:	0c 11 00    	nop       
  14:	18 10 00    	nop       
  16:	1c 10 00    	nop       
  18:	20 10 00    	nop       
  1a:	24 10 00    	nop       
  1c:	0c 11 00    	nop       
  1e:	28 10 00    	nop       
  20:	2c 10 00    	nop       
  22:	30 10 00    	nop       
  24:	34 10 00    	nop       
  26:	38 10 00    	nop       
  28:	3c 10 00    	nop       
  2a:	40 10 00    	nop       
  2c:	44 10 00    	nop       
  2e:	48 10 00    	nop       
  30:	0c 11 00    	nop       
  32:	0c 11 00    	nop       
  34:	4c 10 00    	nop       
  36:	50 10 00    	nop       
  38:	54 10 00    	nop       
  3a:	58 10 00    	nop       
  3c:	5c 10 00    	nop       
  3e:	0c 11 00    	nop       
  40:	60 10 00    	nop       
  42:	64 10 00    	nop       
  44:	0c 11 00    	nop       
  46:	68 10 00    	nop       
  48:	6c 10 00    	nop       
  4a:	70 10 00    	nop       
  4c:	74 10 00    	nop       
  4e:	78 10 00    	nop       
  50:	7c 10 00    	nop       
  52:	80 10 00    	nop       
  54:	84 10 00    	nop       
  56:	88 10 00    	nop       
  58:	0c 11 00    	nop       
  5a:	0c 11 00    	nop       
  5c:	0c 11 00    	nop       
  5e:	8c 10 00    	nop       
  60:	90 10 00    	nop       
  62:	94 10 00    	nop       
  64:	98 10 00    	nop       
  66:	9c 10 00    	nop       
  68:	a0 10 00    	nop       
  6a:	a4 10 00    	nop       
  6c:	a8 10 00    	nop       
  6e:	ac 10 00    	nop       
  70:	0c 11 00    	nop       
  72:	0c 11 00    	nop       
  74:	0c 11 00    	nop       
  76:	b0 10 00    	nop       
  78:	b4 10 00    	nop       
  7a:	0c 11 00    	nop       
  7c:	0c 11 00    	nop       
  7e:	b8 10 00    	nop       
  80:	bc 10 00    	nop       
  82:	0c 11 00    	nop       
  84:	0c 11 00    	nop       
  86:	0c 11 00    	nop       
  88:	0c 11 00    	nop       
  8a:	0c 11 00    	nop       
  8c:	0c 11 00    	nop       
  8e:	0c 11 00    	nop       
  90:	c0 10 00    	nop       
  92:	0c 11 00    	nop       
  94:	0c 11 00    	nop       
  96:	c4 10 00    	nop       
  98:	c8 10 00    	nop       
  9a:	cc 10 00    	nop       
  9c:	0c 11 00    	nop       
  9e:	0c 11 00    	nop       
  a0:	0c 11 00    	nop       
  a2:	0c 11 00    	nop       
  a4:	d0 10 00    	nop       
  a6:	0c 11 00    	nop       
  a8:	0c 11 00    	nop       
  aa:	0c 11 00    	nop       
  ac:	0c 11 00    	nop       
  ae:	d4 10 00    	nop       
  b0:	0c 11 00    	nop       
  b2:	0c 11 00    	nop       
  b4:	0c 11 00    	nop       
  b6:	d8 10 00    	nop       
  b8:	dc 10 00    	nop       
  ba:	e0 10 00    	nop       
  bc:	e4 10 00    	nop       
  be:	e8 10 00    	nop       
  c0:	ec 10 00    	nop       
  c2:	f0 10 00    	nop       
  c4:	f4 10 00    	nop       
  c6:	f8 10 00    	nop       
  c8:	fc 10 00    	nop       
  ca:	00 11 00    	nop       
  cc:	04 11 00    	nop       
  ce:	08 11 00    	nop       
  d0:	0c 11 00    	nop       
  d2:	0c 11 00    	nop       
  d4:	0c 11 00    	nop       
  d6:	0c 11 00    	nop       
  d8:	0c 11 00    	nop       
  da:	0c 11 00    	nop       
  dc:	0c 11 00    	nop       
  de:	0c 11 00    	nop       
  e0:	0c 11 00    	nop       
  e2:	0c 11 00    	nop       
  e4:	0c 11 00    	nop       
  e6:	0c 11 00    	nop       
  e8:	0c 11 00    	nop       
  ea:	0c 11 00    	nop       
  ec:	0c 11 00    	nop       
  ee:	0c 11 00    	nop       
  f0:	0c 11 00    	nop       
  f2:	0c 11 00    	nop       
  f4:	0c 11 00    	nop       
  f6:	0c 11 00    	nop       
  f8:	0c 11 00    	nop       
  fa:	0c 11 00    	nop       
  fc:	0c 11 00    	nop       
  fe:	0c 11 00    	nop       
Disassembly of section .const:

00009f68 <.LC0-0x12e>:
    9f68:	3f 00       	.word 0x3f
    9f6a:	06 00       	.word 0x6
    9f6c:	5b 00       	.word 0x5b
    9f6e:	4f 00       	.word 0x4f
    9f70:	66 00       	.word 0x66
    9f72:	6d 00       	.word 0x6d
    9f74:	7d 00       	.word 0x7d
    9f76:	07 00       	.word 0x7
    9f78:	7f 00       	.word 0x7f
    9f7a:	6f 00       	.word 0x6f
    9f7c:	77 00       	.word 0x77
    9f7e:	7c 00       	.word 0x7c
    9f80:	39 00       	.word 0x39
    9f82:	5e 00       	.word 0x5e
    9f84:	79 00       	.word 0x79
    9f86:	71 00       	.word 0x71
	...
    9f8c:	01 00       	.word 0x1
    9f8e:	02 00       	.word 0x2
    9f90:	04 00       	.word 0x4
    9f92:	08 00       	.word 0x8
    9f94:	10 00       	.word 0x10
    9f96:	20 00       	.word 0x20
    9f98:	40 00       	.word 0x40
    9f9a:	80 00       	.word 0x80
    9f9c:	00 01       	.word 0x100
    9f9e:	00 02       	.word 0x200
    9fa0:	00 04       	.word 0x400
    9fa2:	00 08       	.word 0x800
    9fa4:	00 10       	.word 0x1000
    9fa6:	00 20       	.word 0x2000
    9fa8:	00 40       	.word 0x4000
    9faa:	00 80       	.word 0x8000
	...
    9fbc:	c9 12       	.word 0x12c9
    9fbe:	c0 15       	.word 0x15c0
    9fc0:	f9 12       	.word 0x12f9
    9fc2:	e3 00       	.word 0xe3
    9fc4:	30 05       	.word 0x530
    9fc6:	c8 12       	.word 0x12c8
    9fc8:	00 3a       	.word 0x3a00
    9fca:	00 17       	.word 0x1700
    9fcc:	00 00       	.word 0
    9fce:	06 00       	.word 0x6
    9fd0:	20 02       	.word 0x220
    9fd2:	ce 12       	.word 0x12ce
    9fd4:	ed 12       	.word 0x12ed
    9fd6:	24 0c       	.word 0xc24
    9fd8:	5d 23       	.word 0x235d
    9fda:	00 04       	.word 0x400
    9fdc:	00 24       	.word 0x2400
    9fde:	00 09       	.word 0x900
    9fe0:	c0 3f       	.word 0x3fc0
    9fe2:	c0 12       	.word 0x12c0
    9fe4:	00 08       	.word 0x800
    9fe6:	c0 00       	.word 0xc0
    9fe8:	00 00       	.word 0
    9fea:	00 0c       	.word 0xc00
    9fec:	3f 0c       	.word 0xc3f
    9fee:	06 00       	.word 0x6
    9ff0:	db 00       	.word 0xdb
    9ff2:	8f 00       	.word 0x8f
    9ff4:	e6 00       	.word 0xe6
    9ff6:	69 20       	.word 0x2069
    9ff8:	fd 00       	.word 0xfd
    9ffa:	07 00       	.word 0x7
    9ffc:	ff 00       	.word 0xff
    9ffe:	ef 00       	.word 0xef
    a000:	00 12       	.word 0x1200
    a002:	00 0a       	.word 0xa00
    a004:	00 24       	.word 0x2400
    a006:	c8 00       	.word 0xc8
    a008:	00 09       	.word 0x900
    a00a:	83 10       	.word 0x1083
    a00c:	bb 02       	.word 0x2bb
    a00e:	f7 00       	.word 0xf7
    a010:	8f 12       	.word 0x128f
    a012:	39 00       	.word 0x39
    a014:	0f 12       	.word 0x120f
    a016:	f9 00       	.word 0xf9
    a018:	71 00       	.word 0x71
    a01a:	bd 00       	.word 0xbd
    a01c:	f6 00       	.word 0xf6
    a01e:	00 12       	.word 0x1200
    a020:	1e 00       	.word 0x1e
    a022:	70 24       	.word 0x2470
    a024:	38 00       	.word 0x38
    a026:	36 05       	.word 0x536
    a028:	36 21       	.word 0x2136
    a02a:	3f 00       	.word 0x3f
    a02c:	f3 00       	.word 0xf3
    a02e:	3f 20       	.word 0x203f
    a030:	f3 20       	.word 0x20f3
    a032:	ed 00       	.word 0xed
    a034:	01 12       	.word 0x1201
    a036:	3e 00       	.word 0x3e
    a038:	30 0c       	.word 0xc30
    a03a:	36 28       	.word 0x2836
    a03c:	00 2d       	.word 0x2d00
    a03e:	00 15       	.word 0x1500
    a040:	09 0c       	.word 0xc09
    a042:	39 00       	.word 0x39
    a044:	00 21       	.word 0x2100
    a046:	0f 00       	.word 0xf
    a048:	03 0c       	.word 0xc03
    a04a:	08 00       	.word 0x8
    a04c:	00 01       	.word 0x100
    a04e:	58 10       	.word 0x1058
    a050:	78 20       	.word 0x2078
    a052:	d8 00       	.word 0xd8
    a054:	8e 08       	.word 0x88e
    a056:	58 08       	.word 0x858
    a058:	71 00       	.word 0x71
    a05a:	8e 04       	.word 0x48e
    a05c:	70 10       	.word 0x1070
    a05e:	00 10       	.word 0x1000
    a060:	0e 00       	.word 0xe
    a062:	00 36       	.word 0x3600
    a064:	30 00       	.word 0x30
    a066:	d4 10       	.word 0x10d4
    a068:	50 10       	.word 0x1050
    a06a:	dc 00       	.word 0xdc
    a06c:	70 01       	.word 0x170
    a06e:	86 04       	.word 0x486
    a070:	50 00       	.word 0x50
    a072:	88 20       	.word 0x2088
    a074:	78 00       	.word 0x78
    a076:	1c 00       	.word 0x1c
    a078:	04 20       	.word 0x2004
    a07a:	14 28       	.word 0x2814
    a07c:	c0 28       	.word 0x28c0
    a07e:	0c 20       	.word 0x200c
    a080:	48 08       	.word 0x848
    a082:	49 09       	.word 0x949
    a084:	00 12       	.word 0x1200
    a086:	89 24       	.word 0x2489
    a088:	20 05       	.word 0x520
    a08a:	ff 3f       	.word 0x3fff
    a08c:	2b 1b       	.word 0x1b2b
    a08e:	e4 20       	.word 0x20e4
    a090:	7f 3e       	.word 0x3e7f
    a092:	3f 1f       	.word 0x1f3f
    a094:	ff ff       	.word 0xffff

0000a096 <.LC0>:
    a096:	53 65       	.word 0x6553
    a098:	74 75       	.word 0x7574
    a09a:	70 00       	.word 0x70

0000a09c <.LC1>:
    a09c:	72 75       	.word 0x7572
    a09e:	6e 00       	.word 0x6e

0000a0a0 <.LC2>:
    a0a0:	4e 75       	.word 0x754e
    a0a2:	6d 20       	.word 0x206d
    a0a4:	53 74       	.word 0x7453
    a0a6:	72 69       	.word 0x6972
    a0a8:	6b 65       	.word 0x656b
    a0aa:	73 3a       	.word 0x3a73
    a0ac:	25 64       	.word 0x6425
    a0ae:	00 00       	.word 0
Disassembly of section .text:

000020b0 <_strikeLEDOff>:

typedef void (*STATE_HANDLER_T)(void);
STATE_HANDLER_T state, last_state;

void strikeLEDOff() {
    20b0:	00 00 fa    	lnk       #0x0
    STRIKE1_RLED = OFF; delay_by_nop(1);
    20b2:	da a2 a9    	bclr.b    0x2da, #0x5
    20b4:	10 00 20    	mov.w     #0x1, w0
    20b6:	01 00 20    	mov.w     #0x0, w1
    20b8:	10 06 07    	rcall     0x2cda <_delay_by_nop> <.L0> <.LFB0> <.LFE16> <.Letext0> <.Ltext0>
    STRIKE1_GLED = OFF; delay_by_nop(1);
    20ba:	da 82 a9    	bclr.b    0x2da, #0x4
    20bc:	10 00 20    	mov.w     #0x1, w0
    20be:	01 00 20    	mov.w     #0x0, w1
    20c0:	0c 06 07    	rcall     0x2cda <_delay_by_nop> <.L0> <.LFB0> <.LFE16> <.Letext0> <.Ltext0>
    STRIKE2_RLED = OFF; delay_by_nop(1);
    20c2:	da 02 a9    	bclr.b    0x2da, #0x0
    20c4:	10 00 20    	mov.w     #0x1, w0
    20c6:	01 00 20    	mov.w     #0x0, w1
    20c8:	08 06 07    	rcall     0x2cda <_delay_by_nop> <.L0> <.LFB0> <.LFE16> <.Letext0> <.Ltext0>
    STRIKE2_GLED = OFF; delay_by_nop(1);
    20ca:	da 22 a9    	bclr.b    0x2da, #0x1
    20cc:	10 00 20    	mov.w     #0x1, w0
    20ce:	01 00 20    	mov.w     #0x0, w1
    20d0:	04 06 07    	rcall     0x2cda <_delay_by_nop> <.L0> <.LFB0> <.LFE16> <.Letext0> <.Ltext0>
    STRIKE3_RLED = OFF; delay_by_nop(1);
    20d2:	cb e2 a9    	bclr.b    0x2cb, #0x7
    20d4:	10 00 20    	mov.w     #0x1, w0
    20d6:	01 00 20    	mov.w     #0x0, w1
    20d8:	00 06 07    	rcall     0x2cda <_delay_by_nop> <.L0> <.LFB0> <.LFE16> <.Letext0> <.Ltext0>
    STRIKE3_GLED = OFF; delay_by_nop(1);
    20da:	ea 62 a9    	bclr.b    0x2ea, #0x3
    20dc:	10 00 20    	mov.w     #0x1, w0
    20de:	01 00 20    	mov.w     #0x0, w1
    20e0:	fc 05 07    	rcall     0x2cda <_delay_by_nop> <.L0> <.LFB0> <.LFE16> <.Letext0> <.Ltext0>
}
    20e2:	00 80 fa    	ulnk      
    20e4:	00 00 06    	return    

000020e6 <_main>:

// MAIN FUNCTION ***************************************************************

int16_t main(void) {
    20e6:	08 00 fa    	lnk       #0x8
    init_elecanisms();
    20e8:	53 0a 07    	rcall     0x3590 <.LFE2> <_init_elecanisms> <.L0> <.LFB0> <.Ltext0>
    init_clock(); // not sure if this does anything
    20ea:	00 10 20    	mov.w     #0x100, w0
    20ec:	20 3a 88    	mov.w     w0, 0x744
    init_ajuart();
    20ee:	37 08 07    	rcall     0x315e <_init_ajuart> <.L0> <.LFB0> <.LFE21> <.Letext0> <.Ltext0>
    // Initializes I2C on I2C3
    i2c_init(1e3);
    20f0:	80 3e 20    	mov.w     #0x3e8, w0
    20f2:	06 06 07    	rcall     0x2d00 <_i2c_init> <.LFB1> <.LFE0>
    led_begin((_ADAFRUIT_LED*)&matrix.super, matrix_addr); // Set up the HT16K33 and start the oscillator
    20f4:	0c c8 bf    	mov.b     0x80c, WREG
    20f6:	80 40 78    	mov.b     w0, w1
    20f8:	40 02 21    	mov.w     #0x1024, w0
    20fa:	3d 03 07    	rcall     0x2776 <_led_begin> <.L0> <.LFB0> <.LFE9> <.Letext0> <.Ltext0>

    time_left = max_time; // Set up time left to be max time
    20fc:	40 01 20    	mov.w     #0x14, w0
    20fe:	00 40 88    	mov.w     w0, 0x800

    // Setup pins as output
    D0_DIR = 0;
    2100:	d8 a2 a9    	bclr.b    0x2d8, #0x5
    D1_DIR = 0;
    2102:	d8 82 a9    	bclr.b    0x2d8, #0x4
    D10_DIR = 0;
    2104:	d8 02 a9    	bclr.b    0x2d8, #0x0
    D11_DIR = 0;
    2106:	d8 22 a9    	bclr.b    0x2d8, #0x1
    D4_DIR = 0;
    2108:	c9 e2 a9    	bclr.b    0x2c9, #0x7
    D5_DIR = 0;
    210a:	e8 62 a9    	bclr.b    0x2e8, #0x3
    D6_DIR = 0;
    210c:	d9 02 a9    	bclr.b    0x2d9, #0x0
    D7_DIR = 0;
    210e:	d9 62 a9    	bclr.b    0x2d9, #0x3
    D9_DIR = 0;
    2110:	d9 42 a9    	bclr.b    0x2d9, #0x2


    // Init button low
    BUTTON_LED = 0;
    2112:	db 02 a9    	bclr.b    0x2db, #0x0
    BUTTON_LED_LOW = 0;
    2114:	db 62 a9    	bclr.b    0x2db, #0x3

    // Setup D8 as input
    D8_DIR = 1;
    2116:	d9 22 a8    	bset.b    0x2d9, #0x1
    // Set up pull-up resistor on button D8
    CNPU4bits.CN54PUE = 1;
    2118:	74 c0 a8    	bset.b    0x74, #0x6
    // Set D9 as pull-down for button
    D9 = 0;
    211a:	db 42 a9    	bclr.b    0x2db, #0x2

    /* Timer 1 setup for game timing*/
    T1CON = 0x0030;         // set Timer1 period to 1s
    211c:	00 03 20    	mov.w     #0x30, w0
    211e:	20 08 88    	mov.w     w0, 0x104
    PR1 = 0xF422;
    2120:	20 42 2f    	mov.w     #0xf422, w0
    2122:	10 08 88    	mov.w     w0, 0x102
    TMR1 = 0;               // set Timer1 count to 0
    2124:	00 21 ef    	clr.w     0x100
    IFS0bits.T1IF = 0;      // lower Timer1 interrupt flag
    2126:	84 60 a9    	bclr.b    0x84, #0x3
    IEC0bits.T1IE = 1;      // enable Timer1 interrupt
    2128:	94 60 a8    	bset.b    0x94, #0x3

    /* Timer 2 setup for beep timing*/
    T2CON = 0x0030;
    212a:	00 03 20    	mov.w     #0x30, w0
    212c:	80 08 88    	mov.w     w0, 0x110
    PR2 = 0x186A;           // set Timer2 period to 0.1s
    212e:	a0 86 21    	mov.w     #0x186a, w0
    2130:	60 08 88    	mov.w     w0, 0x10c
    TMR2 = 0;               // set Timer1 count to 0
    2132:	06 21 ef    	clr.w     0x106
    IFS0bits.T2IF = 0;      // lower T2 interrupt flag
    2134:	84 e0 a9    	bclr.b    0x84, #0x7
    IEC0bits.T2IE = 1;      // enable T2 interrupt
    2136:	94 e0 a8    	bset.b    0x94, #0x7

    /* Remap OC1 to D11 */
    uint8_t *RPOR, *RPINR;
    RPOR = (uint8_t *)&RPOR0;
    2138:	00 6c 20    	mov.w     #0x6c0, w0
    213a:	10 07 98    	mov.w     w0, [w14+2]
    RPINR = (uint8_t *)&RPINR0;
    213c:	00 68 20    	mov.w     #0x680, w0
    213e:	20 07 98    	mov.w     w0, [w14+4]

    __builtin_write_OSCCONL(OSCCON & 0xBF);
    2140:	11 3a 80    	mov.w     0x742, w1
    2142:	f0 0b 20    	mov.w     #0xbf, w0
    2144:	00 81 60    	and.w     w1, w0, w2
    2146:	60 04 20    	mov.w     #0x46, w0
    2148:	71 05 20    	mov.w     #0x57, w1
    214a:	23 74 20    	mov.w     #0x742, w3
    214c:	80 49 78    	mov.b     w0, [w3]
    214e:	81 49 78    	mov.b     w1, [w3]
    2150:	82 49 78    	mov.b     w2, [w3]
    RPOR[D12_RP] = OC1_RP;  // connect the OC1 module output to pin D8
    2152:	1e 00 90    	mov.w     [w14+2], w0
    2154:	77 00 40    	add.w     w0, #0x17, w0
    2156:	21 c1 b3    	mov.b     #0x12, w1
    2158:	01 48 78    	mov.b     w1, [w0]
    __builtin_write_OSCCONL(OSCCON | 0x40);
    215a:	10 3a 80    	mov.w     0x742, w0
    215c:	00 01 78    	mov.w     w0, w2
    215e:	02 60 a0    	bset.w    w2, #0x6
    2160:	60 04 20    	mov.w     #0x46, w0
    2162:	71 05 20    	mov.w     #0x57, w1
    2164:	23 74 20    	mov.w     #0x742, w3
    2166:	80 49 78    	mov.b     w0, [w3]
    2168:	81 49 78    	mov.b     w1, [w3]
    216a:	82 49 78    	mov.b     w2, [w3]

    /* OC1 setup for beep output*/
    OC1CON1bits.OCTSEL = 0b111;   // configure OC1 module to use the peripheral
    216c:	81 0c 80    	mov.w     0x190, w1
    216e:	00 c0 21    	mov.w     #0x1c00, w0
    2170:	01 00 70    	ior.w     w0, w1, w0
    2172:	80 0c 88    	mov.w     w0, 0x190
                                  //   clock (i.e., FCY, OCTSEL<2:0> = 0b111) and
    OC1CON1bits.OCM = 0b110;      //   and to operate in edge-aligned PWM mode
    2174:	81 0c 80    	mov.w     0x190, w1
    2176:	80 ff 2f    	mov.w     #0xfff8, w0
    2178:	00 80 60    	and.w     w1, w0, w0
    217a:	60 00 b3    	ior.w     #0x6, w0
    217c:	80 0c 88    	mov.w     w0, 0x190
                                  //   (OCM<2:0> = 0b110)
    OC1CON2bits.OCTRIG = 0;       // configure OC1 module to syncrhonize to itself
    217e:	92 e1 a9    	bclr.b    0x192, #0x7
    OC1CON2bits.SYNCSEL = 0x1F;   //   (i.e., OCTRIG = 0 and SYNCSEL<4:0> = 0b11111)
    2180:	90 0c 80    	mov.w     0x192, w0
    2182:	f0 01 b3    	ior.w     #0x1f, w0
    2184:	90 0c 88    	mov.w     w0, 0x192

    OC1RS = PWM_PERIOD_2_3;       // configure period register to get 2.3 kHz
    2186:	60 04 85    	mov.w     0xa08c, w0
    2188:	a0 0c 88    	mov.w     w0, 0x194
    OC1TMR = 0;                   // set OC1 timer count to 0
    218a:	98 21 ef    	clr.w     0x198
    OC1R = 0;                     // start with it off
    218c:	96 21 ef    	clr.w     0x196


    state = idle;           // Initialize state to idle
    218e:	c0 20 22    	mov.w     #0x220c, w0
    2190:	30 40 88    	mov.w     w0, 0x806
    last_state = (STATE_HANDLER_T)NULL;
    2192:	08 28 ef    	clr.w     0x808

    num_strikes = 0;
    2194:	03 68 ef    	clr.b     0x803
    prev_num_strikes = 0;
    2196:	04 68 ef    	clr.b     0x804
    game_complete = 0;
    2198:	05 68 ef    	clr.b     0x805

    i2c2_init(157);      // initialize I2C for 16Mhz OSC with 100kHz I2C clock
    219a:	d0 09 20    	mov.w     #0x9d, w0
    219c:	f1 06 07    	rcall     0x2f80 <_i2c2_init> <.LFB13> <.LFE12>

    delay_by_nop(300000);
    219e:	00 3e 29    	mov.w     #0x93e0, w0
    21a0:	41 00 20    	mov.w     #0x4, w1
    21a2:	9b 05 07    	rcall     0x2cda <_delay_by_nop> <.L0> <.LFB0> <.LFE16> <.Letext0> <.Ltext0>


    uint8_t i = 0;
    21a4:	00 40 eb    	clr.b     w0
    21a6:	00 4f 78    	mov.b     w0, [w14]
    // Poll the peripherals to see who's here
    for (i = 0; i < 6; i++) {
    21a8:	00 40 eb    	clr.b     w0
    21aa:	00 4f 78    	mov.b     w0, [w14]
    21ac:	14 00 37    	bra       0x21d6 <.L3>

000021ae <.L5>:
        uint8_t temp = 0;
    21ae:	00 40 eb    	clr.b     w0
    21b0:	60 47 98    	mov.b     w0, [w14+6]

        i2c2_start();
    21b2:	f3 06 07    	rcall     0x2f9a <_i2c2_start> <.LFB14> <.LFE13>
        temp = send_i2c2_byte(peripheral_addrs[i]); // set /W bit
    21b4:	1e 80 fb    	ze        [w14], w0
    21b6:	01 10 21    	mov.w     #0x1100, w1
    21b8:	61 40 78    	mov.b     [w1+w0], w0
    21ba:	00 80 fb    	ze        w0, w0
    21bc:	3d 07 07    	rcall     0x3038 <_send_i2c2_byte> <.LFB17> <.LFE16>
    21be:	60 47 98    	mov.b     w0, [w14+6]
        if (temp == 0) {
    21c0:	6e 40 90    	mov.b     [w14+6], w0
    21c2:	00 04 e0    	cp0.b     w0
    21c4:	06 00 3a    	bra       NZ, 0x21d2 <.L4>
            peripheral_present[i] = 1; // We found it, but we need to reset the FSM for i2c
    21c6:	1e 80 fb    	ze        [w14], w0
    21c8:	81 0b 21    	mov.w     #0x10b8, w1
    21ca:	12 c0 b3    	mov.b     #0x1, w2
    21cc:	82 70 78    	mov.b     w2, [w1+w0]
            send_i2c2_byte(0xA0); // Send dummy byte to reset FSM
    21ce:	00 0a 20    	mov.w     #0xa0, w0
    21d0:	33 07 07    	rcall     0x3038 <_send_i2c2_byte> <.LFB17> <.LFE16>

000021d2 <.L4>:
        }
        reset_i2c2_bus();
    21d2:	17 07 07    	rcall     0x3002 <_reset_i2c2_bus> <.LFB16> <.LFE15>

000021d4 <.LBE2>:
    21d4:	1e 4f e8    	inc.b     [w14], [w14]

000021d6 <.L3>:
    21d6:	1e 40 78    	mov.b     [w14], w0
    21d8:	e5 4f 50    	sub.b     w0, #0x5, [w15]
    21da:	e9 ff 36    	bra       LEU, 0x21ae <.L5> <.LBB2>
    }

    //TODO: Send out parameters

    //TODO: Send out start condition
    for (i = 0; i < 6; i++) {
    21dc:	00 40 eb    	clr.b     w0
    21de:	00 4f 78    	mov.b     w0, [w14]
    21e0:	0f 00 37    	bra       0x2200 <.L6>

000021e2 <.L8>:
        if (peripheral_present[i]) {
    21e2:	1e 80 fb    	ze        [w14], w0
    21e4:	81 0b 21    	mov.w     #0x10b8, w1
    21e6:	61 40 78    	mov.b     [w1+w0], w0
    21e8:	00 04 e0    	cp0.b     w0
    21ea:	09 00 32    	bra       Z, 0x21fe <.L7>
            i2c2_start();
    21ec:	d6 06 07    	rcall     0x2f9a <_i2c2_start> <.LFB14> <.LFE13>
            send_i2c2_byte(peripheral_addrs[i] | 0);  // init a write, last to 0
    21ee:	1e 80 fb    	ze        [w14], w0
    21f0:	01 10 21    	mov.w     #0x1100, w1
    21f2:	61 40 78    	mov.b     [w1+w0], w0
    21f4:	00 80 fb    	ze        w0, w0
    21f6:	20 07 07    	rcall     0x3038 <_send_i2c2_byte> <.LFB17> <.LFE16>
            send_i2c2_byte(HEADER_START_GAME << 5);
    21f8:	00 0c 20    	mov.w     #0xc0, w0
    21fa:	1e 07 07    	rcall     0x3038 <_send_i2c2_byte> <.LFB17> <.LFE16>
            reset_i2c2_bus();
    21fc:	02 07 07    	rcall     0x3002 <_reset_i2c2_bus> <.LFB16> <.LFE15>

000021fe <.L7>:
    21fe:	1e 4f e8    	inc.b     [w14], [w14]

00002200 <.L6>:
    2200:	1e 40 78    	mov.b     [w14], w0
    2202:	e5 4f 50    	sub.b     w0, #0x5, [w15]
    2204:	ee ff 36    	bra       LEU, 0x21e2 <.L8>

00002206 <.L9>:
        }
    }

    while (1) {
        state();
    2206:	30 40 80    	mov.w     0x806, w0
    2208:	00 00 01    	call      w0
    }
    220a:	fd ff 37    	bra       0x2206 <.L9>

0000220c <_idle>:

}

// ISRs ************************************************************************

uint8_t beep_state = 0;

void __attribute__((interrupt, auto_psv)) _T1Interrupt(void) {
    IFS0bits.T1IF = 0;  // if it's been a second, lower the counter and show it
    time_left--;
    if (state == run) {
        TMR2 = 0;
        beep_state = 0;
        IEC0bits.T2IE = 1; // enable t2 interrupt
        T2CONbits.TON = 1; //Start T2
        OC1RS = PWM_PERIOD_2_3;
        OC1R = OC1RS>>1; // start beep
    }
}

void __attribute__((interrupt, auto_psv)) _T2Interrupt(void) {
    IFS0bits.T2IF = 0;
    switch (beep_state) {
        case 0:         // turn off after first beep
            OC1R = 0;
            beep_state++;
            LED3 = OFF; delay_by_nop(1);
            LED1 = ON; delay_by_nop(1);
            break;
        case 1:
            OC1RS = PWM_PERIOD_1_9; // make lower beep
            OC1R = OC1RS>>1;
            LED1 = OFF; delay_by_nop(1);
            LED2 = ON; delay_by_nop(1);
            beep_state++;
            break;
        case 2:
            OC1RS = PWM_PERIOD_2_3; // Reset to high beep and stop
            OC1R = 0;
            LED1 = OFF; delay_by_nop(1);
            LED2 = ON; delay_by_nop(1);
            beep_state++;
            break;
        default:
            break;
    }
}

// STATE MACHINE FUNCTIONS *****************************************************

void idle(void) {
    220c:	00 00 fa    	lnk       #0x0
    if (state != last_state) {  // if we are entering the state, do initialization stuff
    220e:	31 40 80    	mov.w     0x806, w1
    2210:	40 40 80    	mov.w     0x808, w0
    2212:	80 8f 50    	sub.w     w1, w0, [w15]
    2214:	05 00 32    	bra       Z, 0x2220 <.L20>
        last_state = state;
    2216:	30 40 80    	mov.w     0x806, w0
    2218:	40 40 88    	mov.w     w0, 0x808
        dispSeconds(max_time); // Start by showing full time
    221a:	40 01 20    	mov.w     #0x14, w0
    221c:	44 02 07    	rcall     0x26a6 <_dispSeconds> <.LFB8> <.LFE7>
        BUTTON_LED = ON;
    221e:	db 02 a8    	bset.b    0x2db, #0x0

00002220 <.L20>:
    }

    // Perform state tasks

    // Check for state transitions
    /* TODO is it better to not have the start button? */
    delay_by_nop(2000000); // delay for a long time at the start
    2220:	00 48 28    	mov.w     #0x8480, w0
    2222:	e1 01 20    	mov.w     #0x1e, w1
    2224:	5a 05 07    	rcall     0x2cda <_delay_by_nop> <.L0> <.LFB0> <.LFE16> <.Letext0> <.Ltext0>
    state=run;
    2226:	60 24 22    	mov.w     #0x2246, w0
    2228:	30 40 88    	mov.w     w0, 0x806

    U1_puts("Setup");
    222a:	60 09 2a    	mov.w     #0xa096, w0
    222c:	25 08 07    	rcall     0x3278 <_U1_puts> <.LFB7> <.LFE6>
    U1_putc('\r');
    222e:	d0 c0 b3    	mov.b     #0xd, w0
    2230:	e9 07 07    	rcall     0x3204 <_U1_putc> <.LFB5> <.LFE4>
    U1_putc('\n');
    2232:	a0 c0 b3    	mov.b     #0xa, w0
    2234:	e7 07 07    	rcall     0x3204 <_U1_putc> <.LFB5> <.LFE4>
    U1_flush_tx_buffer();
    2236:	dd 07 07    	rcall     0x31f2 <_U1_flush_tx_buffer> <.LFB4> <.LFE3>

    // if (D8 == 0) { // D8 is pulled-up, if button is pressed it pulls it down
    //     state = run;
    // }

    // if we are leaving the state, do clean up stuff
    if (state != last_state) {
    2238:	31 40 80    	mov.w     0x806, w1
    223a:	40 40 80    	mov.w     0x808, w0
    223c:	80 8f 50    	sub.w     w1, w0, [w15]
    223e:	01 00 32    	bra       Z, 0x2242 <.L19>
        BUTTON_LED = OFF;
    2240:	db 02 a9    	bclr.b    0x2db, #0x0

00002242 <.L19>:
    }
}
    2242:	00 80 fa    	ulnk      
    2244:	00 00 06    	return    

00002246 <_run>:

void run(void) {
    2246:	06 00 fa    	lnk       #0x6
    if (state != last_state) {  // if we are entering the state, do intitialization stuff
    2248:	31 40 80    	mov.w     0x806, w1
    224a:	40 40 80    	mov.w     0x808, w0
    224c:	80 8f 50    	sub.w     w1, w0, [w15]
    224e:	19 00 32    	bra       Z, 0x2282 <.L23>
        last_state = state;
    2250:	30 40 80    	mov.w     0x806, w0
    2252:	40 40 88    	mov.w     w0, 0x808
        IFS0bits.T1IF = 0; //lower interrupt flag
    2254:	84 60 a9    	bclr.b    0x84, #0x3
        TMR1 = 0;          // reset timer register
    2256:	00 21 ef    	clr.w     0x100
        T1CONbits.TON = 1; // enable 1 second timer
    2258:	05 e1 a8    	bset.b    0x105, #0x7

        time_left = max_time;
    225a:	40 01 20    	mov.w     #0x14, w0
    225c:	00 40 88    	mov.w     w0, 0x800
        dispSeconds(time_left);
    225e:	00 40 80    	mov.w     0x800, w0
    2260:	22 02 07    	rcall     0x26a6 <_dispSeconds> <.LFB8> <.LFE7>
        STRIKE1_GLED = ON; // Turn on strike LEDs to green
    2262:	da 82 a8    	bset.b    0x2da, #0x4
        delay_by_nop(1);
    2264:	10 00 20    	mov.w     #0x1, w0
    2266:	01 00 20    	mov.w     #0x0, w1
    2268:	38 05 07    	rcall     0x2cda <_delay_by_nop> <.L0> <.LFB0> <.LFE16> <.Letext0> <.Ltext0>
        STRIKE2_GLED = ON;
    226a:	da 22 a8    	bset.b    0x2da, #0x1
        delay_by_nop(1);
    226c:	10 00 20    	mov.w     #0x1, w0
    226e:	01 00 20    	mov.w     #0x0, w1
    2270:	34 05 07    	rcall     0x2cda <_delay_by_nop> <.L0> <.LFB0> <.LFE16> <.Letext0> <.Ltext0>
        STRIKE3_GLED = ON;
    2272:	ea 62 a8    	bset.b    0x2ea, #0x3
        U1_puts("run");
    2274:	c0 09 2a    	mov.w     #0xa09c, w0
    2276:	00 08 07    	rcall     0x3278 <_U1_puts> <.LFB7> <.LFE6>
        U1_putc('\r');
    2278:	d0 c0 b3    	mov.b     #0xd, w0
    227a:	c4 07 07    	rcall     0x3204 <_U1_putc> <.LFB5> <.LFE4>
        U1_putc('\n');
    227c:	a0 c0 b3    	mov.b     #0xa, w0
    227e:	c2 07 07    	rcall     0x3204 <_U1_putc> <.LFB5> <.LFE4>
        U1_flush_tx_buffer();
    2280:	b8 07 07    	rcall     0x31f2 <_U1_flush_tx_buffer> <.LFB4> <.LFE3>

00002282 <.L23>:
    }

    // Perform state tasks
    datareturned = 0;
    2282:	02 68 ef    	clr.b     0x802
    uint8_t i;
    uint16_t prev_r = 0; uint16_t prev_rs = 0;
    2284:	00 00 eb    	clr.w     w0
    2286:	10 07 98    	mov.w     w0, [w14+2]
    2288:	00 00 eb    	clr.w     w0
    228a:	20 07 98    	mov.w     w0, [w14+4]

    // Handle time
    dispSeconds(time_left);
    228c:	00 40 80    	mov.w     0x800, w0
    228e:	0b 02 07    	rcall     0x26a6 <_dispSeconds> <.LFB8> <.LFE7>
    if (time_left == 0) {
    2290:	00 40 80    	mov.w     0x800, w0
    2292:	00 00 e0    	cp0.w     w0
    2294:	17 00 3a    	bra       NZ, 0x22c4 <.L24>
        for (i = 0; i < 6; i++) {
    2296:	00 40 eb    	clr.b     w0
    2298:	00 4f 78    	mov.b     w0, [w14]
    229a:	0f 00 37    	bra       0x22ba <.L25>

0000229c <.L27>:
            if(peripheral_present[i]) {
    229c:	1e 80 fb    	ze        [w14], w0
    229e:	81 0b 21    	mov.w     #0x10b8, w1
    22a0:	61 40 78    	mov.b     [w1+w0], w0
    22a2:	00 04 e0    	cp0.b     w0
    22a4:	09 00 32    	bra       Z, 0x22b8 <.L26>
                i2c2_start();
    22a6:	79 06 07    	rcall     0x2f9a <_i2c2_start> <.LFB14> <.LFE13>
                send_i2c2_byte(peripheral_addrs[i] | 0);  // init a write, last to 0
    22a8:	1e 80 fb    	ze        [w14], w0
    22aa:	01 10 21    	mov.w     #0x1100, w1
    22ac:	61 40 78    	mov.b     [w1+w0], w0
    22ae:	00 80 fb    	ze        w0, w0
    22b0:	c3 06 07    	rcall     0x3038 <_send_i2c2_byte> <.LFB17> <.LFE16>
                send_i2c2_byte(HEADER_END_LOSE << 5); // Broadcast the current number of strikes
    22b2:	00 04 20    	mov.w     #0x40, w0
    22b4:	c1 06 07    	rcall     0x3038 <_send_i2c2_byte> <.LFB17> <.LFE16>
                reset_i2c2_bus();
    22b6:	a5 06 07    	rcall     0x3002 <_reset_i2c2_bus> <.LFB16> <.LFE15>

000022b8 <.L26>:
    22b8:	1e 4f e8    	inc.b     [w14], [w14]

000022ba <.L25>:
    22ba:	1e 40 78    	mov.b     [w14], w0
    22bc:	e5 4f 50    	sub.b     w0, #0x5, [w15]
    22be:	ee ff 36    	bra       LEU, 0x229c <.L27>
            }
        }
       state = end_fail;            // if we're out of time, go to end
    22c0:	00 51 22    	mov.w     #0x2510, w0
    22c2:	30 40 88    	mov.w     w0, 0x806

000022c4 <.L24>:
    }

    // Get completeness and strikes from every module
    prev_num_strikes = num_strikes;
    22c4:	03 c8 bf    	mov.b     0x803, WREG
    22c6:	04 e8 b7    	mov.b     WREG, 0x804
    for (i = 0; i < 6; i++) {
    22c8:	00 40 eb    	clr.b     w0
    22ca:	00 4f 78    	mov.b     w0, [w14]
    22cc:	3e 00 37    	bra       0x234a <.L28>

000022ce <.L33>:
        if(peripheral_present[i]) {
    22ce:	1e 80 fb    	ze        [w14], w0
    22d0:	81 0b 21    	mov.w     #0x10b8, w1
    22d2:	61 40 78    	mov.b     [w1+w0], w0
    22d4:	00 04 e0    	cp0.b     w0
    22d6:	38 00 32    	bra       Z, 0x2348 <.L29>
            i2c2_start();
    22d8:	60 06 07    	rcall     0x2f9a <_i2c2_start> <.LFB14> <.LFE13>
            send_i2c2_byte(peripheral_addrs[i] | 1);  // init a read, last to 1
    22da:	1e 80 fb    	ze        [w14], w0
    22dc:	01 10 21    	mov.w     #0x1100, w1
    22de:	61 40 78    	mov.b     [w1+w0], w0
    22e0:	00 04 a0    	bset.b    w0, #0x0
    22e2:	00 80 fb    	ze        w0, w0
    22e4:	a9 06 07    	rcall     0x3038 <_send_i2c2_byte> <.LFB17> <.LFE16>
            datareturned = i2c2_read_nack();
    22e6:	0a 07 07    	rcall     0x30fc <_i2c2_read_nack> <.LFB20> <.LFE19>
    22e8:	02 e8 b7    	mov.b     WREG, 0x802
            reset_i2c2_bus();
    22ea:	8b 06 07    	rcall     0x3002 <_reset_i2c2_bus> <.LFB16> <.LFE15>

            if (datareturned & 0b10000000) { // Complete flag
    22ec:	02 c8 bf    	mov.b     0x802, WREG
    22ee:	00 04 e0    	cp0.b     w0
    22f0:	1b 00 3d    	bra       GE, 0x2328 <.L30>
                if (peripheral_complete[i] == 0){
    22f2:	1e 80 fb    	ze        [w14], w0
    22f4:	e1 0b 21    	mov.w     #0x10be, w1
    22f6:	61 40 78    	mov.b     [w1+w0], w0
    22f8:	00 04 e0    	cp0.b     w0
    22fa:	12 00 3a    	bra       NZ, 0x2320 <.L31>

                    disable_interrupts();
    22fc:	ff 3f fc    	disi      #0x3fff
                    prev_rs = OC1RS;
    22fe:	a1 0c 80    	mov.w     0x194, w1
    2300:	21 07 98    	mov.w     w1, [w14+4]
                    prev_r = OC1R;
    2302:	b1 0c 80    	mov.w     0x196, w1
    2304:	11 07 98    	mov.w     w1, [w14+2]
                    OC1RS = PWM_PERIOD_2;
    2306:	90 04 85    	mov.w     0xa092, w0
    2308:	a0 0c 88    	mov.w     w0, 0x194
                    OC1R = OC1RS >> 1; // Make a high-pitched complete sound
    230a:	a0 0c 80    	mov.w     0x194, w0
    230c:	00 00 d1    	lsr.w     w0, w0
    230e:	b0 0c 88    	mov.w     w0, 0x196
                    delay_by_nop(300000);
    2310:	00 3e 29    	mov.w     #0x93e0, w0
    2312:	41 00 20    	mov.w     #0x4, w1
    2314:	e2 04 07    	rcall     0x2cda <_delay_by_nop> <.L0> <.LFB0> <.LFE16> <.Letext0> <.Ltext0>
                    OC1RS = prev_rs;
    2316:	ae 00 90    	mov.w     [w14+4], w1
    2318:	a1 0c 88    	mov.w     w1, 0x194
                    OC1R = prev_r;
    231a:	9e 00 90    	mov.w     [w14+2], w1
    231c:	b1 0c 88    	mov.w     w1, 0x196
                    enable_interrupts();
    231e:	52 20 ef    	clr.w     0x52

00002320 <.L31>:
                }
                peripheral_complete[i] = 1;
    2320:	1e 80 fb    	ze        [w14], w0
    2322:	e1 0b 21    	mov.w     #0x10be, w1
    2324:	12 c0 b3    	mov.b     #0x1, w2
    2326:	82 70 78    	mov.b     w2, [w1+w0]

00002328 <.L30>:
            }
            if (((datareturned & 0b01110000) >> 4) > prev_num_strikes) { //If the module recorded any strikes
    2328:	02 c8 bf    	mov.b     0x802, WREG
    232a:	80 80 fb    	ze        w0, w1
    232c:	00 07 20    	mov.w     #0x70, w0
    232e:	00 80 60    	and.w     w1, w0, w0
    2330:	c4 80 de    	asr.w     w0, #0x4, w1
    2332:	04 c8 bf    	mov.b     0x804, WREG
    2334:	00 80 fb    	ze        w0, w0
    2336:	80 8f 50    	sub.w     w1, w0, [w15]
    2338:	07 00 34    	bra       LE, 0x2348 <.L29>
                num_strikes = ((datareturned & 0b01110000) >> 4);
    233a:	02 c8 bf    	mov.b     0x802, WREG
    233c:	80 80 fb    	ze        w0, w1
    233e:	00 07 20    	mov.w     #0x70, w0
    2340:	00 80 60    	and.w     w1, w0, w0
    2342:	44 80 de    	asr.w     w0, #0x4, w0
    2344:	00 40 78    	mov.b     w0, w0
    2346:	03 e8 b7    	mov.b     WREG, 0x803

00002348 <.L29>:
    2348:	1e 4f e8    	inc.b     [w14], [w14]

0000234a <.L28>:
    234a:	1e 40 78    	mov.b     [w14], w0
    234c:	e5 4f 50    	sub.b     w0, #0x5, [w15]
    234e:	bf ff 36    	bra       LEU, 0x22ce <.L33>
            }
            if ((datareturned & 0b00001111) != 0) {
                // TODO: implement error codes if necessary
            }
        }
    }
    //Handles completeness
    game_complete = 1;
    2350:	10 c0 b3    	mov.b     #0x1, w0
    2352:	05 e8 b7    	mov.b     WREG, 0x805
    for (i = 0; i < 6; i++) {
    2354:	00 40 eb    	clr.b     w0
    2356:	00 4f 78    	mov.b     w0, [w14]
    2358:	0c 00 37    	bra       0x2372 <.L34>

0000235a <.L36>:
        if (peripheral_present[i] && !peripheral_complete[i]) {
    235a:	1e 80 fb    	ze        [w14], w0
    235c:	81 0b 21    	mov.w     #0x10b8, w1
    235e:	61 40 78    	mov.b     [w1+w0], w0
    2360:	00 04 e0    	cp0.b     w0
    2362:	06 00 32    	bra       Z, 0x2370 <.L35>
    2364:	1e 80 fb    	ze        [w14], w0
    2366:	e1 0b 21    	mov.w     #0x10be, w1
    2368:	61 40 78    	mov.b     [w1+w0], w0
    236a:	00 04 e0    	cp0.b     w0
    236c:	01 00 3a    	bra       NZ, 0x2370 <.L35>
            game_complete = 0;
    236e:	05 68 ef    	clr.b     0x805

00002370 <.L35>:
    2370:	1e 4f e8    	inc.b     [w14], [w14]

00002372 <.L34>:
    2372:	1e 40 78    	mov.b     [w14], w0
    2374:	e5 4f 50    	sub.b     w0, #0x5, [w15]
    2376:	f1 ff 36    	bra       LEU, 0x235a <.L36>
        }
    }
    // If we checked all of them and the game is still complete, then count it!
    if (game_complete) {
    2378:	05 c8 bf    	mov.b     0x805, WREG
    237a:	00 04 e0    	cp0.b     w0
    237c:	17 00 32    	bra       Z, 0x23ac <.L37>
        for (i = 0; i < 6; i++) {
    237e:	00 40 eb    	clr.b     w0
    2380:	00 4f 78    	mov.b     w0, [w14]
    2382:	0f 00 37    	bra       0x23a2 <.L38>

00002384 <.L40>:
            if(peripheral_present[i]) {
    2384:	1e 80 fb    	ze        [w14], w0
    2386:	81 0b 21    	mov.w     #0x10b8, w1
    2388:	61 40 78    	mov.b     [w1+w0], w0
    238a:	00 04 e0    	cp0.b     w0
    238c:	09 00 32    	bra       Z, 0x23a0 <.L39>
                i2c2_start();
    238e:	05 06 07    	rcall     0x2f9a <_i2c2_start> <.LFB14> <.LFE13>
                send_i2c2_byte(peripheral_addrs[i] | 0);  // init a write, last to 0
    2390:	1e 80 fb    	ze        [w14], w0
    2392:	01 10 21    	mov.w     #0x1100, w1
    2394:	61 40 78    	mov.b     [w1+w0], w0
    2396:	00 80 fb    	ze        w0, w0
    2398:	4f 06 07    	rcall     0x3038 <_send_i2c2_byte> <.LFB17> <.LFE16>
                send_i2c2_byte(HEADER_END_WIN << 5); // Broadcast that we won
    239a:	00 02 20    	mov.w     #0x20, w0
    239c:	4d 06 07    	rcall     0x3038 <_send_i2c2_byte> <.LFB17> <.LFE16>
                reset_i2c2_bus();
    239e:	31 06 07    	rcall     0x3002 <_reset_i2c2_bus> <.LFB16> <.LFE15>

000023a0 <.L39>:
    23a0:	1e 4f e8    	inc.b     [w14], [w14]

000023a2 <.L38>:
    23a2:	1e 40 78    	mov.b     [w14], w0
    23a4:	e5 4f 50    	sub.b     w0, #0x5, [w15]
    23a6:	ee ff 36    	bra       LEU, 0x2384 <.L40>
            }
        }
        //TODO: Go to 'win' state
        state = end_win;
    23a8:	c0 5d 22    	mov.w     #0x25dc, w0
    23aa:	30 40 88    	mov.w     w0, 0x806

000023ac <.L37>:
    }

    //Handles strikes
    strikeLEDOff(); // Handle strike LEDs
    23ac:	81 fe 07    	rcall     0x20b0 <_strikeLEDOff> <.L0> <.LFB0> <.Ltext0>
    switch (num_strikes){
    23ae:	03 c8 bf    	mov.b     0x803, WREG
    23b0:	00 80 fb    	ze        w0, w0
    23b2:	e1 0f 50    	sub.w     w0, #0x1, [w15]
    23b4:	11 00 32    	bra       Z, 0x23d8 <.L43>
    23b6:	e2 0f 50    	sub.w     w0, #0x2, [w15]
    23b8:	1c 00 32    	bra       Z, 0x23f2 <.L44>
    23ba:	00 00 e0    	cp0.w     w0
    23bc:	27 00 3a    	bra       NZ, 0x240c <.L56>
        case 0:
            STRIKE1_GLED = ON; delay_by_nop(1);
    23be:	da 82 a8    	bset.b    0x2da, #0x4
    23c0:	10 00 20    	mov.w     #0x1, w0
    23c2:	01 00 20    	mov.w     #0x0, w1
    23c4:	8a 04 07    	rcall     0x2cda <_delay_by_nop> <.L0> <.LFB0> <.LFE16> <.Letext0> <.Ltext0>
            STRIKE2_GLED = ON; delay_by_nop(1);
    23c6:	da 22 a8    	bset.b    0x2da, #0x1
    23c8:	10 00 20    	mov.w     #0x1, w0
    23ca:	01 00 20    	mov.w     #0x0, w1
    23cc:	86 04 07    	rcall     0x2cda <_delay_by_nop> <.L0> <.LFB0> <.LFE16> <.Letext0> <.Ltext0>
            STRIKE3_GLED = ON; delay_by_nop(1);
    23ce:	ea 62 a8    	bset.b    0x2ea, #0x3
    23d0:	10 00 20    	mov.w     #0x1, w0
    23d2:	01 00 20    	mov.w     #0x0, w1
    23d4:	82 04 07    	rcall     0x2cda <_delay_by_nop> <.L0> <.LFB0> <.LFE16> <.Letext0> <.Ltext0>
        break;
    23d6:	27 00 37    	bra       0x2426 <.L45>

000023d8 <.L43>:
        case 1:
            STRIKE1_RLED = ON; delay_by_nop(1);
    23d8:	da a2 a8    	bset.b    0x2da, #0x5
    23da:	10 00 20    	mov.w     #0x1, w0
    23dc:	01 00 20    	mov.w     #0x0, w1
    23de:	7d 04 07    	rcall     0x2cda <_delay_by_nop> <.L0> <.LFB0> <.LFE16> <.Letext0> <.Ltext0>
            STRIKE2_GLED = ON; delay_by_nop(1);
    23e0:	da 22 a8    	bset.b    0x2da, #0x1
    23e2:	10 00 20    	mov.w     #0x1, w0
    23e4:	01 00 20    	mov.w     #0x0, w1
    23e6:	79 04 07    	rcall     0x2cda <_delay_by_nop> <.L0> <.LFB0> <.LFE16> <.Letext0> <.Ltext0>
            STRIKE3_GLED = ON; delay_by_nop(1);
    23e8:	ea 62 a8    	bset.b    0x2ea, #0x3
    23ea:	10 00 20    	mov.w     #0x1, w0
    23ec:	01 00 20    	mov.w     #0x0, w1
    23ee:	75 04 07    	rcall     0x2cda <_delay_by_nop> <.L0> <.LFB0> <.LFE16> <.Letext0> <.Ltext0>
        break;
    23f0:	1a 00 37    	bra       0x2426 <.L45>

000023f2 <.L44>:
        case 2:
            STRIKE1_RLED = ON; delay_by_nop(1);
    23f2:	da a2 a8    	bset.b    0x2da, #0x5
    23f4:	10 00 20    	mov.w     #0x1, w0
    23f6:	01 00 20    	mov.w     #0x0, w1
    23f8:	70 04 07    	rcall     0x2cda <_delay_by_nop> <.L0> <.LFB0> <.LFE16> <.Letext0> <.Ltext0>
            STRIKE2_RLED = ON; delay_by_nop(1);
    23fa:	da 02 a8    	bset.b    0x2da, #0x0
    23fc:	10 00 20    	mov.w     #0x1, w0
    23fe:	01 00 20    	mov.w     #0x0, w1
    2400:	6c 04 07    	rcall     0x2cda <_delay_by_nop> <.L0> <.LFB0> <.LFE16> <.Letext0> <.Ltext0>
            STRIKE3_GLED = ON; delay_by_nop(1);
    2402:	ea 62 a8    	bset.b    0x2ea, #0x3
    2404:	10 00 20    	mov.w     #0x1, w0
    2406:	01 00 20    	mov.w     #0x0, w1
    2408:	68 04 07    	rcall     0x2cda <_delay_by_nop> <.L0> <.LFB0> <.LFE16> <.Letext0> <.Ltext0>
        break;
    240a:	0d 00 37    	bra       0x2426 <.L45>

0000240c <.L56>:
        default:
            STRIKE1_RLED = ON; delay_by_nop(1);
    240c:	da a2 a8    	bset.b    0x2da, #0x5
    240e:	10 00 20    	mov.w     #0x1, w0
    2410:	01 00 20    	mov.w     #0x0, w1
    2412:	63 04 07    	rcall     0x2cda <_delay_by_nop> <.L0> <.LFB0> <.LFE16> <.Letext0> <.Ltext0>
            STRIKE2_RLED = ON; delay_by_nop(1);
    2414:	da 02 a8    	bset.b    0x2da, #0x0
    2416:	10 00 20    	mov.w     #0x1, w0
    2418:	01 00 20    	mov.w     #0x0, w1
    241a:	5f 04 07    	rcall     0x2cda <_delay_by_nop> <.L0> <.LFB0> <.LFE16> <.Letext0> <.Ltext0>
            STRIKE3_RLED = ON; delay_by_nop(1);
    241c:	cb e2 a8    	bset.b    0x2cb, #0x7
    241e:	10 00 20    	mov.w     #0x1, w0
    2420:	01 00 20    	mov.w     #0x0, w1
    2422:	5b 04 07    	rcall     0x2cda <_delay_by_nop> <.L0> <.LFB0> <.LFE16> <.Letext0> <.Ltext0>
        break;
    2424:	00 00 00    	nop       

00002426 <.L45>:
    }

    if (num_strikes > prev_num_strikes) {
    2426:	31 80 20    	mov.w     #0x803, w1
    2428:	91 40 78    	mov.b     [w1], w1
    242a:	04 c8 bf    	mov.b     0x804, WREG
    242c:	80 cf 50    	sub.b     w1, w0, [w15]
    242e:	3a 00 36    	bra       LEU, 0x24a4 <.L46>
        for (i = 0; i < 6; i++) {
    2430:	00 40 eb    	clr.b     w0
    2432:	00 4f 78    	mov.b     w0, [w14]
    2434:	13 00 37    	bra       0x245c <.L47>

00002436 <.L49>:
            if (peripheral_present[i]) {
    2436:	1e 80 fb    	ze        [w14], w0
    2438:	81 0b 21    	mov.w     #0x10b8, w1
    243a:	61 40 78    	mov.b     [w1+w0], w0
    243c:	00 04 e0    	cp0.b     w0
    243e:	0d 00 32    	bra       Z, 0x245a <.L48>
                i2c2_start();
    2440:	ac 05 07    	rcall     0x2f9a <_i2c2_start> <.LFB14> <.LFE13>
                send_i2c2_byte(peripheral_addrs[i] | 0);  // init a write, last to 0
    2442:	1e 80 fb    	ze        [w14], w0
    2444:	01 10 21    	mov.w     #0x1100, w1
    2446:	61 40 78    	mov.b     [w1+w0], w0
    2448:	00 80 fb    	ze        w0, w0
    244a:	f6 05 07    	rcall     0x3038 <_send_i2c2_byte> <.LFB17> <.LFE16>
                send_i2c2_byte((HEADER_NUM_STRIKES<<5) | num_strikes); // Broadcast the current number of strikes
    244c:	31 80 20    	mov.w     #0x803, w1
    244e:	91 40 78    	mov.b     [w1], w1
    2450:	00 ce b3    	mov.b     #0xe0, w0
    2452:	00 c0 70    	ior.b     w1, w0, w0
    2454:	00 80 fb    	ze        w0, w0
    2456:	f0 05 07    	rcall     0x3038 <_send_i2c2_byte> <.LFB17> <.LFE16>
                reset_i2c2_bus();
    2458:	d4 05 07    	rcall     0x3002 <_reset_i2c2_bus> <.LFB16> <.LFE15>

0000245a <.L48>:
    245a:	1e 4f e8    	inc.b     [w14], [w14]

0000245c <.L47>:
    245c:	1e 40 78    	mov.b     [w14], w0
    245e:	e5 4f 50    	sub.b     w0, #0x5, [w15]
    2460:	ea ff 36    	bra       LEU, 0x2436 <.L49>
            }
        }
        sprintf(char_buffer, "Num Strikes:%d", num_strikes);
    2462:	03 c8 bf    	mov.b     0x803, WREG
    2464:	00 80 fb    	ze        w0, w0
    2466:	80 1f 78    	mov.w     w0, [w15++]
    2468:	00 0a 2a    	mov.w     #0xa0a0, w0
    246a:	80 1f 78    	mov.w     w0, [w15++]
    246c:	80 03 21    	mov.w     #0x1038, w0
    246e:	98 f8 07    	rcall     0x15a0 <__sprintf_cdnopuxX>
    2470:	e4 87 57    	sub.w     w15, #0x4, w15
        U1_puts(char_buffer);
    2472:	80 03 21    	mov.w     #0x1038, w0
    2474:	01 07 07    	rcall     0x3278 <_U1_puts> <.LFB7> <.LFE6>
        U1_putc('\r');
    2476:	d0 c0 b3    	mov.b     #0xd, w0
    2478:	c5 06 07    	rcall     0x3204 <_U1_putc> <.LFB5> <.LFE4>
        U1_putc('\n');
    247a:	a0 c0 b3    	mov.b     #0xa, w0
    247c:	c3 06 07    	rcall     0x3204 <_U1_putc> <.LFB5> <.LFE4>
        U1_flush_tx_buffer();
    247e:	b9 06 07    	rcall     0x31f2 <_U1_flush_tx_buffer> <.LFB4> <.LFE3>
        disable_interrupts();
    2480:	ff 3f fc    	disi      #0x3fff
        prev_rs = OC1RS;
    2482:	a1 0c 80    	mov.w     0x194, w1
    2484:	21 07 98    	mov.w     w1, [w14+4]
        prev_r = OC1R;
    2486:	b1 0c 80    	mov.w     0x196, w1
    2488:	11 07 98    	mov.w     w1, [w14+2]
        OC1RS = PWM_PERIOD_1;
    248a:	80 04 85    	mov.w     0xa090, w0
    248c:	a0 0c 88    	mov.w     w0, 0x194
        OC1R = OC1RS >> 1; // Make a soise for the strike
    248e:	a0 0c 80    	mov.w     0x194, w0
    2490:	00 00 d1    	lsr.w     w0, w0
    2492:	b0 0c 88    	mov.w     w0, 0x196
        delay_by_nop(300000);
    2494:	00 3e 29    	mov.w     #0x93e0, w0
    2496:	41 00 20    	mov.w     #0x4, w1
    2498:	20 04 07    	rcall     0x2cda <_delay_by_nop> <.L0> <.LFB0> <.LFE16> <.Letext0> <.Ltext0>
        OC1RS = prev_rs;
    249a:	ae 00 90    	mov.w     [w14+4], w1
    249c:	a1 0c 88    	mov.w     w1, 0x194
        OC1R = prev_r;
    249e:	9e 00 90    	mov.w     [w14+2], w1
    24a0:	b1 0c 88    	mov.w     w1, 0x196
        enable_interrupts();
    24a2:	52 20 ef    	clr.w     0x52

000024a4 <.L46>:
    }
    if (num_strikes > 2) {
    24a4:	03 c8 bf    	mov.b     0x803, WREG
    24a6:	e2 4f 50    	sub.b     w0, #0x2, [w15]
    24a8:	17 00 36    	bra       LEU, 0x24d8 <.L50>
        for (i = 0; i < 6; i++) {
    24aa:	00 40 eb    	clr.b     w0
    24ac:	00 4f 78    	mov.b     w0, [w14]
    24ae:	0f 00 37    	bra       0x24ce <.L51>

000024b0 <.L53>:
            if(peripheral_present[i]) {
    24b0:	1e 80 fb    	ze        [w14], w0
    24b2:	81 0b 21    	mov.w     #0x10b8, w1
    24b4:	61 40 78    	mov.b     [w1+w0], w0
    24b6:	00 04 e0    	cp0.b     w0
    24b8:	09 00 32    	bra       Z, 0x24cc <.L52>
                i2c2_start();
    24ba:	6f 05 07    	rcall     0x2f9a <_i2c2_start> <.LFB14> <.LFE13>
                send_i2c2_byte(peripheral_addrs[i] | 0);  // init a write, last to 0
    24bc:	1e 80 fb    	ze        [w14], w0
    24be:	01 10 21    	mov.w     #0x1100, w1
    24c0:	61 40 78    	mov.b     [w1+w0], w0
    24c2:	00 80 fb    	ze        w0, w0
    24c4:	b9 05 07    	rcall     0x3038 <_send_i2c2_byte> <.LFB17> <.LFE16>
                send_i2c2_byte(HEADER_END_LOSE << 5); // Broadcast the current number of strikes
    24c6:	00 04 20    	mov.w     #0x40, w0
    24c8:	b7 05 07    	rcall     0x3038 <_send_i2c2_byte> <.LFB17> <.LFE16>
                reset_i2c2_bus();
    24ca:	9b 05 07    	rcall     0x3002 <_reset_i2c2_bus> <.LFB16> <.LFE15>

000024cc <.L52>:
    24cc:	1e 4f e8    	inc.b     [w14], [w14]

000024ce <.L51>:
    24ce:	1e 40 78    	mov.b     [w14], w0
    24d0:	e5 4f 50    	sub.b     w0, #0x5, [w15]
    24d2:	ee ff 36    	bra       LEU, 0x24b0 <.L53>
            }
        }
        state = end_fail;
    24d4:	00 51 22    	mov.w     #0x2510, w0
    24d6:	30 40 88    	mov.w     w0, 0x806

000024d8 <.L50>:
    }

    // Check for state transitions
    if (SW2 == 0) {
    24d8:	91 16 80    	mov.w     0x2d2, w1
    24da:	00 00 21    	mov.w     #0x1000, w0
    24dc:	00 80 60    	and.w     w1, w0, w0
    24de:	00 00 e0    	cp0.w     w0
    24e0:	02 00 3a    	bra       NZ, 0x24e6 <.L54>
        state = idle;           // SW2 resets to idle
    24e2:	c0 20 22    	mov.w     #0x220c, w0
    24e4:	30 40 88    	mov.w     w0, 0x806

000024e6 <.L54>:
    }

    // if we are leaving the state, do clean up stuff
    if (state != last_state) {
    24e6:	31 40 80    	mov.w     0x806, w1
    24e8:	40 40 80    	mov.w     0x808, w0
    24ea:	80 8f 50    	sub.w     w1, w0, [w15]
    24ec:	0f 00 32    	bra       Z, 0x250c <.L22>
        T1CONbits.TON = 0;
    24ee:	05 e1 a9    	bclr.b    0x105, #0x7
        STRIKE1_GLED = OFF; // Turn off strike LEDs.
    24f0:	da 82 a9    	bclr.b    0x2da, #0x4
        delay_by_nop(1);
    24f2:	10 00 20    	mov.w     #0x1, w0
    24f4:	01 00 20    	mov.w     #0x0, w1
    24f6:	f1 03 07    	rcall     0x2cda <_delay_by_nop> <.L0> <.LFB0> <.LFE16> <.Letext0> <.Ltext0>
        STRIKE2_GLED = OFF;
    24f8:	da 22 a9    	bclr.b    0x2da, #0x1
        delay_by_nop(1);
    24fa:	10 00 20    	mov.w     #0x1, w0
    24fc:	01 00 20    	mov.w     #0x0, w1
    24fe:	ed 03 07    	rcall     0x2cda <_delay_by_nop> <.L0> <.LFB0> <.LFE16> <.Letext0> <.Ltext0>
        STRIKE3_GLED = OFF;
    2500:	ea 62 a9    	bclr.b    0x2ea, #0x3
        IEC0bits.T2IE = 0; // disable beep interrupt
    2502:	94 e0 a9    	bclr.b    0x94, #0x7
        OC1R = 0; // turn off beep
    2504:	96 21 ef    	clr.w     0x196
        dispSeconds(time_left);
    2506:	00 40 80    	mov.w     0x800, w0
    2508:	ce 00 07    	rcall     0x26a6 <_dispSeconds> <.LFB8> <.LFE7>
        strikeLEDOff(); // turn off strike LEDs
    250a:	d2 fd 07    	rcall     0x20b0 <_strikeLEDOff> <.L0> <.LFB0> <.Ltext0>

0000250c <.L22>:
    }

    // sprintf(char_buffer, "Num Strikes:%d, Per. Pres:%d%d%d%d%d%d, Per. Complete:%d%d%d%d%d%d", num_strikes,
    //     peripheral_present[0], peripheral_present[1], peripheral_present[2], peripheral_present[3], peripheral_present[4], peripheral_present[5],
    //     peripheral_complete[0], peripheral_complete[1], peripheral_complete[2], peripheral_complete[3], peripheral_complete[4], peripheral_complete[5]);
    // U1_puts(char_buffer);
    // U1_putc('\r');
    // U1_putc('\n');
    // U1_flush_tx_buffer();
}
    250c:	00 80 fa    	ulnk      
    250e:	00 00 06    	return    

00002510 <_end_fail>:

void end_fail(void) {
    2510:	00 00 fa    	lnk       #0x0
    if (state != last_state) {  // if we are entering the state, do initialization stuff
    2512:	31 40 80    	mov.w     0x806, w1
    2514:	40 40 80    	mov.w     0x808, w0
    2516:	80 8f 50    	sub.w     w1, w0, [w15]
    2518:	16 00 32    	bra       Z, 0x2546 <.L58>
        last_state = state;
    251a:	30 40 80    	mov.w     0x806, w0
    251c:	40 40 88    	mov.w     w0, 0x808
        // start timer again to blink red LEDs
        IFS0bits.T1IF = 0; //lower interrupt flag
    251e:	84 60 a9    	bclr.b    0x84, #0x3
        TMR1 = 0;          // reset timer register
    2520:	00 21 ef    	clr.w     0x100
        T1CONbits.TON = 1; // enable 1 second timer
    2522:	05 e1 a8    	bset.b    0x105, #0x7

        OC1RS = PWM_PERIOD_40;
    2524:	a0 04 85    	mov.w     0xa094, w0
    2526:	a0 0c 88    	mov.w     w0, 0x194
        OC1R = OC1RS>>1; // start beep
    2528:	a0 0c 80    	mov.w     0x194, w0
    252a:	00 00 d1    	lsr.w     w0, w0
    252c:	b0 0c 88    	mov.w     w0, 0x196

        STRIKE1_RLED = ON; delay_by_nop(1); // Turn on strike LEDs red
    252e:	da a2 a8    	bset.b    0x2da, #0x5
    2530:	10 00 20    	mov.w     #0x1, w0
    2532:	01 00 20    	mov.w     #0x0, w1
    2534:	d2 03 07    	rcall     0x2cda <_delay_by_nop> <.L0> <.LFB0> <.LFE16> <.Letext0> <.Ltext0>
        STRIKE2_RLED = ON; delay_by_nop(1);
    2536:	da 02 a8    	bset.b    0x2da, #0x0
    2538:	10 00 20    	mov.w     #0x1, w0
    253a:	01 00 20    	mov.w     #0x0, w1
    253c:	ce 03 07    	rcall     0x2cda <_delay_by_nop> <.L0> <.LFB0> <.LFE16> <.Letext0> <.Ltext0>
        STRIKE3_RLED = ON; delay_by_nop(1);
    253e:	cb e2 a8    	bset.b    0x2cb, #0x7
    2540:	10 00 20    	mov.w     #0x1, w0
    2542:	01 00 20    	mov.w     #0x0, w1
    2544:	ca 03 07    	rcall     0x2cda <_delay_by_nop> <.L0> <.LFB0> <.LFE16> <.Letext0> <.Ltext0>

00002546 <.L58>:
    }

    // Perform state tasks
    if (IFS0bits.T1IF == 1) {
    2546:	20 04 80    	mov.w     0x84, w0
    2548:	68 00 60    	and.w     w0, #0x8, w0
    254a:	00 00 e0    	cp0.w     w0
    254c:	33 00 32    	bra       Z, 0x25b4 <.L59>
        IFS0bits.T1IF = 0;  // if it's been a second, lower the counter and show it
    254e:	84 60 a9    	bclr.b    0x84, #0x3
        // Blink RLEDs
        STRIKE1_RLED = !STRIKE1_RLED; delay_by_nop(1);
    2550:	d1 16 80    	mov.w     0x2da, w1
    2552:	00 02 20    	mov.w     #0x20, w0
    2554:	00 80 60    	and.w     w1, w0, w0
    2556:	00 f0 a7    	btsc.w    w0, #0xf
    2558:	00 00 ea    	neg.w     w0, w0
    255a:	00 00 e9    	dec.w     w0, w0
    255c:	4f 00 de    	lsr.w     w0, #0xf, w0
    255e:	00 40 78    	mov.b     w0, w0
    2560:	00 80 fb    	ze        w0, w0
    2562:	61 00 60    	and.w     w0, #0x1, w0
    2564:	45 00 dd    	sl.w      w0, #0x5, w0
    2566:	d2 16 80    	mov.w     0x2da, w2
    2568:	f1 fd 2f    	mov.w     #0xffdf, w1
    256a:	81 00 61    	and.w     w2, w1, w1
    256c:	01 00 70    	ior.w     w0, w1, w0
    256e:	d0 16 88    	mov.w     w0, 0x2da
    2570:	10 00 20    	mov.w     #0x1, w0
    2572:	01 00 20    	mov.w     #0x0, w1
    2574:	b2 03 07    	rcall     0x2cda <_delay_by_nop> <.L0> <.LFB0> <.LFE16> <.Letext0> <.Ltext0>
        STRIKE2_RLED = !STRIKE2_RLED; delay_by_nop(1);
    2576:	d0 16 80    	mov.w     0x2da, w0
    2578:	61 00 60    	and.w     w0, #0x1, w0
    257a:	00 f0 a7    	btsc.w    w0, #0xf
    257c:	00 00 ea    	neg.w     w0, w0
    257e:	00 00 e9    	dec.w     w0, w0
    2580:	4f 00 de    	lsr.w     w0, #0xf, w0
    2582:	00 40 78    	mov.b     w0, w0
    2584:	00 80 fb    	ze        w0, w0
    2586:	61 00 60    	and.w     w0, #0x1, w0
    2588:	d2 16 80    	mov.w     0x2da, w2
    258a:	e1 ff 2f    	mov.w     #0xfffe, w1
    258c:	81 00 61    	and.w     w2, w1, w1
    258e:	01 00 70    	ior.w     w0, w1, w0
    2590:	d0 16 88    	mov.w     w0, 0x2da
    2592:	10 00 20    	mov.w     #0x1, w0
    2594:	01 00 20    	mov.w     #0x0, w1
    2596:	a1 03 07    	rcall     0x2cda <_delay_by_nop> <.L0> <.LFB0> <.LFE16> <.Letext0> <.Ltext0>
        STRIKE3_RLED = !STRIKE3_RLED; delay_by_nop(1);
    2598:	50 16 80    	mov.w     0x2ca, w0
    259a:	00 80 ea    	com.w     w0, w0
    259c:	4f 00 de    	lsr.w     w0, #0xf, w0
    259e:	00 40 78    	mov.b     w0, w0
    25a0:	00 80 fb    	ze        w0, w0
    25a2:	4f 00 dd    	sl.w      w0, #0xf, w0
    25a4:	52 16 80    	mov.w     0x2ca, w2
    25a6:	f1 ff 27    	mov.w     #0x7fff, w1
    25a8:	81 00 61    	and.w     w2, w1, w1
    25aa:	01 00 70    	ior.w     w0, w1, w0
    25ac:	50 16 88    	mov.w     w0, 0x2ca
    25ae:	10 00 20    	mov.w     #0x1, w0
    25b0:	01 00 20    	mov.w     #0x0, w1
    25b2:	93 03 07    	rcall     0x2cda <_delay_by_nop> <.L0> <.LFB0> <.LFE16> <.Letext0> <.Ltext0>

000025b4 <.L59>:
    }

    // Check for state transitions

    /* NO TRANSITIONS */

    // if we are leaving the state, do clean up stuff
    if (state != last_state) {
    25b4:	31 40 80    	mov.w     0x806, w1
    25b6:	40 40 80    	mov.w     0x808, w0
    25b8:	80 8f 50    	sub.w     w1, w0, [w15]
    25ba:	0e 00 32    	bra       Z, 0x25d8 <.L57>
        T1CONbits.TON = 0;
    25bc:	05 e1 a9    	bclr.b    0x105, #0x7
        OC1R = 0; // stop beep
    25be:	96 21 ef    	clr.w     0x196
        STRIKE1_RLED = OFF; delay_by_nop(1);
    25c0:	da a2 a9    	bclr.b    0x2da, #0x5
    25c2:	10 00 20    	mov.w     #0x1, w0
    25c4:	01 00 20    	mov.w     #0x0, w1
    25c6:	89 03 07    	rcall     0x2cda <_delay_by_nop> <.L0> <.LFB0> <.LFE16> <.Letext0> <.Ltext0>
        STRIKE2_RLED = OFF; delay_by_nop(1); // turn off strike LEDs
    25c8:	da 02 a9    	bclr.b    0x2da, #0x0
    25ca:	10 00 20    	mov.w     #0x1, w0
    25cc:	01 00 20    	mov.w     #0x0, w1
    25ce:	85 03 07    	rcall     0x2cda <_delay_by_nop> <.L0> <.LFB0> <.LFE16> <.Letext0> <.Ltext0>
        STRIKE3_RLED = OFF; delay_by_nop(1);
    25d0:	cb e2 a9    	bclr.b    0x2cb, #0x7
    25d2:	10 00 20    	mov.w     #0x1, w0
    25d4:	01 00 20    	mov.w     #0x0, w1
    25d6:	81 03 07    	rcall     0x2cda <_delay_by_nop> <.L0> <.LFB0> <.LFE16> <.Letext0> <.Ltext0>

000025d8 <.L57>:
    }
}
    25d8:	00 80 fa    	ulnk      
    25da:	00 00 06    	return    

000025dc <_end_win>:

void end_win(void) {
    25dc:	00 00 fa    	lnk       #0x0
    if (state != last_state) {  // if we are entering the state, do initialization stuff
    25de:	31 40 80    	mov.w     0x806, w1
    25e0:	40 40 80    	mov.w     0x808, w0
    25e2:	80 8f 50    	sub.w     w1, w0, [w15]
    25e4:	12 00 32    	bra       Z, 0x260a <.L62>
        last_state = state;
    25e6:	30 40 80    	mov.w     0x806, w0
    25e8:	40 40 88    	mov.w     w0, 0x808
        // start timer again to blink red LEDs
        IFS0bits.T1IF = 0; //lower interrupt flag
    25ea:	84 60 a9    	bclr.b    0x84, #0x3
        IEC0bits.T1IE = 0;
    25ec:	94 60 a9    	bclr.b    0x94, #0x3
        TMR1 = 0;          // reset timer register
    25ee:	00 21 ef    	clr.w     0x100
        T1CONbits.TON = 1; // enable 1 second timer
    25f0:	05 e1 a8    	bset.b    0x105, #0x7
        STRIKE1_GLED = ON; delay_by_nop(1); // Turn on strike LEDs red
    25f2:	da 82 a8    	bset.b    0x2da, #0x4
    25f4:	10 00 20    	mov.w     #0x1, w0
    25f6:	01 00 20    	mov.w     #0x0, w1
    25f8:	70 03 07    	rcall     0x2cda <_delay_by_nop> <.L0> <.LFB0> <.LFE16> <.Letext0> <.Ltext0>
        STRIKE2_GLED = ON; delay_by_nop(1);
    25fa:	da 22 a8    	bset.b    0x2da, #0x1
    25fc:	10 00 20    	mov.w     #0x1, w0
    25fe:	01 00 20    	mov.w     #0x0, w1
    2600:	6c 03 07    	rcall     0x2cda <_delay_by_nop> <.L0> <.LFB0> <.LFE16> <.Letext0> <.Ltext0>
        STRIKE3_GLED = ON; delay_by_nop(1);
    2602:	ea 62 a8    	bset.b    0x2ea, #0x3
    2604:	10 00 20    	mov.w     #0x1, w0
    2606:	01 00 20    	mov.w     #0x0, w1
    2608:	68 03 07    	rcall     0x2cda <_delay_by_nop> <.L0> <.LFB0> <.LFE16> <.Letext0> <.Ltext0>

0000260a <.L62>:
    }

    // Perform state tasks
    if (IFS0bits.T1IF == 1) {
    260a:	20 04 80    	mov.w     0x84, w0
    260c:	68 00 60    	and.w     w0, #0x8, w0
    260e:	00 00 e0    	cp0.w     w0
    2610:	37 00 32    	bra       Z, 0x2680 <.L63>
        IFS0bits.T1IF = 0;  // if it's been a second, lower the counter and show it
    2612:	84 60 a9    	bclr.b    0x84, #0x3
        // Blink GLEDs
        STRIKE1_GLED = !STRIKE1_GLED; delay_by_nop(1);
    2614:	d0 16 80    	mov.w     0x2da, w0
    2616:	70 00 60    	and.w     w0, #0x10, w0
    2618:	00 f0 a7    	btsc.w    w0, #0xf
    261a:	00 00 ea    	neg.w     w0, w0
    261c:	00 00 e9    	dec.w     w0, w0
    261e:	4f 00 de    	lsr.w     w0, #0xf, w0
    2620:	00 40 78    	mov.b     w0, w0
    2622:	00 80 fb    	ze        w0, w0
    2624:	61 00 60    	and.w     w0, #0x1, w0
    2626:	44 00 dd    	sl.w      w0, #0x4, w0
    2628:	d2 16 80    	mov.w     0x2da, w2
    262a:	f1 fe 2f    	mov.w     #0xffef, w1
    262c:	81 00 61    	and.w     w2, w1, w1
    262e:	01 00 70    	ior.w     w0, w1, w0
    2630:	d0 16 88    	mov.w     w0, 0x2da
    2632:	10 00 20    	mov.w     #0x1, w0
    2634:	01 00 20    	mov.w     #0x0, w1
    2636:	51 03 07    	rcall     0x2cda <_delay_by_nop> <.L0> <.LFB0> <.LFE16> <.Letext0> <.Ltext0>
        STRIKE2_GLED = !STRIKE2_GLED; delay_by_nop(1);
    2638:	d0 16 80    	mov.w     0x2da, w0
    263a:	62 00 60    	and.w     w0, #0x2, w0
    263c:	00 f0 a7    	btsc.w    w0, #0xf
    263e:	00 00 ea    	neg.w     w0, w0
    2640:	00 00 e9    	dec.w     w0, w0
    2642:	4f 00 de    	lsr.w     w0, #0xf, w0
    2644:	00 40 78    	mov.b     w0, w0
    2646:	00 80 fb    	ze        w0, w0
    2648:	61 00 60    	and.w     w0, #0x1, w0
    264a:	00 00 40    	add.w     w0, w0, w0
    264c:	d2 16 80    	mov.w     0x2da, w2
    264e:	d1 ff 2f    	mov.w     #0xfffd, w1
    2650:	81 00 61    	and.w     w2, w1, w1
    2652:	01 00 70    	ior.w     w0, w1, w0
    2654:	d0 16 88    	mov.w     w0, 0x2da
    2656:	10 00 20    	mov.w     #0x1, w0
    2658:	01 00 20    	mov.w     #0x0, w1
    265a:	3f 03 07    	rcall     0x2cda <_delay_by_nop> <.L0> <.LFB0> <.LFE16> <.Letext0> <.Ltext0>
        STRIKE3_GLED = !STRIKE3_GLED; delay_by_nop(1);
    265c:	50 17 80    	mov.w     0x2ea, w0
    265e:	68 00 60    	and.w     w0, #0x8, w0
    2660:	00 f0 a7    	btsc.w    w0, #0xf
    2662:	00 00 ea    	neg.w     w0, w0
    2664:	00 00 e9    	dec.w     w0, w0
    2666:	4f 00 de    	lsr.w     w0, #0xf, w0
    2668:	00 40 78    	mov.b     w0, w0
    266a:	00 80 fb    	ze        w0, w0
    266c:	61 00 60    	and.w     w0, #0x1, w0
    266e:	43 00 dd    	sl.w      w0, #0x3, w0
    2670:	52 17 80    	mov.w     0x2ea, w2
    2672:	71 ff 2f    	mov.w     #0xfff7, w1
    2674:	81 00 61    	and.w     w2, w1, w1
    2676:	01 00 70    	ior.w     w0, w1, w0
    2678:	50 17 88    	mov.w     w0, 0x2ea
    267a:	10 00 20    	mov.w     #0x1, w0
    267c:	01 00 20    	mov.w     #0x0, w1
    267e:	2d 03 07    	rcall     0x2cda <_delay_by_nop> <.L0> <.LFB0> <.LFE16> <.Letext0> <.Ltext0>

00002680 <.L63>:
    }

    // Check for state transitions

    /* NO TRANSITIONS */

    // if we are leaving the state, do clean up stuff
    if (state != last_state) {
    2680:	31 40 80    	mov.w     0x806, w1
    2682:	40 40 80    	mov.w     0x808, w0
    2684:	80 8f 50    	sub.w     w1, w0, [w15]
    2686:	0d 00 32    	bra       Z, 0x26a2 <.L61>
        T1CONbits.TON = 0;
    2688:	05 e1 a9    	bclr.b    0x105, #0x7
        STRIKE1_GLED = OFF; delay_by_nop(1);
    268a:	da 82 a9    	bclr.b    0x2da, #0x4
    268c:	10 00 20    	mov.w     #0x1, w0
    268e:	01 00 20    	mov.w     #0x0, w1
    2690:	24 03 07    	rcall     0x2cda <_delay_by_nop> <.L0> <.LFB0> <.LFE16> <.Letext0> <.Ltext0>
        STRIKE2_GLED = OFF; delay_by_nop(1); // turn off strike LEDs
    2692:	da 22 a9    	bclr.b    0x2da, #0x1
    2694:	10 00 20    	mov.w     #0x1, w0
    2696:	01 00 20    	mov.w     #0x0, w1
    2698:	20 03 07    	rcall     0x2cda <_delay_by_nop> <.L0> <.LFB0> <.LFE16> <.Letext0> <.Ltext0>
        STRIKE3_GLED = OFF; delay_by_nop(1);
    269a:	ea 62 a9    	bclr.b    0x2ea, #0x3
    269c:	10 00 20    	mov.w     #0x1, w0
    269e:	01 00 20    	mov.w     #0x0, w1
    26a0:	1c 03 07    	rcall     0x2cda <_delay_by_nop> <.L0> <.LFB0> <.LFE16> <.Letext0> <.Ltext0>

000026a2 <.L61>:
    }
}
    26a2:	00 80 fa    	ulnk      
    26a4:	00 00 06    	return    

000026a6 <_dispSeconds>:

// HELPER FUNCTIONS ************************************************************

// Display a seconds variable in minutes and seconds on the seven segment
void dispSeconds(uint16_t seconds) {
    26a6:	06 00 fa    	lnk       #0x6
    26a8:	20 07 98    	mov.w     w0, [w14+4]
    // Turn seconds into minutes and seconds
    uint16_t minutes = seconds / 60;
    26aa:	ae 00 90    	mov.w     [w14+4], w1
    26ac:	90 88 28    	mov.w     #0x8889, w0
    26ae:	00 08 b8    	mul.uu    w1, w0, w0
    26b0:	45 08 de    	lsr.w     w1, #0x5, w0
    26b2:	00 0f 78    	mov.w     w0, [w14]
    uint8_t displaySeconds = seconds % 60;
    26b4:	2e 01 90    	mov.w     [w14+4], w2
    26b6:	90 88 28    	mov.w     #0x8889, w0
    26b8:	00 10 b8    	mul.uu    w2, w0, w0
    26ba:	45 08 de    	lsr.w     w1, #0x5, w0
    26bc:	c1 03 20    	mov.w     #0x3c, w1
    26be:	01 80 b9    	mul.ss    w0, w1, w0
    26c0:	00 00 78    	mov.w     w0, w0
    26c2:	00 00 51    	sub.w     w2, w0, w0
    26c4:	20 47 98    	mov.b     w0, [w14+2]
    sevseg_writeDigitNum(&matrix, 0, minutes / 10, 0);
    26c6:	9e 00 78    	mov.w     [w14], w1
    26c8:	d0 cc 2c    	mov.w     #0xcccd, w0
    26ca:	00 08 b8    	mul.uu    w1, w0, w0
    26cc:	43 08 de    	lsr.w     w1, #0x3, w0
    26ce:	00 40 78    	mov.b     w0, w0
    26d0:	80 41 eb    	clr.b     w3
    26d2:	00 41 78    	mov.b     w0, w2
    26d4:	80 40 eb    	clr.b     w1
    26d6:	40 02 21    	mov.w     #0x1024, w0
    26d8:	9f 01 07    	rcall     0x2a18 <_sevseg_writeDigitNum> <.LFB11> <.LFE10>
    sevseg_writeDigitNum(&matrix, 1, minutes % 10, 0);
    26da:	1e 01 78    	mov.w     [w14], w2
    26dc:	d0 cc 2c    	mov.w     #0xcccd, w0
    26de:	00 10 b8    	mul.uu    w2, w0, w0
    26e0:	43 08 de    	lsr.w     w1, #0x3, w0
    26e2:	6a 00 b9    	mul.su    w0, #0xa, w0
    26e4:	00 00 78    	mov.w     w0, w0
    26e6:	00 00 51    	sub.w     w2, w0, w0
    26e8:	00 40 78    	mov.b     w0, w0
    26ea:	80 41 eb    	clr.b     w3
    26ec:	00 41 78    	mov.b     w0, w2
    26ee:	11 c0 b3    	mov.b     #0x1, w1
    26f0:	40 02 21    	mov.w     #0x1024, w0
    26f2:	92 01 07    	rcall     0x2a18 <_sevseg_writeDigitNum> <.LFB11> <.LFE10>
    sevseg_drawColon(&matrix, 1); // Times are supposed to have a colon I guess
    26f4:	11 c0 b3    	mov.b     #0x1, w1
    26f6:	40 02 21    	mov.w     #0x1024, w0
    26f8:	ab 01 07    	rcall     0x2a50 <_sevseg_drawColon> <.LFB12> <.LFE11>
    sevseg_writeDigitNum(&matrix, 3, (displaySeconds / 10) % 10, 0);
    26fa:	2e 40 90    	mov.b     [w14+2], w0
    26fc:	80 80 fb    	ze        w0, w1
    26fe:	d0 cc 2c    	mov.w     #0xcccd, w0
    2700:	00 08 b8    	mul.uu    w1, w0, w0
    2702:	43 08 de    	lsr.w     w1, #0x3, w0
    2704:	00 40 78    	mov.b     w0, w0
    2706:	00 81 fb    	ze        w0, w2
    2708:	d0 cc 2c    	mov.w     #0xcccd, w0
    270a:	00 10 b8    	mul.uu    w2, w0, w0
    270c:	43 08 de    	lsr.w     w1, #0x3, w0
    270e:	6a 00 b9    	mul.su    w0, #0xa, w0
    2710:	00 00 78    	mov.w     w0, w0
    2712:	00 00 51    	sub.w     w2, w0, w0
    2714:	00 40 78    	mov.b     w0, w0
    2716:	80 41 eb    	clr.b     w3
    2718:	00 41 78    	mov.b     w0, w2
    271a:	31 c0 b3    	mov.b     #0x3, w1
    271c:	40 02 21    	mov.w     #0x1024, w0
    271e:	7c 01 07    	rcall     0x2a18 <_sevseg_writeDigitNum> <.LFB11> <.LFE10>
    sevseg_writeDigitNum(&matrix, 4, displaySeconds % 10, 0);
    2720:	2e 40 90    	mov.b     [w14+2], w0
    2722:	00 81 fb    	ze        w0, w2
    2724:	d0 cc 2c    	mov.w     #0xcccd, w0
    2726:	00 10 b8    	mul.uu    w2, w0, w0
    2728:	43 08 de    	lsr.w     w1, #0x3, w0
    272a:	6a 00 b9    	mul.su    w0, #0xa, w0
    272c:	00 00 78    	mov.w     w0, w0
    272e:	00 00 51    	sub.w     w2, w0, w0
    2730:	00 40 78    	mov.b     w0, w0
    2732:	80 41 eb    	clr.b     w3
    2734:	00 41 78    	mov.b     w0, w2
    2736:	41 c0 b3    	mov.b     #0x4, w1
    2738:	40 02 21    	mov.w     #0x1024, w0
    273a:	6e 01 07    	rcall     0x2a18 <_sevseg_writeDigitNum> <.LFB11> <.LFE10>

    led_writeDisplay((_ADAFRUIT_LED*)&matrix.super); //Don't forget to actually write the data!
    273c:	40 02 21    	mov.w     #0x1024, w0
    273e:	5d 00 07    	rcall     0x27fa <_led_writeDisplay> <.LFB3> <.LFE2>
}
    2740:	00 80 fa    	ulnk      
    2742:	00 00 06    	return    

00002744 <_drawOnce>:

// Draw 1234 on the seven segment
void drawOnce(void) {
    2744:	00 00 fa    	lnk       #0x0
    sevseg_writeDigitNum(&matrix, 0, 1, 0);
    2746:	80 41 eb    	clr.b     w3
    2748:	12 c0 b3    	mov.b     #0x1, w2
    274a:	80 40 eb    	clr.b     w1
    274c:	40 02 21    	mov.w     #0x1024, w0
    274e:	64 01 07    	rcall     0x2a18 <_sevseg_writeDigitNum> <.LFB11> <.LFE10>
    sevseg_writeDigitNum(&matrix, 1, 2, 0);
    2750:	80 41 eb    	clr.b     w3
    2752:	22 c0 b3    	mov.b     #0x2, w2
    2754:	11 c0 b3    	mov.b     #0x1, w1
    2756:	40 02 21    	mov.w     #0x1024, w0
    2758:	5f 01 07    	rcall     0x2a18 <_sevseg_writeDigitNum> <.LFB11> <.LFE10>
    sevseg_writeDigitNum(&matrix, 3, 3, 0);
    275a:	80 41 eb    	clr.b     w3
    275c:	32 c0 b3    	mov.b     #0x3, w2
    275e:	31 c0 b3    	mov.b     #0x3, w1
    2760:	40 02 21    	mov.w     #0x1024, w0
    2762:	5a 01 07    	rcall     0x2a18 <_sevseg_writeDigitNum> <.LFB11> <.LFE10>
    sevseg_writeDigitNum(&matrix, 4, 4, 0);
    2764:	80 41 eb    	clr.b     w3
    2766:	42 c0 b3    	mov.b     #0x4, w2
    2768:	41 c0 b3    	mov.b     #0x4, w1
    276a:	40 02 21    	mov.w     #0x1024, w0
    276c:	55 01 07    	rcall     0x2a18 <_sevseg_writeDigitNum> <.LFB11> <.LFE10>
    led_writeDisplay((_ADAFRUIT_LED*)&matrix.super);
    276e:	40 02 21    	mov.w     #0x1024, w0
    2770:	44 00 07    	rcall     0x27fa <_led_writeDisplay> <.LFB3> <.LFE2>
}
    2772:	00 80 fa    	ulnk      
    2774:	00 00 06    	return    

00002776 <_led_begin>:

};


void led_begin(_ADAFRUIT_LED* ptr, uint8_t addr){
    2776:	04 00 fa    	lnk       #0x4
    2778:	00 0f 78    	mov.w     w0, [w14]
    277a:	21 47 98    	mov.b     w1, [w14+2]
  ptr->i2c_addr = addr;
    277c:	1e 00 78    	mov.w     [w14], w0
    277e:	ae 40 90    	mov.b     [w14+2], w1
    2780:	01 50 98    	mov.b     w1, [w0+16]
  i2c_start();
    2782:	cb 02 07    	rcall     0x2d1a <_i2c_start> <.LFB2> <.LFE1>
  send_i2c_byte(ptr->i2c_addr);
    2784:	1e 00 78    	mov.w     [w14], w0
    2786:	00 50 90    	mov.b     [w0+16], w0
    2788:	00 80 fb    	ze        w0, w0
    278a:	16 03 07    	rcall     0x2db8 <_send_i2c_byte> <.LFB5> <.LFE4>
  send_i2c_byte(0x21); // turn on oscillator
    278c:	10 02 20    	mov.w     #0x21, w0
    278e:	14 03 07    	rcall     0x2db8 <_send_i2c_byte> <.LFB5> <.LFE4>
  reset_i2c_bus();
    2790:	f8 02 07    	rcall     0x2d82 <_reset_i2c_bus> <.LFB4> <.LFE3>
  led_blinkRate((_ADAFRUIT_LED *)ptr, HT16K33_BLINK_OFF);
    2792:	80 40 eb    	clr.b     w1
    2794:	1e 00 78    	mov.w     [w14], w0
    2796:	1a 00 07    	rcall     0x27cc <_led_blinkRate> <.LFB2> <.LFE1>
  led_setBrightness((_ADAFRUIT_LED *)ptr,15); // set max brightness
    2798:	f1 c0 b3    	mov.b     #0xf, w1
    279a:	1e 00 78    	mov.w     [w14], w0
    279c:	02 00 07    	rcall     0x27a2 <_led_setBrightness> <.LFB1> <.LFE0>
}
    279e:	00 80 fa    	ulnk      
    27a0:	00 00 06    	return    

000027a2 <_led_setBrightness>:

void led_setBrightness(_ADAFRUIT_LED* ptr, uint8_t b){
    27a2:	04 00 fa    	lnk       #0x4
    27a4:	00 0f 78    	mov.w     w0, [w14]
    27a6:	21 47 98    	mov.b     w1, [w14+2]
  if (b > 15) b = 15;
    27a8:	2e 40 90    	mov.b     [w14+2], w0
    27aa:	ef 4f 50    	sub.b     w0, #0xf, [w15]
    27ac:	02 00 36    	bra       LEU, 0x27b2 <.L3>
    27ae:	f0 c0 b3    	mov.b     #0xf, w0
    27b0:	20 47 98    	mov.b     w0, [w14+2]

000027b2 <.L3>:
  i2c_start();
    27b2:	b3 02 07    	rcall     0x2d1a <_i2c_start> <.LFB2> <.LFE1>
  send_i2c_byte(ptr->i2c_addr);
    27b4:	1e 00 78    	mov.w     [w14], w0
    27b6:	00 50 90    	mov.b     [w0+16], w0
    27b8:	00 80 fb    	ze        w0, w0
    27ba:	fe 02 07    	rcall     0x2db8 <_send_i2c_byte> <.LFB5> <.LFE4>
  send_i2c_byte(HT16K33_CMD_BRIGHTNESS | b);
    27bc:	ae 40 90    	mov.b     [w14+2], w1
    27be:	00 ce b3    	mov.b     #0xe0, w0
    27c0:	00 c0 70    	ior.b     w1, w0, w0
    27c2:	00 80 fb    	ze        w0, w0
    27c4:	f9 02 07    	rcall     0x2db8 <_send_i2c_byte> <.LFB5> <.LFE4>
  reset_i2c_bus();
    27c6:	dd 02 07    	rcall     0x2d82 <_reset_i2c_bus> <.LFB4> <.LFE3>
}
    27c8:	00 80 fa    	ulnk      
    27ca:	00 00 06    	return    

000027cc <_led_blinkRate>:

void led_blinkRate(_ADAFRUIT_LED* ptr, uint8_t b){
    27cc:	04 00 fa    	lnk       #0x4
    27ce:	00 0f 78    	mov.w     w0, [w14]
    27d0:	21 47 98    	mov.b     w1, [w14+2]
  i2c_start();
    27d2:	a3 02 07    	rcall     0x2d1a <_i2c_start> <.LFB2> <.LFE1>
  send_i2c_byte(ptr->i2c_addr);
    27d4:	1e 00 78    	mov.w     [w14], w0
    27d6:	00 50 90    	mov.b     [w0+16], w0
    27d8:	00 80 fb    	ze        w0, w0
    27da:	ee 02 07    	rcall     0x2db8 <_send_i2c_byte> <.LFB5> <.LFE4>
  if (b > 3) b = 0; // turn off if not sure
    27dc:	2e 40 90    	mov.b     [w14+2], w0
    27de:	e3 4f 50    	sub.b     w0, #0x3, [w15]
    27e0:	02 00 36    	bra       LEU, 0x27e6 <.L5>
    27e2:	00 40 eb    	clr.b     w0
    27e4:	20 47 98    	mov.b     w0, [w14+2]

000027e6 <.L5>:
  send_i2c_byte(HT16K33_BLINK_CMD | HT16K33_BLINK_DISPLAYON | (b << 1));
    27e6:	2e 40 90    	mov.b     [w14+2], w0
    27e8:	00 80 fb    	ze        w0, w0
    27ea:	00 00 40    	add.w     w0, w0, w0
    27ec:	80 00 78    	mov.w     w0, w1
    27ee:	10 08 20    	mov.w     #0x81, w0
    27f0:	01 00 70    	ior.w     w0, w1, w0
    27f2:	e2 02 07    	rcall     0x2db8 <_send_i2c_byte> <.LFB5> <.LFE4>
  reset_i2c_bus();
    27f4:	c6 02 07    	rcall     0x2d82 <_reset_i2c_bus> <.LFB4> <.LFE3>
}
    27f6:	00 80 fa    	ulnk      
    27f8:	00 00 06    	return    

000027fa <_led_writeDisplay>:

void led_writeDisplay(_ADAFRUIT_LED* ptr){
    27fa:	04 00 fa    	lnk       #0x4
    27fc:	10 07 98    	mov.w     w0, [w14+2]
  i2c_start();
    27fe:	8d 02 07    	rcall     0x2d1a <_i2c_start> <.LFB2> <.LFE1>
  send_i2c_byte(ptr->i2c_addr);
    2800:	1e 00 90    	mov.w     [w14+2], w0
    2802:	00 50 90    	mov.b     [w0+16], w0
    2804:	00 80 fb    	ze        w0, w0
    2806:	d8 02 07    	rcall     0x2db8 <_send_i2c_byte> <.LFB5> <.LFE4>
	send_i2c_byte(0x00); // Start at address 0
    2808:	00 00 eb    	clr.w     w0
    280a:	d6 02 07    	rcall     0x2db8 <_send_i2c_byte> <.LFB5> <.LFE4>
	uint8_t i;
  for (i=0; i<8; i++) {
    280c:	00 40 eb    	clr.b     w0
    280e:	00 4f 78    	mov.b     w0, [w14]
    2810:	0f 00 37    	bra       0x2830 <.L7>

00002812 <.L8>:
    send_i2c_byte(ptr->displaybuffer[i] & 0xFF);
    2812:	1e 80 fb    	ze        [w14], w0
    2814:	9e 00 90    	mov.w     [w14+2], w1
    2816:	00 00 40    	add.w     w0, w0, w0
    2818:	61 00 78    	mov.w     [w1+w0], w0
    281a:	80 00 78    	mov.w     w0, w1
    281c:	f0 0f 20    	mov.w     #0xff, w0
    281e:	00 80 60    	and.w     w1, w0, w0
    2820:	cb 02 07    	rcall     0x2db8 <_send_i2c_byte> <.LFB5> <.LFE4>
    send_i2c_byte(ptr->displaybuffer[i] >> 8);
    2822:	1e 80 fb    	ze        [w14], w0
    2824:	9e 00 90    	mov.w     [w14+2], w1
    2826:	00 00 40    	add.w     w0, w0, w0
    2828:	61 00 78    	mov.w     [w1+w0], w0
    282a:	48 00 de    	lsr.w     w0, #0x8, w0
    282c:	c5 02 07    	rcall     0x2db8 <_send_i2c_byte> <.LFB5> <.LFE4>
    282e:	1e 4f e8    	inc.b     [w14], [w14]

00002830 <.L7>:
    2830:	1e 40 78    	mov.b     [w14], w0
    2832:	e7 4f 50    	sub.b     w0, #0x7, [w15]
    2834:	ee ff 36    	bra       LEU, 0x2812 <.L8>
  }
  reset_i2c_bus();
    2836:	a5 02 07    	rcall     0x2d82 <_reset_i2c_bus> <.LFB4> <.LFE3>
}
    2838:	00 80 fa    	ulnk      
    283a:	00 00 06    	return    

0000283c <_led_clear>:

void led_clear(_ADAFRUIT_LED* ptr){
    283c:	04 00 fa    	lnk       #0x4
    283e:	10 07 98    	mov.w     w0, [w14+2]
	uint8_t i;
	for (i=0; i<8; i++) {
    2840:	00 40 eb    	clr.b     w0
    2842:	00 4f 78    	mov.b     w0, [w14]
    2844:	07 00 37    	bra       0x2854 <.L10>

00002846 <.L11>:
    ptr->displaybuffer[i] = 0;
    2846:	1e 80 fb    	ze        [w14], w0
    2848:	9e 00 90    	mov.w     [w14+2], w1
    284a:	00 00 40    	add.w     w0, w0, w0
    284c:	00 80 40    	add.w     w1, w0, w0
    284e:	80 00 eb    	clr.w     w1
    2850:	01 08 78    	mov.w     w1, [w0]
    2852:	1e 4f e8    	inc.b     [w14], [w14]

00002854 <.L10>:
    2854:	1e 40 78    	mov.b     [w14], w0
    2856:	e7 4f 50    	sub.b     w0, #0x7, [w15]
    2858:	f6 ff 36    	bra       LEU, 0x2846 <.L11>
  }
}
    285a:	00 80 fa    	ulnk      
    285c:	00 00 06    	return    

0000285e <_alphanum_begin>:

// ALPHANUM ********************************************************************

void alphanum_begin(_ALPHANUM* ptr, uint8_t addr){
    285e:	04 00 fa    	lnk       #0x4
    2860:	00 0f 78    	mov.w     w0, [w14]
    2862:	21 47 98    	mov.b     w1, [w14+2]
  led_begin((_ADAFRUIT_LED *)ptr, addr); // Call super constructor
    2864:	1e 00 78    	mov.w     [w14], w0
    2866:	ae 40 90    	mov.b     [w14+2], w1
    2868:	86 ff 07    	rcall     0x2776 <_led_begin> <.L0> <.LFB0> <.LFE9> <.Letext0> <.Ltext0>
}
    286a:	00 80 fa    	ulnk      
    286c:	00 00 06    	return    

0000286e <_alphanum_writeDigitRaw>:

void alphanum_writeDigitRaw(_ALPHANUM* ptr, uint8_t n, uint16_t bitmask){
    286e:	06 00 fa    	lnk       #0x6
    2870:	00 0f 78    	mov.w     w0, [w14]
    2872:	21 47 98    	mov.b     w1, [w14+2]
    2874:	22 07 98    	mov.w     w2, [w14+4]
  ptr->super.displaybuffer[n] = bitmask;
    2876:	2e 40 90    	mov.b     [w14+2], w0
    2878:	00 80 fb    	ze        w0, w0
    287a:	9e 00 78    	mov.w     [w14], w1
    287c:	00 00 40    	add.w     w0, w0, w0
    287e:	00 80 40    	add.w     w1, w0, w0
    2880:	ae 00 90    	mov.w     [w14+4], w1
    2882:	01 08 78    	mov.w     w1, [w0]
}
    2884:	00 80 fa    	ulnk      
    2886:	00 00 06    	return    

00002888 <_alphanum_writeDigitAscii>:

void alphanum_writeDigitAscii(_ALPHANUM* ptr, uint8_t n, uint8_t ascii, uint8_t dot){
    2888:	08 00 fa    	lnk       #0x8
    288a:	10 07 98    	mov.w     w0, [w14+2]
    288c:	41 47 98    	mov.b     w1, [w14+4]
    288e:	52 47 98    	mov.b     w2, [w14+5]
    2890:	63 47 98    	mov.b     w3, [w14+6]
  uint16_t font = alphafonttable[ascii];
    2892:	5e 40 90    	mov.b     [w14+5], w0
    2894:	00 80 fb    	ze        w0, w0
    2896:	80 00 40    	add.w     w0, w0, w1
    2898:	c0 f8 29    	mov.w     #0x9f8c, w0
    289a:	00 80 40    	add.w     w1, w0, w0
    289c:	10 0f 78    	mov.w     [w0], [w14]
  ptr->super.displaybuffer[n] = font;
    289e:	4e 40 90    	mov.b     [w14+4], w0
    28a0:	00 80 fb    	ze        w0, w0
    28a2:	9e 00 90    	mov.w     [w14+2], w1
    28a4:	00 00 40    	add.w     w0, w0, w0
    28a6:	00 80 40    	add.w     w1, w0, w0
    28a8:	1e 08 78    	mov.w     [w14], [w0]
  if (dot) ptr->super.displaybuffer[n] |= (1<<14);
    28aa:	6e 40 90    	mov.b     [w14+6], w0
    28ac:	00 04 e0    	cp0.b     w0
    28ae:	0c 00 32    	bra       Z, 0x28c8 <.L14>
    28b0:	4e 40 90    	mov.b     [w14+4], w0
    28b2:	00 80 fb    	ze        w0, w0
    28b4:	ce 40 90    	mov.b     [w14+4], w1
    28b6:	81 80 fb    	ze        w1, w1
    28b8:	1e 01 90    	mov.w     [w14+2], w2
    28ba:	81 80 40    	add.w     w1, w1, w1
    28bc:	e2 80 78    	mov.w     [w2+w1], w1
    28be:	01 e0 a0    	bset.w    w1, #0xe
    28c0:	1e 01 90    	mov.w     [w14+2], w2
    28c2:	00 00 40    	add.w     w0, w0, w0
    28c4:	00 00 41    	add.w     w2, w0, w0
    28c6:	01 08 78    	mov.w     w1, [w0]

000028c8 <.L14>:
}
    28c8:	00 80 fa    	ulnk      
    28ca:	00 00 06    	return    

000028cc <_bargraph_begin>:

// 24 BARGRAPH *****************************************************************

void bargraph_begin(_BARGRAPH* ptr, uint8_t addr){
    28cc:	04 00 fa    	lnk       #0x4
    28ce:	00 0f 78    	mov.w     w0, [w14]
    28d0:	21 47 98    	mov.b     w1, [w14+2]
  led_begin((_ADAFRUIT_LED *)ptr, addr);
    28d2:	1e 00 78    	mov.w     [w14], w0
    28d4:	ae 40 90    	mov.b     [w14+2], w1
    28d6:	4f ff 07    	rcall     0x2776 <_led_begin> <.L0> <.LFB0> <.LFE9> <.Letext0> <.Ltext0>
}
    28d8:	00 80 fa    	ulnk      
    28da:	00 00 06    	return    

000028dc <_bargraph_setBar>:

void bargraph_setBar(_BARGRAPH* ptr, uint8_t bar, uint8_t color){
    28dc:	08 00 fa    	lnk       #0x8
    28de:	20 07 98    	mov.w     w0, [w14+4]
    28e0:	61 47 98    	mov.b     w1, [w14+6]
    28e2:	72 47 98    	mov.b     w2, [w14+7]
  uint16_t a, c;

  if (bar < 12)
    28e4:	6e 40 90    	mov.b     [w14+6], w0
    28e6:	eb 4f 50    	sub.b     w0, #0xb, [w15]
    28e8:	07 00 3e    	bra       GTU, 0x28f8 <.L18>
    c = bar / 4;
    28ea:	6e 40 90    	mov.b     [w14+6], w0
    28ec:	00 80 fb    	ze        w0, w0
    28ee:	42 00 de    	lsr.w     w0, #0x2, w0
    28f0:	00 40 78    	mov.b     w0, w0
    28f2:	00 80 fb    	ze        w0, w0
    28f4:	10 07 98    	mov.w     w0, [w14+2]
    28f6:	08 00 37    	bra       0x2908 <.L19>

000028f8 <.L18>:
  else
    c = (bar - 12) / 4;
    28f8:	6e 40 90    	mov.b     [w14+6], w0
    28fa:	00 80 fb    	ze        w0, w0
    28fc:	6c 00 50    	sub.w     w0, #0xc, w0
    28fe:	00 00 e0    	cp0.w     w0
    2900:	01 00 3d    	bra       GE, 0x2904 <.L20>
    2902:	63 00 40    	add.w     w0, #0x3, w0

00002904 <.L20>:
    2904:	42 80 de    	asr.w     w0, #0x2, w0
    2906:	10 07 98    	mov.w     w0, [w14+2]

00002908 <.L19>:

  a = bar % 4;
    2908:	6e 40 90    	mov.b     [w14+6], w0
    290a:	00 80 fb    	ze        w0, w0
    290c:	63 0f 60    	and.w     w0, #0x3, [w14]
  if (bar >= 12)
    290e:	6e 40 90    	mov.b     [w14+6], w0
    2910:	eb 4f 50    	sub.b     w0, #0xb, [w15]
    2912:	02 00 36    	bra       LEU, 0x2918 <.L21>
    a += 4;
    2914:	9e 00 78    	mov.w     [w14], w1
    2916:	64 8f 40    	add.w     w1, #0x4, [w14]

00002918 <.L21>:

  //Serial.print("Ano = "); Serial.print(a); Serial.print(" Cath = "); Serial.println(c);
  if (color == LED_RED) {
    2918:	7e 40 90    	mov.b     [w14+7], w0
    291a:	e1 4f 50    	sub.b     w0, #0x1, [w15]
    291c:	1d 00 3a    	bra       NZ, 0x2958 <.L22>
    // Turn on red LED.
    ptr->super.displaybuffer[c] |= _BV(a);
    291e:	ae 00 90    	mov.w     [w14+4], w1
    2920:	1e 00 90    	mov.w     [w14+2], w0
    2922:	00 00 40    	add.w     w0, w0, w0
    2924:	e1 00 78    	mov.w     [w1+w0], w1
    2926:	1e 00 78    	mov.w     [w14], w0
    2928:	12 00 20    	mov.w     #0x1, w2
    292a:	00 10 dd    	sl.w      w2, w0, w0
    292c:	81 00 70    	ior.w     w0, w1, w1
    292e:	2e 01 90    	mov.w     [w14+4], w2
    2930:	1e 00 90    	mov.w     [w14+2], w0
    2932:	00 00 40    	add.w     w0, w0, w0
    2934:	00 00 41    	add.w     w2, w0, w0
    2936:	01 08 78    	mov.w     w1, [w0]
    // Turn off green LED.
    ptr->super.displaybuffer[c] &= ~_BV(a+8);
    2938:	ae 00 90    	mov.w     [w14+4], w1
    293a:	1e 00 90    	mov.w     [w14+2], w0
    293c:	00 00 40    	add.w     w0, w0, w0
    293e:	e1 00 78    	mov.w     [w1+w0], w1
    2940:	1e 01 78    	mov.w     [w14], w2
    2942:	68 00 41    	add.w     w2, #0x8, w0
    2944:	12 00 20    	mov.w     #0x1, w2
    2946:	00 10 dd    	sl.w      w2, w0, w0
    2948:	00 80 ea    	com.w     w0, w0
    294a:	80 80 60    	and.w     w1, w0, w1
    294c:	2e 01 90    	mov.w     [w14+4], w2
    294e:	1e 00 90    	mov.w     [w14+2], w0
    2950:	00 00 40    	add.w     w0, w0, w0
    2952:	00 00 41    	add.w     w2, w0, w0
    2954:	01 08 78    	mov.w     w1, [w0]
    2956:	4c 00 37    	bra       0x29f0 <.L17>

00002958 <.L22>:
  } else if (color == LED_YELLOW) {
    2958:	7e 40 90    	mov.b     [w14+7], w0
    295a:	e2 4f 50    	sub.b     w0, #0x2, [w15]
    295c:	13 00 3a    	bra       NZ, 0x2984 <.L24>
    // Turn on red and green LED.
    ptr->super.displaybuffer[c] |= _BV(a) | _BV(a+8);
    295e:	ae 00 90    	mov.w     [w14+4], w1
    2960:	1e 00 90    	mov.w     [w14+2], w0
    2962:	00 00 40    	add.w     w0, w0, w0
    2964:	e1 00 78    	mov.w     [w1+w0], w1
    2966:	1e 00 78    	mov.w     [w14], w0
    2968:	12 00 20    	mov.w     #0x1, w2
    296a:	00 11 dd    	sl.w      w2, w0, w2
    296c:	9e 01 78    	mov.w     [w14], w3
    296e:	68 80 41    	add.w     w3, #0x8, w0
    2970:	13 00 20    	mov.w     #0x1, w3
    2972:	00 18 dd    	sl.w      w3, w0, w0
    2974:	02 00 70    	ior.w     w0, w2, w0
    2976:	81 00 70    	ior.w     w0, w1, w1
    2978:	2e 01 90    	mov.w     [w14+4], w2
    297a:	1e 00 90    	mov.w     [w14+2], w0
    297c:	00 00 40    	add.w     w0, w0, w0
    297e:	00 00 41    	add.w     w2, w0, w0
    2980:	01 08 78    	mov.w     w1, [w0]
    2982:	36 00 37    	bra       0x29f0 <.L17>

00002984 <.L24>:
  } else if (color == LED_OFF) {
    2984:	7e 40 90    	mov.b     [w14+7], w0
    2986:	00 04 e0    	cp0.b     w0
    2988:	14 00 3a    	bra       NZ, 0x29b2 <.L25>
    // Turn off red and green LED.
    ptr->super.displaybuffer[c] &= ~_BV(a) & ~_BV(a+8);
    298a:	ae 00 90    	mov.w     [w14+4], w1
    298c:	1e 00 90    	mov.w     [w14+2], w0
    298e:	00 00 40    	add.w     w0, w0, w0
    2990:	e1 00 78    	mov.w     [w1+w0], w1
    2992:	1e 00 78    	mov.w     [w14], w0
    2994:	12 00 20    	mov.w     #0x1, w2
    2996:	00 11 dd    	sl.w      w2, w0, w2
    2998:	9e 01 78    	mov.w     [w14], w3
    299a:	68 80 41    	add.w     w3, #0x8, w0
    299c:	13 00 20    	mov.w     #0x1, w3
    299e:	00 18 dd    	sl.w      w3, w0, w0
    29a0:	02 00 70    	ior.w     w0, w2, w0
    29a2:	00 80 ea    	com.w     w0, w0
    29a4:	80 80 60    	and.w     w1, w0, w1
    29a6:	2e 01 90    	mov.w     [w14+4], w2
    29a8:	1e 00 90    	mov.w     [w14+2], w0
    29aa:	00 00 40    	add.w     w0, w0, w0
    29ac:	00 00 41    	add.w     w2, w0, w0
    29ae:	01 08 78    	mov.w     w1, [w0]
    29b0:	1f 00 37    	bra       0x29f0 <.L17>

000029b2 <.L25>:
  } else if (color == LED_GREEN) {
    29b2:	7e 40 90    	mov.b     [w14+7], w0
    29b4:	e3 4f 50    	sub.b     w0, #0x3, [w15]
    29b6:	1c 00 3a    	bra       NZ, 0x29f0 <.L17>
    // Turn on green LED.
    ptr->super.displaybuffer[c] |= _BV(a+8);
    29b8:	ae 00 90    	mov.w     [w14+4], w1
    29ba:	1e 00 90    	mov.w     [w14+2], w0
    29bc:	00 00 40    	add.w     w0, w0, w0
    29be:	e1 00 78    	mov.w     [w1+w0], w1
    29c0:	1e 01 78    	mov.w     [w14], w2
    29c2:	68 00 41    	add.w     w2, #0x8, w0
    29c4:	12 00 20    	mov.w     #0x1, w2
    29c6:	00 10 dd    	sl.w      w2, w0, w0
    29c8:	81 00 70    	ior.w     w0, w1, w1
    29ca:	2e 01 90    	mov.w     [w14+4], w2
    29cc:	1e 00 90    	mov.w     [w14+2], w0
    29ce:	00 00 40    	add.w     w0, w0, w0
    29d0:	00 00 41    	add.w     w2, w0, w0
    29d2:	01 08 78    	mov.w     w1, [w0]
    // Turn off red LED.
    ptr->super.displaybuffer[c] &= ~_BV(a);
    29d4:	ae 00 90    	mov.w     [w14+4], w1
    29d6:	1e 00 90    	mov.w     [w14+2], w0
    29d8:	00 00 40    	add.w     w0, w0, w0
    29da:	e1 00 78    	mov.w     [w1+w0], w1
    29dc:	1e 00 78    	mov.w     [w14], w0
    29de:	12 00 20    	mov.w     #0x1, w2
    29e0:	00 10 dd    	sl.w      w2, w0, w0
    29e2:	00 80 ea    	com.w     w0, w0
    29e4:	80 80 60    	and.w     w1, w0, w1
    29e6:	2e 01 90    	mov.w     [w14+4], w2
    29e8:	1e 00 90    	mov.w     [w14+2], w0
    29ea:	00 00 40    	add.w     w0, w0, w0
    29ec:	00 00 41    	add.w     w2, w0, w0
    29ee:	01 08 78    	mov.w     w1, [w0]

000029f0 <.L17>:
  }
}
    29f0:	00 80 fa    	ulnk      
    29f2:	00 00 06    	return    

000029f4 <_sevseg_writeDigitRaw>:

// 7SEGMENT ********************************************************************

// uint8_t write(_7SEGMENT* ptr, uint8_t c){
//
//   uint8_t r = 0;
//
//   if (c == '\n') ptr->position = 0;
//   if (c == '\r') ptr->position = 0;
//
//   if ((c >= '0') && (c <= '9')) {
//     sevseg_writeDigitNum(ptr, ptr->position, c-'0', 0);
//     r = 1;
//   }
//
//   ptr->position++;
//   if (ptr->position == 2) ptr->position++;
//
//   return r;
// }

void sevseg_writeDigitRaw(_7SEGMENT* ptr, uint8_t x, uint16_t bitmask){
    29f4:	06 00 fa    	lnk       #0x6
    29f6:	00 0f 78    	mov.w     w0, [w14]
    29f8:	21 47 98    	mov.b     w1, [w14+2]
    29fa:	22 07 98    	mov.w     w2, [w14+4]
  if (x > 4) return;
    29fc:	2e 40 90    	mov.b     [w14+2], w0
    29fe:	e4 4f 50    	sub.b     w0, #0x4, [w15]
    2a00:	08 00 3e    	bra       GTU, 0x2a12 <.L29>
  ptr->super.displaybuffer[x] = bitmask;
    2a02:	2e 40 90    	mov.b     [w14+2], w0
    2a04:	00 80 fb    	ze        w0, w0
    2a06:	9e 00 78    	mov.w     [w14], w1
    2a08:	00 00 40    	add.w     w0, w0, w0
    2a0a:	00 80 40    	add.w     w1, w0, w0
    2a0c:	ae 00 90    	mov.w     [w14+4], w1
    2a0e:	01 08 78    	mov.w     w1, [w0]
    2a10:	01 00 37    	bra       0x2a14 <.L26>

00002a12 <.L29>:
    2a12:	00 00 00    	nop       

00002a14 <.L26>:
}
    2a14:	00 80 fa    	ulnk      
    2a16:	00 00 06    	return    

00002a18 <_sevseg_writeDigitNum>:

void sevseg_writeDigitNum(_7SEGMENT* ptr, uint8_t x, uint8_t num, uint8_t dot){
    2a18:	08 00 fa    	lnk       #0x8
    2a1a:	10 07 98    	mov.w     w0, [w14+2]
    2a1c:	41 47 98    	mov.b     w1, [w14+4]
    2a1e:	52 47 98    	mov.b     w2, [w14+5]
    2a20:	63 47 98    	mov.b     w3, [w14+6]
  if (x > 4) return;
    2a22:	4e 40 90    	mov.b     [w14+4], w0
    2a24:	e4 4f 50    	sub.b     w0, #0x4, [w15]
    2a26:	11 00 3e    	bra       GTU, 0x2a4a <.L33>
	uint16_t zero = 0x0000;
    2a28:	00 00 eb    	clr.w     w0
    2a2a:	00 0f 78    	mov.w     w0, [w14]
  sevseg_writeDigitRaw(ptr, x, (numbertable[num] | (dot << 7)));
    2a2c:	5e 40 90    	mov.b     [w14+5], w0
    2a2e:	00 80 fb    	ze        w0, w0
    2a30:	80 00 40    	add.w     w0, w0, w1
    2a32:	80 f6 29    	mov.w     #0x9f68, w0
    2a34:	00 80 40    	add.w     w1, w0, w0
    2a36:	90 00 78    	mov.w     [w0], w1
    2a38:	6e 40 90    	mov.b     [w14+6], w0
    2a3a:	00 80 fb    	ze        w0, w0
    2a3c:	47 00 dd    	sl.w      w0, #0x7, w0
    2a3e:	01 00 70    	ior.w     w0, w1, w0
    2a40:	00 01 78    	mov.w     w0, w2
    2a42:	ce 40 90    	mov.b     [w14+4], w1
    2a44:	1e 00 90    	mov.w     [w14+2], w0
    2a46:	d6 ff 07    	rcall     0x29f4 <_sevseg_writeDigitRaw> <.LFB10> <.LFE9>
    2a48:	01 00 37    	bra       0x2a4c <.L30>

00002a4a <.L33>:
    2a4a:	00 00 00    	nop       

00002a4c <.L30>:
}
    2a4c:	00 80 fa    	ulnk      
    2a4e:	00 00 06    	return    

00002a50 <_sevseg_drawColon>:

void sevseg_drawColon(_7SEGMENT* ptr, uint8_t state){
    2a50:	04 00 fa    	lnk       #0x4
    2a52:	00 0f 78    	mov.w     w0, [w14]
    2a54:	21 47 98    	mov.b     w1, [w14+2]
  if (state)
    2a56:	2e 40 90    	mov.b     [w14+2], w0
    2a58:	00 04 e0    	cp0.b     w0
    2a5a:	04 00 32    	bra       Z, 0x2a64 <.L35>
    ptr->super.displaybuffer[2] = 0x2;
    2a5c:	1e 00 78    	mov.w     [w14], w0
    2a5e:	21 00 20    	mov.w     #0x2, w1
    2a60:	21 00 98    	mov.w     w1, [w0+4]
    2a62:	03 00 37    	bra       0x2a6a <.L34>

00002a64 <.L35>:
  else
    ptr->super.displaybuffer[2] = 0;
    2a64:	1e 00 78    	mov.w     [w14], w0
    2a66:	80 00 eb    	clr.w     w1
    2a68:	21 00 98    	mov.w     w1, [w0+4]

00002a6a <.L34>:
}
    2a6a:	00 80 fa    	ulnk      
    2a6c:	00 00 06    	return    

00002a6e <_sevseg_printNumber>:

void sevseg_printNumber(_7SEGMENT* ptr, long n, uint8_t base){
    2a6e:	08 00 fa    	lnk       #0x8
    2a70:	00 0f 78    	mov.w     w0, [w14]
    2a72:	12 07 98    	mov.w     w2, [w14+2]
    2a74:	23 07 98    	mov.w     w3, [w14+4]
    2a76:	61 47 98    	mov.b     w1, [w14+6]
  sevseg_printFloat(ptr, n, 0, base);
    2a78:	1e 00 90    	mov.w     [w14+2], w0
    2a7a:	ae 00 90    	mov.w     [w14+4], w1
    2a7c:	93 f4 07    	rcall     0x13a4 <___floatsisf>
    2a7e:	00 01 be    	mov.d     w0, w2
    2a80:	6e 42 90    	mov.b     [w14+6], w4
    2a82:	80 40 eb    	clr.b     w1
    2a84:	1e 00 78    	mov.w     [w14], w0
    2a86:	02 00 07    	rcall     0x2a8c <_sevseg_printFloat> <.LFB14> <.LFE13>
}
    2a88:	00 80 fa    	ulnk      
    2a8a:	00 00 06    	return    

00002a8c <_sevseg_printFloat>:

void sevseg_printFloat(_7SEGMENT* ptr, double n, uint8_t fracDigits, uint8_t base){
    2a8c:	1c 00 fa    	lnk       #0x1c
    2a8e:	88 1f 78    	mov.w     w8, [w15++]
    2a90:	20 0f 98    	mov.w     w0, [w14+20]
    2a92:	32 0f 98    	mov.w     w2, [w14+22]
    2a94:	43 0f 98    	mov.w     w3, [w14+24]
    2a96:	21 5f 98    	mov.b     w1, [w14+26]
    2a98:	34 5f 98    	mov.b     w4, [w14+27]
  uint8_t numericDigits = 4;   // available digits on display
    2a9a:	40 c0 b3    	mov.b     #0x4, w0
    2a9c:	00 4f 78    	mov.b     w0, [w14]
  uint8_t isNegative = 0;  // true if the number is negative
    2a9e:	00 40 eb    	clr.b     w0
    2aa0:	10 47 98    	mov.b     w0, [w14+1]

  // is the number negative?
  if(n < 0) {
    2aa2:	18 c0 b3    	mov.b     #0x1, w8
    2aa4:	60 11 b8    	mul.uu    w2, #0x0, w2
    2aa6:	3e 08 90    	mov.w     [w14+22], w0
    2aa8:	ce 08 90    	mov.w     [w14+24], w1
    2aaa:	5f f4 07    	rcall     0x136a <___eqsf2> <___lesf2> <___ltsf2>
    2aac:	00 00 e0    	cp0.w     w0
    2aae:	01 00 35    	bra       LT, 0x2ab2 <.L39>
    2ab0:	00 44 eb    	clr.b     w8

00002ab2 <.L39>:
    2ab2:	08 04 e0    	cp0.b     w8
    2ab4:	08 00 32    	bra       Z, 0x2ac6 <.L40>
    isNegative = 1;  // need to draw sign later
    2ab6:	10 c0 b3    	mov.b     #0x1, w0
    2ab8:	10 47 98    	mov.b     w0, [w14+1]
    --numericDigits;    // the sign will take up one digit
    2aba:	1e 4f e9    	dec.b     [w14], [w14]
    n *= -1;            // pretend the number is positive
    2abc:	3e 08 90    	mov.w     [w14+22], w0
    2abe:	ce 08 90    	mov.w     [w14+24], w1
    2ac0:	01 f0 a2    	btg.w     w1, #0xf
    2ac2:	30 0f 98    	mov.w     w0, [w14+22]
    2ac4:	41 0f 98    	mov.w     w1, [w14+24]

00002ac6 <.L40>:
  }

  // calculate the factor required to shift all fractional digits
  // into the integer part of the number
  double toIntFactor = 1.0;
    2ac6:	00 00 20    	mov.w     #0x0, w0
    2ac8:	01 f8 23    	mov.w     #0x3f80, w1
    2aca:	10 07 98    	mov.w     w0, [w14+2]
    2acc:	21 07 98    	mov.w     w1, [w14+4]
	int i = 0;
    2ace:	00 00 eb    	clr.w     w0
    2ad0:	30 07 98    	mov.w     w0, [w14+6]
  for(i = 0; i < fracDigits; ++i) toIntFactor *= base;
    2ad2:	00 00 eb    	clr.w     w0
    2ad4:	30 07 98    	mov.w     w0, [w14+6]
    2ad6:	0d 00 37    	bra       0x2af2 <.L41>

00002ad8 <.L42>:
    2ad8:	3e 58 90    	mov.b     [w14+27], w0
    2ada:	00 80 fb    	ze        w0, w0
    2adc:	cf 80 de    	asr.w     w0, #0xf, w1
    2ade:	62 f4 07    	rcall     0x13a4 <___floatsisf>
    2ae0:	00 01 be    	mov.d     w0, w2
    2ae2:	1e 00 90    	mov.w     [w14+2], w0
    2ae4:	ae 00 90    	mov.w     [w14+4], w1
    2ae6:	b4 f4 07    	rcall     0x1450 <___mulsf3>
    2ae8:	10 07 98    	mov.w     w0, [w14+2]
    2aea:	21 07 98    	mov.w     w1, [w14+4]
    2aec:	3e 00 90    	mov.w     [w14+6], w0
    2aee:	00 00 e8    	inc.w     w0, w0
    2af0:	30 07 98    	mov.w     w0, [w14+6]

00002af2 <.L41>:
    2af2:	2e 58 90    	mov.b     [w14+26], w0
    2af4:	80 80 fb    	ze        w0, w1
    2af6:	3e 00 90    	mov.w     [w14+6], w0
    2af8:	80 8f 50    	sub.w     w1, w0, [w15]
    2afa:	ee ff 3c    	bra       GT, 0x2ad8 <.L42>

  // create integer containing digits to display by applying
  // shifting factor and rounding adjustment
  uint32_t displayNumber = n * toIntFactor + 0.5;
    2afc:	1e 01 90    	mov.w     [w14+2], w2
    2afe:	ae 01 90    	mov.w     [w14+4], w3
    2b00:	3e 08 90    	mov.w     [w14+22], w0
    2b02:	ce 08 90    	mov.w     [w14+24], w1
    2b04:	a5 f4 07    	rcall     0x1450 <___mulsf3>
    2b06:	02 00 20    	mov.w     #0x0, w2
    2b08:	03 f0 23    	mov.w     #0x3f00, w3
    2b0a:	90 f3 07    	rcall     0x122c <___addsf3>
    2b0c:	30 f4 07    	rcall     0x136e <___fixunssfsi>
    2b0e:	40 07 98    	mov.w     w0, [w14+8]
    2b10:	51 07 98    	mov.w     w1, [w14+10]

  // calculate upper bound on displayNumber given
  // available digits on display
  uint32_t tooBig = 1;
    2b12:	10 00 20    	mov.w     #0x1, w0
    2b14:	01 00 20    	mov.w     #0x0, w1
    2b16:	60 07 98    	mov.w     w0, [w14+12]
    2b18:	71 07 98    	mov.w     w1, [w14+14]
  for(i = 0; i < numericDigits; ++i) tooBig *= base;
    2b1a:	00 00 eb    	clr.w     w0
    2b1c:	30 07 98    	mov.w     w0, [w14+6]
    2b1e:	15 00 37    	bra       0x2b4a <.L43>

00002b20 <.L44>:
    2b20:	3e 58 90    	mov.b     [w14+27], w0
    2b22:	00 80 fb    	ze        w0, w0
    2b24:	80 00 eb    	clr.w     w1
    2b26:	7e 01 90    	mov.w     [w14+14], w2
    2b28:	00 91 b9    	mul.ss    w2, w0, w2
    2b2a:	02 01 78    	mov.w     w2, w2
    2b2c:	ee 01 90    	mov.w     [w14+12], w3
    2b2e:	01 9a b9    	mul.ss    w3, w1, w4
    2b30:	84 01 78    	mov.w     w4, w3
    2b32:	03 01 41    	add.w     w2, w3, w2
    2b34:	ee 01 90    	mov.w     [w14+12], w3
    2b36:	00 18 b8    	mul.uu    w3, w0, w0
    2b38:	01 01 41    	add.w     w2, w1, w2
    2b3a:	82 00 78    	mov.w     w2, w1
    2b3c:	60 07 98    	mov.w     w0, [w14+12]
    2b3e:	71 07 98    	mov.w     w1, [w14+14]
    2b40:	60 07 98    	mov.w     w0, [w14+12]
    2b42:	71 07 98    	mov.w     w1, [w14+14]
    2b44:	3e 00 90    	mov.w     [w14+6], w0
    2b46:	00 00 e8    	inc.w     w0, w0
    2b48:	30 07 98    	mov.w     w0, [w14+6]

00002b4a <.L43>:
    2b4a:	9e 80 fb    	ze        [w14], w1
    2b4c:	3e 00 90    	mov.w     [w14+6], w0
    2b4e:	80 8f 50    	sub.w     w1, w0, [w15]
    2b50:	e7 ff 3c    	bra       GT, 0x2b20 <.L44>

  // if displayNumber is too large, try fewer fractional digits
  while(displayNumber >= tooBig) {
    2b52:	18 00 37    	bra       0x2b84 <.L45>

00002b54 <.L46>:
    --fracDigits;
    2b54:	2e 58 90    	mov.b     [w14+26], w0
    2b56:	00 40 e9    	dec.b     w0, w0
    2b58:	20 5f 98    	mov.b     w0, [w14+26]
    toIntFactor /= base;
    2b5a:	3e 58 90    	mov.b     [w14+27], w0
    2b5c:	00 80 fb    	ze        w0, w0
    2b5e:	cf 80 de    	asr.w     w0, #0xf, w1
    2b60:	21 f4 07    	rcall     0x13a4 <___floatsisf>
    2b62:	00 01 be    	mov.d     w0, w2
    2b64:	1e 00 90    	mov.w     [w14+2], w0
    2b66:	ae 00 90    	mov.w     [w14+4], w1
    2b68:	be f3 07    	rcall     0x12e6 <___divsf3>
    2b6a:	10 07 98    	mov.w     w0, [w14+2]
    2b6c:	21 07 98    	mov.w     w1, [w14+4]
    displayNumber = n * toIntFactor + 0.5;
    2b6e:	1e 01 90    	mov.w     [w14+2], w2
    2b70:	ae 01 90    	mov.w     [w14+4], w3
    2b72:	3e 08 90    	mov.w     [w14+22], w0
    2b74:	ce 08 90    	mov.w     [w14+24], w1
    2b76:	6c f4 07    	rcall     0x1450 <___mulsf3>
    2b78:	02 00 20    	mov.w     #0x0, w2
    2b7a:	03 f0 23    	mov.w     #0x3f00, w3
    2b7c:	57 f3 07    	rcall     0x122c <___addsf3>
    2b7e:	f7 f3 07    	rcall     0x136e <___fixunssfsi>
    2b80:	40 07 98    	mov.w     w0, [w14+8]
    2b82:	51 07 98    	mov.w     w1, [w14+10]

00002b84 <.L45>:
    2b84:	4e 01 90    	mov.w     [w14+8], w2
    2b86:	de 01 90    	mov.w     [w14+10], w3
    2b88:	6e 00 90    	mov.w     [w14+12], w0
    2b8a:	fe 00 90    	mov.w     [w14+14], w1
    2b8c:	80 0f 51    	sub.w     w2, w0, [w15]
    2b8e:	81 8f 59    	subb.w    w3, w1, [w15]
    2b90:	e1 ff 31    	bra       C, 0x2b54 <.L46>
  }

  // did toIntFactor shift the decimal off the display?
  if (toIntFactor < 1) {
    2b92:	18 c0 b3    	mov.b     #0x1, w8
    2b94:	02 00 20    	mov.w     #0x0, w2
    2b96:	03 f8 23    	mov.w     #0x3f80, w3
    2b98:	1e 00 90    	mov.w     [w14+2], w0
    2b9a:	ae 00 90    	mov.w     [w14+4], w1
    2b9c:	e6 f3 07    	rcall     0x136a <___eqsf2> <___lesf2> <___ltsf2>
    2b9e:	00 00 e0    	cp0.w     w0
    2ba0:	01 00 35    	bra       LT, 0x2ba4 <.L47>
    2ba2:	00 44 eb    	clr.b     w8

00002ba4 <.L47>:
    2ba4:	08 04 e0    	cp0.b     w8
    2ba6:	03 00 32    	bra       Z, 0x2bae <.L48> <.LBB2>
    sevseg_printError(ptr);
    2ba8:	2e 08 90    	mov.w     [w14+20], w0
    2baa:	6c 00 07    	rcall     0x2c84 <_sevseg_printError> <.LFB15> <.LFE14>
    2bac:	68 00 37    	bra       0x2c7e <.L38> <.LBE2>

00002bae <.L48>:
  } else {
    // otherwise, display the number
    int8_t displayPos = 4;
    2bae:	40 c0 b3    	mov.b     #0x4, w0
    2bb0:	00 57 98    	mov.b     w0, [w14+16]

    if (displayNumber)  //if displayNumber is not 0
    2bb2:	4e 00 90    	mov.w     [w14+8], w0
    2bb4:	de 00 90    	mov.w     [w14+10], w1
    2bb6:	e0 0f 50    	sub.w     w0, #0x0, [w15]
    2bb8:	e0 8f 58    	subb.w    w1, #0x0, [w15]
    2bba:	41 00 32    	bra       Z, 0x2c3e <.L50> <.LBE3>

00002bbc <.LBB3>:
    {
			uint8_t i;
      for(i = 0; displayNumber || i <= fracDigits; ++i) {
    2bbc:	00 40 eb    	clr.b     w0
    2bbe:	10 57 98    	mov.b     w0, [w14+17]
    2bc0:	34 00 37    	bra       0x2c2a <.L51>

00002bc2 <.L55>:
        uint8_t displayDecimal = (fracDigits != 0 && i == fracDigits);
    2bc2:	2e 58 90    	mov.b     [w14+26], w0
    2bc4:	00 04 e0    	cp0.b     w0
    2bc6:	06 00 32    	bra       Z, 0x2bd4 <.L52>
    2bc8:	9e 50 90    	mov.b     [w14+17], w1
    2bca:	2e 58 90    	mov.b     [w14+26], w0
    2bcc:	80 cf 50    	sub.b     w1, w0, [w15]
    2bce:	02 00 3a    	bra       NZ, 0x2bd4 <.L52>
    2bd0:	10 00 20    	mov.w     #0x1, w0
    2bd2:	01 00 37    	bra       0x2bd6 <.L53>

00002bd4 <.L52>:
    2bd4:	00 00 eb    	clr.w     w0

00002bd6 <.L53>:
    2bd6:	20 57 98    	mov.b     w0, [w14+18]
        sevseg_writeDigitNum(ptr, displayPos--, displayNumber % base, displayDecimal);
    2bd8:	3e 58 90    	mov.b     [w14+27], w0
    2bda:	00 80 fb    	ze        w0, w0
    2bdc:	80 00 eb    	clr.w     w1
    2bde:	4e 02 90    	mov.w     [w14+8], w4
    2be0:	de 02 90    	mov.w     [w14+10], w5
    2be2:	00 01 be    	mov.d     w0, w2
    2be4:	04 00 be    	mov.d     w4, w0
    2be6:	78 f4 07    	rcall     0x14d8 <___umodsi3>
    2be8:	80 40 78    	mov.b     w0, w1
    2bea:	0e 50 90    	mov.b     [w14+16], w0
    2bec:	0e 51 90    	mov.b     [w14+16], w2
    2bee:	02 41 e9    	dec.b     w2, w2
    2bf0:	02 57 98    	mov.b     w2, [w14+16]
    2bf2:	ae 51 90    	mov.b     [w14+18], w3
    2bf4:	01 41 78    	mov.b     w1, w2
    2bf6:	80 40 78    	mov.b     w0, w1
    2bf8:	2e 08 90    	mov.w     [w14+20], w0
    2bfa:	0e ff 07    	rcall     0x2a18 <_sevseg_writeDigitNum> <.LFB11> <.LFE10>
        if(displayPos == 2) sevseg_writeDigitRaw(ptr, displayPos--, 0x00);
    2bfc:	0e 50 90    	mov.b     [w14+16], w0
    2bfe:	e2 4f 50    	sub.b     w0, #0x2, [w15]
    2c00:	08 00 3a    	bra       NZ, 0x2c12 <.L54>
    2c02:	0e 50 90    	mov.b     [w14+16], w0
    2c04:	8e 50 90    	mov.b     [w14+16], w1
    2c06:	81 40 e9    	dec.b     w1, w1
    2c08:	01 57 98    	mov.b     w1, [w14+16]
    2c0a:	00 01 eb    	clr.w     w2
    2c0c:	80 40 78    	mov.b     w0, w1
    2c0e:	2e 08 90    	mov.w     [w14+20], w0
    2c10:	f1 fe 07    	rcall     0x29f4 <_sevseg_writeDigitRaw> <.LFB10> <.LFE9>

00002c12 <.L54>:
        displayNumber /= base;
    2c12:	3e 58 90    	mov.b     [w14+27], w0
    2c14:	00 80 fb    	ze        w0, w0
    2c16:	80 00 eb    	clr.w     w1
    2c18:	00 01 be    	mov.d     w0, w2
    2c1a:	4e 00 90    	mov.w     [w14+8], w0
    2c1c:	de 00 90    	mov.w     [w14+10], w1
    2c1e:	4c f4 07    	rcall     0x14b8 <___udivsi3>
    2c20:	40 07 98    	mov.w     w0, [w14+8]
    2c22:	51 07 98    	mov.w     w1, [w14+10]

00002c24 <.LBE4>:
    2c24:	1e 50 90    	mov.b     [w14+17], w0
    2c26:	00 40 e8    	inc.b     w0, w0
    2c28:	10 57 98    	mov.b     w0, [w14+17]

00002c2a <.L51>:
    2c2a:	4e 00 90    	mov.w     [w14+8], w0
    2c2c:	de 00 90    	mov.w     [w14+10], w1
    2c2e:	e0 0f 50    	sub.w     w0, #0x0, [w15]
    2c30:	e0 8f 58    	subb.w    w1, #0x0, [w15]
    2c32:	c7 ff 3a    	bra       NZ, 0x2bc2 <.L55> <.LBB4>
    2c34:	9e 50 90    	mov.b     [w14+17], w1
    2c36:	2e 58 90    	mov.b     [w14+26], w0
    2c38:	80 cf 50    	sub.b     w1, w0, [w15]
    2c3a:	c3 ff 36    	bra       LEU, 0x2bc2 <.L55> <.LBB4>
    2c3c:	09 00 37    	bra       0x2c50 <.L56>

00002c3e <.L50>:
      }
    }
    else {
      sevseg_writeDigitNum(ptr, displayPos--, 0, 0);
    2c3e:	0e 50 90    	mov.b     [w14+16], w0
    2c40:	8e 50 90    	mov.b     [w14+16], w1
    2c42:	81 40 e9    	dec.b     w1, w1
    2c44:	01 57 98    	mov.b     w1, [w14+16]
    2c46:	80 41 eb    	clr.b     w3
    2c48:	00 41 eb    	clr.b     w2
    2c4a:	80 40 78    	mov.b     w0, w1
    2c4c:	2e 08 90    	mov.w     [w14+20], w0
    2c4e:	e4 fe 07    	rcall     0x2a18 <_sevseg_writeDigitNum> <.LFB11> <.LFE10>

00002c50 <.L56>:
    }

    // display negative sign if negative
    if(isNegative) sevseg_writeDigitRaw(ptr, displayPos--, 0x40);
    2c50:	1e 40 90    	mov.b     [w14+1], w0
    2c52:	00 04 e0    	cp0.b     w0
    2c54:	11 00 32    	bra       Z, 0x2c78 <.L58>
    2c56:	0e 50 90    	mov.b     [w14+16], w0
    2c58:	8e 50 90    	mov.b     [w14+16], w1
    2c5a:	81 40 e9    	dec.b     w1, w1
    2c5c:	01 57 98    	mov.b     w1, [w14+16]
    2c5e:	02 04 20    	mov.w     #0x40, w2
    2c60:	80 40 78    	mov.b     w0, w1
    2c62:	2e 08 90    	mov.w     [w14+20], w0
    2c64:	c7 fe 07    	rcall     0x29f4 <_sevseg_writeDigitRaw> <.LFB10> <.LFE9>

    // clear remaining display positions
    while(displayPos >= 0) sevseg_writeDigitRaw(ptr, displayPos--, 0x00);
    2c66:	08 00 37    	bra       0x2c78 <.L58>

00002c68 <.L59>:
    2c68:	0e 50 90    	mov.b     [w14+16], w0
    2c6a:	8e 50 90    	mov.b     [w14+16], w1
    2c6c:	81 40 e9    	dec.b     w1, w1
    2c6e:	01 57 98    	mov.b     w1, [w14+16]
    2c70:	00 01 eb    	clr.w     w2
    2c72:	80 40 78    	mov.b     w0, w1
    2c74:	2e 08 90    	mov.w     [w14+20], w0
    2c76:	be fe 07    	rcall     0x29f4 <_sevseg_writeDigitRaw> <.LFB10> <.LFE9>

00002c78 <.L58>:
    2c78:	0e 50 90    	mov.b     [w14+16], w0
    2c7a:	00 04 e0    	cp0.b     w0
    2c7c:	f5 ff 3d    	bra       GE, 0x2c68 <.L59>

00002c7e <.L38>:
  }
}
    2c7e:	4f 04 78    	mov.w     [--w15], w8
    2c80:	00 80 fa    	ulnk      
    2c82:	00 00 06    	return    

00002c84 <_sevseg_printError>:

void sevseg_printError(_7SEGMENT* ptr){
    2c84:	04 00 fa    	lnk       #0x4
    2c86:	10 07 98    	mov.w     w0, [w14+2]
	uint8_t i;
  for(i = 0; i < SEVENSEG_DIGITS; ++i) {
    2c88:	00 40 eb    	clr.b     w0
    2c8a:	00 4f 78    	mov.b     w0, [w14]
    2c8c:	0b 00 37    	bra       0x2ca4 <.L61>

00002c8e <.L64>:
    sevseg_writeDigitRaw(ptr, i, (i == 2 ? 0x00 : 0x40));
    2c8e:	1e 40 78    	mov.b     [w14], w0
    2c90:	e2 4f 50    	sub.b     w0, #0x2, [w15]
    2c92:	02 00 3a    	bra       NZ, 0x2c98 <.L62>
    2c94:	00 00 eb    	clr.w     w0
    2c96:	01 00 37    	bra       0x2c9a <.L63>

00002c98 <.L62>:
    2c98:	00 04 20    	mov.w     #0x40, w0

00002c9a <.L63>:
    2c9a:	00 01 78    	mov.w     w0, w2
    2c9c:	9e 40 78    	mov.b     [w14], w1
    2c9e:	1e 00 90    	mov.w     [w14+2], w0
    2ca0:	a9 fe 07    	rcall     0x29f4 <_sevseg_writeDigitRaw> <.LFB10> <.LFE9>
    2ca2:	1e 4f e8    	inc.b     [w14], [w14]

00002ca4 <.L61>:
    2ca4:	1e 40 78    	mov.b     [w14], w0
    2ca6:	e4 4f 50    	sub.b     w0, #0x4, [w15]
    2ca8:	f2 ff 36    	bra       LEU, 0x2c8e <.L64>
  }
}
    2caa:	00 80 fa    	ulnk      
    2cac:	00 00 06    	return    

00002cae <_sevseg_writeColon>:


void sevseg_writeColon(_7SEGMENT* ptr){
    2cae:	02 00 fa    	lnk       #0x2
    2cb0:	00 0f 78    	mov.w     w0, [w14]
  /*
  Wire.beginTransmission(i2c_addr);
  Wire.write((uint8_t)0x04);

  Wire.write(displaybuffer[2] & 0xFF);
  Wire.write(displaybuffer[2] >> 8);

  Wire.endTransmission();
  */
  i2c_start();
    2cb2:	33 00 07    	rcall     0x2d1a <_i2c_start> <.LFB2> <.LFE1>
  send_i2c_byte(ptr->super.i2c_addr);
    2cb4:	1e 00 78    	mov.w     [w14], w0
    2cb6:	00 50 90    	mov.b     [w0+16], w0
    2cb8:	00 80 fb    	ze        w0, w0
    2cba:	7e 00 07    	rcall     0x2db8 <_send_i2c_byte> <.LFB5> <.LFE4>
  send_i2c_byte((uint8_t)0x04); // start at address $02
    2cbc:	40 00 20    	mov.w     #0x4, w0
    2cbe:	7c 00 07    	rcall     0x2db8 <_send_i2c_byte> <.LFB5> <.LFE4>
  send_i2c_byte(ptr->super.displaybuffer[2] & 0xFF);
    2cc0:	1e 00 78    	mov.w     [w14], w0
    2cc2:	20 00 90    	mov.w     [w0+4], w0
    2cc4:	80 00 78    	mov.w     w0, w1
    2cc6:	f0 0f 20    	mov.w     #0xff, w0
    2cc8:	00 80 60    	and.w     w1, w0, w0
    2cca:	76 00 07    	rcall     0x2db8 <_send_i2c_byte> <.LFB5> <.LFE4>
  send_i2c_byte(ptr->super.displaybuffer[2] >> 8);
    2ccc:	1e 00 78    	mov.w     [w14], w0
    2cce:	20 00 90    	mov.w     [w0+4], w0
    2cd0:	48 00 de    	lsr.w     w0, #0x8, w0
    2cd2:	72 00 07    	rcall     0x2db8 <_send_i2c_byte> <.LFB5> <.LFE4>
  reset_i2c_bus();
    2cd4:	56 00 07    	rcall     0x2d82 <_reset_i2c_bus> <.LFB4> <.LFE3>
}
    2cd6:	00 80 fa    	ulnk      
    2cd8:	00 00 06    	return    

00002cda <_delay_by_nop>:
    2cda:	08 00 fa    	lnk       #0x8
    2cdc:	20 07 98    	mov.w     w0, [w14+4]
    2cde:	31 07 98    	mov.w     w1, [w14+6]
    2ce0:	60 00 b8    	mul.uu    w0, #0x0, w0
    2ce2:	00 8f be    	mov.d     w0, [w14]
    2ce4:	05 00 37    	bra       0x2cf0 <.L2>

00002ce6 <.L3>:
    2ce6:	00 00 00    	nop       
    2ce8:	12 00 20    	mov.w     #0x1, w2
    2cea:	03 00 20    	mov.w     #0x0, w3
    2cec:	1e 0f 41    	add.w     w2, [w14], [w14]
    2cee:	5e 97 49    	addc.w    w3, [++w14], [w14--]

00002cf0 <.L2>:
    2cf0:	2e 00 90    	mov.w     [w14+4], w0
    2cf2:	be 00 90    	mov.w     [w14+6], w1
    2cf4:	1e 01 be    	mov.d     [w14], w2
    2cf6:	80 0f 51    	sub.w     w2, w0, [w15]
    2cf8:	81 8f 59    	subb.w    w3, w1, [w15]
    2cfa:	f5 ff 39    	bra       NC, 0x2ce6 <.L3>
    2cfc:	00 80 fa    	ulnk      
    2cfe:	00 00 06    	return    

00002d00 <_i2c_init>:
    2d00:	04 00 fa    	lnk       #0x4
    2d02:	10 07 98    	mov.w     w0, [w14+2]
    2d04:	1e 00 90    	mov.w     [w14+2], w0
    2d06:	a0 13 88    	mov.w     w0, 0x274
    2d08:	77 e2 a9    	bclr.b    0x277, #0x7
    2d0a:	77 22 a8    	bset.b    0x277, #0x1
    2d0c:	8e a0 a9    	bclr.b    0x8e, #0x5
    2d0e:	77 e2 a8    	bset.b    0x277, #0x7
    2d10:	80 13 80    	mov.w     0x270, w0
    2d12:	00 0f 78    	mov.w     w0, [w14]
    2d14:	36 00 07    	rcall     0x2d82 <_reset_i2c_bus> <.LFB4> <.LFE3>
    2d16:	00 80 fa    	ulnk      
    2d18:	00 00 06    	return    

00002d1a <_i2c_start>:
    2d1a:	02 00 fa    	lnk       #0x2
    2d1c:	00 00 eb    	clr.w     w0
    2d1e:	00 0f 78    	mov.w     w0, [w14]
    2d20:	76 a2 a9    	bclr.b    0x276, #0x5
    2d22:	a0 00 20    	mov.w     #0xa, w0
    2d24:	01 00 20    	mov.w     #0x0, w1
    2d26:	d9 ff 07    	rcall     0x2cda <_delay_by_nop> <.L0> <.LFB0> <.LFE16> <.Letext0> <.Ltext0>
    2d28:	76 02 a8    	bset.b    0x276, #0x0
    2d2a:	00 00 00    	nop       
    2d2c:	07 00 37    	bra       0x2d3c <.L6>

00002d2e <.L8>:
    2d2e:	10 00 20    	mov.w     #0x1, w0
    2d30:	01 00 20    	mov.w     #0x0, w1
    2d32:	d3 ff 07    	rcall     0x2cda <_delay_by_nop> <.L0> <.LFB0> <.LFE16> <.Letext0> <.Ltext0>
    2d34:	1e 0f e8    	inc.w     [w14], [w14]
    2d36:	1e 00 78    	mov.w     [w14], w0
    2d38:	f4 0f 50    	sub.w     w0, #0x14, [w15]
    2d3a:	05 00 3c    	bra       GT, 0x2d46 <.L9>

00002d3c <.L6>:
    2d3c:	b0 13 80    	mov.w     0x276, w0
    2d3e:	61 00 60    	and.w     w0, #0x1, w0
    2d40:	00 00 e0    	cp0.w     w0
    2d42:	f5 ff 3a    	bra       NZ, 0x2d2e <.L8>
    2d44:	01 00 37    	bra       0x2d48 <.L7>

00002d46 <.L9>:
    2d46:	00 00 00    	nop       

00002d48 <.L7>:
    2d48:	20 00 20    	mov.w     #0x2, w0
    2d4a:	01 00 20    	mov.w     #0x0, w1
    2d4c:	c6 ff 07    	rcall     0x2cda <_delay_by_nop> <.L0> <.LFB0> <.LFE16> <.Letext0> <.Ltext0>
    2d4e:	00 80 fa    	ulnk      
    2d50:	00 00 06    	return    

00002d52 <_i2c_restart>:
    2d52:	02 00 fa    	lnk       #0x2
    2d54:	00 00 eb    	clr.w     w0
    2d56:	00 0f 78    	mov.w     w0, [w14]
    2d58:	76 22 a8    	bset.b    0x276, #0x1
    2d5a:	00 00 00    	nop       
    2d5c:	07 00 37    	bra       0x2d6c <.L11>

00002d5e <.L13>:
    2d5e:	10 00 20    	mov.w     #0x1, w0
    2d60:	01 00 20    	mov.w     #0x0, w1
    2d62:	bb ff 07    	rcall     0x2cda <_delay_by_nop> <.L0> <.LFB0> <.LFE16> <.Letext0> <.Ltext0>
    2d64:	1e 0f e8    	inc.w     [w14], [w14]
    2d66:	1e 00 78    	mov.w     [w14], w0
    2d68:	f4 0f 50    	sub.w     w0, #0x14, [w15]
    2d6a:	05 00 3c    	bra       GT, 0x2d76 <.L14>

00002d6c <.L11>:
    2d6c:	b0 13 80    	mov.w     0x276, w0
    2d6e:	62 00 60    	and.w     w0, #0x2, w0
    2d70:	00 00 e0    	cp0.w     w0
    2d72:	f5 ff 3a    	bra       NZ, 0x2d5e <.L13>
    2d74:	01 00 37    	bra       0x2d78 <.L12>

00002d76 <.L14>:
    2d76:	00 00 00    	nop       

00002d78 <.L12>:
    2d78:	20 00 20    	mov.w     #0x2, w0
    2d7a:	01 00 20    	mov.w     #0x0, w1
    2d7c:	ae ff 07    	rcall     0x2cda <_delay_by_nop> <.L0> <.LFB0> <.LFE16> <.Letext0> <.Ltext0>
    2d7e:	00 80 fa    	ulnk      
    2d80:	00 00 06    	return    

00002d82 <_reset_i2c_bus>:
    2d82:	02 00 fa    	lnk       #0x2
    2d84:	00 00 eb    	clr.w     w0
    2d86:	00 0f 78    	mov.w     w0, [w14]
    2d88:	76 42 a8    	bset.b    0x276, #0x2
    2d8a:	07 00 37    	bra       0x2d9a <.L16>

00002d8c <.L18>:
    2d8c:	10 00 20    	mov.w     #0x1, w0
    2d8e:	01 00 20    	mov.w     #0x0, w1
    2d90:	a4 ff 07    	rcall     0x2cda <_delay_by_nop> <.L0> <.LFB0> <.LFE16> <.Letext0> <.Ltext0>
    2d92:	1e 0f e8    	inc.w     [w14], [w14]
    2d94:	1e 00 78    	mov.w     [w14], w0
    2d96:	f4 0f 50    	sub.w     w0, #0x14, [w15]
    2d98:	05 00 3c    	bra       GT, 0x2da4 <.L19>

00002d9a <.L16>:
    2d9a:	b0 13 80    	mov.w     0x276, w0
    2d9c:	64 00 60    	and.w     w0, #0x4, w0
    2d9e:	00 00 e0    	cp0.w     w0
    2da0:	f5 ff 3a    	bra       NZ, 0x2d8c <.L18>
    2da2:	01 00 37    	bra       0x2da6 <.L17>

00002da4 <.L19>:
    2da4:	00 00 00    	nop       

00002da6 <.L17>:
    2da6:	76 62 a9    	bclr.b    0x276, #0x3
    2da8:	8e a0 a9    	bclr.b    0x8e, #0x5
    2daa:	78 e2 a9    	bclr.b    0x278, #0x7
    2dac:	79 42 a9    	bclr.b    0x279, #0x2
    2dae:	40 01 20    	mov.w     #0x14, w0
    2db0:	01 00 20    	mov.w     #0x0, w1
    2db2:	93 ff 07    	rcall     0x2cda <_delay_by_nop> <.L0> <.LFB0> <.LFE16> <.Letext0> <.Ltext0>
    2db4:	00 80 fa    	ulnk      
    2db6:	00 00 06    	return    

00002db8 <_send_i2c_byte>:
    2db8:	04 00 fa    	lnk       #0x4
    2dba:	10 07 98    	mov.w     w0, [w14+2]
    2dbc:	00 00 00    	nop       

00002dbe <.L21>:
    2dbe:	c0 13 80    	mov.w     0x278, w0
    2dc0:	61 00 60    	and.w     w0, #0x1, w0
    2dc2:	00 00 e0    	cp0.w     w0
    2dc4:	fc ff 3a    	bra       NZ, 0x2dbe <.L21>
    2dc6:	8e a0 a9    	bclr.b    0x8e, #0x5
    2dc8:	1e 00 90    	mov.w     [w14+2], w0
    2dca:	90 13 88    	mov.w     w0, 0x272
    2dcc:	00 00 eb    	clr.w     w0
    2dce:	00 0f 78    	mov.w     w0, [w14]
    2dd0:	09 00 37    	bra       0x2de4 <.L22>

00002dd2 <.L25>:
    2dd2:	c1 13 80    	mov.w     0x278, w1
    2dd4:	00 00 24    	mov.w     #0x4000, w0
    2dd6:	00 80 60    	and.w     w1, w0, w0
    2dd8:	00 00 e0    	cp0.w     w0
    2dda:	09 00 32    	bra       Z, 0x2dee <.L29>
    2ddc:	10 00 20    	mov.w     #0x1, w0
    2dde:	01 00 20    	mov.w     #0x0, w1
    2de0:	7c ff 07    	rcall     0x2cda <_delay_by_nop> <.L0> <.LFB0> <.LFE16> <.Letext0> <.Ltext0>
    2de2:	1e 0f e8    	inc.w     [w14], [w14]

00002de4 <.L22>:
    2de4:	30 1f 20    	mov.w     #0x1f3, w0
    2de6:	9e 00 78    	mov.w     [w14], w1
    2de8:	80 8f 50    	sub.w     w1, w0, [w15]
    2dea:	f3 ff 34    	bra       LE, 0x2dd2 <.L25>
    2dec:	01 00 37    	bra       0x2df0 <.L24>

00002dee <.L29>:
    2dee:	00 00 00    	nop       

00002df0 <.L24>:
    2df0:	40 1f 20    	mov.w     #0x1f4, w0
    2df2:	9e 00 78    	mov.w     [w14], w1
    2df4:	80 8f 50    	sub.w     w1, w0, [w15]
    2df6:	02 00 3a    	bra       NZ, 0x2dfc <.L26>
    2df8:	10 c0 b3    	mov.b     #0x1, w0
    2dfa:	0c 00 37    	bra       0x2e14 <.L27>

00002dfc <.L26>:
    2dfc:	c1 13 80    	mov.w     0x278, w1
    2dfe:	00 00 28    	mov.w     #0x8000, w0
    2e00:	00 80 60    	and.w     w1, w0, w0
    2e02:	00 00 e0    	cp0.w     w0
    2e04:	03 00 32    	bra       Z, 0x2e0c <.L28>
    2e06:	bd ff 07    	rcall     0x2d82 <_reset_i2c_bus> <.LFB4> <.LFE3>
    2e08:	10 c0 b3    	mov.b     #0x1, w0
    2e0a:	04 00 37    	bra       0x2e14 <.L27>

00002e0c <.L28>:
    2e0c:	20 00 20    	mov.w     #0x2, w0
    2e0e:	01 00 20    	mov.w     #0x0, w1
    2e10:	64 ff 07    	rcall     0x2cda <_delay_by_nop> <.L0> <.LFB0> <.LFE16> <.Letext0> <.Ltext0>
    2e12:	00 40 eb    	clr.b     w0

00002e14 <.L27>:
    2e14:	00 80 fa    	ulnk      
    2e16:	00 00 06    	return    

00002e18 <_i2c_read>:
    2e18:	04 00 fa    	lnk       #0x4
    2e1a:	00 00 eb    	clr.w     w0
    2e1c:	00 0f 78    	mov.w     w0, [w14]
    2e1e:	00 40 eb    	clr.b     w0
    2e20:	20 47 98    	mov.b     w0, [w14+2]
    2e22:	76 62 a8    	bset.b    0x276, #0x3
    2e24:	05 00 37    	bra       0x2e30 <.L31>

00002e26 <.L33>:
    2e26:	1e 0f e8    	inc.w     [w14], [w14]
    2e28:	00 7d 20    	mov.w     #0x7d0, w0
    2e2a:	9e 00 78    	mov.w     [w14], w1
    2e2c:	80 8f 50    	sub.w     w1, w0, [w15]
    2e2e:	05 00 3c    	bra       GT, 0x2e3a <.L34>

00002e30 <.L31>:
    2e30:	c0 13 80    	mov.w     0x278, w0
    2e32:	62 00 60    	and.w     w0, #0x2, w0
    2e34:	00 00 e0    	cp0.w     w0
    2e36:	f7 ff 32    	bra       Z, 0x2e26 <.L33>
    2e38:	01 00 37    	bra       0x2e3c <.L32>

00002e3a <.L34>:
    2e3a:	00 00 00    	nop       

00002e3c <.L32>:
    2e3c:	80 13 80    	mov.w     0x270, w0
    2e3e:	20 47 98    	mov.b     w0, [w14+2]
    2e40:	2e 40 90    	mov.b     [w14+2], w0
    2e42:	00 80 fa    	ulnk      
    2e44:	00 00 06    	return    

00002e46 <_i2c_read_ack>:
    2e46:	04 00 fa    	lnk       #0x4
    2e48:	00 00 eb    	clr.w     w0
    2e4a:	00 0f 78    	mov.w     w0, [w14]
    2e4c:	00 40 eb    	clr.b     w0
    2e4e:	20 47 98    	mov.b     w0, [w14+2]
    2e50:	76 62 a8    	bset.b    0x276, #0x3
    2e52:	05 00 37    	bra       0x2e5e <.L36>

00002e54 <.L38>:
    2e54:	1e 0f e8    	inc.w     [w14], [w14]
    2e56:	00 7d 20    	mov.w     #0x7d0, w0
    2e58:	9e 00 78    	mov.w     [w14], w1
    2e5a:	80 8f 50    	sub.w     w1, w0, [w15]
    2e5c:	05 00 3c    	bra       GT, 0x2e68 <.L39>

00002e5e <.L36>:
    2e5e:	c0 13 80    	mov.w     0x278, w0
    2e60:	62 00 60    	and.w     w0, #0x2, w0
    2e62:	00 00 e0    	cp0.w     w0
    2e64:	f7 ff 32    	bra       Z, 0x2e54 <.L38>
    2e66:	01 00 37    	bra       0x2e6a <.L37>

00002e68 <.L39>:
    2e68:	00 00 00    	nop       

00002e6a <.L37>:
    2e6a:	80 13 80    	mov.w     0x270, w0
    2e6c:	20 47 98    	mov.b     w0, [w14+2]
    2e6e:	76 82 a8    	bset.b    0x276, #0x4
    2e70:	a0 00 20    	mov.w     #0xa, w0
    2e72:	01 00 20    	mov.w     #0x0, w1
    2e74:	32 ff 07    	rcall     0x2cda <_delay_by_nop> <.L0> <.LFB0> <.LFE16> <.Letext0> <.Ltext0>
    2e76:	2e 40 90    	mov.b     [w14+2], w0
    2e78:	00 80 fa    	ulnk      
    2e7a:	00 00 06    	return    

00002e7c <_i2c_read_nack>:
    2e7c:	04 00 fa    	lnk       #0x4
    2e7e:	00 00 eb    	clr.w     w0
    2e80:	00 0f 78    	mov.w     w0, [w14]
    2e82:	00 40 eb    	clr.b     w0
    2e84:	20 47 98    	mov.b     w0, [w14+2]
    2e86:	76 62 a8    	bset.b    0x276, #0x3
    2e88:	05 00 37    	bra       0x2e94 <.L41>

00002e8a <.L43>:
    2e8a:	1e 0f e8    	inc.w     [w14], [w14]
    2e8c:	00 7d 20    	mov.w     #0x7d0, w0
    2e8e:	9e 00 78    	mov.w     [w14], w1
    2e90:	80 8f 50    	sub.w     w1, w0, [w15]
    2e92:	05 00 3c    	bra       GT, 0x2e9e <.L44>

00002e94 <.L41>:
    2e94:	c0 13 80    	mov.w     0x278, w0
    2e96:	62 00 60    	and.w     w0, #0x2, w0
    2e98:	00 00 e0    	cp0.w     w0
    2e9a:	f7 ff 32    	bra       Z, 0x2e8a <.L43>
    2e9c:	01 00 37    	bra       0x2ea0 <.L42>

00002e9e <.L44>:
    2e9e:	00 00 00    	nop       

00002ea0 <.L42>:
    2ea0:	80 13 80    	mov.w     0x270, w0
    2ea2:	20 47 98    	mov.b     w0, [w14+2]
    2ea4:	76 a2 a8    	bset.b    0x276, #0x5
    2ea6:	76 82 a8    	bset.b    0x276, #0x4
    2ea8:	a0 00 20    	mov.w     #0xa, w0
    2eaa:	01 00 20    	mov.w     #0x0, w1
    2eac:	16 ff 07    	rcall     0x2cda <_delay_by_nop> <.L0> <.LFB0> <.LFE16> <.Letext0> <.Ltext0>
    2eae:	2e 40 90    	mov.b     [w14+2], w0
    2eb0:	00 80 fa    	ulnk      
    2eb2:	00 00 06    	return    

00002eb4 <_I2Cwrite>:
    2eb4:	04 00 fa    	lnk       #0x4
    2eb6:	00 4f 78    	mov.b     w0, [w14]
    2eb8:	11 47 98    	mov.b     w1, [w14+1]
    2eba:	22 47 98    	mov.b     w2, [w14+2]
    2ebc:	2e ff 07    	rcall     0x2d1a <_i2c_start> <.LFB2> <.LFE1>
    2ebe:	1e 00 fb    	se        [w14], w0
    2ec0:	80 00 78    	mov.w     w0, w1
    2ec2:	e0 ff 2f    	mov.w     #0xfffe, w0
    2ec4:	00 80 60    	and.w     w1, w0, w0
    2ec6:	78 ff 07    	rcall     0x2db8 <_send_i2c_byte> <.LFB5> <.LFE4>
    2ec8:	1e 40 90    	mov.b     [w14+1], w0
    2eca:	00 00 fb    	se        w0, w0
    2ecc:	75 ff 07    	rcall     0x2db8 <_send_i2c_byte> <.LFB5> <.LFE4>
    2ece:	2e 40 90    	mov.b     [w14+2], w0
    2ed0:	00 00 fb    	se        w0, w0
    2ed2:	72 ff 07    	rcall     0x2db8 <_send_i2c_byte> <.LFB5> <.LFE4>
    2ed4:	56 ff 07    	rcall     0x2d82 <_reset_i2c_bus> <.LFB4> <.LFE3>
    2ed6:	00 80 fa    	ulnk      
    2ed8:	00 00 06    	return    

00002eda <_I2Cread>:
    2eda:	04 00 fa    	lnk       #0x4
    2edc:	20 47 98    	mov.b     w0, [w14+2]
    2ede:	31 47 98    	mov.b     w1, [w14+3]
    2ee0:	1c ff 07    	rcall     0x2d1a <_i2c_start> <.LFB2> <.LFE1>
    2ee2:	2e 40 90    	mov.b     [w14+2], w0
    2ee4:	00 00 fb    	se        w0, w0
    2ee6:	68 ff 07    	rcall     0x2db8 <_send_i2c_byte> <.LFB5> <.LFE4>
    2ee8:	3e 40 90    	mov.b     [w14+3], w0
    2eea:	00 00 fb    	se        w0, w0
    2eec:	65 ff 07    	rcall     0x2db8 <_send_i2c_byte> <.LFB5> <.LFE4>
    2eee:	a0 00 20    	mov.w     #0xa, w0
    2ef0:	01 00 20    	mov.w     #0x0, w1
    2ef2:	f3 fe 07    	rcall     0x2cda <_delay_by_nop> <.L0> <.LFB0> <.LFE16> <.Letext0> <.Ltext0>
    2ef4:	2e ff 07    	rcall     0x2d52 <_i2c_restart> <.LFB3> <.LFE2>
    2ef6:	2e 40 90    	mov.b     [w14+2], w0
    2ef8:	00 04 a0    	bset.b    w0, #0x0
    2efa:	00 00 fb    	se        w0, w0
    2efc:	5d ff 07    	rcall     0x2db8 <_send_i2c_byte> <.LFB5> <.LFE4>
    2efe:	8c ff 07    	rcall     0x2e18 <_i2c_read> <.LFB6> <.LFE5>
    2f00:	00 4f 78    	mov.b     w0, [w14]
    2f02:	3f ff 07    	rcall     0x2d82 <_reset_i2c_bus> <.LFB4> <.LFE3>
    2f04:	1e 40 78    	mov.b     [w14], w0
    2f06:	00 80 fa    	ulnk      
    2f08:	00 00 06    	return    

00002f0a <_I2Cpoll>:
    2f0a:	04 00 fa    	lnk       #0x4
    2f0c:	20 47 98    	mov.b     w0, [w14+2]
    2f0e:	00 40 eb    	clr.b     w0
    2f10:	00 4f 78    	mov.b     w0, [w14]
    2f12:	03 ff 07    	rcall     0x2d1a <_i2c_start> <.LFB2> <.LFE1>
    2f14:	2e 40 90    	mov.b     [w14+2], w0
    2f16:	00 00 fb    	se        w0, w0
    2f18:	80 00 78    	mov.w     w0, w1
    2f1a:	e0 ff 2f    	mov.w     #0xfffe, w0
    2f1c:	00 80 60    	and.w     w1, w0, w0
    2f1e:	4c ff 07    	rcall     0x2db8 <_send_i2c_byte> <.LFB5> <.LFE4>
    2f20:	00 4f 78    	mov.b     w0, [w14]
    2f22:	2f ff 07    	rcall     0x2d82 <_reset_i2c_bus> <.LFB4> <.LFE3>
    2f24:	1e 40 78    	mov.b     [w14], w0
    2f26:	00 04 e0    	cp0.b     w0
    2f28:	02 00 3a    	bra       NZ, 0x2f2e <.L48>
    2f2a:	10 c0 b3    	mov.b     #0x1, w0
    2f2c:	01 00 37    	bra       0x2f30 <.L49>

00002f2e <.L48>:
    2f2e:	00 40 eb    	clr.b     w0

00002f30 <.L49>:
    2f30:	00 80 fa    	ulnk      
    2f32:	00 00 06    	return    

00002f34 <_I2Cwritearray>:
    2f34:	08 00 fa    	lnk       #0x8
    2f36:	20 47 98    	mov.b     w0, [w14+2]
    2f38:	21 07 98    	mov.w     w1, [w14+4]
    2f3a:	62 47 98    	mov.b     w2, [w14+6]
    2f3c:	00 40 eb    	clr.b     w0
    2f3e:	00 4f 78    	mov.b     w0, [w14]
    2f40:	ec fe 07    	rcall     0x2d1a <_i2c_start> <.LFB2> <.LFE1>
    2f42:	2e 40 90    	mov.b     [w14+2], w0
    2f44:	00 00 fb    	se        w0, w0
    2f46:	80 00 78    	mov.w     w0, w1
    2f48:	e0 ff 2f    	mov.w     #0xfffe, w0
    2f4a:	00 80 60    	and.w     w1, w0, w0
    2f4c:	35 ff 07    	rcall     0x2db8 <_send_i2c_byte> <.LFB5> <.LFE4>
    2f4e:	00 4f 78    	mov.b     w0, [w14]
    2f50:	00 40 eb    	clr.b     w0
    2f52:	10 47 98    	mov.b     w0, [w14+1]
    2f54:	0d 00 37    	bra       0x2f70 <.L51>

00002f56 <.L52>:
    2f56:	1e 40 90    	mov.b     [w14+1], w0
    2f58:	00 80 fb    	ze        w0, w0
    2f5a:	ae 00 90    	mov.w     [w14+4], w1
    2f5c:	00 80 40    	add.w     w1, w0, w0
    2f5e:	10 40 78    	mov.b     [w0], w0
    2f60:	00 00 fb    	se        w0, w0
    2f62:	2a ff 07    	rcall     0x2db8 <_send_i2c_byte> <.LFB5> <.LFE4>
    2f64:	9e 40 78    	mov.b     [w14], w1
    2f66:	01 40 70    	ior.b     w0, w1, w0
    2f68:	00 4f 78    	mov.b     w0, [w14]
    2f6a:	1e 40 90    	mov.b     [w14+1], w0
    2f6c:	00 40 e8    	inc.b     w0, w0
    2f6e:	10 47 98    	mov.b     w0, [w14+1]

00002f70 <.L51>:
    2f70:	9e 40 90    	mov.b     [w14+1], w1
    2f72:	6e 40 90    	mov.b     [w14+6], w0
    2f74:	80 cf 50    	sub.b     w1, w0, [w15]
    2f76:	ef ff 39    	bra       NC, 0x2f56 <.L52>
    2f78:	04 ff 07    	rcall     0x2d82 <_reset_i2c_bus> <.LFB4> <.LFE3>
    2f7a:	1e 40 78    	mov.b     [w14], w0
    2f7c:	00 80 fa    	ulnk      
    2f7e:	00 00 06    	return    

00002f80 <_i2c2_init>:
    2f80:	04 00 fa    	lnk       #0x4
    2f82:	10 07 98    	mov.w     w0, [w14+2]
    2f84:	1e 00 90    	mov.w     [w14+2], w0
    2f86:	a0 10 88    	mov.w     w0, 0x214
    2f88:	17 e2 a9    	bclr.b    0x217, #0x7
    2f8a:	17 22 a8    	bset.b    0x217, #0x1
    2f8c:	8a 40 a9    	bclr.b    0x8a, #0x2
    2f8e:	17 e2 a8    	bset.b    0x217, #0x7
    2f90:	80 10 80    	mov.w     0x210, w0
    2f92:	00 0f 78    	mov.w     w0, [w14]
    2f94:	f6 fe 07    	rcall     0x2d82 <_reset_i2c_bus> <.LFB4> <.LFE3>
    2f96:	00 80 fa    	ulnk      
    2f98:	00 00 06    	return    

00002f9a <_i2c2_start>:
    2f9a:	02 00 fa    	lnk       #0x2
    2f9c:	00 00 eb    	clr.w     w0
    2f9e:	00 0f 78    	mov.w     w0, [w14]
    2fa0:	16 a2 a9    	bclr.b    0x216, #0x5
    2fa2:	a0 00 20    	mov.w     #0xa, w0
    2fa4:	01 00 20    	mov.w     #0x0, w1
    2fa6:	99 fe 07    	rcall     0x2cda <_delay_by_nop> <.L0> <.LFB0> <.LFE16> <.Letext0> <.Ltext0>
    2fa8:	16 02 a8    	bset.b    0x216, #0x0
    2faa:	00 00 00    	nop       
    2fac:	07 00 37    	bra       0x2fbc <.L55>

00002fae <.L57>:
    2fae:	10 00 20    	mov.w     #0x1, w0
    2fb0:	01 00 20    	mov.w     #0x0, w1
    2fb2:	93 fe 07    	rcall     0x2cda <_delay_by_nop> <.L0> <.LFB0> <.LFE16> <.Letext0> <.Ltext0>
    2fb4:	1e 0f e8    	inc.w     [w14], [w14]
    2fb6:	1e 00 78    	mov.w     [w14], w0
    2fb8:	f4 0f 50    	sub.w     w0, #0x14, [w15]
    2fba:	05 00 3c    	bra       GT, 0x2fc6 <.L58>

00002fbc <.L55>:
    2fbc:	b0 10 80    	mov.w     0x216, w0
    2fbe:	61 00 60    	and.w     w0, #0x1, w0
    2fc0:	00 00 e0    	cp0.w     w0
    2fc2:	f5 ff 3a    	bra       NZ, 0x2fae <.L57>
    2fc4:	01 00 37    	bra       0x2fc8 <.L56>

00002fc6 <.L58>:
    2fc6:	00 00 00    	nop       

00002fc8 <.L56>:
    2fc8:	20 00 20    	mov.w     #0x2, w0
    2fca:	01 00 20    	mov.w     #0x0, w1
    2fcc:	86 fe 07    	rcall     0x2cda <_delay_by_nop> <.L0> <.LFB0> <.LFE16> <.Letext0> <.Ltext0>
    2fce:	00 80 fa    	ulnk      
    2fd0:	00 00 06    	return    

00002fd2 <_i2c2_restart>:
    2fd2:	02 00 fa    	lnk       #0x2
    2fd4:	00 00 eb    	clr.w     w0
    2fd6:	00 0f 78    	mov.w     w0, [w14]
    2fd8:	16 22 a8    	bset.b    0x216, #0x1
    2fda:	00 00 00    	nop       
    2fdc:	07 00 37    	bra       0x2fec <.L60>

00002fde <.L62>:
    2fde:	10 00 20    	mov.w     #0x1, w0
    2fe0:	01 00 20    	mov.w     #0x0, w1
    2fe2:	7b fe 07    	rcall     0x2cda <_delay_by_nop> <.L0> <.LFB0> <.LFE16> <.Letext0> <.Ltext0>
    2fe4:	1e 0f e8    	inc.w     [w14], [w14]
    2fe6:	1e 00 78    	mov.w     [w14], w0
    2fe8:	f4 0f 50    	sub.w     w0, #0x14, [w15]
    2fea:	05 00 3c    	bra       GT, 0x2ff6 <.L63>

00002fec <.L60>:
    2fec:	b0 10 80    	mov.w     0x216, w0
    2fee:	62 00 60    	and.w     w0, #0x2, w0
    2ff0:	00 00 e0    	cp0.w     w0
    2ff2:	f5 ff 3a    	bra       NZ, 0x2fde <.L62>
    2ff4:	01 00 37    	bra       0x2ff8 <.L61>

00002ff6 <.L63>:
    2ff6:	00 00 00    	nop       

00002ff8 <.L61>:
    2ff8:	20 00 20    	mov.w     #0x2, w0
    2ffa:	01 00 20    	mov.w     #0x0, w1
    2ffc:	6e fe 07    	rcall     0x2cda <_delay_by_nop> <.L0> <.LFB0> <.LFE16> <.Letext0> <.Ltext0>
    2ffe:	00 80 fa    	ulnk      
    3000:	00 00 06    	return    

00003002 <_reset_i2c2_bus>:
    3002:	02 00 fa    	lnk       #0x2
    3004:	00 00 eb    	clr.w     w0
    3006:	00 0f 78    	mov.w     w0, [w14]
    3008:	16 42 a8    	bset.b    0x216, #0x2
    300a:	07 00 37    	bra       0x301a <.L65>

0000300c <.L67>:
    300c:	10 00 20    	mov.w     #0x1, w0
    300e:	01 00 20    	mov.w     #0x0, w1
    3010:	64 fe 07    	rcall     0x2cda <_delay_by_nop> <.L0> <.LFB0> <.LFE16> <.Letext0> <.Ltext0>
    3012:	1e 0f e8    	inc.w     [w14], [w14]
    3014:	1e 00 78    	mov.w     [w14], w0
    3016:	f4 0f 50    	sub.w     w0, #0x14, [w15]
    3018:	05 00 3c    	bra       GT, 0x3024 <.L68>

0000301a <.L65>:
    301a:	b0 10 80    	mov.w     0x216, w0
    301c:	64 00 60    	and.w     w0, #0x4, w0
    301e:	00 00 e0    	cp0.w     w0
    3020:	f5 ff 3a    	bra       NZ, 0x300c <.L67>
    3022:	01 00 37    	bra       0x3026 <.L66>

00003024 <.L68>:
    3024:	00 00 00    	nop       

00003026 <.L66>:
    3026:	16 62 a9    	bclr.b    0x216, #0x3
    3028:	8a 40 a9    	bclr.b    0x8a, #0x2
    302a:	18 e2 a9    	bclr.b    0x218, #0x7
    302c:	19 42 a9    	bclr.b    0x219, #0x2
    302e:	40 01 20    	mov.w     #0x14, w0
    3030:	01 00 20    	mov.w     #0x0, w1
    3032:	53 fe 07    	rcall     0x2cda <_delay_by_nop> <.L0> <.LFB0> <.LFE16> <.Letext0> <.Ltext0>
    3034:	00 80 fa    	ulnk      
    3036:	00 00 06    	return    

00003038 <_send_i2c2_byte>:
    3038:	04 00 fa    	lnk       #0x4
    303a:	10 07 98    	mov.w     w0, [w14+2]
    303c:	00 00 00    	nop       

0000303e <.L70>:
    303e:	c0 10 80    	mov.w     0x218, w0
    3040:	61 00 60    	and.w     w0, #0x1, w0
    3042:	00 00 e0    	cp0.w     w0
    3044:	fc ff 3a    	bra       NZ, 0x303e <.L70>
    3046:	8a 40 a9    	bclr.b    0x8a, #0x2
    3048:	1e 00 90    	mov.w     [w14+2], w0
    304a:	90 10 88    	mov.w     w0, 0x212
    304c:	00 00 eb    	clr.w     w0
    304e:	00 0f 78    	mov.w     w0, [w14]
    3050:	09 00 37    	bra       0x3064 <.L71>

00003052 <.L74>:
    3052:	c1 10 80    	mov.w     0x218, w1
    3054:	00 00 24    	mov.w     #0x4000, w0
    3056:	00 80 60    	and.w     w1, w0, w0
    3058:	00 00 e0    	cp0.w     w0
    305a:	09 00 32    	bra       Z, 0x306e <.L78>
    305c:	10 00 20    	mov.w     #0x1, w0
    305e:	01 00 20    	mov.w     #0x0, w1
    3060:	3c fe 07    	rcall     0x2cda <_delay_by_nop> <.L0> <.LFB0> <.LFE16> <.Letext0> <.Ltext0>
    3062:	1e 0f e8    	inc.w     [w14], [w14]

00003064 <.L71>:
    3064:	30 1f 20    	mov.w     #0x1f3, w0
    3066:	9e 00 78    	mov.w     [w14], w1
    3068:	80 8f 50    	sub.w     w1, w0, [w15]
    306a:	f3 ff 34    	bra       LE, 0x3052 <.L74>
    306c:	01 00 37    	bra       0x3070 <.L73>

0000306e <.L78>:
    306e:	00 00 00    	nop       

00003070 <.L73>:
    3070:	40 1f 20    	mov.w     #0x1f4, w0
    3072:	9e 00 78    	mov.w     [w14], w1
    3074:	80 8f 50    	sub.w     w1, w0, [w15]
    3076:	02 00 3a    	bra       NZ, 0x307c <.L75>
    3078:	10 c0 b3    	mov.b     #0x1, w0
    307a:	0c 00 37    	bra       0x3094 <.L76>

0000307c <.L75>:
    307c:	c1 10 80    	mov.w     0x218, w1
    307e:	00 00 28    	mov.w     #0x8000, w0
    3080:	00 80 60    	and.w     w1, w0, w0
    3082:	00 00 e0    	cp0.w     w0
    3084:	03 00 32    	bra       Z, 0x308c <.L77>
    3086:	bd ff 07    	rcall     0x3002 <_reset_i2c2_bus> <.LFB16> <.LFE15>
    3088:	10 c0 b3    	mov.b     #0x1, w0
    308a:	04 00 37    	bra       0x3094 <.L76>

0000308c <.L77>:
    308c:	20 00 20    	mov.w     #0x2, w0
    308e:	01 00 20    	mov.w     #0x0, w1
    3090:	24 fe 07    	rcall     0x2cda <_delay_by_nop> <.L0> <.LFB0> <.LFE16> <.Letext0> <.Ltext0>
    3092:	00 40 eb    	clr.b     w0

00003094 <.L76>:
    3094:	00 80 fa    	ulnk      
    3096:	00 00 06    	return    

00003098 <_i2c2_read>:
    3098:	04 00 fa    	lnk       #0x4
    309a:	00 00 eb    	clr.w     w0
    309c:	00 0f 78    	mov.w     w0, [w14]
    309e:	00 40 eb    	clr.b     w0
    30a0:	20 47 98    	mov.b     w0, [w14+2]
    30a2:	16 62 a8    	bset.b    0x216, #0x3
    30a4:	05 00 37    	bra       0x30b0 <.L80>

000030a6 <.L82>:
    30a6:	1e 0f e8    	inc.w     [w14], [w14]
    30a8:	00 7d 20    	mov.w     #0x7d0, w0
    30aa:	9e 00 78    	mov.w     [w14], w1
    30ac:	80 8f 50    	sub.w     w1, w0, [w15]
    30ae:	05 00 3c    	bra       GT, 0x30ba <.L83>

000030b0 <.L80>:
    30b0:	c0 10 80    	mov.w     0x218, w0
    30b2:	62 00 60    	and.w     w0, #0x2, w0
    30b4:	00 00 e0    	cp0.w     w0
    30b6:	f7 ff 32    	bra       Z, 0x30a6 <.L82>
    30b8:	01 00 37    	bra       0x30bc <.L81>

000030ba <.L83>:
    30ba:	00 00 00    	nop       

000030bc <.L81>:
    30bc:	80 10 80    	mov.w     0x210, w0
    30be:	20 47 98    	mov.b     w0, [w14+2]
    30c0:	2e 40 90    	mov.b     [w14+2], w0
    30c2:	00 80 fa    	ulnk      
    30c4:	00 00 06    	return    

000030c6 <_i2c2_read_ack>:
    30c6:	04 00 fa    	lnk       #0x4
    30c8:	00 00 eb    	clr.w     w0
    30ca:	00 0f 78    	mov.w     w0, [w14]
    30cc:	00 40 eb    	clr.b     w0
    30ce:	20 47 98    	mov.b     w0, [w14+2]
    30d0:	16 62 a8    	bset.b    0x216, #0x3
    30d2:	05 00 37    	bra       0x30de <.L85>

000030d4 <.L87>:
    30d4:	1e 0f e8    	inc.w     [w14], [w14]
    30d6:	00 7d 20    	mov.w     #0x7d0, w0
    30d8:	9e 00 78    	mov.w     [w14], w1
    30da:	80 8f 50    	sub.w     w1, w0, [w15]
    30dc:	05 00 3c    	bra       GT, 0x30e8 <.L88>

000030de <.L85>:
    30de:	c0 10 80    	mov.w     0x218, w0
    30e0:	62 00 60    	and.w     w0, #0x2, w0
    30e2:	00 00 e0    	cp0.w     w0
    30e4:	f7 ff 32    	bra       Z, 0x30d4 <.L87>
    30e6:	01 00 37    	bra       0x30ea <.L86>

000030e8 <.L88>:
    30e8:	00 00 00    	nop       

000030ea <.L86>:
    30ea:	80 10 80    	mov.w     0x210, w0
    30ec:	20 47 98    	mov.b     w0, [w14+2]
    30ee:	16 82 a8    	bset.b    0x216, #0x4
    30f0:	a0 00 20    	mov.w     #0xa, w0
    30f2:	01 00 20    	mov.w     #0x0, w1
    30f4:	f2 fd 07    	rcall     0x2cda <_delay_by_nop> <.L0> <.LFB0> <.LFE16> <.Letext0> <.Ltext0>
    30f6:	2e 40 90    	mov.b     [w14+2], w0
    30f8:	00 80 fa    	ulnk      
    30fa:	00 00 06    	return    

000030fc <_i2c2_read_nack>:
    30fc:	04 00 fa    	lnk       #0x4
    30fe:	00 00 eb    	clr.w     w0
    3100:	00 0f 78    	mov.w     w0, [w14]
    3102:	00 40 eb    	clr.b     w0
    3104:	20 47 98    	mov.b     w0, [w14+2]
    3106:	16 62 a8    	bset.b    0x216, #0x3
    3108:	05 00 37    	bra       0x3114 <.L90>

0000310a <.L92>:
    310a:	1e 0f e8    	inc.w     [w14], [w14]
    310c:	00 7d 20    	mov.w     #0x7d0, w0
    310e:	9e 00 78    	mov.w     [w14], w1
    3110:	80 8f 50    	sub.w     w1, w0, [w15]
    3112:	05 00 3c    	bra       GT, 0x311e <.L93>

00003114 <.L90>:
    3114:	c0 10 80    	mov.w     0x218, w0
    3116:	62 00 60    	and.w     w0, #0x2, w0
    3118:	00 00 e0    	cp0.w     w0
    311a:	f7 ff 32    	bra       Z, 0x310a <.L92>
    311c:	01 00 37    	bra       0x3120 <.L91>

0000311e <.L93>:
    311e:	00 00 00    	nop       

00003120 <.L91>:
    3120:	80 10 80    	mov.w     0x210, w0
    3122:	20 47 98    	mov.b     w0, [w14+2]
    3124:	16 a2 a8    	bset.b    0x216, #0x5
    3126:	16 82 a8    	bset.b    0x216, #0x4
    3128:	a0 00 20    	mov.w     #0xa, w0
    312a:	01 00 20    	mov.w     #0x0, w1
    312c:	d6 fd 07    	rcall     0x2cda <_delay_by_nop> <.L0> <.LFB0> <.LFE16> <.Letext0> <.Ltext0>
    312e:	2e 40 90    	mov.b     [w14+2], w0
    3130:	00 80 fa    	ulnk      
    3132:	00 00 06    	return    

00003134 <_I2C2poll>:
    3134:	04 00 fa    	lnk       #0x4
    3136:	20 47 98    	mov.b     w0, [w14+2]
    3138:	00 40 eb    	clr.b     w0
    313a:	00 4f 78    	mov.b     w0, [w14]
    313c:	2e ff 07    	rcall     0x2f9a <_i2c2_start> <.LFB14> <.LFE13>
    313e:	2e 40 90    	mov.b     [w14+2], w0
    3140:	00 00 fb    	se        w0, w0
    3142:	80 00 78    	mov.w     w0, w1
    3144:	e0 ff 2f    	mov.w     #0xfffe, w0
    3146:	00 80 60    	and.w     w1, w0, w0
    3148:	77 ff 07    	rcall     0x3038 <_send_i2c2_byte> <.LFB17> <.LFE16>
    314a:	00 4f 78    	mov.b     w0, [w14]
    314c:	5a ff 07    	rcall     0x3002 <_reset_i2c2_bus> <.LFB16> <.LFE15>
    314e:	1e 40 78    	mov.b     [w14], w0
    3150:	00 04 e0    	cp0.b     w0
    3152:	02 00 3a    	bra       NZ, 0x3158 <.L95>
    3154:	10 c0 b3    	mov.b     #0x1, w0
    3156:	01 00 37    	bra       0x315a <.L96>

00003158 <.L95>:
    3158:	00 40 eb    	clr.b     w0

0000315a <.L96>:
    315a:	00 80 fa    	ulnk      
    315c:	00 00 06    	return    

0000315e <_init_ajuart>:
uint8_t U1TXbuffer[U1_TX_BUFFER_LENGTH];
uint8_t U1RXbuffer[U1_RX_BUFFER_LENGTH];
uint16_t U1_tx_threshold;

void init_ajuart(void) {
    315e:	04 00 fa    	lnk       #0x4
    uint8_t *RPOR, *RPINR;

    // Configure audio jack UART pins and connect them to UART1
    AJ_TX_DIR = OUT; AJ_TX = 1;
    3160:	f0 c2 a9    	bclr.b    0x2f0, #0x6
    3162:	f2 c2 a8    	bset.b    0x2f2, #0x6
    AJ_RX_DIR = IN;
    3164:	f0 e2 a8    	bset.b    0x2f0, #0x7

    RPOR = (uint8_t *)&RPOR0;
    3166:	00 6c 20    	mov.w     #0x6c0, w0
    3168:	00 0f 78    	mov.w     w0, [w14]
    RPINR = (uint8_t *)&RPINR0;
    316a:	00 68 20    	mov.w     #0x680, w0
    316c:	10 07 98    	mov.w     w0, [w14+2]

    __builtin_write_OSCCONL(OSCCON & 0xBF);
    316e:	11 3a 80    	mov.w     0x742, w1
    3170:	f0 0b 20    	mov.w     #0xbf, w0
    3172:	00 81 60    	and.w     w1, w0, w2
    3174:	60 04 20    	mov.w     #0x46, w0
    3176:	71 05 20    	mov.w     #0x57, w1
    3178:	23 74 20    	mov.w     #0x742, w3
    317a:	80 49 78    	mov.b     w0, [w3]
    317c:	81 49 78    	mov.b     w1, [w3]
    317e:	82 49 78    	mov.b     w2, [w3]
    RPINR[U1RX_RP] = AJ_RX_RP;
    3180:	1e 00 90    	mov.w     [w14+2], w0
    3182:	40 02 b0    	add.w     #0x24, w0
    3184:	a1 c1 b3    	mov.b     #0x1a, w1
    3186:	01 48 78    	mov.b     w1, [w0]
    RPOR[AJ_TX_RP] = U1TX_RP;
    3188:	9e 00 78    	mov.w     [w14], w1
    318a:	75 80 40    	add.w     w1, #0x15, w0
    318c:	31 c0 b3    	mov.b     #0x3, w1
    318e:	01 48 78    	mov.b     w1, [w0]
    __builtin_write_OSCCONL(OSCCON | 0x40);
    3190:	10 3a 80    	mov.w     0x742, w0
    3192:	00 01 78    	mov.w     w0, w2
    3194:	02 60 a0    	bset.w    w2, #0x6
    3196:	60 04 20    	mov.w     #0x46, w0
    3198:	71 05 20    	mov.w     #0x57, w1
    319a:	23 74 20    	mov.w     #0x742, w3
    319c:	80 49 78    	mov.b     w0, [w3]
    319e:	81 49 78    	mov.b     w1, [w3]
    31a0:	82 49 78    	mov.b     w2, [w3]

    U1MODE = 0x0008;                // configure UART1 for transmission at
    31a2:	80 00 20    	mov.w     #0x8, w0
    31a4:	00 11 88    	mov.w     w0, 0x220
    U1BRG = 0x0022;                 //   115,200 baud, no parity, 1 stop bit
    31a6:	20 02 20    	mov.w     #0x22, w0
    31a8:	40 11 88    	mov.w     w0, 0x228

    U1_tx_buffer.data = U1TXbuffer;
    31aa:	40 82 20    	mov.w     #0x824, w0
    31ac:	80 40 88    	mov.w     w0, 0x810
    U1_tx_buffer.length = U1_TX_BUFFER_LENGTH;
    31ae:	00 40 20    	mov.w     #0x400, w0
    31b0:	90 40 88    	mov.w     w0, 0x812
    U1_tx_buffer.head = 0;
    31b2:	00 00 eb    	clr.w     w0
    31b4:	a0 40 88    	mov.w     w0, 0x814
    U1_tx_buffer.tail = 0;
    31b6:	00 00 eb    	clr.w     w0
    31b8:	b0 40 88    	mov.w     w0, 0x816
    U1_tx_buffer.count = 0;
    31ba:	00 00 eb    	clr.w     w0
    31bc:	c0 40 88    	mov.w     w0, 0x818
    U1_tx_threshold = 3 * U1_TX_BUFFER_LENGTH / 4;
    31be:	00 30 20    	mov.w     #0x300, w0
    31c0:	70 40 88    	mov.w     w0, 0x80e

    U1_rx_buffer.data = U1RXbuffer;
    31c2:	40 c2 20    	mov.w     #0xc24, w0
    31c4:	d0 40 88    	mov.w     w0, 0x81a
    U1_rx_buffer.length = U1_RX_BUFFER_LENGTH;
    31c6:	00 40 20    	mov.w     #0x400, w0
    31c8:	e0 40 88    	mov.w     w0, 0x81c
    U1_rx_buffer.head = 0;
    31ca:	00 00 eb    	clr.w     w0
    31cc:	f0 40 88    	mov.w     w0, 0x81e
    U1_rx_buffer.tail = 0;
    31ce:	00 00 eb    	clr.w     w0
    31d0:	00 41 88    	mov.w     w0, 0x820
    U1_rx_buffer.count = 0;
    31d2:	00 00 eb    	clr.w     w0
    31d4:	10 41 88    	mov.w     w0, 0x822

    U1STAbits.UTXISEL1 = 0;         // set UART1 UTXISEL<1:0> = 01, TX interrupt
    31d6:	23 e2 a9    	bclr.b    0x223, #0x7
    U1STAbits.UTXISEL0 = 1;         //   when all transmit operations are done
    31d8:	23 a2 a8    	bset.b    0x223, #0x5

    IFS0bits.U1TXIF = 0;            // lower UART1 TX interrupt flag
    31da:	85 80 a9    	bclr.b    0x85, #0x4
    IEC0bits.U1TXIE = 1;            // enable UART1 TX interrupt
    31dc:	95 80 a8    	bset.b    0x95, #0x4

    IFS0bits.U1RXIF = 0;            // lower UART1 RX interrupt flag
    31de:	85 60 a9    	bclr.b    0x85, #0x3
    IEC0bits.U1RXIE = 1;            // enable UART1 RX interrupt
    31e0:	95 60 a8    	bset.b    0x95, #0x3

    U1MODEbits.UARTEN = 1;          // enable UART1 module
    31e2:	21 e2 a8    	bset.b    0x221, #0x7
    U1STAbits.UTXEN = 1;            // enable UART1 data transmission
    31e4:	23 42 a8    	bset.b    0x223, #0x2
}
    31e6:	00 80 fa    	ulnk      
    31e8:	00 00 06    	return    

000031ea <_U1_in_waiting>:

void __attribute__((interrupt, auto_psv)) _U1TXInterrupt(void) {
    uint8_t ch;

    IFS0bits.U1TXIF = 0;            // lower UART1 TX interrupt flag

    if (U1_tx_buffer.count == 0)    // if nothing left in UART1 TX buffer, 
        U1STAbits.UTXEN = 0;        //   disable data transmission

    while ((U1STAbits.UTXBF == 0) && (U1_tx_buffer.count != 0)) {
        disable_interrupts();
        ch = U1_tx_buffer.data[U1_tx_buffer.head];
        U1_tx_buffer.head++;
        if (U1_tx_buffer.head == U1_tx_buffer.length)
            U1_tx_buffer.head = 0;
        U1_tx_buffer.count--;
        enable_interrupts();
        U1TXREG = (uint16_t)ch;
    }
}

void __attribute__((interrupt, auto_psv)) _U1RXInterrupt(void) {
    IFS0bits.U1RXIF = 0;            // lower UART1 RX interrupt flag

    while ((U1STAbits.URXDA == 1) && (U1_rx_buffer.count != U1_rx_buffer.length)) {
        disable_interrupts();
        U1_rx_buffer.data[U1_rx_buffer.tail] = (uint8_t)U1RXREG;
        U1_rx_buffer.tail++;
        if (U1_rx_buffer.tail == U1_rx_buffer.length)
            U1_rx_buffer.tail = 0;
        U1_rx_buffer.count++;
        enable_interrupts();
    }
}

uint16_t U1_in_waiting(void) {
    31ea:	00 00 fa    	lnk       #0x0
    return U1_rx_buffer.count;
    31ec:	10 41 80    	mov.w     0x822, w0
}
    31ee:	00 80 fa    	ulnk      
    31f0:	00 00 06    	return    

000031f2 <_U1_flush_tx_buffer>:

void U1_flush_tx_buffer(void) {
    31f2:	00 00 fa    	lnk       #0x0
    if (U1STAbits.UTXEN == 0)       // if UART1 transmission is disabled,
    31f4:	11 11 80    	mov.w     0x222, w1
    31f6:	00 40 20    	mov.w     #0x400, w0
    31f8:	00 80 60    	and.w     w1, w0, w0
    31fa:	00 00 e0    	cp0.w     w0
    31fc:	01 00 3a    	bra       NZ, 0x3200 <.L15>
        U1STAbits.UTXEN = 1;        //   enable it
    31fe:	23 42 a8    	bset.b    0x223, #0x2

00003200 <.L15>:
}
    3200:	00 80 fa    	ulnk      
    3202:	00 00 06    	return    

00003204 <_U1_putc>:

void U1_putc(uint8_t ch) {
    3204:	02 00 fa    	lnk       #0x2
    3206:	00 4f 78    	mov.b     w0, [w14]
    // Wait until UART1 TX buffer is not full
    while (U1_tx_buffer.count == U1_tx_buffer.length) {}
    3208:	00 00 00    	nop       

0000320a <.L18>:
    320a:	c1 40 80    	mov.w     0x818, w1
    320c:	90 40 80    	mov.w     0x812, w0
    320e:	80 8f 50    	sub.w     w1, w0, [w15]
    3210:	fc ff 32    	bra       Z, 0x320a <.L18>

    disable_interrupts();
    3212:	ff 3f fc    	disi      #0x3fff
    U1_tx_buffer.data[U1_tx_buffer.tail] = ch;
    3214:	81 40 80    	mov.w     0x810, w1
    3216:	b0 40 80    	mov.w     0x816, w0
    3218:	00 80 40    	add.w     w1, w0, w0
    321a:	1e 48 78    	mov.b     [w14], [w0]
    U1_tx_buffer.tail++;
    321c:	b0 40 80    	mov.w     0x816, w0
    321e:	00 00 e8    	inc.w     w0, w0
    3220:	b0 40 88    	mov.w     w0, 0x816
    if (U1_tx_buffer.tail == U1_tx_buffer.length)
    3222:	b1 40 80    	mov.w     0x816, w1
    3224:	90 40 80    	mov.w     0x812, w0
    3226:	80 8f 50    	sub.w     w1, w0, [w15]
    3228:	02 00 3a    	bra       NZ, 0x322e <.L19>
        U1_tx_buffer.tail = 0;
    322a:	00 00 eb    	clr.w     w0
    322c:	b0 40 88    	mov.w     w0, 0x816

0000322e <.L19>:
    U1_tx_buffer.count++;
    322e:	c0 40 80    	mov.w     0x818, w0
    3230:	00 00 e8    	inc.w     w0, w0
    3232:	c0 40 88    	mov.w     w0, 0x818
    enable_interrupts();
    3234:	52 20 ef    	clr.w     0x52

    // If UART1 TX buffer is full enough, enable data transmission
    if (U1_tx_buffer.count >= U1_tx_threshold)
    3236:	c1 40 80    	mov.w     0x818, w1
    3238:	70 40 80    	mov.w     0x80e, w0
    323a:	80 8f 50    	sub.w     w1, w0, [w15]
    323c:	01 00 39    	bra       NC, 0x3240 <.L17>
        U1STAbits.UTXEN = 1;
    323e:	23 42 a8    	bset.b    0x223, #0x2

00003240 <.L17>:
}
    3240:	00 80 fa    	ulnk      
    3242:	00 00 06    	return    

00003244 <_U1_getc>:

uint8_t U1_getc(void) {
    3244:	02 00 fa    	lnk       #0x2
    uint8_t ch;

    // Wait until UART1 RX buffer is not empty
    while (U1_rx_buffer.count == 0) {}
    3246:	00 00 00    	nop       

00003248 <.L22>:
    3248:	10 41 80    	mov.w     0x822, w0
    324a:	00 00 e0    	cp0.w     w0
    324c:	fd ff 32    	bra       Z, 0x3248 <.L22>

    disable_interrupts();
    324e:	ff 3f fc    	disi      #0x3fff
    ch = U1_rx_buffer.data[U1_rx_buffer.head];
    3250:	d1 40 80    	mov.w     0x81a, w1
    3252:	f0 40 80    	mov.w     0x81e, w0
    3254:	00 80 40    	add.w     w1, w0, w0
    3256:	10 4f 78    	mov.b     [w0], [w14]
    U1_rx_buffer.head++;
    3258:	f0 40 80    	mov.w     0x81e, w0
    325a:	00 00 e8    	inc.w     w0, w0
    325c:	f0 40 88    	mov.w     w0, 0x81e
    if (U1_rx_buffer.head == U1_rx_buffer.length)
    325e:	f1 40 80    	mov.w     0x81e, w1
    3260:	e0 40 80    	mov.w     0x81c, w0
    3262:	80 8f 50    	sub.w     w1, w0, [w15]
    3264:	02 00 3a    	bra       NZ, 0x326a <.L23>
        U1_rx_buffer.head = 0;
    3266:	00 00 eb    	clr.w     w0
    3268:	f0 40 88    	mov.w     w0, 0x81e

0000326a <.L23>:
    U1_rx_buffer.count--;
    326a:	10 41 80    	mov.w     0x822, w0
    326c:	00 00 e9    	dec.w     w0, w0
    326e:	10 41 88    	mov.w     w0, 0x822
    enable_interrupts();
    3270:	52 20 ef    	clr.w     0x52

    return ch;
    3272:	1e 40 78    	mov.b     [w14], w0
}
    3274:	00 80 fa    	ulnk      
    3276:	00 00 06    	return    

00003278 <_U1_puts>:

void U1_puts(uint8_t *str) {
    3278:	02 00 fa    	lnk       #0x2
    327a:	00 0f 78    	mov.w     w0, [w14]
    while (*str)
    327c:	04 00 37    	bra       0x3286 <.L25>

0000327e <.L26>:
        U1_putc(*str++);
    327e:	1e 00 78    	mov.w     [w14], w0
    3280:	10 40 78    	mov.b     [w0], w0
    3282:	1e 0f e8    	inc.w     [w14], [w14]
    3284:	bf ff 07    	rcall     0x3204 <_U1_putc> <.LFB5> <.LFE4>

00003286 <.L25>:
    3286:	1e 00 78    	mov.w     [w14], w0
    3288:	10 40 78    	mov.b     [w0], w0
    328a:	00 04 e0    	cp0.b     w0
    328c:	f8 ff 3a    	bra       NZ, 0x327e <.L26>
    U1_flush_tx_buffer();
    328e:	b1 ff 07    	rcall     0x31f2 <_U1_flush_tx_buffer> <.LFB4> <.LFE3>
}
    3290:	00 80 fa    	ulnk      
    3292:	00 00 06    	return    

00003294 <_U1_gets>:

void U1_gets(uint8_t *str, uint16_t len) {
    3294:	04 00 fa    	lnk       #0x4
    3296:	00 0f 78    	mov.w     w0, [w14]
    3298:	11 07 98    	mov.w     w1, [w14+2]
    if (len == 0)
    329a:	1e 00 90    	mov.w     [w14+2], w0
    329c:	00 00 e0    	cp0.w     w0
    329e:	1a 00 32    	bra       Z, 0x32d4 <.L32>
        return;

    if (len == 1) {
    32a0:	1e 00 90    	mov.w     [w14+2], w0
    32a2:	e1 0f 50    	sub.w     w0, #0x1, [w15]
    32a4:	04 00 3a    	bra       NZ, 0x32ae <.L30>
        *str = '\0';
    32a6:	1e 00 78    	mov.w     [w14], w0
    32a8:	80 40 eb    	clr.b     w1
    32aa:	01 48 78    	mov.b     w1, [w0]
        return;
    32ac:	14 00 37    	bra       0x32d6 <.L27>

000032ae <.L30>:
    }

    while (1) {
        *str = U1_getc();
    32ae:	ca ff 07    	rcall     0x3244 <_U1_getc> <.LFB6> <.LFE5>
    32b0:	9e 00 78    	mov.w     [w14], w1
    32b2:	80 48 78    	mov.b     w0, [w1]
        if ((*str == '\r') || (len == 1))
    32b4:	1e 00 78    	mov.w     [w14], w0
    32b6:	10 40 78    	mov.b     [w0], w0
    32b8:	ed 4f 50    	sub.b     w0, #0xd, [w15]
    32ba:	08 00 32    	bra       Z, 0x32cc <.L31>
    32bc:	1e 00 90    	mov.w     [w14+2], w0
    32be:	e1 0f 50    	sub.w     w0, #0x1, [w15]
    32c0:	05 00 32    	bra       Z, 0x32cc <.L31>
            break;
        str++;
    32c2:	1e 0f e8    	inc.w     [w14], [w14]
        len--;
    32c4:	1e 00 90    	mov.w     [w14+2], w0
    32c6:	00 00 e9    	dec.w     w0, w0
    32c8:	10 07 98    	mov.w     w0, [w14+2]
    }
    32ca:	f1 ff 37    	bra       0x32ae <.L30>

000032cc <.L31>:
    *str = '\0';
    32cc:	1e 00 78    	mov.w     [w14], w0
    32ce:	80 40 eb    	clr.b     w1
    32d0:	01 48 78    	mov.b     w1, [w0]
    32d2:	01 00 37    	bra       0x32d6 <.L27>

000032d4 <.L32>:
    32d4:	00 00 00    	nop       

000032d6 <.L27>:
}
    32d6:	00 80 fa    	ulnk      
    32d8:	00 00 06    	return    

000032da <_U1_gets_term>:

void U1_gets_term(uint8_t *str, uint16_t len) {
    32da:	08 00 fa    	lnk       #0x8
    32dc:	20 07 98    	mov.w     w0, [w14+4]
    32de:	31 07 98    	mov.w     w1, [w14+6]
    uint8_t *start;
    uint16_t left;

    if (len == 0)
    32e0:	3e 00 90    	mov.w     [w14+6], w0
    32e2:	00 00 e0    	cp0.w     w0
    32e4:	6f 00 32    	bra       Z, 0x33c4 <.L46>
        return;

    if (len == 1) {
    32e6:	3e 00 90    	mov.w     [w14+6], w0
    32e8:	e1 0f 50    	sub.w     w0, #0x1, [w15]
    32ea:	04 00 3a    	bra       NZ, 0x32f4 <.L36>
        *str = '\0';
    32ec:	2e 00 90    	mov.w     [w14+4], w0
    32ee:	80 40 eb    	clr.b     w1
    32f0:	01 48 78    	mov.b     w1, [w0]
        return;
    32f2:	69 00 37    	bra       0x33c6 <.L33>

000032f4 <.L36>:
    }

    U1_putc(0x1B);                          // save current cursor position
    32f4:	b0 c1 b3    	mov.b     #0x1b, w0
    32f6:	86 ff 07    	rcall     0x3204 <_U1_putc> <.LFB5> <.LFE4>
    U1_putc('7');
    32f8:	70 c3 b3    	mov.b     #0x37, w0
    32fa:	84 ff 07    	rcall     0x3204 <_U1_putc> <.LFB5> <.LFE4>
    U1_flush_tx_buffer();
    32fc:	7a ff 07    	rcall     0x31f2 <_U1_flush_tx_buffer> <.LFB4> <.LFE3>
    start = str;
    32fe:	ae 00 90    	mov.w     [w14+4], w1
    3300:	11 07 98    	mov.w     w1, [w14+2]
    left = len;
    3302:	be 00 90    	mov.w     [w14+6], w1
    3304:	01 0f 78    	mov.w     w1, [w14]
    3306:	03 00 37    	bra       0x330e <.L45>

00003308 <.L47>:
    while (1) {
        *str = U1_getc();                   // get a character
        if (*str == '\r')                   // if character is return,
            break;                          //   end the loop
        if (*str == 0x1B) {                 // if character is escape,
            U1_putc(0x1B);                  //   restore cursor position,
            U1_putc('8');
            U1_putc(0x1B);                  //   clear to end of line, and
            U1_putc('[');
            U1_putc('K');
            U1_flush_tx_buffer();
            str = start;                    //   start over at the beginning
            left = len;
            continue;
        }
        if ((*str == '\b') ||               // if character is backspace
            (*str == 0x7F)) {               //   or delete, 
            if (str > start) {              //   and we are not at the start, 
                U1_putc('\b');              //   erase the last character and
                U1_putc(' ');
                U1_putc('\b');
                U1_flush_tx_buffer();
                str--;                      //   back up the pointer,
                left++;
            } else {                        //   otherwise
                U1_putc('\a');              //   send alert/bell character
                U1_flush_tx_buffer();
            }
            continue;
        }
        if (left == 1) {                    // if string buffer is full,
            U1_putc('\a');                  //   send alert/bell character
            U1_flush_tx_buffer();
            continue;
        }
        if ((*str >= 32) && (*str < 127)) { // if character is printable,
            U1_putc(*str);                  //   echo the received character
            U1_flush_tx_buffer();
            str++;                          //   and advance the pointer
            left--;
        }
    }
    3308:	00 00 00    	nop       
    330a:	01 00 37    	bra       0x330e <.L45>

0000330c <.L48>:
    330c:	00 00 00    	nop       

0000330e <.L45>:
    330e:	9a ff 07    	rcall     0x3244 <_U1_getc> <.LFB6> <.LFE5>
    3310:	ae 00 90    	mov.w     [w14+4], w1
    3312:	80 48 78    	mov.b     w0, [w1]
    3314:	2e 00 90    	mov.w     [w14+4], w0
    3316:	10 40 78    	mov.b     [w0], w0
    3318:	ed 4f 50    	sub.b     w0, #0xd, [w15]
    331a:	09 00 3a    	bra       NZ, 0x332e <.L37>
    *str = '\0';                            // terminarte the string with null
    331c:	2e 00 90    	mov.w     [w14+4], w0
    331e:	80 40 eb    	clr.b     w1
    3320:	01 48 78    	mov.b     w1, [w0]
    U1_putc('\n');                          // send newline and
    3322:	a0 c0 b3    	mov.b     #0xa, w0
    3324:	6f ff 07    	rcall     0x3204 <_U1_putc> <.LFB5> <.LFE4>
    U1_putc('\r');                          //   carriage return
    3326:	d0 c0 b3    	mov.b     #0xd, w0
    3328:	6d ff 07    	rcall     0x3204 <_U1_putc> <.LFB5> <.LFE4>
    U1_flush_tx_buffer();
    332a:	63 ff 07    	rcall     0x31f2 <_U1_flush_tx_buffer> <.LFB4> <.LFE3>
    332c:	4c 00 37    	bra       0x33c6 <.L33>

0000332e <.L37>:
    332e:	2e 00 90    	mov.w     [w14+4], w0
    3330:	10 40 78    	mov.b     [w0], w0
    3332:	fb 4f 50    	sub.b     w0, #0x1b, [w15]
    3334:	10 00 3a    	bra       NZ, 0x3356 <.L38>
    3336:	b0 c1 b3    	mov.b     #0x1b, w0
    3338:	65 ff 07    	rcall     0x3204 <_U1_putc> <.LFB5> <.LFE4>
    333a:	80 c3 b3    	mov.b     #0x38, w0
    333c:	63 ff 07    	rcall     0x3204 <_U1_putc> <.LFB5> <.LFE4>
    333e:	b0 c1 b3    	mov.b     #0x1b, w0
    3340:	61 ff 07    	rcall     0x3204 <_U1_putc> <.LFB5> <.LFE4>
    3342:	b0 c5 b3    	mov.b     #0x5b, w0
    3344:	5f ff 07    	rcall     0x3204 <_U1_putc> <.LFB5> <.LFE4>
    3346:	b0 c4 b3    	mov.b     #0x4b, w0
    3348:	5d ff 07    	rcall     0x3204 <_U1_putc> <.LFB5> <.LFE4>
    334a:	53 ff 07    	rcall     0x31f2 <_U1_flush_tx_buffer> <.LFB4> <.LFE3>
    334c:	9e 00 90    	mov.w     [w14+2], w1
    334e:	21 07 98    	mov.w     w1, [w14+4]
    3350:	be 00 90    	mov.w     [w14+6], w1
    3352:	01 0f 78    	mov.w     w1, [w14]
    3354:	36 00 37    	bra       0x33c2 <.L39>

00003356 <.L38>:
    3356:	2e 00 90    	mov.w     [w14+4], w0
    3358:	10 40 78    	mov.b     [w0], w0
    335a:	e8 4f 50    	sub.b     w0, #0x8, [w15]
    335c:	05 00 32    	bra       Z, 0x3368 <.L40>
    335e:	2e 00 90    	mov.w     [w14+4], w0
    3360:	90 40 78    	mov.b     [w0], w1
    3362:	f0 c7 b3    	mov.b     #0x7f, w0
    3364:	80 cf 50    	sub.b     w1, w0, [w15]
    3366:	14 00 3a    	bra       NZ, 0x3390 <.L41>

00003368 <.L40>:
    3368:	ae 00 90    	mov.w     [w14+4], w1
    336a:	1e 00 90    	mov.w     [w14+2], w0
    336c:	80 8f 50    	sub.w     w1, w0, [w15]
    336e:	0c 00 36    	bra       LEU, 0x3388 <.L42>
    3370:	80 c0 b3    	mov.b     #0x8, w0
    3372:	48 ff 07    	rcall     0x3204 <_U1_putc> <.LFB5> <.LFE4>
    3374:	00 c2 b3    	mov.b     #0x20, w0
    3376:	46 ff 07    	rcall     0x3204 <_U1_putc> <.LFB5> <.LFE4>
    3378:	80 c0 b3    	mov.b     #0x8, w0
    337a:	44 ff 07    	rcall     0x3204 <_U1_putc> <.LFB5> <.LFE4>
    337c:	3a ff 07    	rcall     0x31f2 <_U1_flush_tx_buffer> <.LFB4> <.LFE3>
    337e:	2e 00 90    	mov.w     [w14+4], w0
    3380:	00 00 e9    	dec.w     w0, w0
    3382:	20 07 98    	mov.w     w0, [w14+4]
    3384:	1e 0f e8    	inc.w     [w14], [w14]
    3386:	03 00 37    	bra       0x338e <.L43>

00003388 <.L42>:
    3388:	70 c0 b3    	mov.b     #0x7, w0
    338a:	3c ff 07    	rcall     0x3204 <_U1_putc> <.LFB5> <.LFE4>
    338c:	32 ff 07    	rcall     0x31f2 <_U1_flush_tx_buffer> <.LFB4> <.LFE3>

0000338e <.L43>:
    338e:	19 00 37    	bra       0x33c2 <.L39>

00003390 <.L41>:
    3390:	1e 00 78    	mov.w     [w14], w0
    3392:	e1 0f 50    	sub.w     w0, #0x1, [w15]
    3394:	04 00 3a    	bra       NZ, 0x339e <.L44>
    3396:	70 c0 b3    	mov.b     #0x7, w0
    3398:	35 ff 07    	rcall     0x3204 <_U1_putc> <.LFB5> <.LFE4>
    339a:	2b ff 07    	rcall     0x31f2 <_U1_flush_tx_buffer> <.LFB4> <.LFE3>
    339c:	12 00 37    	bra       0x33c2 <.L39>

0000339e <.L44>:
    339e:	2e 00 90    	mov.w     [w14+4], w0
    33a0:	10 40 78    	mov.b     [w0], w0
    33a2:	ff 4f 50    	sub.b     w0, #0x1f, [w15]
    33a4:	b1 ff 36    	bra       LEU, 0x3308 <.L47>
    33a6:	2e 00 90    	mov.w     [w14+4], w0
    33a8:	90 40 78    	mov.b     [w0], w1
    33aa:	e0 c7 b3    	mov.b     #0x7e, w0
    33ac:	80 cf 50    	sub.b     w1, w0, [w15]
    33ae:	ae ff 3e    	bra       GTU, 0x330c <.L48>
    33b0:	2e 00 90    	mov.w     [w14+4], w0
    33b2:	10 40 78    	mov.b     [w0], w0
    33b4:	27 ff 07    	rcall     0x3204 <_U1_putc> <.LFB5> <.LFE4>
    33b6:	1d ff 07    	rcall     0x31f2 <_U1_flush_tx_buffer> <.LFB4> <.LFE3>
    33b8:	2e 00 90    	mov.w     [w14+4], w0
    33ba:	00 00 e8    	inc.w     w0, w0
    33bc:	20 07 98    	mov.w     w0, [w14+4]
    33be:	1e 0f e9    	dec.w     [w14], [w14]
    33c0:	a6 ff 37    	bra       0x330e <.L45>

000033c2 <.L39>:
    33c2:	a5 ff 37    	bra       0x330e <.L45>

000033c4 <.L46>:
    33c4:	00 00 00    	nop       

000033c6 <.L33>:
}
    33c6:	00 80 fa    	ulnk      
    33c8:	00 00 06    	return    

000033ca <_write>:

int16_t write(int16_t handle, void *buffer, uint16_t len) {
    33ca:	08 00 fa    	lnk       #0x8
    33cc:	10 07 98    	mov.w     w0, [w14+2]
    33ce:	21 07 98    	mov.w     w1, [w14+4]
    33d0:	32 07 98    	mov.w     w2, [w14+6]
    int16_t i;

    switch (handle) {
    33d2:	1e 00 90    	mov.w     [w14+2], w0
    33d4:	60 00 40    	add.w     w0, #0x0, w0
    33d6:	e2 0f 50    	sub.w     w0, #0x2, [w15]
    33d8:	10 00 3e    	bra       GTU, 0x33fa <.L55>
        case 0:
        case 1:
        case 2:
            for (i = 0; i < len; i++)
    33da:	00 00 eb    	clr.w     w0
    33dc:	00 0f 78    	mov.w     w0, [w14]
    33de:	07 00 37    	bra       0x33ee <.L52>

000033e0 <.L53>:
                U1_putc(*(uint8_t *)buffer++);
    33e0:	2e 00 90    	mov.w     [w14+4], w0
    33e2:	10 40 78    	mov.b     [w0], w0
    33e4:	ae 00 90    	mov.w     [w14+4], w1
    33e6:	81 00 e8    	inc.w     w1, w1
    33e8:	21 07 98    	mov.w     w1, [w14+4]
    33ea:	0c ff 07    	rcall     0x3204 <_U1_putc> <.LFB5> <.LFE4>
    33ec:	1e 0f e8    	inc.w     [w14], [w14]

000033ee <.L52>:
    33ee:	9e 00 78    	mov.w     [w14], w1
    33f0:	3e 00 90    	mov.w     [w14+6], w0
    33f2:	80 8f 50    	sub.w     w1, w0, [w15]
    33f4:	f5 ff 39    	bra       NC, 0x33e0 <.L53>
            U1_flush_tx_buffer();
    33f6:	fd fe 07    	rcall     0x31f2 <_U1_flush_tx_buffer> <.LFB4> <.LFE3>
            break;
    33f8:	01 00 37    	bra       0x33fc <.L54>

000033fa <.L55>:
        default:
            break;
    33fa:	00 00 00    	nop       

000033fc <.L54>:
    }
    return len;
    33fc:	3e 00 90    	mov.w     [w14+6], w0
}
    33fe:	00 80 fa    	ulnk      
    3400:	00 00 06    	return    
Disassembly of section .isr.text:

00003402 <__T1Interrupt>:
    3402:	80 9f be    	mov.d     w0, [w15++]
    3404:	32 00 f8    	push      0x32
    3406:	34 00 f8    	push      0x34
    3408:	10 00 20    	mov.w     #0x1, w0
    340a:	a0 01 88    	mov.w     w0, 0x34
    340c:	00 20 20    	mov.w     #0x200, w0
    340e:	90 01 88    	mov.w     w0, 0x32
    3410:	00 00 fa    	lnk       #0x0
    3412:	84 60 a9    	bclr.b    0x84, #0x3
    3414:	00 40 80    	mov.w     0x800, w0
    3416:	00 00 e9    	dec.w     w0, w0
    3418:	00 40 88    	mov.w     w0, 0x800
    341a:	31 40 80    	mov.w     0x806, w1
    341c:	60 24 22    	mov.w     #0x2246, w0
    341e:	80 8f 50    	sub.w     w1, w0, [w15]
    3420:	09 00 3a    	bra       NZ, 0x3434 <.L10>
    3422:	06 21 ef    	clr.w     0x106
    3424:	0a 68 ef    	clr.b     0x80a
    3426:	94 e0 a8    	bset.b    0x94, #0x7
    3428:	11 e1 a8    	bset.b    0x111, #0x7
    342a:	60 04 85    	mov.w     0xa08c, w0
    342c:	a0 0c 88    	mov.w     w0, 0x194
    342e:	a0 0c 80    	mov.w     0x194, w0
    3430:	00 00 d1    	lsr.w     w0, w0
    3432:	b0 0c 88    	mov.w     w0, 0x196

00003434 <.L10>:
    3434:	00 80 fa    	ulnk      
    3436:	34 00 f9    	pop       0x34
    3438:	32 00 f9    	pop       0x32
    343a:	4f 00 be    	mov.d     [--w15], w0
    343c:	00 40 06    	retfie    

0000343e <__T2Interrupt>:
    343e:	36 00 f8    	push      0x36
    3440:	80 9f be    	mov.d     w0, [w15++]
    3442:	82 9f be    	mov.d     w2, [w15++]
    3444:	84 9f be    	mov.d     w4, [w15++]
    3446:	86 9f be    	mov.d     w6, [w15++]
    3448:	32 00 f8    	push      0x32
    344a:	34 00 f8    	push      0x34
    344c:	10 00 20    	mov.w     #0x1, w0
    344e:	a0 01 88    	mov.w     w0, 0x34
    3450:	00 20 20    	mov.w     #0x200, w0
    3452:	90 01 88    	mov.w     w0, 0x32
    3454:	00 00 fa    	lnk       #0x0
    3456:	84 e0 a9    	bclr.b    0x84, #0x7
    3458:	0a c8 bf    	mov.b     0x80a, WREG
    345a:	00 80 fb    	ze        w0, w0
    345c:	e1 0f 50    	sub.w     w0, #0x1, [w15]
    345e:	11 00 32    	bra       Z, 0x3482 <.L15>
    3460:	e2 0f 50    	sub.w     w0, #0x2, [w15]
    3462:	20 00 32    	bra       Z, 0x34a4 <.L16>
    3464:	00 00 e0    	cp0.w     w0
    3466:	2e 00 3a    	bra       NZ, 0x34c4 <.L18>
    3468:	96 21 ef    	clr.w     0x196
    346a:	0a c8 bf    	mov.b     0x80a, WREG
    346c:	00 40 e8    	inc.b     w0, w0
    346e:	0a e8 b7    	mov.b     WREG, 0x80a
    3470:	ec 22 a9    	bclr.b    0x2ec, #0x1
    3472:	10 00 20    	mov.w     #0x1, w0
    3474:	01 00 20    	mov.w     #0x0, w1
    3476:	31 fc 07    	rcall     0x2cda <_delay_by_nop> <.L0> <.LFB0> <.LFE16> <.Letext0> <.Ltext0>
    3478:	dc e2 a8    	bset.b    0x2dc, #0x7
    347a:	10 00 20    	mov.w     #0x1, w0
    347c:	01 00 20    	mov.w     #0x0, w1
    347e:	2d fc 07    	rcall     0x2cda <_delay_by_nop> <.L0> <.LFB0> <.LFE16> <.Letext0> <.Ltext0>
    3480:	22 00 37    	bra       0x34c6 <.L12>

00003482 <.L15>:
    3482:	70 04 85    	mov.w     0xa08e, w0
    3484:	a0 0c 88    	mov.w     w0, 0x194
    3486:	a0 0c 80    	mov.w     0x194, w0
    3488:	00 00 d1    	lsr.w     w0, w0
    348a:	b0 0c 88    	mov.w     w0, 0x196
    348c:	dc e2 a9    	bclr.b    0x2dc, #0x7
    348e:	10 00 20    	mov.w     #0x1, w0
    3490:	01 00 20    	mov.w     #0x0, w1
    3492:	23 fc 07    	rcall     0x2cda <_delay_by_nop> <.L0> <.LFB0> <.LFE16> <.Letext0> <.Ltext0>
    3494:	ec 02 a8    	bset.b    0x2ec, #0x0
    3496:	10 00 20    	mov.w     #0x1, w0
    3498:	01 00 20    	mov.w     #0x0, w1
    349a:	1f fc 07    	rcall     0x2cda <_delay_by_nop> <.L0> <.LFB0> <.LFE16> <.Letext0> <.Ltext0>
    349c:	0a c8 bf    	mov.b     0x80a, WREG
    349e:	00 40 e8    	inc.b     w0, w0
    34a0:	0a e8 b7    	mov.b     WREG, 0x80a
    34a2:	11 00 37    	bra       0x34c6 <.L12>

000034a4 <.L16>:
    34a4:	60 04 85    	mov.w     0xa08c, w0
    34a6:	a0 0c 88    	mov.w     w0, 0x194
    34a8:	96 21 ef    	clr.w     0x196
    34aa:	dc e2 a9    	bclr.b    0x2dc, #0x7
    34ac:	10 00 20    	mov.w     #0x1, w0
    34ae:	01 00 20    	mov.w     #0x0, w1
    34b0:	14 fc 07    	rcall     0x2cda <_delay_by_nop> <.L0> <.LFB0> <.LFE16> <.Letext0> <.Ltext0>
    34b2:	ec 02 a8    	bset.b    0x2ec, #0x0
    34b4:	10 00 20    	mov.w     #0x1, w0
    34b6:	01 00 20    	mov.w     #0x0, w1
    34b8:	10 fc 07    	rcall     0x2cda <_delay_by_nop> <.L0> <.LFB0> <.LFE16> <.Letext0> <.Ltext0>
    34ba:	0a c8 bf    	mov.b     0x80a, WREG
    34bc:	00 40 e8    	inc.b     w0, w0
    34be:	0a e8 b7    	mov.b     WREG, 0x80a
    34c0:	00 00 00    	nop       
    34c2:	01 00 37    	bra       0x34c6 <.L12>

000034c4 <.L18>:
    34c4:	00 00 00    	nop       

000034c6 <.L12>:
    34c6:	00 80 fa    	ulnk      
    34c8:	34 00 f9    	pop       0x34
    34ca:	32 00 f9    	pop       0x32
    34cc:	4f 03 be    	mov.d     [--w15], w6
    34ce:	4f 02 be    	mov.d     [--w15], w4
    34d0:	4f 01 be    	mov.d     [--w15], w2
    34d2:	4f 00 be    	mov.d     [--w15], w0
    34d4:	36 00 f9    	pop       0x36
    34d6:	00 40 06    	retfie    

000034d8 <__U1TXInterrupt>:
    34d8:	80 9f be    	mov.d     w0, [w15++]
    34da:	32 00 f8    	push      0x32
    34dc:	34 00 f8    	push      0x34
    34de:	10 00 20    	mov.w     #0x1, w0
    34e0:	a0 01 88    	mov.w     w0, 0x34
    34e2:	00 20 20    	mov.w     #0x200, w0
    34e4:	90 01 88    	mov.w     w0, 0x32
    34e6:	02 00 fa    	lnk       #0x2
    34e8:	85 80 a9    	bclr.b    0x85, #0x4
    34ea:	c0 40 80    	mov.w     0x818, w0
    34ec:	00 00 e0    	cp0.w     w0
    34ee:	17 00 3a    	bra       NZ, 0x351e <.L8>
    34f0:	23 42 a9    	bclr.b    0x223, #0x2
    34f2:	16 00 37    	bra       0x3520 <.L4>

000034f4 <.L7>:
    34f4:	ff 3f fc    	disi      #0x3fff
    34f6:	81 40 80    	mov.w     0x810, w1
    34f8:	a0 40 80    	mov.w     0x814, w0
    34fa:	00 80 40    	add.w     w1, w0, w0
    34fc:	10 4f 78    	mov.b     [w0], [w14]
    34fe:	a0 40 80    	mov.w     0x814, w0
    3500:	00 00 e8    	inc.w     w0, w0
    3502:	a0 40 88    	mov.w     w0, 0x814
    3504:	a1 40 80    	mov.w     0x814, w1
    3506:	90 40 80    	mov.w     0x812, w0
    3508:	80 8f 50    	sub.w     w1, w0, [w15]
    350a:	02 00 3a    	bra       NZ, 0x3510 <.L5>
    350c:	00 00 eb    	clr.w     w0
    350e:	a0 40 88    	mov.w     w0, 0x814

00003510 <.L5>:
    3510:	c0 40 80    	mov.w     0x818, w0
    3512:	00 00 e9    	dec.w     w0, w0
    3514:	c0 40 88    	mov.w     w0, 0x818
    3516:	52 20 ef    	clr.w     0x52
    3518:	1e 80 fb    	ze        [w14], w0
    351a:	20 11 88    	mov.w     w0, 0x224
    351c:	01 00 37    	bra       0x3520 <.L4>

0000351e <.L8>:
    351e:	00 00 00    	nop       

00003520 <.L4>:
    3520:	11 11 80    	mov.w     0x222, w1
    3522:	00 20 20    	mov.w     #0x200, w0
    3524:	00 80 60    	and.w     w1, w0, w0
    3526:	00 00 e0    	cp0.w     w0
    3528:	03 00 3a    	bra       NZ, 0x3530 <.L2>
    352a:	c0 40 80    	mov.w     0x818, w0
    352c:	00 00 e0    	cp0.w     w0
    352e:	e2 ff 3a    	bra       NZ, 0x34f4 <.L7>

00003530 <.L2>:
    3530:	00 80 fa    	ulnk      
    3532:	34 00 f9    	pop       0x34
    3534:	32 00 f9    	pop       0x32
    3536:	4f 00 be    	mov.d     [--w15], w0
    3538:	00 40 06    	retfie    

0000353a <__U1RXInterrupt>:
    353a:	80 9f be    	mov.d     w0, [w15++]
    353c:	32 00 f8    	push      0x32
    353e:	34 00 f8    	push      0x34
    3540:	10 00 20    	mov.w     #0x1, w0
    3542:	a0 01 88    	mov.w     w0, 0x34
    3544:	00 20 20    	mov.w     #0x200, w0
    3546:	90 01 88    	mov.w     w0, 0x32
    3548:	00 00 fa    	lnk       #0x0
    354a:	85 60 a9    	bclr.b    0x85, #0x3
    354c:	14 00 37    	bra       0x3576 <.L10>

0000354e <.L13>:
    354e:	ff 3f fc    	disi      #0x3fff
    3550:	d1 40 80    	mov.w     0x81a, w1
    3552:	00 41 80    	mov.w     0x820, w0
    3554:	00 80 40    	add.w     w1, w0, w0
    3556:	31 11 80    	mov.w     0x226, w1
    3558:	81 40 78    	mov.b     w1, w1
    355a:	01 48 78    	mov.b     w1, [w0]
    355c:	00 41 80    	mov.w     0x820, w0
    355e:	00 00 e8    	inc.w     w0, w0
    3560:	00 41 88    	mov.w     w0, 0x820
    3562:	01 41 80    	mov.w     0x820, w1
    3564:	e0 40 80    	mov.w     0x81c, w0
    3566:	80 8f 50    	sub.w     w1, w0, [w15]
    3568:	02 00 3a    	bra       NZ, 0x356e <.L11>
    356a:	00 00 eb    	clr.w     w0
    356c:	00 41 88    	mov.w     w0, 0x820

0000356e <.L11>:
    356e:	10 41 80    	mov.w     0x822, w0
    3570:	00 00 e8    	inc.w     w0, w0
    3572:	10 41 88    	mov.w     w0, 0x822
    3574:	52 20 ef    	clr.w     0x52

00003576 <.L10>:
    3576:	10 11 80    	mov.w     0x222, w0
    3578:	61 00 60    	and.w     w0, #0x1, w0
    357a:	00 00 e0    	cp0.w     w0
    357c:	04 00 32    	bra       Z, 0x3586 <.L9>
    357e:	11 41 80    	mov.w     0x822, w1
    3580:	e0 40 80    	mov.w     0x81c, w0
    3582:	80 8f 50    	sub.w     w1, w0, [w15]
    3584:	e4 ff 3a    	bra       NZ, 0x354e <.L13>

00003586 <.L9>:
    3586:	00 80 fa    	ulnk      
    3588:	34 00 f9    	pop       0x34
    358a:	32 00 f9    	pop       0x32
    358c:	4f 00 be    	mov.d     [--w15], w0
    358e:	00 40 06    	retfie    
Disassembly of section .text:

00003590 <_init_elecanisms>:
*/

#include "elecanisms.h"

void init_elecanisms(void) {
    3590:	00 00 fa    	lnk       #0x0
    CLKDIV = 0x0100;        // RCDIV = 001 (4MHz, div2), 
    3592:	00 10 20    	mov.w     #0x100, w0
    3594:	20 3a 88    	mov.w     w0, 0x744
                            // CPDIV = 00 (FOSC = 32MHz, FCY = 16MHz)

    // Configure all pins on the digital headers to be inputs
    D0_DIR = IN;
    3596:	d8 a2 a8    	bset.b    0x2d8, #0x5
    D1_DIR = IN;
    3598:	d8 82 a8    	bset.b    0x2d8, #0x4
    D2_DIR = IN;
    359a:	e8 82 a8    	bset.b    0x2e8, #0x4
    D3_DIR = IN;
    359c:	e8 a2 a8    	bset.b    0x2e8, #0x5
    D4_DIR = IN;
    359e:	c9 e2 a8    	bset.b    0x2c9, #0x7
    D5_DIR = IN;
    35a0:	e8 62 a8    	bset.b    0x2e8, #0x3
    D6_DIR = IN;
    35a2:	d9 02 a8    	bset.b    0x2d9, #0x0
    D7_DIR = IN;
    35a4:	d9 62 a8    	bset.b    0x2d9, #0x3
    D8_DIR = IN;
    35a6:	d9 22 a8    	bset.b    0x2d9, #0x1
    D9_DIR = IN;
    35a8:	d9 42 a8    	bset.b    0x2d9, #0x2
    D10_DIR = IN;
    35aa:	d8 02 a8    	bset.b    0x2d8, #0x0
    D11_DIR = IN;
    35ac:	d8 22 a8    	bset.b    0x2d8, #0x1
    D12_DIR = IN;
    35ae:	d8 42 a8    	bset.b    0x2d8, #0x2
    D13_DIR = IN;
    35b0:	d8 62 a8    	bset.b    0x2d8, #0x3

    // Configure all pins on the analog header to be inputs
    A0_DIR = IN;
    35b2:	c8 a2 a8    	bset.b    0x2c8, #0x5
    A1_DIR = IN;
    35b4:	c8 82 a8    	bset.b    0x2c8, #0x4
    A2_DIR = IN;
    35b6:	c8 62 a8    	bset.b    0x2c8, #0x3
    A3_DIR = IN;
    35b8:	c8 42 a8    	bset.b    0x2c8, #0x2
    A4_DIR = IN;
    35ba:	c8 22 a8    	bset.b    0x2c8, #0x1
    A5_DIR = IN;
    35bc:	c8 02 a8    	bset.b    0x2c8, #0x0

    // Make all pins digital I/Os except for A0,...,A5
    ANSB = 0x003F;
    35be:	f0 03 20    	mov.w     #0x3f, w0
    35c0:	10 27 88    	mov.w     w0, 0x4e2
    ANSC = 0;
    35c2:	e4 24 ef    	clr.w     0x4e4
    ANSD = 0;
    35c4:	e6 24 ef    	clr.w     0x4e6
    ANSF = 0;
    35c6:	ea 24 ef    	clr.w     0x4ea
    ANSG = 0;
    35c8:	ec 24 ef    	clr.w     0x4ec

    // Configure and enable the ADC module: 
    //   set output data format to integer (FORM<1:0> = 0b00)
    //   set conversion trigger source select bits to internal counter 
    //     (SSRC<2:0> = 0b111)
    //   set auto-sample time bits to 12*TAD (SAMC<4:0> = 12)
    //   set conversion clock select bits to 64*TCY (ADCS<7:0> = 64)
    //   set initial channel selection to A0
    AD1CON1 = 0x00E0; 
    35ca:	00 0e 20    	mov.w     #0xe0, w0
    35cc:	00 19 88    	mov.w     w0, 0x320
    AD1CON2 = 0;
    35ce:	22 23 ef    	clr.w     0x322
    AD1CON3 = 0x0C40;
    35d0:	00 c4 20    	mov.w     #0xc40, w0
    35d2:	20 19 88    	mov.w     w0, 0x324
    AD1CHS = A0_AN;
    35d4:	50 00 20    	mov.w     #0x5, w0
    35d6:	40 19 88    	mov.w     w0, 0x328
    AD1CON1bits.ADON = 1;
    35d8:	21 e3 a8    	bset.b    0x321, #0x7

    // Configure LED pins as outputs, set to low (off)
    LED1_DIR = OUT; LED1 = 0;
    35da:	d8 e2 a9    	bclr.b    0x2d8, #0x7
    35dc:	dc e2 a9    	bclr.b    0x2dc, #0x7
    LED2_DIR = OUT; LED2 = 0;
    35de:	e8 02 a9    	bclr.b    0x2e8, #0x0
    35e0:	ec 02 a9    	bclr.b    0x2ec, #0x0
    LED3_DIR = OUT; LED3 = 0;
    35e2:	e8 22 a9    	bclr.b    0x2e8, #0x1
    35e4:	ec 22 a9    	bclr.b    0x2ec, #0x1

    // Configure SW pins as inputs
    SW1_DIR = IN;
    35e6:	d1 e2 a8    	bset.b    0x2d1, #0x7
    SW2_DIR = IN;
    35e8:	d1 82 a8    	bset.b    0x2d1, #0x4
    SW3_DIR = IN;
    35ea:	c9 82 a8    	bset.b    0x2c9, #0x4
}
    35ec:	00 80 fa    	ulnk      
    35ee:	00 00 06    	return    

000035f0 <_read_analog>:

uint16_t read_analog(uint16_t pin_an) {
    35f0:	02 00 fa    	lnk       #0x2
    35f2:	00 0f 78    	mov.w     w0, [w14]
    AD1CHS = pin_an;
    35f4:	9e 00 78    	mov.w     [w14], w1
    35f6:	41 19 88    	mov.w     w1, 0x328
    AD1CON1bits.SAMP = 1;
    35f8:	20 23 a8    	bset.b    0x320, #0x1
    while (AD1CON1bits.DONE == 0) {}
    35fa:	00 00 00    	nop       

000035fc <.L3>:
    35fc:	00 19 80    	mov.w     0x320, w0
    35fe:	61 00 60    	and.w     w0, #0x1, w0
    3600:	00 00 e0    	cp0.w     w0
    3602:	fc ff 32    	bra       Z, 0x35fc <.L3>
    return ADC1BUF0;
    3604:	00 18 80    	mov.w     0x300, w0
}
    3606:	00 80 fa    	ulnk      
    3608:	00 00 06    	return    
Disassembly of section .dinit:

0000360a <.dinit>:
    360a:	00 11 00    	nop       
    360c:	06 00 00    	nop       
    360e:	82 00 00    	nop       
    3610:	10 20 30    	bra       OV, 0x7632
    3612:	40 50 60    	and.b     w0, [--w0], [w0--]
    3614:	24 10 00    	nop       
    3616:	a0 00 00    	nop       
    3618:	80 00 00    	nop       
    361a:	00 08 00    	nop       
    361c:	0c 00 00    	nop       
    361e:	80 00 00    	nop       
    3620:	0c 08 00    	nop       
    3622:	02 00 00    	nop       
    3624:	82 00 00    	nop       
    3626:	e0 00 00    	nop       
    3628:	10 08 00    	nop       
    362a:	14 08 00    	nop       
    362c:	80 00 00    	nop       
    362e:	0e 08 00    	nop       
    3630:	02 00 00    	nop       
    3632:	80 00 00    	nop       
    3634:	e6 10 00    	nop       
    3636:	1a 00 00    	nop       
    3638:	82 00 00    	nop       
    363a:	68 6a 6c    	xor.b     w8, #0x8, [++w4]
    363c:	74 7a 4c    	.pword 0x4c7a74
    363e:	00 00 01    	call      w0
    3640:	00 02 00    	nop       
    3642:	04 00 08    	do        #0x4, 0x5646
    3644:	00 10 00 
    3646:	00 00 20    	mov.w     #0x0, w0
    3648:	2b 2d 23    	mov.w     #0x32d2, w11
    364a:	30 00 00    	nop       
    364c:	c4 10 00    	nop       
    364e:	22 00 00    	nop       
    3650:	82 00 00    	nop       
    3652:	30 31 32    	bra       Z, 0x98b4
    3654:	33 34 35    	bra       LT, 0x9ebc
    3656:	36 37 38    	bra       NOV, 0xa4c4
    3658:	39 41 42    	add.b     w4, [w9++], w2
    365a:	43 44 45    	add.b     w10, [--w3], w8
    365c:	46 00 30    	bra       OV, 0x36ea
    365e:	31 32 33    	bra       N, 0x9ac2
    3660:	34 35 36    	bra       LEU, 0xa0ca
    3662:	37 38 39    	bra       NC, 0xa6d2
    3664:	61 62 63    	and.b     w6, #0x1, [--w4]
    3666:	64 65 66    	and.b     w12, #0x4, [--w10]
	...
Disassembly of section .text:

0000366c <_parity>:
    366c:	02 00 fa    	lnk       #0x2
    366e:	00 0f 78    	mov.w     w0, [w14]
    3670:	1e 00 78    	mov.w     [w14], w0
    3672:	48 00 de    	lsr.w     w0, #0x8, w0
    3674:	1e 0f 68    	xor.w     w0, [w14], [w14]
    3676:	1e 00 78    	mov.w     [w14], w0
    3678:	44 00 de    	lsr.w     w0, #0x4, w0
    367a:	1e 0f 68    	xor.w     w0, [w14], [w14]
    367c:	1e 00 78    	mov.w     [w14], w0
    367e:	42 00 de    	lsr.w     w0, #0x2, w0
    3680:	1e 0f 68    	xor.w     w0, [w14], [w14]
    3682:	1e 00 78    	mov.w     [w14], w0
{
    v ^= v >> 8;
    v ^= v >> 4;
    v ^= v >> 2;
    v ^= v >> 1;
    3684:	00 00 d1    	lsr.w     w0, w0
    3686:	1e 0f 68    	xor.w     w0, [w14], [w14]
    return v & 1;
    3688:	1e 00 78    	mov.w     [w14], w0
    368a:	00 40 78    	mov.b     w0, w0
    368c:	61 40 60    	and.b     w0, #0x1, w0
}
    368e:	00 80 fa    	ulnk      
    3690:	00 00 06    	return    
Disassembly of section .isr:

00003692 <__DefaultInterrupt>:
    3692:	00 40 da    	break     
    3694:	00 00 fe    	reset     
