
master.elf:     file format elf32-pic30

Disassembly of section .aivt._AltADC1Interrupt:

0000012e <.aivt._AltADC1Interrupt>:
 12e:	8a 28 00    	nop       
Disassembly of section .aivt._AltAddressError:

00000108 <.aivt._AltAddressError>:
 108:	8a 28 00    	nop       
Disassembly of section .aivt._AltCNInterrupt:

0000013a <.aivt._AltCNInterrupt>:
 13a:	8a 28 00    	nop       
Disassembly of section .aivt._AltCRCInterrupt:

0000019a <.aivt._AltCRCInterrupt>:
 19a:	8a 28 00    	nop       
Disassembly of section .aivt._AltCTMUInterrupt:

000001ae <.aivt._AltCTMUInterrupt>:
 1ae:	8a 28 00    	nop       
Disassembly of section .aivt._AltCompInterrupt:

00000138 <.aivt._AltCompInterrupt>:
 138:	8a 28 00    	nop       
Disassembly of section .aivt._AltIC1Interrupt:

00000116 <.aivt._AltIC1Interrupt>:
 116:	8a 28 00    	nop       
Disassembly of section .aivt._AltIC2Interrupt:

0000011e <.aivt._AltIC2Interrupt>:
 11e:	8a 28 00    	nop       
Disassembly of section .aivt._AltIC3Interrupt:

0000015e <.aivt._AltIC3Interrupt>:
 15e:	8a 28 00    	nop       
Disassembly of section .aivt._AltIC4Interrupt:

00000160 <.aivt._AltIC4Interrupt>:
 160:	8a 28 00    	nop       
Disassembly of section .aivt._AltIC5Interrupt:

00000162 <.aivt._AltIC5Interrupt>:
 162:	8a 28 00    	nop       
Disassembly of section .aivt._AltIC6Interrupt:

00000164 <.aivt._AltIC6Interrupt>:
 164:	8a 28 00    	nop       
Disassembly of section .aivt._AltIC7Interrupt:

00000140 <.aivt._AltIC7Interrupt>:
 140:	8a 28 00    	nop       
Disassembly of section .aivt._AltIC8Interrupt:

00000142 <.aivt._AltIC8Interrupt>:
 142:	8a 28 00    	nop       
Disassembly of section .aivt._AltIC9Interrupt:

000001ce <.aivt._AltIC9Interrupt>:
 1ce:	8a 28 00    	nop       
Disassembly of section .aivt._AltINT0Interrupt:

00000114 <.aivt._AltINT0Interrupt>:
 114:	8a 28 00    	nop       
Disassembly of section .aivt._AltINT1Interrupt:

0000013c <.aivt._AltINT1Interrupt>:
 13c:	8a 28 00    	nop       
Disassembly of section .aivt._AltINT2Interrupt:

0000014e <.aivt._AltINT2Interrupt>:
 14e:	8a 28 00    	nop       
Disassembly of section .aivt._AltINT3Interrupt:

0000017e <.aivt._AltINT3Interrupt>:
 17e:	8a 28 00    	nop       
Disassembly of section .aivt._AltINT4Interrupt:

00000180 <.aivt._AltINT4Interrupt>:
 180:	8a 28 00    	nop       
Disassembly of section .aivt._AltInterrupt14:

00000130 <.aivt._AltInterrupt14>:
 130:	8a 28 00    	nop       
Disassembly of section .aivt._AltInterrupt15:

00000132 <.aivt._AltInterrupt15>:
 132:	8a 28 00    	nop       
Disassembly of section .aivt._AltInterrupt21:

0000013e <.aivt._AltInterrupt21>:
 13e:	8a 28 00    	nop       
Disassembly of section .aivt._AltInterrupt24:

00000144 <.aivt._AltInterrupt24>:
 144:	8a 28 00    	nop       
Disassembly of section .aivt._AltInterrupt34:

00000158 <.aivt._AltInterrupt34>:
 158:	8a 28 00    	nop       
Disassembly of section .aivt._AltInterrupt35:

0000015a <.aivt._AltInterrupt35>:
 15a:	8a 28 00    	nop       
Disassembly of section .aivt._AltInterrupt36:

0000015c <.aivt._AltInterrupt36>:
 15c:	8a 28 00    	nop       
Disassembly of section .aivt._AltInterrupt4:

0000011c <.aivt._AltInterrupt4>:
 11c:	8a 28 00    	nop       
Disassembly of section .aivt._AltInterrupt46:

00000170 <.aivt._AltInterrupt46>:
 170:	8a 28 00    	nop       
Disassembly of section .aivt._AltInterrupt47:

00000172 <.aivt._AltInterrupt47>:
 172:	8a 28 00    	nop       
Disassembly of section .aivt._AltInterrupt48:

00000174 <.aivt._AltInterrupt48>:
 174:	8a 28 00    	nop       
Disassembly of section .aivt._AltInterrupt51:

0000017a <.aivt._AltInterrupt51>:
 17a:	8a 28 00    	nop       
Disassembly of section .aivt._AltInterrupt52:

0000017c <.aivt._AltInterrupt52>:
 17c:	8a 28 00    	nop       
Disassembly of section .aivt._AltInterrupt55:

00000182 <.aivt._AltInterrupt55>:
 182:	8a 28 00    	nop       
Disassembly of section .aivt._AltInterrupt56:

00000184 <.aivt._AltInterrupt56>:
 184:	8a 28 00    	nop       
Disassembly of section .aivt._AltInterrupt57:

00000186 <.aivt._AltInterrupt57>:
 186:	8a 28 00    	nop       
Disassembly of section .aivt._AltInterrupt58:

00000188 <.aivt._AltInterrupt58>:
 188:	8a 28 00    	nop       
Disassembly of section .aivt._AltInterrupt59:

0000018a <.aivt._AltInterrupt59>:
 18a:	8a 28 00    	nop       
Disassembly of section .aivt._AltInterrupt60:

0000018c <.aivt._AltInterrupt60>:
 18c:	8a 28 00    	nop       
Disassembly of section .aivt._AltInterrupt61:

0000018e <.aivt._AltInterrupt61>:
 18e:	8a 28 00    	nop       
Disassembly of section .aivt._AltInterrupt63:

00000192 <.aivt._AltInterrupt63>:
 192:	8a 28 00    	nop       
Disassembly of section .aivt._AltInterrupt64:

00000194 <.aivt._AltInterrupt64>:
 194:	8a 28 00    	nop       
Disassembly of section .aivt._AltInterrupt68:

0000019c <.aivt._AltInterrupt68>:
 19c:	8a 28 00    	nop       
Disassembly of section .aivt._AltInterrupt69:

0000019e <.aivt._AltInterrupt69>:
 19e:	8a 28 00    	nop       
Disassembly of section .aivt._AltInterrupt70:

000001a0 <.aivt._AltInterrupt70>:
 1a0:	8a 28 00    	nop       
Disassembly of section .aivt._AltInterrupt71:

000001a2 <.aivt._AltInterrupt71>:
 1a2:	8a 28 00    	nop       
Disassembly of section .aivt._AltInterrupt73:

000001a6 <.aivt._AltInterrupt73>:
 1a6:	8a 28 00    	nop       
Disassembly of section .aivt._AltInterrupt74:

000001a8 <.aivt._AltInterrupt74>:
 1a8:	8a 28 00    	nop       
Disassembly of section .aivt._AltInterrupt75:

000001aa <.aivt._AltInterrupt75>:
 1aa:	8a 28 00    	nop       
Disassembly of section .aivt._AltInterrupt76:

000001ac <.aivt._AltInterrupt76>:
 1ac:	8a 28 00    	nop       
Disassembly of section .aivt._AltInterrupt78:

000001b0 <.aivt._AltInterrupt78>:
 1b0:	8a 28 00    	nop       
Disassembly of section .aivt._AltInterrupt79:

000001b2 <.aivt._AltInterrupt79>:
 1b2:	8a 28 00    	nop       
Disassembly of section .aivt._AltInterrupt80:

000001b4 <.aivt._AltInterrupt80>:
 1b4:	8a 28 00    	nop       
Disassembly of section .aivt._AltLVDInterrupt:

000001a4 <.aivt._AltLVDInterrupt>:
 1a4:	8a 28 00    	nop       
Disassembly of section .aivt._AltMI2C1Interrupt:

00000136 <.aivt._AltMI2C1Interrupt>:
 136:	8a 28 00    	nop       
Disassembly of section .aivt._AltMI2C2Interrupt:

00000178 <.aivt._AltMI2C2Interrupt>:
 178:	8a 28 00    	nop       
Disassembly of section .aivt._AltMI2C3Interrupt:

000001be <.aivt._AltMI2C3Interrupt>:
 1be:	8a 28 00    	nop       
Disassembly of section .aivt._AltMathError:

0000010c <.aivt._AltMathError>:
 10c:	8a 28 00    	nop       
Disassembly of section .aivt._AltOC1Interrupt:

00000118 <.aivt._AltOC1Interrupt>:
 118:	8a 28 00    	nop       
Disassembly of section .aivt._AltOC2Interrupt:

00000120 <.aivt._AltOC2Interrupt>:
 120:	8a 28 00    	nop       
Disassembly of section .aivt._AltOC3Interrupt:

00000146 <.aivt._AltOC3Interrupt>:
 146:	8a 28 00    	nop       
Disassembly of section .aivt._AltOC4Interrupt:

00000148 <.aivt._AltOC4Interrupt>:
 148:	8a 28 00    	nop       
Disassembly of section .aivt._AltOC5Interrupt:

00000166 <.aivt._AltOC5Interrupt>:
 166:	8a 28 00    	nop       
Disassembly of section .aivt._AltOC6Interrupt:

00000168 <.aivt._AltOC6Interrupt>:
 168:	8a 28 00    	nop       
Disassembly of section .aivt._AltOC7Interrupt:

0000016a <.aivt._AltOC7Interrupt>:
 16a:	8a 28 00    	nop       
Disassembly of section .aivt._AltOC8Interrupt:

0000016c <.aivt._AltOC8Interrupt>:
 16c:	8a 28 00    	nop       
Disassembly of section .aivt._AltOC9Interrupt:

000001cc <.aivt._AltOC9Interrupt>:
 1cc:	8a 28 00    	nop       
Disassembly of section .aivt._AltOscillatorFail:

00000106 <.aivt._AltOscillatorFail>:
 106:	8a 28 00    	nop       
Disassembly of section .aivt._AltPMPInterrupt:

0000016e <.aivt._AltPMPInterrupt>:
 16e:	8a 28 00    	nop       
Disassembly of section .aivt._AltRTCCInterrupt:

00000190 <.aivt._AltRTCCInterrupt>:
 190:	8a 28 00    	nop       
Disassembly of section .aivt._AltReservedTrap0:

00000104 <.aivt._AltReservedTrap0>:
 104:	8a 28 00    	nop       
Disassembly of section .aivt._AltReservedTrap5:

0000010e <.aivt._AltReservedTrap5>:
 10e:	8a 28 00    	nop       
Disassembly of section .aivt._AltReservedTrap6:

00000110 <.aivt._AltReservedTrap6>:
 110:	8a 28 00    	nop       
Disassembly of section .aivt._AltReservedTrap7:

00000112 <.aivt._AltReservedTrap7>:
 112:	8a 28 00    	nop       
Disassembly of section .aivt._AltSI2C1Interrupt:

00000134 <.aivt._AltSI2C1Interrupt>:
 134:	8a 28 00    	nop       
Disassembly of section .aivt._AltSI2C2Interrupt:

00000176 <.aivt._AltSI2C2Interrupt>:
 176:	8a 28 00    	nop       
Disassembly of section .aivt._AltSI2C3Interrupt:

000001bc <.aivt._AltSI2C3Interrupt>:
 1bc:	8a 28 00    	nop       
Disassembly of section .aivt._AltSPI1ErrInterrupt:

00000126 <.aivt._AltSPI1ErrInterrupt>:
 126:	8a 28 00    	nop       
Disassembly of section .aivt._AltSPI1Interrupt:

00000128 <.aivt._AltSPI1Interrupt>:
 128:	8a 28 00    	nop       
Disassembly of section .aivt._AltSPI2ErrInterrupt:

00000154 <.aivt._AltSPI2ErrInterrupt>:
 154:	8a 28 00    	nop       
Disassembly of section .aivt._AltSPI2Interrupt:

00000156 <.aivt._AltSPI2Interrupt>:
 156:	8a 28 00    	nop       
Disassembly of section .aivt._AltSPI3ErrInterrupt:

000001c8 <.aivt._AltSPI3ErrInterrupt>:
 1c8:	8a 28 00    	nop       
Disassembly of section .aivt._AltSPI3Interrupt:

000001ca <.aivt._AltSPI3Interrupt>:
 1ca:	8a 28 00    	nop       
Disassembly of section .aivt._AltStackError:

0000010a <.aivt._AltStackError>:
 10a:	8a 28 00    	nop       
Disassembly of section .aivt._AltT1Interrupt:

0000011a <.aivt._AltT1Interrupt>:
 11a:	8a 28 00    	nop       
Disassembly of section .aivt._AltT2Interrupt:

00000122 <.aivt._AltT2Interrupt>:
 122:	8a 28 00    	nop       
Disassembly of section .aivt._AltT3Interrupt:

00000124 <.aivt._AltT3Interrupt>:
 124:	8a 28 00    	nop       
Disassembly of section .aivt._AltT4Interrupt:

0000014a <.aivt._AltT4Interrupt>:
 14a:	8a 28 00    	nop       
Disassembly of section .aivt._AltT5Interrupt:

0000014c <.aivt._AltT5Interrupt>:
 14c:	8a 28 00    	nop       
Disassembly of section .aivt._AltU1ErrInterrupt:

00000196 <.aivt._AltU1ErrInterrupt>:
 196:	8a 28 00    	nop       
Disassembly of section .aivt._AltU1RXInterrupt:

0000012a <.aivt._AltU1RXInterrupt>:
 12a:	8a 28 00    	nop       
Disassembly of section .aivt._AltU1TXInterrupt:

0000012c <.aivt._AltU1TXInterrupt>:
 12c:	8a 28 00    	nop       
Disassembly of section .aivt._AltU2ErrInterrupt:

00000198 <.aivt._AltU2ErrInterrupt>:
 198:	8a 28 00    	nop       
Disassembly of section .aivt._AltU2RXInterrupt:

00000150 <.aivt._AltU2RXInterrupt>:
 150:	8a 28 00    	nop       
Disassembly of section .aivt._AltU2TXInterrupt:

00000152 <.aivt._AltU2TXInterrupt>:
 152:	8a 28 00    	nop       
Disassembly of section .aivt._AltU3ErrInterrupt:

000001b6 <.aivt._AltU3ErrInterrupt>:
 1b6:	8a 28 00    	nop       
Disassembly of section .aivt._AltU3RXInterrupt:

000001b8 <.aivt._AltU3RXInterrupt>:
 1b8:	8a 28 00    	nop       
Disassembly of section .aivt._AltU3TXInterrupt:

000001ba <.aivt._AltU3TXInterrupt>:
 1ba:	8a 28 00    	nop       
Disassembly of section .aivt._AltU4ErrInterrupt:

000001c2 <.aivt._AltU4ErrInterrupt>:
 1c2:	8a 28 00    	nop       
Disassembly of section .aivt._AltU4RXInterrupt:

000001c4 <.aivt._AltU4RXInterrupt>:
 1c4:	8a 28 00    	nop       
Disassembly of section .aivt._AltU4TXInterrupt:

000001c6 <.aivt._AltU4TXInterrupt>:
 1c6:	8a 28 00    	nop       
Disassembly of section .aivt._AltUSB1Interrupt:

000001c0 <.aivt._AltUSB1Interrupt>:
 1c0:	8a 28 00    	nop       
Disassembly of section .reset:

00000000 <.reset>:
   0:	10 11 04    	goto      0x1110 <__reset>
   2:	00 00 00 
Disassembly of section .text:

00001110 <__reset>:
    1110:	4f c3 20    	mov.w     #0xc34, w15
    1112:	0e ff 27    	mov.w     #0x7ff0, w14
    1114:	0e 01 88    	mov.w     w14, 0x20
    1116:	00 00 00    	nop       
    1118:	00 00 20    	mov.w     #0x0, w0
    111a:	00 00 e0    	cp0.w     w0
    111c:	02 00 32    	bra       Z, 0x1122 <CORCON_RESET>
    111e:	00 01 20    	mov.w     #0x10, w0
    1120:	20 02 88    	mov.w     w0, 0x44

00001122 <CORCON_RESET>:
    1122:	14 00 07    	rcall     0x114c <__psv_init>
    1124:	7f 00 07    	rcall     0x1224 <__crt_start_mode> <__crt_start_mode_normal>
    1126:	00 00 e0    	cp0.w     w0
    1128:	03 00 3a    	bra       NZ, 0x1130 <L11>
    112a:	a0 86 22    	mov.w     #0x286a, w0
    112c:	01 00 20    	mov.w     #0x0, w1
    112e:	02 00 37    	bra       0x1134 <L21>

00001130 <L11>:
    1130:	00 00 20    	mov.w     #0x0, w0
    1132:	01 00 20    	mov.w     #0x0, w1

00001134 <L21>:
    1134:	81 0f 70    	ior.w     w0, w1, [w15]
    1136:	01 00 32    	bra       Z, 0x113a <L12>
    1138:	14 00 07    	rcall     0x1162 <__data_init> <__data_init_da>

0000113a <L12>:
    113a:	00 00 20    	mov.w     #0x0, w0
    113c:	00 00 e0    	cp0.w     w0
    113e:	02 00 32    	bra       Z, 0x1144 <L13>
    1140:	00 00 02    	call      0x0 <__DEFAULT_VECTOR-0x110c>
    1142:	00 00 00 

00001144 <L13>:
    1144:	fa 16 02    	call      0x16fa <_main>
    1146:	00 00 00 
    1148:	00 40 da    	break     
    114a:	00 00 fe    	reset     

0000114c <__psv_init>:
    114c:	44 40 a9    	bclr.b    0x44, #0x2
    114e:	80 12 20    	mov.w     #0x128, w0
    1150:	00 00 e0    	cp0.w     w0
    1152:	03 00 32    	bra       Z, 0x115a <L14>
    1154:	00 20 20    	mov.w     #0x200, w0
    1156:	90 01 88    	mov.w     w0, 0x32
    1158:	44 40 a8    	bset.b    0x44, #0x2

0000115a <L14>:
    115a:	00 00 06    	return    

0000115c <__long_indirect_call>:
    115c:	8a 1f 78    	mov.w     w10, [w15++]
    115e:	8b 1f 78    	mov.w     w11, [w15++]
    1160:	00 00 06    	return    

00001162 <__data_init>:
    1162:	a1 02 88    	mov.w     w1, 0x54
    1164:	80 04 78    	mov.w     w0, w9
    1166:	00 00 eb    	clr.w     w0
    1168:	1f 00 37    	bra       0x11a8 <L41>

0000116a <L11>:
    116a:	e2 84 44    	add.w     w9, #0x2, w9
    116c:	54 a0 b4    	addc.w    0x54
    116e:	99 05 ba    	tblrdl.w  [w9], w11
    1170:	e2 84 44    	add.w     w9, #0x2, w9
    1172:	54 a0 b4    	addc.w    0x54
    1174:	99 06 ba    	tblrdl.w  [w9], w13
    1176:	e2 84 44    	add.w     w9, #0x2, w9
    1178:	54 a0 b4    	addc.w    0x54
    117a:	00 06 eb    	clr.w     w12
    117c:	47 6f de    	lsr.w     w13, #0x7, w14
    117e:	fd 07 b2    	and.w     #0x7f, w13
    1180:	ae 01 88    	mov.w     w14, 0x34
    1182:	63 6c e1    	cp.b      w13, #0x3
    1184:	03 00 3a    	bra       NZ, 0x118c <L21>
    1186:	ea ff 07    	rcall     0x115c <__long_indirect_call>
    1188:	00 00 eb    	clr.w     w0
    118a:	0e 00 37    	bra       0x11a8 <L41>

0000118c <L21>:
    118c:	60 6c e1    	cp.b      w13, #0x0
    118e:	08 00 3a    	bra       NZ, 0x11a0 <L22>

00001190 <L91>:
    1190:	00 4d eb    	clr.b     [w10]
    1192:	0a 05 e8    	inc.w     w10, w10
    1194:	02 00 39    	bra       NC, 0x119a <L81>
    1196:	34 20 ec    	inc.w     0x34
    1198:	0a f0 a0    	bset.w    w10, #0xf

0000119a <L81>:
    119a:	8b 05 e9    	dec.w     w11, w11
    119c:	f9 ff 3e    	bra       GTU, 0x1190 <L91>
    119e:	04 00 37    	bra       0x11a8 <L41>

000011a0 <L22>:
    11a0:	61 68 e1    	cp.w      w13, #0x1
    11a2:	01 00 32    	bra       Z, 0x11a6 <L31>
    11a4:	00 86 eb    	setm.w    w12

000011a6 <L31>:
    11a6:	0b 00 07    	rcall     0x11be <L13> <__memcpyd3extended>

000011a8 <L41>:
    11a8:	19 c7 ba    	tblrdh.b  [w9], w14
    11aa:	19 05 ba    	tblrdl.w  [w9], w10
    11ac:	0e 04 e0    	cp0.b     w14
    11ae:	03 00 3a    	bra       NZ, 0x11b6 <L12>
    11b0:	0a 00 e0    	cp0.w     w10
    11b2:	db ff 3a    	bra       NZ, 0x116a <L11>
    11b4:	00 00 06    	return    

000011b6 <L12>:
    11b6:	fe 07 b2    	and.w     #0x7f, w14
    11b8:	ae 02 88    	mov.w     w14, 0x54
    11ba:	8a 04 78    	mov.w     w10, w9
    11bc:	f5 ff 37    	bra       0x11a8 <L41>

000011be <L13>:
    11be:	0c d0 a3    	btst.c    w12, #0xd
    11c0:	e2 0f 4d    	addc.w    w10, #0x2, [w15]
    11c2:	1c 00 39    	bra       NC, 0x11fc <L23>
    11c4:	89 02 78    	mov.w     w9, w5
    11c6:	35 4d ba    	tblrdl.b  [w5++], [w10]
    11c8:	0a 05 e8    	inc.w     w10, w10
    11ca:	02 00 39    	bra       NC, 0x11d0 <L32>
    11cc:	34 20 ec    	inc.w     0x34
    11ce:	0a f0 a0    	bset.w    w10, #0xf

000011d0 <L32>:
    11d0:	8b 05 e9    	dec.w     w11, w11
    11d2:	0f 00 32    	bra       Z, 0x11f2 <L42>
    11d4:	25 4d ba    	tblrdl.b  [w5--], [w10]
    11d6:	0a 05 e8    	inc.w     w10, w10
    11d8:	02 00 39    	bra       NC, 0x11de <L33>
    11da:	34 20 ec    	inc.w     0x34
    11dc:	0a f0 a0    	bset.w    w10, #0xf

000011de <L33>:
    11de:	8b 05 e9    	dec.w     w11, w11
    11e0:	08 00 32    	bra       Z, 0x11f2 <L42>
    11e2:	0c 00 e0    	cp0.w     w12
    11e4:	06 00 32    	bra       Z, 0x11f2 <L42>
    11e6:	15 cd ba    	tblrdh.b  [w5], [w10]
    11e8:	0a 05 e8    	inc.w     w10, w10
    11ea:	02 00 39    	bra       NC, 0x11f0 <L34>
    11ec:	34 20 ec    	inc.w     0x34
    11ee:	0a f0 a0    	bset.w    w10, #0xf

000011f0 <L34>:
    11f0:	8b 05 e9    	dec.w     w11, w11

000011f2 <L42>:
    11f2:	89 84 e8    	inc2.w    w9, w9
    11f4:	54 a0 b4    	addc.w    0x54
    11f6:	0b 00 e0    	cp0.w     w11
    11f8:	e2 ff 3a    	bra       NZ, 0x11be <L13> <__memcpyd3extended>
    11fa:	00 00 06    	return    

000011fc <L23>:
    11fc:	99 02 ba    	tblrdl.w  [w9], w5
    11fe:	05 5d 78    	mov.b     w5, [w10++]
    1200:	8b 05 e9    	dec.w     w11, w11
    1202:	f7 ff 32    	bra       Z, 0x11f2 <L42>
    1204:	c8 2a de    	lsr.w     w5, #0x8, w5
    1206:	05 5d 78    	mov.b     w5, [w10++]
    1208:	8b 05 e9    	dec.w     w11, w11
    120a:	f3 ff 32    	bra       Z, 0x11f2 <L42>
    120c:	0c 00 e0    	cp0.w     w12
    120e:	f1 ff 32    	bra       Z, 0x11f2 <L42>
    1210:	19 dd ba    	tblrdh.b  [w9], [w10++]
    1212:	ee ff 37    	bra       0x11f0 <L34>

00001214 <.handle>:
    1214:	2e 18 04    	goto      0x182e <_idle>
    1216:	00 00 00 
    1218:	5e 18 04    	goto      0x185e <_run>
    121a:	00 00 00 
    121c:	a6 1a 04    	goto      0x1aa6 <_end_fail>
    121e:	00 00 00 
    1220:	72 1b 04    	goto      0x1b72 <_end_win>
    1222:	00 00 00 

00001224 <__crt_start_mode>:
    1224:	00 00 05    	retlw.w   #0x0, w0

00001226 <___subsf3>:
    1226:	03 f0 a2    	btg.w     w3, #0xf

00001228 <___addsf3>:
    1228:	88 9f be    	mov.d     w8, [w15++]
    122a:	8a 9f be    	mov.d     w10, [w15++]
    122c:	8c 1f 78    	mov.w     w12, [w15++]
    122e:	f6 00 07    	rcall     0x141c <__funpack2>
    1230:	fd 00 33    	bra       N, 0x142c <__fPropagateNaN>
    1232:	64 50 e1    	cp.w      w10, #0x4
    1234:	4f 00 32    	bra       Z, 0x12d4 <aisinfinite>

00001236 <checkspecialb>:
    1236:	64 20 e1    	cp.w      w4, #0x4
    1238:	52 00 32    	bra       Z, 0x12de <return2>
    123a:	03 82 6c    	xor.w     w9, w3, w4
    123c:	07 00 3b    	bra       NN, 0x124c <getsign>
    123e:	09 05 d0    	sl.w      w9, w10
    1240:	03 06 d0    	sl.w      w3, w12
    1242:	82 0f 54    	sub.w     w8, w2, [w15]
    1244:	0c 06 5d    	subb.w    w10, w12, w12
    1246:	02 00 39    	bra       NC, 0x124c <getsign>
    1248:	02 00 32    	bra       Z, 0x124e <gotsign>
    124a:	89 01 78    	mov.w     w9, w3

0000124c <getsign>:
    124c:	03 06 78    	mov.w     w3, w12

0000124e <gotsign>:
    124e:	85 82 55    	sub.w     w11, w5, w5
    1250:	04 00 3d    	bra       GE, 0x125a <expcanonical>
    1252:	00 03 fd    	exch      w0, w6
    1254:	81 03 fd    	exch      w1, w7
    1256:	85 02 ea    	neg.w     w5, w5
    1258:	8b 85 42    	add.w     w5, w11, w11

0000125a <expcanonical>:
    125a:	84 0f 72    	ior.w     w4, w4, [w15]
    125c:	02 00 3b    	bra       NN, 0x1262 <nonegate>
    125e:	60 00 10    	subr.w    w0, #0x0, w0
    1260:	e0 80 18    	subbr.w   w1, #0x0, w1

00001262 <nonegate>:
    1262:	60 11 b8    	mul.uu    w2, #0x0, w2
    1264:	00 05 eb    	clr.w     w10
    1266:	7a 28 e1    	cp.w      w5, #0x1a
    1268:	0a 00 39    	bra       NC, 0x127e <aligniter>
    126a:	06 00 78    	mov.w     w6, w0
    126c:	c7 5d dd    	sl.w      w11, #0x7, w11
    126e:	f7 07 b2    	and.w     #0x7f, w7
    1270:	87 80 75    	ior.w     w11, w7, w1
    1272:	2d 00 37    	bra       0x12ce <signoff>

00001274 <align>:
    1274:	82 81 71    	ior.w     w3, w2, w3
    1276:	0a 01 78    	mov.w     w10, w2
    1278:	61 05 60    	and.w     w0, #0x1, w10
    127a:	81 80 d1    	asr.w     w1, w1
    127c:	00 80 d3    	rrc.w     w0, w0

0000127e <aligniter>:
    127e:	85 02 e9    	dec.w     w5, w5
    1280:	f9 ff 3b    	bra       NN, 0x1274 <align>

00001282 <aligned>:
    1282:	06 04 40    	add.w     w0, w6, w8
    1284:	87 84 48    	addc.w    w1, w7, w9
    1286:	02 00 3b    	bra       NN, 0x128c <normalizesum>
    1288:	60 04 14    	subr.w    w8, #0x0, w8
    128a:	e0 84 1c    	subbr.w   w9, #0x0, w9

0000128c <normalizesum>:
    128c:	09 88 a3    	btst.z    w9, #0x8
    128e:	07 00 32    	bra       Z, 0x129e <checknormal>
    1290:	8a 81 71    	ior.w     w3, w10, w3
    1292:	82 81 71    	ior.w     w3, w2, w3
    1294:	61 01 64    	and.w     w8, #0x1, w2
    1296:	89 04 d1    	lsr.w     w9, w9
    1298:	08 84 d3    	rrc.w     w8, w8
    129a:	8b 05 e8    	inc.w     w11, w11
    129c:	17 00 37    	bra       0x12cc <round>

0000129e <checknormal>:
    129e:	09 78 a3    	btst.z    w9, #0x7
    12a0:	13 00 3a    	bra       NZ, 0x12c8 <discardguard>

000012a2 <underflow>:
    12a2:	0b 00 e0    	cp0.w     w11
    12a4:	13 00 34    	bra       LE, 0x12cc <round>
    12a6:	8b 05 e9    	dec.w     w11, w11
    12a8:	08 04 44    	add.w     w8, w8, w8
    12aa:	89 84 4c    	addc.w    w9, w9, w9
    12ac:	0a 44 74    	ior.b     w8, w10, w8
    12ae:	09 78 a3    	btst.z    w9, #0x7
    12b0:	0d 00 3a    	bra       NZ, 0x12cc <round>

000012b2 <normalizeloop>:
    12b2:	0b 00 e0    	cp0.w     w11
    12b4:	07 00 34    	bra       LE, 0x12c4 <normalizeexit>
    12b6:	8b 05 e9    	dec.w     w11, w11
    12b8:	08 04 44    	add.w     w8, w8, w8
    12ba:	89 84 4c    	addc.w    w9, w9, w9
    12bc:	01 00 3a    	bra       NZ, 0x12c0 <normalizetest>
    12be:	0b 00 20    	mov.w     #0x0, w11

000012c0 <normalizetest>:
    12c0:	09 78 a3    	btst.z    w9, #0x7
    12c2:	f7 ff 32    	bra       Z, 0x12b2 <normalizeloop>

000012c4 <normalizeexit>:
    12c4:	00 01 eb    	clr.w     w2
    12c6:	02 00 37    	bra       0x12cc <round>

000012c8 <discardguard>:
    12c8:	82 81 71    	ior.w     w3, w2, w3
    12ca:	0a 01 78    	mov.w     w10, w2

000012cc <round>:
    12cc:	6c 00 07    	rcall     0x13a6 <__fpack>

000012ce <signoff>:
    12ce:	0c f0 a7    	btsc.w    w12, #0xf
    12d0:	01 f0 a0    	bset.w    w1, #0xf
    12d2:	b5 00 37    	bra       0x143e <__fbopExit>

000012d4 <aisinfinite>:
    12d4:	64 20 e1    	cp.w      w4, #0x4
    12d6:	02 00 3a    	bra       NZ, 0x12dc <return8>
    12d8:	83 8f 6c    	xor.w     w9, w3, [w15]
    12da:	b5 00 33    	bra       N, 0x1446 <__fbopReturnNaN>

000012dc <return8>:
    12dc:	08 01 be    	mov.d     w8, w2

000012de <return2>:
    12de:	02 00 be    	mov.d     w2, w0
    12e0:	ae 00 37    	bra       0x143e <__fbopExit>

000012e2 <___divsf3>:
    12e2:	88 9f be    	mov.d     w8, [w15++]
    12e4:	8a 9f be    	mov.d     w10, [w15++]
    12e6:	8c 1f 78    	mov.w     w12, [w15++]
    12e8:	99 00 07    	rcall     0x141c <__funpack2>
    12ea:	a0 00 33    	bra       N, 0x142c <__fPropagateNaN>
    12ec:	03 86 6c    	xor.w     w9, w3, w12
    12ee:	64 50 e1    	cp.w      w10, #0x4
    12f0:	2e 00 32    	bra       Z, 0x134e <aisinfinite>
    12f2:	64 20 e1    	cp.w      w4, #0x4
    12f4:	33 00 32    	bra       Z, 0x135c <returnZero>
    12f6:	61 50 e1    	cp.w      w10, #0x1
    12f8:	2f 00 32    	bra       Z, 0x1358 <aiszero>
    12fa:	61 20 e1    	cp.w      w4, #0x1
    12fc:	31 00 32    	bra       Z, 0x1360 <returnInf>

000012fe <finitenonzero>:
    12fe:	85 85 55    	sub.w     w11, w5, w11
    1300:	eb 07 b0    	add.w     #0x7e, w11
    1302:	09 00 20    	mov.w     #0x0, w9
    1304:	08 04 20    	mov.w     #0x40, w8
    1306:	05 00 37    	bra       0x1312 <diventry>

00001308 <divnext>:
    1308:	08 04 44    	add.w     w8, w8, w8
    130a:	89 84 4c    	addc.w    w9, w9, w9
    130c:	0a 00 31    	bra       C, 0x1322 <divdone> <formsticky>

0000130e <divloop>:
    130e:	06 03 43    	add.w     w6, w6, w6
    1310:	87 83 4b    	addc.w    w7, w7, w7

00001312 <diventry>:
    1312:	00 01 53    	sub.w     w6, w0, w2
    1314:	81 81 5b    	subb.w    w7, w1, w3
    1316:	f8 ff 33    	bra       N, 0x1308 <divnext>
    1318:	02 03 be    	mov.d     w2, w6
    131a:	08 00 a0    	bset.w    w8, #0x0
    131c:	08 04 44    	add.w     w8, w8, w8
    131e:	89 84 4c    	addc.w    w9, w9, w9
    1320:	f6 ff 39    	bra       NC, 0x130e <divloop>

00001322 <divdone>:
    1322:	c6 39 dd    	sl.w      w7, #0x6, w3
    1324:	83 01 73    	ior.w     w6, w3, w3
    1326:	01 00 32    	bra       Z, 0x132a <stickyok>
    1328:	13 00 20    	mov.w     #0x1, w3

0000132a <stickyok>:
    132a:	89 04 d1    	lsr.w     w9, w9
    132c:	08 84 d3    	rrc.w     w8, w8
    132e:	09 98 a3    	btst.z    w9, #0x9
    1330:	05 00 32    	bra       Z, 0x133c <guardused>
    1332:	08 00 a7    	btsc.w    w8, #0x0
    1334:	03 00 a0    	bset.w    w3, #0x0
    1336:	89 04 d1    	lsr.w     w9, w9
    1338:	08 84 d3    	rrc.w     w8, w8
    133a:	8b 05 e8    	inc.w     w11, w11

0000133c <guardused>:
    133c:	89 04 d1    	lsr.w     w9, w9
    133e:	08 84 d3    	rrc.w     w8, w8
    1340:	00 01 eb    	clr.w     w2
    1342:	02 81 d2    	rlc.w     w2, w2
    1344:	30 00 07    	rcall     0x13a6 <__fpack>

00001346 <return0>:
    1346:	01 f0 a1    	bclr.w    w1, #0xf
    1348:	0c f0 a7    	btsc.w    w12, #0xf
    134a:	01 f0 a0    	bset.w    w1, #0xf
    134c:	78 00 37    	bra       0x143e <__fbopExit>

0000134e <aisinfinite>:
    134e:	64 20 e1    	cp.w      w4, #0x4
    1350:	7a 00 32    	bra       Z, 0x1446 <__fbopReturnNaN>

00001352 <return8>:
    1352:	08 01 be    	mov.d     w8, w2

00001354 <return2>:
    1354:	02 00 be    	mov.d     w2, w0
    1356:	f7 ff 37    	bra       0x1346 <return0>

00001358 <aiszero>:
    1358:	61 20 e1    	cp.w      w4, #0x1
    135a:	75 00 32    	bra       Z, 0x1446 <__fbopReturnNaN>

0000135c <returnZero>:
    135c:	60 00 b8    	mul.uu    w0, #0x0, w0
    135e:	f3 ff 37    	bra       0x1346 <return0>

00001360 <returnInf>:
    1360:	00 00 20    	mov.w     #0x0, w0
    1362:	01 f8 27    	mov.w     #0x7f80, w1
    1364:	f0 ff 37    	bra       0x1346 <return0>

00001366 <___eqsf2>:
    1366:	14 00 20    	mov.w     #0x1, w4
    1368:	b8 00 37    	bra       0x14da <__fcompare>

0000136a <___fixunssfsi>:
    136a:	00 01 be    	mov.d     w0, w2
    136c:	42 00 07    	rcall     0x13f2 <__funpack>
    136e:	04 70 a7    	btsc.w    w4, #0x7
    1370:	03 f0 a1    	bclr.w    w3, #0xf
    1372:	03 f8 a3    	btst.z    w3, #0xf
    1374:	13 00 3a    	bra       NZ, 0x139c <returnzero>
    1376:	65 09 b1    	sub.w     #0x96, w5
    1378:	10 00 32    	bra       Z, 0x139a <exit>
    137a:	09 00 35    	bra       LT, 0x138e <shiftright>
    137c:	69 28 e1    	cp.w      w5, #0x9
    137e:	02 00 35    	bra       LT, 0x1384 <shiftleft>
    1380:	01 00 28    	mov.w     #0x8000, w1
    1382:	00 00 05    	retlw.w   #0x0, w0

00001384 <shiftleft>:
    1384:	00 00 40    	add.w     w0, w0, w0
    1386:	81 80 48    	addc.w    w1, w1, w1
    1388:	85 02 e9    	dec.w     w5, w5
    138a:	fc ff 3a    	bra       NZ, 0x1384 <shiftleft>
    138c:	00 00 06    	return    

0000138e <shiftright>:
    138e:	f8 8f 42    	add.w     w5, #0x18, [w15]
    1390:	05 00 35    	bra       LT, 0x139c <returnzero>

00001392 <shiftrightloop>:
    1392:	81 00 d1    	lsr.w     w1, w1
    1394:	00 80 d3    	rrc.w     w0, w0
    1396:	85 02 e8    	inc.w     w5, w5
    1398:	fc ff 3a    	bra       NZ, 0x1392 <shiftrightloop>

0000139a <exit>:
    139a:	00 00 06    	return    

0000139c <returnzero>:
    139c:	80 00 eb    	clr.w     w1
    139e:	00 00 05    	retlw.w   #0x0, w0

000013a0 <___floatsisf>:
    13a0:	4f 89 de    	asr.w     w1, #0xf, w2
    13a2:	82 01 78    	mov.w     w2, w3
    13a4:	b5 00 37    	bra       0x1510 <___floatdisf>

000013a6 <__fpack>:
    13a6:	81 00 20    	mov.w     #0x8, w1
    13a8:	61 80 55    	sub.w     w11, #0x1, w0
    13aa:	0b 00 3d    	bra       GE, 0x13c2 <notsubnormal>
    13ac:	0b 00 20    	mov.w     #0x0, w11
    13ae:	61 fe 2f    	mov.w     #0xffe6, w1
    13b0:	01 00 e1    	cp.w      w0, w1
    13b2:	1d 00 34    	bra       LE, 0x13ee <zerosig>

000013b4 <subnormal>:
    13b4:	82 81 71    	ior.w     w3, w2, w3
    13b6:	61 01 64    	and.w     w8, #0x1, w2
    13b8:	89 04 d1    	lsr.w     w9, w9
    13ba:	08 84 d3    	rrc.w     w8, w8
    13bc:	00 00 e8    	inc.w     w0, w0
    13be:	fa ff 3a    	bra       NZ, 0x13b4 <subnormal>
    13c0:	71 00 20    	mov.w     #0x7, w1

000013c2 <notsubnormal>:
    13c2:	61 00 64    	and.w     w8, #0x1, w0
    13c4:	03 00 70    	ior.w     w0, w3, w0
    13c6:	02 00 60    	and.w     w0, w2, w0
    13c8:	09 00 32    	bra       Z, 0x13dc <packupandgo>
    13ca:	61 04 44    	add.w     w8, #0x1, w8
    13cc:	e0 84 4c    	addc.w    w9, #0x0, w9
    13ce:	09 88 a5    	btst.z    w9, w1
    13d0:	05 00 32    	bra       Z, 0x13dc <packupandgo>
    13d2:	8b 05 e8    	inc.w     w11, w11
    13d4:	68 08 e1    	cp.w      w1, #0x8
    13d6:	02 00 3a    	bra       NZ, 0x13dc <packupandgo>
    13d8:	89 04 d1    	lsr.w     w9, w9
    13da:	08 84 d3    	rrc.w     w8, w8

000013dc <packupandgo>:
    13dc:	f2 0f 20    	mov.w     #0xff, w2
    13de:	02 58 e1    	cp.w      w11, w2
    13e0:	05 00 3d    	bra       GE, 0x13ec <overflow>
    13e2:	c7 5d dd    	sl.w      w11, #0x7, w11
    13e4:	f9 07 b2    	and.w     #0x7f, w9
    13e6:	89 80 75    	ior.w     w11, w9, w1
    13e8:	08 00 78    	mov.w     w8, w0
    13ea:	00 00 06    	return    

000013ec <overflow>:
    13ec:	0b f8 27    	mov.w     #0x7f80, w11

000013ee <zerosig>:
    13ee:	8b 00 78    	mov.w     w11, w1
    13f0:	00 00 05    	retlw.w   #0x0, w0

000013f2 <__funpack>:
    13f2:	c7 0a de    	lsr.w     w1, #0x7, w5
    13f4:	f1 07 b2    	and.w     #0x7f, w1
    13f6:	f5 0f b2    	and.w     #0xff, w5
    13f8:	08 00 32    	bra       Z, 0x140a <zeroorsub>
    13fa:	e1 cf 42    	add.b     w5, #0x1, [w15]
    13fc:	02 00 32    	bra       Z, 0x1402 <nanorinf>

000013fe <finitereturn>:
    13fe:	01 70 a0    	bset.w    w1, #0x7
    1400:	24 00 05    	retlw.w   #0x2, w4

00001402 <nanorinf>:
    1402:	81 0f 70    	ior.w     w0, w1, [w15]
    1404:	01 00 32    	bra       Z, 0x1408 <infinite>
    1406:	04 08 05    	retlw.w   #0x80, w4

00001408 <infinite>:
    1408:	44 00 05    	retlw.w   #0x4, w4

0000140a <zeroorsub>:
    140a:	81 0f 70    	ior.w     w0, w1, [w15]
    140c:	02 00 3a    	bra       NZ, 0x1412 <subnormal>
    140e:	14 00 05    	retlw.w   #0x1, w4

00001410 <normalize>:
    1410:	85 02 e9    	dec.w     w5, w5

00001412 <subnormal>:
    1412:	00 00 40    	add.w     w0, w0, w0
    1414:	81 c0 48    	addc.b    w1, w1, w1
    1416:	fc ff 3b    	bra       NN, 0x1410 <normalize>
    1418:	01 70 a0    	bset.w    w1, #0x7
    141a:	24 00 05    	retlw.w   #0x2, w4

0000141c <__funpack2>:
    141c:	00 04 be    	mov.d     w0, w8
    141e:	e9 ff 07    	rcall     0x13f2 <__funpack>
    1420:	00 03 be    	mov.d     w0, w6
    1422:	04 05 be    	mov.d     w4, w10
    1424:	02 00 be    	mov.d     w2, w0
    1426:	e5 ff 07    	rcall     0x13f2 <__funpack>
    1428:	84 4f 75    	ior.b     w10, w4, [w15]
    142a:	00 00 06    	return    

0000142c <__fPropagateNaN>:
    142c:	02 00 be    	mov.d     w2, w0
    142e:	64 50 e1    	cp.w      w10, #0x4
    1430:	05 00 36    	bra       LEU, 0x143c <return0>
    1432:	64 20 e1    	cp.w      w4, #0x4
    1434:	02 00 36    	bra       LEU, 0x143a <return8>
    1436:	09 68 a3    	btst.z    w9, #0x6
    1438:	01 00 3a    	bra       NZ, 0x143c <return0>

0000143a <return8>:
    143a:	08 00 be    	mov.d     w8, w0

0000143c <return0>:
    143c:	01 60 a0    	bset.w    w1, #0x6

0000143e <__fbopExit>:
    143e:	4f 06 78    	mov.w     [--w15], w12
    1440:	4f 05 be    	mov.d     [--w15], w10
    1442:	4f 04 be    	mov.d     [--w15], w8
    1444:	00 00 06    	return    

00001446 <__fbopReturnNaN>:
    1446:	f0 ff 2f    	mov.w     #0xffff, w0
    1448:	f1 ff 27    	mov.w     #0x7fff, w1
    144a:	f9 ff 37    	bra       0x143e <__fbopExit>

0000144c <___mulsf3>:
    144c:	88 9f be    	mov.d     w8, [w15++]
    144e:	8a 9f be    	mov.d     w10, [w15++]
    1450:	8c 1f 78    	mov.w     w12, [w15++]
    1452:	e4 ff 07    	rcall     0x141c <__funpack2>
    1454:	eb ff 33    	bra       N, 0x142c <__fPropagateNaN>
    1456:	03 86 6c    	xor.w     w9, w3, w12
    1458:	64 50 e1    	cp.w      w10, #0x4
    145a:	24 00 32    	bra       Z, 0x14a4 <aisinfinite>
    145c:	64 20 e1    	cp.w      w4, #0x4
    145e:	27 00 32    	bra       Z, 0x14ae <bisinfinite>
    1460:	61 50 e1    	cp.w      w10, #0x1
    1462:	22 00 32    	bra       Z, 0x14a8 <return8>
    1464:	61 20 e1    	cp.w      w4, #0x1
    1466:	21 00 32    	bra       Z, 0x14aa <return2>
    1468:	8b 85 42    	add.w     w5, w11, w11
    146a:	eb 07 b1    	sub.w     #0x7e, w11
    146c:	01 34 b8    	mul.uu    w6, w1, w8
    146e:	00 3a b8    	mul.uu    w7, w0, w4
    1470:	08 04 42    	add.w     w4, w8, w8
    1472:	89 84 4a    	addc.w    w5, w9, w9
    1474:	01 3a b8    	mul.uu    w7, w1, w4
    1476:	00 30 b8    	mul.uu    w6, w0, w0
    1478:	88 80 40    	add.w     w1, w8, w1
    147a:	09 01 4a    	addc.w    w4, w9, w2
    147c:	04 00 33    	bra       N, 0x1486 <formsticky>
    147e:	00 00 40    	add.w     w0, w0, w0
    1480:	81 80 48    	addc.w    w1, w1, w1
    1482:	02 01 49    	addc.w    w2, w2, w2
    1484:	8b 05 e9    	dec.w     w11, w11

00001486 <formsticky>:
    1486:	c9 09 dd    	sl.w      w1, #0x9, w3
    1488:	83 01 70    	ior.w     w0, w3, w3
    148a:	01 00 32    	bra       Z, 0x148e <formRandSig>
    148c:	13 00 20    	mov.w     #0x1, w3

0000148e <formRandSig>:
    148e:	c8 14 de    	lsr.w     w2, #0x8, w9
    1490:	48 14 dd    	sl.w      w2, #0x8, w8
    1492:	47 09 de    	lsr.w     w1, #0x7, w2
    1494:	12 00 b2    	and.w     #0x1, w2
    1496:	c8 08 de    	lsr.w     w1, #0x8, w1
    1498:	08 84 70    	ior.w     w1, w8, w8
    149a:	85 ff 07    	rcall     0x13a6 <__fpack>

0000149c <return0>:
    149c:	01 f0 a1    	bclr.w    w1, #0xf
    149e:	0c f0 a7    	btsc.w    w12, #0xf
    14a0:	01 f0 a0    	bset.w    w1, #0xf
    14a2:	cd ff 37    	bra       0x143e <__fbopExit>

000014a4 <aisinfinite>:
    14a4:	61 20 e1    	cp.w      w4, #0x1
    14a6:	cf ff 32    	bra       Z, 0x1446 <__fbopReturnNaN>

000014a8 <return8>:
    14a8:	08 01 be    	mov.d     w8, w2

000014aa <return2>:
    14aa:	02 00 be    	mov.d     w2, w0
    14ac:	f7 ff 37    	bra       0x149c <return0>

000014ae <bisinfinite>:
    14ae:	61 50 e1    	cp.w      w10, #0x1
    14b0:	fc ff 3a    	bra       NZ, 0x14aa <return2>
    14b2:	c9 ff 37    	bra       0x1446 <__fbopReturnNaN>

000014b4 <___udivsi3>:
    14b4:	60 22 b8    	mul.uu    w4, #0x0, w4
    14b6:	06 02 20    	mov.w     #0x20, w6

000014b8 <nextbit>:
    14b8:	00 00 d0    	sl.w      w0, w0
    14ba:	81 80 d2    	rlc.w     w1, w1
    14bc:	04 82 d2    	rlc.w     w4, w4
    14be:	85 82 d2    	rlc.w     w5, w5
    14c0:	00 00 a0    	bset.w    w0, #0x0
    14c2:	02 02 52    	sub.w     w4, w2, w4
    14c4:	83 82 5a    	subb.w    w5, w3, w5
    14c6:	03 00 31    	bra       C, 0x14ce <iterate>
    14c8:	02 02 42    	add.w     w4, w2, w4
    14ca:	83 82 4a    	addc.w    w5, w3, w5
    14cc:	00 00 a1    	bclr.w    w0, #0x0

000014ce <iterate>:
    14ce:	06 03 e9    	dec.w     w6, w6
    14d0:	f3 ff 3a    	bra       NZ, 0x14b8 <nextbit>
    14d2:	00 00 06    	return    

000014d4 <___umodsi3>:
    14d4:	ef ff 07    	rcall     0x14b4 <___udivsi3>
    14d6:	04 00 be    	mov.d     w4, w0
    14d8:	00 00 06    	return    

000014da <__fcompare>:
    14da:	88 9f be    	mov.d     w8, [w15++]
    14dc:	8a 9f be    	mov.d     w10, [w15++]
    14de:	84 1f 78    	mov.w     w4, [w15++]
    14e0:	9d ff 07    	rcall     0x141c <__funpack2>
    14e2:	4f 00 78    	mov.w     [--w15], w0
    14e4:	11 00 33    	bra       N, 0x1508 <exit>
    14e6:	f0 ff 2f    	mov.w     #0xffff, w0
    14e8:	83 8f 6c    	xor.w     w9, w3, [w15]
    14ea:	06 00 3b    	bra       NN, 0x14f8 <comparemag>
    14ec:	04 05 65    	and.w     w10, w4, w10
    14ee:	0a 00 a7    	btsc.w    w10, #0x0
    14f0:	08 00 37    	bra       0x1502 <returnEqual>
    14f2:	09 f0 a6    	btss.w    w9, #0xf
    14f4:	10 00 20    	mov.w     #0x1, w0
    14f6:	08 00 37    	bra       0x1508 <exit>

000014f8 <comparemag>:
    14f8:	82 0f 54    	sub.w     w8, w2, [w15]
    14fa:	83 8f 5c    	subb.w    w9, w3, [w15]
    14fc:	03 00 39    	bra       NC, 0x1504 <adjust>
    14fe:	10 00 20    	mov.w     #0x1, w0
    1500:	01 00 3e    	bra       GTU, 0x1504 <adjust>

00001502 <returnEqual>:
    1502:	00 00 20    	mov.w     #0x0, w0

00001504 <adjust>:
    1504:	09 f0 a7    	btsc.w    w9, #0xf
    1506:	00 00 ea    	neg.w     w0, w0

00001508 <exit>:
    1508:	4f 05 be    	mov.d     [--w15], w10
    150a:	4f 04 be    	mov.d     [--w15], w8
    150c:	00 00 e0    	cp0.w     w0
    150e:	00 00 06    	return    

00001510 <___floatdisf>:
    1510:	88 1f 78    	mov.w     w8, [w15++]
    1512:	03 04 78    	mov.w     w3, w8
    1514:	03 00 e0    	cp0.w     w3
    1516:	07 00 3d    	bra       GE, 0x1526 <notspecial>

00001518 <negative>:
    1518:	60 00 10    	subr.w    w0, #0x0, w0
    151a:	e0 80 18    	subbr.w   w1, #0x0, w1
    151c:	60 01 19    	subbr.w   w2, #0x0, w2
    151e:	e0 81 19    	subbr.w   w3, #0x0, w3
    1520:	02 00 3b    	bra       NN, 0x1526 <notspecial>
    1522:	01 f0 2d    	mov.w     #0xdf00, w1
    1524:	03 00 37    	bra       0x152c <return0>

00001526 <notspecial>:
    1526:	04 00 07    	rcall     0x1530 <___floatundisf>
    1528:	08 f0 a7    	btsc.w    w8, #0xf
    152a:	01 f0 a0    	bset.w    w1, #0xf

0000152c <return0>:
    152c:	4f 04 78    	mov.w     [--w15], w8
    152e:	00 00 06    	return    

00001530 <___floatundisf>:
    1530:	88 9f be    	mov.d     w8, [w15++]
    1532:	8a 9f be    	mov.d     w10, [w15++]
    1534:	00 82 70    	ior.w     w1, w0, w4
    1536:	04 02 71    	ior.w     w2, w4, w4
    1538:	04 82 71    	ior.w     w3, w4, w4
    153a:	26 00 32    	bra       Z, 0x1588 <return0>
    153c:	00 04 be    	mov.d     w0, w8
    153e:	02 00 be    	mov.d     w2, w0
    1540:	60 11 b8    	mul.uu    w2, #0x0, w2
    1542:	6b 09 20    	mov.w     #0x96, w11
    1544:	95 02 20    	mov.w     #0x29, w5
    1546:	01 82 cf    	ff1l      w1, w4
    1548:	0a 00 39    	bra       NC, 0x155e <fixshift>
    154a:	05 41 b1    	sub.b     #0x10, w5
    154c:	00 82 cf    	ff1l      w0, w4
    154e:	07 00 39    	bra       NC, 0x155e <fixshift>
    1550:	05 41 b1    	sub.b     #0x10, w5
    1552:	09 82 cf    	ff1l      w9, w4
    1554:	04 00 39    	bra       NC, 0x155e <fixshift>
    1556:	05 41 b1    	sub.b     #0x10, w5
    1558:	08 82 cf    	ff1l      w8, w4
    155a:	01 00 39    	bra       NC, 0x155e <fixshift>
    155c:	05 41 b1    	sub.b     #0x10, w5

0000155e <fixshift>:
    155e:	05 42 52    	sub.b     w4, w5, w4
    1560:	12 00 32    	bra       Z, 0x1586 <round>
    1562:	0a 00 3b    	bra       NN, 0x1578 <shiftleft>

00001564 <shiftright>:
    1564:	82 81 71    	ior.w     w3, w2, w3
    1566:	61 01 64    	and.w     w8, #0x1, w2
    1568:	81 00 d1    	lsr.w     w1, w1
    156a:	00 80 d3    	rrc.w     w0, w0
    156c:	89 84 d3    	rrc.w     w9, w9
    156e:	08 84 d3    	rrc.w     w8, w8
    1570:	8b 05 e8    	inc.w     w11, w11
    1572:	04 42 e8    	inc.b     w4, w4
    1574:	f7 ff 3a    	bra       NZ, 0x1564 <shiftright>
    1576:	07 00 37    	bra       0x1586 <round>

00001578 <shiftleft>:
    1578:	08 04 44    	add.w     w8, w8, w8
    157a:	89 84 4c    	addc.w    w9, w9, w9
    157c:	00 00 48    	addc.w    w0, w0, w0
    157e:	81 80 48    	addc.w    w1, w1, w1
    1580:	8b 05 e9    	dec.w     w11, w11
    1582:	04 42 e9    	dec.b     w4, w4
    1584:	f9 ff 3a    	bra       NZ, 0x1578 <shiftleft>

00001586 <round>:
    1586:	0f ff 07    	rcall     0x13a6 <__fpack>

00001588 <return0>:
    1588:	4f 05 be    	mov.d     [--w15], w10
    158a:	4f 04 be    	mov.d     [--w15], w8
    158c:	00 00 06    	return    

0000158e <_memset>:
    158e:	80 01 78    	mov.w     w0, w3
    1590:	02 00 37    	bra       0x1596 <.L2>

00001592 <.L3>:
    1592:	81 59 78    	mov.b     w1, [w3++]
    1594:	02 01 e9    	dec.w     w2, w2

00001596 <.L2>:
    1596:	02 00 e0    	cp0.w     w2
    1598:	fc ff 3a    	bra       NZ, 0x1592 <.L3>
    159a:	00 00 06    	return    
Disassembly of section .application_ivt:

00001000 <__DEFAULT_VECTOR-0x10c>:
    1000:	10 11 04    	goto      0x1110 <__reset>
    1002:	00 00 00 
    1004:	8a 28 04    	goto      0x288a <__DefaultInterrupt>
    1006:	00 00 00 
    1008:	8a 28 04    	goto      0x288a <__DefaultInterrupt>
    100a:	00 00 00 
    100c:	8a 28 04    	goto      0x288a <__DefaultInterrupt>
    100e:	00 00 00 
    1010:	8a 28 04    	goto      0x288a <__DefaultInterrupt>
    1012:	00 00 00 
    1014:	8a 28 04    	goto      0x288a <__DefaultInterrupt>
    1016:	00 00 00 
    1018:	8a 28 04    	goto      0x288a <__DefaultInterrupt>
    101a:	00 00 00 
    101c:	8a 28 04    	goto      0x288a <__DefaultInterrupt>
    101e:	00 00 00 
    1020:	8a 28 04    	goto      0x288a <__DefaultInterrupt>
    1022:	00 00 00 
    1024:	f4 26 04    	goto      0x26f4 <__T1Interrupt>
    1026:	00 00 00 
    1028:	8a 28 04    	goto      0x288a <__DefaultInterrupt>
    102a:	00 00 00 
    102c:	8a 28 04    	goto      0x288a <__DefaultInterrupt>
    102e:	00 00 00 
    1030:	30 27 04    	goto      0x2730 <__T2Interrupt>
    1032:	00 00 00 
    1034:	8a 28 04    	goto      0x288a <__DefaultInterrupt>
    1036:	00 00 00 
    1038:	8a 28 04    	goto      0x288a <__DefaultInterrupt>
    103a:	00 00 00 
    103c:	8a 28 04    	goto      0x288a <__DefaultInterrupt>
    103e:	00 00 00 
    1040:	8a 28 04    	goto      0x288a <__DefaultInterrupt>
    1042:	00 00 00 
    1044:	8a 28 04    	goto      0x288a <__DefaultInterrupt>
    1046:	00 00 00 
    1048:	8a 28 04    	goto      0x288a <__DefaultInterrupt>
    104a:	00 00 00 
    104c:	8a 28 04    	goto      0x288a <__DefaultInterrupt>
    104e:	00 00 00 
    1050:	8a 28 04    	goto      0x288a <__DefaultInterrupt>
    1052:	00 00 00 
    1054:	8a 28 04    	goto      0x288a <__DefaultInterrupt>
    1056:	00 00 00 
    1058:	8a 28 04    	goto      0x288a <__DefaultInterrupt>
    105a:	00 00 00 
    105c:	8a 28 04    	goto      0x288a <__DefaultInterrupt>
    105e:	00 00 00 
    1060:	8a 28 04    	goto      0x288a <__DefaultInterrupt>
    1062:	00 00 00 
    1064:	8a 28 04    	goto      0x288a <__DefaultInterrupt>
    1066:	00 00 00 
    1068:	8a 28 04    	goto      0x288a <__DefaultInterrupt>
    106a:	00 00 00 
    106c:	8a 28 04    	goto      0x288a <__DefaultInterrupt>
    106e:	00 00 00 
    1070:	8a 28 04    	goto      0x288a <__DefaultInterrupt>
    1072:	00 00 00 
    1074:	8a 28 04    	goto      0x288a <__DefaultInterrupt>
    1076:	00 00 00 
    1078:	8a 28 04    	goto      0x288a <__DefaultInterrupt>
    107a:	00 00 00 
    107c:	8a 28 04    	goto      0x288a <__DefaultInterrupt>
    107e:	00 00 00 
    1080:	8a 28 04    	goto      0x288a <__DefaultInterrupt>
    1082:	00 00 00 
    1084:	8a 28 04    	goto      0x288a <__DefaultInterrupt>
    1086:	00 00 00 
    1088:	8a 28 04    	goto      0x288a <__DefaultInterrupt>
    108a:	00 00 00 
    108c:	8a 28 04    	goto      0x288a <__DefaultInterrupt>
    108e:	00 00 00 
    1090:	8a 28 04    	goto      0x288a <__DefaultInterrupt>
    1092:	00 00 00 
    1094:	8a 28 04    	goto      0x288a <__DefaultInterrupt>
    1096:	00 00 00 
    1098:	8a 28 04    	goto      0x288a <__DefaultInterrupt>
    109a:	00 00 00 
    109c:	8a 28 04    	goto      0x288a <__DefaultInterrupt>
    109e:	00 00 00 
    10a0:	8a 28 04    	goto      0x288a <__DefaultInterrupt>
    10a2:	00 00 00 
    10a4:	8a 28 04    	goto      0x288a <__DefaultInterrupt>
    10a6:	00 00 00 
    10a8:	8a 28 04    	goto      0x288a <__DefaultInterrupt>
    10aa:	00 00 00 
    10ac:	8a 28 04    	goto      0x288a <__DefaultInterrupt>
    10ae:	00 00 00 
    10b0:	8a 28 04    	goto      0x288a <__DefaultInterrupt>
    10b2:	00 00 00 
    10b4:	8a 28 04    	goto      0x288a <__DefaultInterrupt>
    10b6:	00 00 00 
    10b8:	8a 28 04    	goto      0x288a <__DefaultInterrupt>
    10ba:	00 00 00 
    10bc:	8a 28 04    	goto      0x288a <__DefaultInterrupt>
    10be:	00 00 00 
    10c0:	8a 28 04    	goto      0x288a <__DefaultInterrupt>
    10c2:	00 00 00 
    10c4:	8a 28 04    	goto      0x288a <__DefaultInterrupt>
    10c6:	00 00 00 
    10c8:	8a 28 04    	goto      0x288a <__DefaultInterrupt>
    10ca:	00 00 00 
    10cc:	8a 28 04    	goto      0x288a <__DefaultInterrupt>
    10ce:	00 00 00 
    10d0:	8a 28 04    	goto      0x288a <__DefaultInterrupt>
    10d2:	00 00 00 
    10d4:	8a 28 04    	goto      0x288a <__DefaultInterrupt>
    10d6:	00 00 00 
    10d8:	8a 28 04    	goto      0x288a <__DefaultInterrupt>
    10da:	00 00 00 
    10dc:	8a 28 04    	goto      0x288a <__DefaultInterrupt>
    10de:	00 00 00 
    10e0:	8a 28 04    	goto      0x288a <__DefaultInterrupt>
    10e2:	00 00 00 
    10e4:	8a 28 04    	goto      0x288a <__DefaultInterrupt>
    10e6:	00 00 00 
    10e8:	8a 28 04    	goto      0x288a <__DefaultInterrupt>
    10ea:	00 00 00 
    10ec:	8a 28 04    	goto      0x288a <__DefaultInterrupt>
    10ee:	00 00 00 
    10f0:	8a 28 04    	goto      0x288a <__DefaultInterrupt>
    10f2:	00 00 00 
    10f4:	8a 28 04    	goto      0x288a <__DefaultInterrupt>
    10f6:	00 00 00 
    10f8:	8a 28 04    	goto      0x288a <__DefaultInterrupt>
    10fa:	00 00 00 
    10fc:	8a 28 04    	goto      0x288a <__DefaultInterrupt>
    10fe:	00 00 00 
    1100:	8a 28 04    	goto      0x288a <__DefaultInterrupt>
    1102:	00 00 00 
    1104:	8a 28 04    	goto      0x288a <__DefaultInterrupt>
    1106:	00 00 00 
    1108:	8a 28 04    	goto      0x288a <__DefaultInterrupt>
    110a:	00 00 00 

0000110c <__DEFAULT_VECTOR>:
    110c:	8a 28 04    	goto      0x288a <__DefaultInterrupt>
    110e:	00 00 00 
Disassembly of section .ivt:

00000004 <.ivt>:
   4:	04 10 00    	nop       
   6:	08 10 00    	nop       
   8:	0c 10 00    	nop       
   a:	10 10 00    	nop       
   c:	14 10 00    	nop       
   e:	0c 11 00    	nop       
  10:	0c 11 00    	nop       
  12:	0c 11 00    	nop       
  14:	18 10 00    	nop       
  16:	1c 10 00    	nop       
  18:	20 10 00    	nop       
  1a:	24 10 00    	nop       
  1c:	0c 11 00    	nop       
  1e:	28 10 00    	nop       
  20:	2c 10 00    	nop       
  22:	30 10 00    	nop       
  24:	34 10 00    	nop       
  26:	38 10 00    	nop       
  28:	3c 10 00    	nop       
  2a:	40 10 00    	nop       
  2c:	44 10 00    	nop       
  2e:	48 10 00    	nop       
  30:	0c 11 00    	nop       
  32:	0c 11 00    	nop       
  34:	4c 10 00    	nop       
  36:	50 10 00    	nop       
  38:	54 10 00    	nop       
  3a:	58 10 00    	nop       
  3c:	5c 10 00    	nop       
  3e:	0c 11 00    	nop       
  40:	60 10 00    	nop       
  42:	64 10 00    	nop       
  44:	0c 11 00    	nop       
  46:	68 10 00    	nop       
  48:	6c 10 00    	nop       
  4a:	70 10 00    	nop       
  4c:	74 10 00    	nop       
  4e:	78 10 00    	nop       
  50:	7c 10 00    	nop       
  52:	80 10 00    	nop       
  54:	84 10 00    	nop       
  56:	88 10 00    	nop       
  58:	0c 11 00    	nop       
  5a:	0c 11 00    	nop       
  5c:	0c 11 00    	nop       
  5e:	8c 10 00    	nop       
  60:	90 10 00    	nop       
  62:	94 10 00    	nop       
  64:	98 10 00    	nop       
  66:	9c 10 00    	nop       
  68:	a0 10 00    	nop       
  6a:	a4 10 00    	nop       
  6c:	a8 10 00    	nop       
  6e:	ac 10 00    	nop       
  70:	0c 11 00    	nop       
  72:	0c 11 00    	nop       
  74:	0c 11 00    	nop       
  76:	b0 10 00    	nop       
  78:	b4 10 00    	nop       
  7a:	0c 11 00    	nop       
  7c:	0c 11 00    	nop       
  7e:	b8 10 00    	nop       
  80:	bc 10 00    	nop       
  82:	0c 11 00    	nop       
  84:	0c 11 00    	nop       
  86:	0c 11 00    	nop       
  88:	0c 11 00    	nop       
  8a:	0c 11 00    	nop       
  8c:	0c 11 00    	nop       
  8e:	0c 11 00    	nop       
  90:	c0 10 00    	nop       
  92:	0c 11 00    	nop       
  94:	0c 11 00    	nop       
  96:	c4 10 00    	nop       
  98:	c8 10 00    	nop       
  9a:	cc 10 00    	nop       
  9c:	0c 11 00    	nop       
  9e:	0c 11 00    	nop       
  a0:	0c 11 00    	nop       
  a2:	0c 11 00    	nop       
  a4:	d0 10 00    	nop       
  a6:	0c 11 00    	nop       
  a8:	0c 11 00    	nop       
  aa:	0c 11 00    	nop       
  ac:	0c 11 00    	nop       
  ae:	d4 10 00    	nop       
  b0:	0c 11 00    	nop       
  b2:	0c 11 00    	nop       
  b4:	0c 11 00    	nop       
  b6:	d8 10 00    	nop       
  b8:	dc 10 00    	nop       
  ba:	e0 10 00    	nop       
  bc:	e4 10 00    	nop       
  be:	e8 10 00    	nop       
  c0:	ec 10 00    	nop       
  c2:	f0 10 00    	nop       
  c4:	f4 10 00    	nop       
  c6:	f8 10 00    	nop       
  c8:	fc 10 00    	nop       
  ca:	00 11 00    	nop       
  cc:	04 11 00    	nop       
  ce:	08 11 00    	nop       
  d0:	0c 11 00    	nop       
  d2:	0c 11 00    	nop       
  d4:	0c 11 00    	nop       
  d6:	0c 11 00    	nop       
  d8:	0c 11 00    	nop       
  da:	0c 11 00    	nop       
  dc:	0c 11 00    	nop       
  de:	0c 11 00    	nop       
  e0:	0c 11 00    	nop       
  e2:	0c 11 00    	nop       
  e4:	0c 11 00    	nop       
  e6:	0c 11 00    	nop       
  e8:	0c 11 00    	nop       
  ea:	0c 11 00    	nop       
  ec:	0c 11 00    	nop       
  ee:	0c 11 00    	nop       
  f0:	0c 11 00    	nop       
  f2:	0c 11 00    	nop       
  f4:	0c 11 00    	nop       
  f6:	0c 11 00    	nop       
  f8:	0c 11 00    	nop       
  fa:	0c 11 00    	nop       
  fc:	0c 11 00    	nop       
  fe:	0c 11 00    	nop       
Disassembly of section .const:

0000959c <_numbertable>:
    959c:	3f 00       	.word 0x3f
    959e:	06 00       	.word 0x6
    95a0:	5b 00       	.word 0x5b
    95a2:	4f 00       	.word 0x4f
    95a4:	66 00       	.word 0x66
    95a6:	6d 00       	.word 0x6d
    95a8:	7d 00       	.word 0x7d
    95aa:	07 00       	.word 0x7
    95ac:	7f 00       	.word 0x7f
    95ae:	6f 00       	.word 0x6f
    95b0:	77 00       	.word 0x77
    95b2:	7c 00       	.word 0x7c
    95b4:	39 00       	.word 0x39
    95b6:	5e 00       	.word 0x5e
    95b8:	79 00       	.word 0x79
    95ba:	71 00       	.word 0x71
	...

000095c0 <_alphafonttable>:
    95c0:	01 00       	.word 0x1
    95c2:	02 00       	.word 0x2
    95c4:	04 00       	.word 0x4
    95c6:	08 00       	.word 0x8
    95c8:	10 00       	.word 0x10
    95ca:	20 00       	.word 0x20
    95cc:	40 00       	.word 0x40
    95ce:	80 00       	.word 0x80
    95d0:	00 01       	.word 0x100
    95d2:	00 02       	.word 0x200
    95d4:	00 04       	.word 0x400
    95d6:	00 08       	.word 0x800
    95d8:	00 10       	.word 0x1000
    95da:	00 20       	.word 0x2000
    95dc:	00 40       	.word 0x4000
    95de:	00 80       	.word 0x8000
	...
    95f0:	c9 12       	.word 0x12c9
    95f2:	c0 15       	.word 0x15c0
    95f4:	f9 12       	.word 0x12f9
    95f6:	e3 00       	.word 0xe3
    95f8:	30 05       	.word 0x530
    95fa:	c8 12       	.word 0x12c8
    95fc:	00 3a       	.word 0x3a00
    95fe:	00 17       	.word 0x1700
    9600:	00 00       	.word 0
    9602:	06 00       	.word 0x6
    9604:	20 02       	.word 0x220
    9606:	ce 12       	.word 0x12ce
    9608:	ed 12       	.word 0x12ed
    960a:	24 0c       	.word 0xc24
    960c:	5d 23       	.word 0x235d
    960e:	00 04       	.word 0x400
    9610:	00 24       	.word 0x2400
    9612:	00 09       	.word 0x900
    9614:	c0 3f       	.word 0x3fc0
    9616:	c0 12       	.word 0x12c0
    9618:	00 08       	.word 0x800
    961a:	c0 00       	.word 0xc0
    961c:	00 00       	.word 0
    961e:	00 0c       	.word 0xc00
    9620:	3f 0c       	.word 0xc3f
    9622:	06 00       	.word 0x6
    9624:	db 00       	.word 0xdb
    9626:	8f 00       	.word 0x8f
    9628:	e6 00       	.word 0xe6
    962a:	69 20       	.word 0x2069
    962c:	fd 00       	.word 0xfd
    962e:	07 00       	.word 0x7
    9630:	ff 00       	.word 0xff
    9632:	ef 00       	.word 0xef
    9634:	00 12       	.word 0x1200
    9636:	00 0a       	.word 0xa00
    9638:	00 24       	.word 0x2400
    963a:	c8 00       	.word 0xc8
    963c:	00 09       	.word 0x900
    963e:	83 10       	.word 0x1083
    9640:	bb 02       	.word 0x2bb
    9642:	f7 00       	.word 0xf7
    9644:	8f 12       	.word 0x128f
    9646:	39 00       	.word 0x39
    9648:	0f 12       	.word 0x120f
    964a:	f9 00       	.word 0xf9
    964c:	71 00       	.word 0x71
    964e:	bd 00       	.word 0xbd
    9650:	f6 00       	.word 0xf6
    9652:	00 12       	.word 0x1200
    9654:	1e 00       	.word 0x1e
    9656:	70 24       	.word 0x2470
    9658:	38 00       	.word 0x38
    965a:	36 05       	.word 0x536
    965c:	36 21       	.word 0x2136
    965e:	3f 00       	.word 0x3f
    9660:	f3 00       	.word 0xf3
    9662:	3f 20       	.word 0x203f
    9664:	f3 20       	.word 0x20f3
    9666:	ed 00       	.word 0xed
    9668:	01 12       	.word 0x1201
    966a:	3e 00       	.word 0x3e
    966c:	30 0c       	.word 0xc30
    966e:	36 28       	.word 0x2836
    9670:	00 2d       	.word 0x2d00
    9672:	00 15       	.word 0x1500
    9674:	09 0c       	.word 0xc09
    9676:	39 00       	.word 0x39
    9678:	00 21       	.word 0x2100
    967a:	0f 00       	.word 0xf
    967c:	03 0c       	.word 0xc03
    967e:	08 00       	.word 0x8
    9680:	00 01       	.word 0x100
    9682:	58 10       	.word 0x1058
    9684:	78 20       	.word 0x2078
    9686:	d8 00       	.word 0xd8
    9688:	8e 08       	.word 0x88e
    968a:	58 08       	.word 0x858
    968c:	71 00       	.word 0x71
    968e:	8e 04       	.word 0x48e
    9690:	70 10       	.word 0x1070
    9692:	00 10       	.word 0x1000
    9694:	0e 00       	.word 0xe
    9696:	00 36       	.word 0x3600
    9698:	30 00       	.word 0x30
    969a:	d4 10       	.word 0x10d4
    969c:	50 10       	.word 0x1050
    969e:	dc 00       	.word 0xdc
    96a0:	70 01       	.word 0x170
    96a2:	86 04       	.word 0x486
    96a4:	50 00       	.word 0x50
    96a6:	88 20       	.word 0x2088
    96a8:	78 00       	.word 0x78
    96aa:	1c 00       	.word 0x1c
    96ac:	04 20       	.word 0x2004
    96ae:	14 28       	.word 0x2814
    96b0:	c0 28       	.word 0x28c0
    96b2:	0c 20       	.word 0x200c
    96b4:	48 08       	.word 0x848
    96b6:	49 09       	.word 0x949
    96b8:	00 12       	.word 0x1200
    96ba:	89 24       	.word 0x2489
    96bc:	20 05       	.word 0x520
    96be:	ff 3f       	.word 0x3fff

000096c0 <_PWM_PERIOD_2_3>:
    96c0:	2b 1b       	.word 0x1b2b

000096c2 <_PWM_PERIOD_1_9>:
    96c2:	e4 20       	.word 0x20e4
Disassembly of section .text:

000016c4 <_strikeLEDOff>:

typedef void (*STATE_HANDLER_T)(void);
STATE_HANDLER_T state, last_state;

void strikeLEDOff() {
    16c4:	00 00 fa    	lnk       #0x0
    STRIKE1_RLED = OFF; delay_by_nop(1);
    16c6:	da a2 a9    	bclr.b    0x2da, #0x5
    16c8:	10 00 20    	mov.w     #0x1, w0
    16ca:	01 00 20    	mov.w     #0x0, w1
    16cc:	d1 05 07    	rcall     0x2270 <_delay_by_nop> <.L0> <.LFB0> <.LFE16> <.Letext0> <.Ltext0>
    STRIKE1_GLED = OFF; delay_by_nop(1);
    16ce:	da 82 a9    	bclr.b    0x2da, #0x4
    16d0:	10 00 20    	mov.w     #0x1, w0
    16d2:	01 00 20    	mov.w     #0x0, w1
    16d4:	cd 05 07    	rcall     0x2270 <_delay_by_nop> <.L0> <.LFB0> <.LFE16> <.Letext0> <.Ltext0>
    STRIKE2_RLED = OFF; delay_by_nop(1);
    16d6:	da 02 a9    	bclr.b    0x2da, #0x0
    16d8:	10 00 20    	mov.w     #0x1, w0
    16da:	01 00 20    	mov.w     #0x0, w1
    16dc:	c9 05 07    	rcall     0x2270 <_delay_by_nop> <.L0> <.LFB0> <.LFE16> <.Letext0> <.Ltext0>
    STRIKE2_GLED = OFF; delay_by_nop(1);
    16de:	da 22 a9    	bclr.b    0x2da, #0x1
    16e0:	10 00 20    	mov.w     #0x1, w0
    16e2:	01 00 20    	mov.w     #0x0, w1
    16e4:	c5 05 07    	rcall     0x2270 <_delay_by_nop> <.L0> <.LFB0> <.LFE16> <.Letext0> <.Ltext0>
    STRIKE3_RLED = OFF; delay_by_nop(1);
    16e6:	cb e2 a9    	bclr.b    0x2cb, #0x7
    16e8:	10 00 20    	mov.w     #0x1, w0
    16ea:	01 00 20    	mov.w     #0x0, w1
    16ec:	c1 05 07    	rcall     0x2270 <_delay_by_nop> <.L0> <.LFB0> <.LFE16> <.Letext0> <.Ltext0>
    STRIKE3_GLED = OFF; delay_by_nop(1);
    16ee:	ea 62 a9    	bclr.b    0x2ea, #0x3
    16f0:	10 00 20    	mov.w     #0x1, w0
    16f2:	01 00 20    	mov.w     #0x0, w1
    16f4:	bd 05 07    	rcall     0x2270 <_delay_by_nop> <.L0> <.LFB0> <.LFE16> <.Letext0> <.Ltext0>
}
    16f6:	00 80 fa    	ulnk      
    16f8:	00 00 06    	return    

000016fa <_main>:

// MAIN FUNCTION ***************************************************************

int16_t main(void) {
    16fa:	08 00 fa    	lnk       #0x8
    init_elecanisms();
    16fc:	66 08 07    	rcall     0x27ca <.LFE3> <_init_elecanisms> <.L0> <.LFB0> <.Ltext0>
    init_clock(); // not sure if this does anything
    16fe:	00 10 20    	mov.w     #0x100, w0
    1700:	20 3a 88    	mov.w     w0, 0x744
    // Initializes I2C on I2C3
    i2c_init(1e3);
    1702:	80 3e 20    	mov.w     #0x3e8, w0
    1704:	c8 05 07    	rcall     0x2296 <_i2c_init> <.LFB1> <.LFE0>
    led_begin((_ADAFRUIT_LED*)&matrix.super, matrix_addr); // Set up the HT16K33 and start the oscillator
    1706:	0c c8 bf    	mov.b     0x80c, WREG
    1708:	80 40 78    	mov.b     w0, w1
    170a:	e0 80 20    	mov.w     #0x80e, w0
    170c:	ff 02 07    	rcall     0x1d0c <_led_begin> <.L0> <.LFB0> <.LFE9> <.Letext0> <.Ltext0>

    time_left = max_time; // Set up time left to be max time
    170e:	90 00 20    	mov.w     #0x9, w0
    1710:	00 40 88    	mov.w     w0, 0x800

    // Setup pins as output
    D0_DIR = 0;
    1712:	d8 a2 a9    	bclr.b    0x2d8, #0x5
    D1_DIR = 0;
    1714:	d8 82 a9    	bclr.b    0x2d8, #0x4
    D10_DIR = 0;
    1716:	d8 02 a9    	bclr.b    0x2d8, #0x0
    D11_DIR = 0;
    1718:	d8 22 a9    	bclr.b    0x2d8, #0x1
    D4_DIR = 0;
    171a:	c9 e2 a9    	bclr.b    0x2c9, #0x7
    D5_DIR = 0;
    171c:	e8 62 a9    	bclr.b    0x2e8, #0x3
    D6_DIR = 0;
    171e:	d9 02 a9    	bclr.b    0x2d9, #0x0
    D7_DIR = 0;
    1720:	d9 62 a9    	bclr.b    0x2d9, #0x3
    D9_DIR = 0;
    1722:	d9 42 a9    	bclr.b    0x2d9, #0x2


    // Init button low
    BUTTON_LED = 0;
    1724:	db 02 a9    	bclr.b    0x2db, #0x0
    BUTTON_LED_LOW = 0;
    1726:	db 62 a9    	bclr.b    0x2db, #0x3

    // Setup D8 as input
    D8_DIR = 1;
    1728:	d9 22 a8    	bset.b    0x2d9, #0x1
    // Set up pull-up resistor on button D8
    CNPU4bits.CN54PUE = 1;
    172a:	74 c0 a8    	bset.b    0x74, #0x6
    // Set D9 as pull-down for button
    D9 = 0;
    172c:	db 42 a9    	bclr.b    0x2db, #0x2

    /* Timer 1 setup for game timing*/
    T1CON = 0x0030;         // set Timer1 period to 1s
    172e:	00 03 20    	mov.w     #0x30, w0
    1730:	20 08 88    	mov.w     w0, 0x104
    PR1 = 0xF422;
    1732:	20 42 2f    	mov.w     #0xf422, w0
    1734:	10 08 88    	mov.w     w0, 0x102
    TMR1 = 0;               // set Timer1 count to 0
    1736:	00 21 ef    	clr.w     0x100
    IFS0bits.T1IF = 0;      // lower Timer1 interrupt flag
    1738:	84 60 a9    	bclr.b    0x84, #0x3
    IEC0bits.T1IE = 1;      // enable Timer1 interrupt
    173a:	94 60 a8    	bset.b    0x94, #0x3

    /* Timer 2 setup for beep timing*/
    T2CON = 0x0030;
    173c:	00 03 20    	mov.w     #0x30, w0
    173e:	80 08 88    	mov.w     w0, 0x110
    PR2 = 0x186A;           // set Timer2 period to 0.1s
    1740:	a0 86 21    	mov.w     #0x186a, w0
    1742:	60 08 88    	mov.w     w0, 0x10c
    TMR2 = 0;               // set Timer1 count to 0
    1744:	06 21 ef    	clr.w     0x106
    IFS0bits.T2IF = 0;      // lower T2 interrupt flag
    1746:	84 e0 a9    	bclr.b    0x84, #0x7
    IEC0bits.T2IE = 1;      // enable T2 interrupt
    1748:	94 e0 a8    	bset.b    0x94, #0x7

    /* Remap OC1 to D11 */
    uint8_t *RPOR, *RPINR;
    RPOR = (uint8_t *)&RPOR0;
    174a:	00 6c 20    	mov.w     #0x6c0, w0
    174c:	10 07 98    	mov.w     w0, [w14+2]
    RPINR = (uint8_t *)&RPINR0;
    174e:	00 68 20    	mov.w     #0x680, w0
    1750:	20 07 98    	mov.w     w0, [w14+4]

    __builtin_write_OSCCONL(OSCCON & 0xBF);
    1752:	11 3a 80    	mov.w     0x742, w1
    1754:	f0 0b 20    	mov.w     #0xbf, w0
    1756:	00 81 60    	and.w     w1, w0, w2
    1758:	60 04 20    	mov.w     #0x46, w0
    175a:	71 05 20    	mov.w     #0x57, w1
    175c:	23 74 20    	mov.w     #0x742, w3
    175e:	80 49 78    	mov.b     w0, [w3]
    1760:	81 49 78    	mov.b     w1, [w3]
    1762:	82 49 78    	mov.b     w2, [w3]
    RPOR[D12_RP] = OC1_RP;  // connect the OC1 module output to pin D8
    1764:	1e 00 90    	mov.w     [w14+2], w0
    1766:	77 00 40    	add.w     w0, #0x17, w0
    1768:	21 c1 b3    	mov.b     #0x12, w1
    176a:	01 48 78    	mov.b     w1, [w0]
    __builtin_write_OSCCONL(OSCCON | 0x40);
    176c:	10 3a 80    	mov.w     0x742, w0
    176e:	00 01 78    	mov.w     w0, w2
    1770:	02 60 a0    	bset.w    w2, #0x6
    1772:	60 04 20    	mov.w     #0x46, w0
    1774:	71 05 20    	mov.w     #0x57, w1
    1776:	23 74 20    	mov.w     #0x742, w3
    1778:	80 49 78    	mov.b     w0, [w3]
    177a:	81 49 78    	mov.b     w1, [w3]
    177c:	82 49 78    	mov.b     w2, [w3]

    /* OC1 setup for beep output*/
    OC1CON1bits.OCTSEL = 0b111;   // configure OC1 module to use the peripheral
    177e:	81 0c 80    	mov.w     0x190, w1
    1780:	00 c0 21    	mov.w     #0x1c00, w0
    1782:	01 00 70    	ior.w     w0, w1, w0
    1784:	80 0c 88    	mov.w     w0, 0x190
                                  //   clock (i.e., FCY, OCTSEL<2:0> = 0b111) and
    OC1CON1bits.OCM = 0b110;      //   and to operate in edge-aligned PWM mode
    1786:	81 0c 80    	mov.w     0x190, w1
    1788:	80 ff 2f    	mov.w     #0xfff8, w0
    178a:	00 80 60    	and.w     w1, w0, w0
    178c:	60 00 b3    	ior.w     #0x6, w0
    178e:	80 0c 88    	mov.w     w0, 0x190
                                  //   (OCM<2:0> = 0b110)
    OC1CON2bits.OCTRIG = 0;       // configure OC1 module to syncrhonize to itself
    1790:	92 e1 a9    	bclr.b    0x192, #0x7
    OC1CON2bits.SYNCSEL = 0x1F;   //   (i.e., OCTRIG = 0 and SYNCSEL<4:0> = 0b11111)
    1792:	90 0c 80    	mov.w     0x192, w0
    1794:	f0 01 b3    	ior.w     #0x1f, w0
    1796:	90 0c 88    	mov.w     w0, 0x192

    OC1RS = PWM_PERIOD_2_3;       // configure period register to get 2.3 kHz
    1798:	00 b6 84    	mov.w     0x96c0, w0
    179a:	a0 0c 88    	mov.w     w0, 0x194
    OC1TMR = 0;                   // set OC1 timer count to 0
    179c:	98 21 ef    	clr.w     0x198
    OC1R = 0;                     // start with it off
    179e:	96 21 ef    	clr.w     0x196


    state = idle;           // Initialize state to idle
    17a0:	e0 82 21    	mov.w     #0x182e, w0
    17a2:	30 40 88    	mov.w     w0, 0x806
    last_state = (STATE_HANDLER_T)NULL;
    17a4:	08 28 ef    	clr.w     0x808

    memset(peripheral_present, 0, 6); // set arrays to 0
    17a6:	62 00 20    	mov.w     #0x6, w2
    17a8:	80 00 eb    	clr.w     w1
    17aa:	20 c2 20    	mov.w     #0xc22, w0
    17ac:	f0 fe 07    	rcall     0x158e <_memset>
    memset(peripheral_complete, 0, 6);
    17ae:	62 00 20    	mov.w     #0x6, w2
    17b0:	80 00 eb    	clr.w     w1
    17b2:	80 c2 20    	mov.w     #0xc28, w0
    17b4:	ec fe 07    	rcall     0x158e <_memset>
    num_strikes = 0;
    17b6:	03 68 ef    	clr.b     0x803
    prev_num_strikes = 0;
    17b8:	04 68 ef    	clr.b     0x804
    game_complete = 0;
    17ba:	05 68 ef    	clr.b     0x805

    i2c2_init(157);      // initialize I2C for 16Mhz OSC with 100kHz I2C clock
    17bc:	d0 09 20    	mov.w     #0x9d, w0
    17be:	ab 06 07    	rcall     0x2516 <_i2c2_init> <.LFB13> <.LFE12>

    delay_by_nop(300000);
    17c0:	00 3e 29    	mov.w     #0x93e0, w0
    17c2:	41 00 20    	mov.w     #0x4, w1
    17c4:	55 05 07    	rcall     0x2270 <_delay_by_nop> <.L0> <.LFB0> <.LFE16> <.Letext0> <.Ltext0>


    uint8_t i = 0;
    17c6:	00 40 eb    	clr.b     w0
    17c8:	00 4f 78    	mov.b     w0, [w14]
    // Poll the peripherals to see who's here
    for (i = 0; i < 6; i++) {
    17ca:	00 40 eb    	clr.b     w0
    17cc:	00 4f 78    	mov.b     w0, [w14]
    17ce:	14 00 37    	bra       0x17f8 <.L3>

000017d0 <.L5>:
        uint8_t temp = 0;
    17d0:	00 40 eb    	clr.b     w0
    17d2:	60 47 98    	mov.b     w0, [w14+6]

        i2c2_start();
    17d4:	ad 06 07    	rcall     0x2530 <_i2c2_start> <.LFB14> <.LFE13>
        temp = send_i2c2_byte(peripheral_addrs[i]); // set /W bit
    17d6:	1e 80 fb    	ze        [w14], w0
    17d8:	e1 c2 20    	mov.w     #0xc2e, w1
    17da:	61 40 78    	mov.b     [w1+w0], w0
    17dc:	00 80 fb    	ze        w0, w0
    17de:	f7 06 07    	rcall     0x25ce <_send_i2c2_byte> <.LFB17> <.LFE16>
    17e0:	60 47 98    	mov.b     w0, [w14+6]
        if (temp == 0) {
    17e2:	6e 40 90    	mov.b     [w14+6], w0
    17e4:	00 04 e0    	cp0.b     w0
    17e6:	06 00 3a    	bra       NZ, 0x17f4 <.L4>
            peripheral_present[i] = 1; // We found it, but we need to reset the FSM for i2c
    17e8:	1e 80 fb    	ze        [w14], w0
    17ea:	21 c2 20    	mov.w     #0xc22, w1
    17ec:	12 c0 b3    	mov.b     #0x1, w2
    17ee:	82 70 78    	mov.b     w2, [w1+w0]
            send_i2c2_byte(0xA0); // Send dummy byte to reset FSM
    17f0:	00 0a 20    	mov.w     #0xa0, w0
    17f2:	ed 06 07    	rcall     0x25ce <_send_i2c2_byte> <.LFB17> <.LFE16>

000017f4 <.L4>:
        }
        reset_i2c2_bus();
    17f4:	d1 06 07    	rcall     0x2598 <_reset_i2c2_bus> <.LFB16> <.LFE15>

000017f6 <.LBE2>:
    17f6:	1e 4f e8    	inc.b     [w14], [w14]

000017f8 <.L3>:
    17f8:	1e 40 78    	mov.b     [w14], w0
    17fa:	e5 4f 50    	sub.b     w0, #0x5, [w15]
    17fc:	e9 ff 36    	bra       LEU, 0x17d0 <.L5> <.LBB2>
    }

    //TODO: Send out parameters

    //TODO: Send out start condition
    for (i = 0; i < 6; i++) {
    17fe:	00 40 eb    	clr.b     w0
    1800:	00 4f 78    	mov.b     w0, [w14]
    1802:	0f 00 37    	bra       0x1822 <.L6>

00001804 <.L8>:
        if (peripheral_present[i]) {
    1804:	1e 80 fb    	ze        [w14], w0
    1806:	21 c2 20    	mov.w     #0xc22, w1
    1808:	61 40 78    	mov.b     [w1+w0], w0
    180a:	00 04 e0    	cp0.b     w0
    180c:	09 00 32    	bra       Z, 0x1820 <.L7>
            i2c2_start();
    180e:	90 06 07    	rcall     0x2530 <_i2c2_start> <.LFB14> <.LFE13>
            send_i2c2_byte(peripheral_addrs[i] | 0);  // init a write, last to 0
    1810:	1e 80 fb    	ze        [w14], w0
    1812:	e1 c2 20    	mov.w     #0xc2e, w1
    1814:	61 40 78    	mov.b     [w1+w0], w0
    1816:	00 80 fb    	ze        w0, w0
    1818:	da 06 07    	rcall     0x25ce <_send_i2c2_byte> <.LFB17> <.LFE16>
            send_i2c2_byte(HEADER_START_GAME << 5);
    181a:	00 0c 20    	mov.w     #0xc0, w0
    181c:	d8 06 07    	rcall     0x25ce <_send_i2c2_byte> <.LFB17> <.LFE16>
            reset_i2c2_bus();
    181e:	bc 06 07    	rcall     0x2598 <_reset_i2c2_bus> <.LFB16> <.LFE15>

00001820 <.L7>:
    1820:	1e 4f e8    	inc.b     [w14], [w14]

00001822 <.L6>:
    1822:	1e 40 78    	mov.b     [w14], w0
    1824:	e5 4f 50    	sub.b     w0, #0x5, [w15]
    1826:	ee ff 36    	bra       LEU, 0x1804 <.L8>

00001828 <.L9>:
        }
    }

    while (1) {
        state();
    1828:	30 40 80    	mov.w     0x806, w0
    182a:	00 00 01    	call      w0
    }
    182c:	fd ff 37    	bra       0x1828 <.L9>

0000182e <_idle>:

}

// ISRs ************************************************************************

uint8_t beep_state = 0;

void __attribute__((interrupt, auto_psv)) _T1Interrupt(void) {
    IFS0bits.T1IF = 0;  // if it's been a second, lower the counter and show it
    time_left--;
    if (state == run) {
        TMR2 = 0;
        beep_state = 0;
        IEC0bits.T2IE = 1; // enable t2 interrupt
        T2CONbits.TON = 1; //Start T2
        OC1RS = PWM_PERIOD_2_3;
        OC1R = OC1RS>>1; // start beep
    }
}

void __attribute__((interrupt, auto_psv)) _T2Interrupt(void) {
    IFS0bits.T2IF = 0;
    switch (beep_state) {
        case 0:         // turn off after first beep
            OC1R = 0;
            beep_state++;
            LED3 = OFF; delay_by_nop(1);
            LED1 = ON; delay_by_nop(1);
            break;
        case 1:
            OC1RS = PWM_PERIOD_1_9; // make lower beep
            OC1R = OC1RS>>1;
            LED1 = OFF; delay_by_nop(1);
            LED2 = ON; delay_by_nop(1);
            beep_state++;
            break;
        case 2:
            OC1RS = PWM_PERIOD_2_3; // Reset to high beep and stop
            OC1R = 0;
            LED1 = OFF; delay_by_nop(1);
            LED2 = ON; delay_by_nop(1);
            beep_state++;
            break;
        default:
            break;
    }
}

// STATE MACHINE FUNCTIONS *****************************************************

void idle(void) {
    182e:	00 00 fa    	lnk       #0x0
    if (state != last_state) {  // if we are entering the state, do initialization stuff
    1830:	31 40 80    	mov.w     0x806, w1
    1832:	40 40 80    	mov.w     0x808, w0
    1834:	80 8f 50    	sub.w     w1, w0, [w15]
    1836:	05 00 32    	bra       Z, 0x1842 <.L20>
        last_state = state;
    1838:	30 40 80    	mov.w     0x806, w0
    183a:	40 40 88    	mov.w     w0, 0x808
        dispSeconds(max_time); // Start by showing full time
    183c:	90 00 20    	mov.w     #0x9, w0
    183e:	fe 01 07    	rcall     0x1c3c <_dispSeconds> <.LFB8> <.LFE7>
        BUTTON_LED = ON;
    1840:	db 02 a8    	bset.b    0x2db, #0x0

00001842 <.L20>:
    }

    // Perform state tasks

    // Check for state transitions
    if (D8 == 0) { // D8 is pulled-up, if button is pressed it pulls it down
    1842:	d1 16 80    	mov.w     0x2da, w1
    1844:	00 20 20    	mov.w     #0x200, w0
    1846:	00 80 60    	and.w     w1, w0, w0
    1848:	00 00 e0    	cp0.w     w0
    184a:	02 00 3a    	bra       NZ, 0x1850 <.L21>
        state = run;
    184c:	e0 85 21    	mov.w     #0x185e, w0
    184e:	30 40 88    	mov.w     w0, 0x806

00001850 <.L21>:
    }

    // if we are leaving the state, do clean up stuff
    if (state != last_state) {
    1850:	31 40 80    	mov.w     0x806, w1
    1852:	40 40 80    	mov.w     0x808, w0
    1854:	80 8f 50    	sub.w     w1, w0, [w15]
    1856:	01 00 32    	bra       Z, 0x185a <.L19>
        BUTTON_LED = OFF;
    1858:	db 02 a9    	bclr.b    0x2db, #0x0

0000185a <.L19>:
    }
}
    185a:	00 80 fa    	ulnk      
    185c:	00 00 06    	return    

0000185e <_run>:

void run(void) {
    185e:	02 00 fa    	lnk       #0x2
    if (state != last_state) {  // if we are entering the state, do intitialization stuff
    1860:	31 40 80    	mov.w     0x806, w1
    1862:	40 40 80    	mov.w     0x808, w0
    1864:	80 8f 50    	sub.w     w1, w0, [w15]
    1866:	12 00 32    	bra       Z, 0x188c <.L24>
        last_state = state;
    1868:	30 40 80    	mov.w     0x806, w0
    186a:	40 40 88    	mov.w     w0, 0x808
        IFS0bits.T1IF = 0; //lower interrupt flag
    186c:	84 60 a9    	bclr.b    0x84, #0x3
        TMR1 = 0;          // reset timer register
    186e:	00 21 ef    	clr.w     0x100
        T1CONbits.TON = 1; // enable 1 second timer
    1870:	05 e1 a8    	bset.b    0x105, #0x7

        time_left = max_time;
    1872:	90 00 20    	mov.w     #0x9, w0
    1874:	00 40 88    	mov.w     w0, 0x800
        dispSeconds(time_left);
    1876:	00 40 80    	mov.w     0x800, w0
    1878:	e1 01 07    	rcall     0x1c3c <_dispSeconds> <.LFB8> <.LFE7>
        STRIKE1_GLED = ON; // Turn on strike LEDs to green
    187a:	da 82 a8    	bset.b    0x2da, #0x4
        delay_by_nop(1);
    187c:	10 00 20    	mov.w     #0x1, w0
    187e:	01 00 20    	mov.w     #0x0, w1
    1880:	f7 04 07    	rcall     0x2270 <_delay_by_nop> <.L0> <.LFB0> <.LFE16> <.Letext0> <.Ltext0>
        STRIKE2_GLED = ON;
    1882:	da 22 a8    	bset.b    0x2da, #0x1
        delay_by_nop(1);
    1884:	10 00 20    	mov.w     #0x1, w0
    1886:	01 00 20    	mov.w     #0x0, w1
    1888:	f3 04 07    	rcall     0x2270 <_delay_by_nop> <.L0> <.LFB0> <.LFE16> <.Letext0> <.Ltext0>
        STRIKE3_GLED = ON;
    188a:	ea 62 a8    	bset.b    0x2ea, #0x3

0000188c <.L24>:
    }

    // Perform state tasks
    datareturned = 0;
    188c:	02 68 ef    	clr.b     0x802
    uint8_t i;

    // Handle time
    dispSeconds(time_left);
    188e:	00 40 80    	mov.w     0x800, w0
    1890:	d5 01 07    	rcall     0x1c3c <_dispSeconds> <.LFB8> <.LFE7>
    if (time_left == 0) {
    1892:	00 40 80    	mov.w     0x800, w0
    1894:	00 00 e0    	cp0.w     w0
    1896:	17 00 3a    	bra       NZ, 0x18c6 <.L25>
        for (i = 0; i < 6; i++) {
    1898:	00 40 eb    	clr.b     w0
    189a:	00 4f 78    	mov.b     w0, [w14]
    189c:	0f 00 37    	bra       0x18bc <.L26>

0000189e <.L28>:
            if(peripheral_present[i]) {
    189e:	1e 80 fb    	ze        [w14], w0
    18a0:	21 c2 20    	mov.w     #0xc22, w1
    18a2:	61 40 78    	mov.b     [w1+w0], w0
    18a4:	00 04 e0    	cp0.b     w0
    18a6:	09 00 32    	bra       Z, 0x18ba <.L27>
                i2c2_start();
    18a8:	43 06 07    	rcall     0x2530 <_i2c2_start> <.LFB14> <.LFE13>
                send_i2c2_byte(peripheral_addrs[i] | 0);  // init a write, last to 0
    18aa:	1e 80 fb    	ze        [w14], w0
    18ac:	e1 c2 20    	mov.w     #0xc2e, w1
    18ae:	61 40 78    	mov.b     [w1+w0], w0
    18b0:	00 80 fb    	ze        w0, w0
    18b2:	8d 06 07    	rcall     0x25ce <_send_i2c2_byte> <.LFB17> <.LFE16>
                send_i2c2_byte(HEADER_END_LOSE << 5); // Broadcast the current number of strikes
    18b4:	00 04 20    	mov.w     #0x40, w0
    18b6:	8b 06 07    	rcall     0x25ce <_send_i2c2_byte> <.LFB17> <.LFE16>
                reset_i2c2_bus();
    18b8:	6f 06 07    	rcall     0x2598 <_reset_i2c2_bus> <.LFB16> <.LFE15>

000018ba <.L27>:
    18ba:	1e 4f e8    	inc.b     [w14], [w14]

000018bc <.L26>:
    18bc:	1e 40 78    	mov.b     [w14], w0
    18be:	e5 4f 50    	sub.b     w0, #0x5, [w15]
    18c0:	ee ff 36    	bra       LEU, 0x189e <.L28>
            }
        }
       state = end_fail;            // if we're out of time, go to end
    18c2:	60 aa 21    	mov.w     #0x1aa6, w0
    18c4:	30 40 88    	mov.w     w0, 0x806

000018c6 <.L25>:
    }

    // Get completeness and strikes from every module
    prev_num_strikes = num_strikes;
    18c6:	03 c8 bf    	mov.b     0x803, WREG
    18c8:	04 e8 b7    	mov.b     WREG, 0x804
    for (i = 0; i < 6; i++) {
    18ca:	00 40 eb    	clr.b     w0
    18cc:	00 4f 78    	mov.b     w0, [w14]
    18ce:	29 00 37    	bra       0x1922 <.L29>

000018d0 <.L33>:
        if(peripheral_present[i]) {
    18d0:	1e 80 fb    	ze        [w14], w0
    18d2:	21 c2 20    	mov.w     #0xc22, w1
    18d4:	61 40 78    	mov.b     [w1+w0], w0
    18d6:	00 04 e0    	cp0.b     w0
    18d8:	23 00 32    	bra       Z, 0x1920 <.L30>
            i2c2_start();
    18da:	2a 06 07    	rcall     0x2530 <_i2c2_start> <.LFB14> <.LFE13>
            send_i2c2_byte(peripheral_addrs[i] | 1);  // init a read, last to 1
    18dc:	1e 80 fb    	ze        [w14], w0
    18de:	e1 c2 20    	mov.w     #0xc2e, w1
    18e0:	61 40 78    	mov.b     [w1+w0], w0
    18e2:	00 04 a0    	bset.b    w0, #0x0
    18e4:	00 80 fb    	ze        w0, w0
    18e6:	73 06 07    	rcall     0x25ce <_send_i2c2_byte> <.LFB17> <.LFE16>
            datareturned = i2c2_read_nack();
    18e8:	d4 06 07    	rcall     0x2692 <_i2c2_read_nack> <.LFB20> <.LFE19>
    18ea:	02 e8 b7    	mov.b     WREG, 0x802
            reset_i2c2_bus();
    18ec:	55 06 07    	rcall     0x2598 <_reset_i2c2_bus> <.LFB16> <.LFE15>

            if (datareturned & 0b10000000) { // Complete flag
    18ee:	02 c8 bf    	mov.b     0x802, WREG
    18f0:	00 04 e0    	cp0.b     w0
    18f2:	04 00 3d    	bra       GE, 0x18fc <.L31>
                peripheral_complete[i] = 1;
    18f4:	1e 80 fb    	ze        [w14], w0
    18f6:	81 c2 20    	mov.w     #0xc28, w1
    18f8:	12 c0 b3    	mov.b     #0x1, w2
    18fa:	82 70 78    	mov.b     w2, [w1+w0]

000018fc <.L31>:
            }
            if (((datareturned & 0b01110000) >> 4) > prev_num_strikes) { //If the module recorded any strikes
    18fc:	02 c8 bf    	mov.b     0x802, WREG
    18fe:	80 80 fb    	ze        w0, w1
    1900:	00 07 20    	mov.w     #0x70, w0
    1902:	00 80 60    	and.w     w1, w0, w0
    1904:	c4 80 de    	asr.w     w0, #0x4, w1
    1906:	04 c8 bf    	mov.b     0x804, WREG
    1908:	00 80 fb    	ze        w0, w0
    190a:	80 8f 50    	sub.w     w1, w0, [w15]
    190c:	09 00 34    	bra       LE, 0x1920 <.L30>
                num_strikes+= ((datareturned & 0b01110000) >> 4);
    190e:	02 c8 bf    	mov.b     0x802, WREG
    1910:	80 80 fb    	ze        w0, w1
    1912:	00 07 20    	mov.w     #0x70, w0
    1914:	00 80 60    	and.w     w1, w0, w0
    1916:	44 80 de    	asr.w     w0, #0x4, w0
    1918:	80 40 78    	mov.b     w0, w1
    191a:	03 c8 bf    	mov.b     0x803, WREG
    191c:	00 c0 40    	add.b     w1, w0, w0
    191e:	03 e8 b7    	mov.b     WREG, 0x803

00001920 <.L30>:
    1920:	1e 4f e8    	inc.b     [w14], [w14]

00001922 <.L29>:
    1922:	1e 40 78    	mov.b     [w14], w0
    1924:	e5 4f 50    	sub.b     w0, #0x5, [w15]
    1926:	d4 ff 36    	bra       LEU, 0x18d0 <.L33>
            }
            if ((datareturned & 0b00001111) != 0) {
                // TODO: implement error codes if necessary
            }
        }
    }
    //Handles completeness
    game_complete = 1;
    1928:	10 c0 b3    	mov.b     #0x1, w0
    192a:	05 e8 b7    	mov.b     WREG, 0x805
    for (i = 0; i < 6; i++) {
    192c:	00 40 eb    	clr.b     w0
    192e:	00 4f 78    	mov.b     w0, [w14]
    1930:	0c 00 37    	bra       0x194a <.L34>

00001932 <.L36>:
        if (peripheral_present[i] && !peripheral_complete[i]) {
    1932:	1e 80 fb    	ze        [w14], w0
    1934:	21 c2 20    	mov.w     #0xc22, w1
    1936:	61 40 78    	mov.b     [w1+w0], w0
    1938:	00 04 e0    	cp0.b     w0
    193a:	06 00 32    	bra       Z, 0x1948 <.L35>
    193c:	1e 80 fb    	ze        [w14], w0
    193e:	81 c2 20    	mov.w     #0xc28, w1
    1940:	61 40 78    	mov.b     [w1+w0], w0
    1942:	00 04 e0    	cp0.b     w0
    1944:	01 00 3a    	bra       NZ, 0x1948 <.L35>
            game_complete = 0;
    1946:	05 68 ef    	clr.b     0x805

00001948 <.L35>:
    1948:	1e 4f e8    	inc.b     [w14], [w14]

0000194a <.L34>:
    194a:	1e 40 78    	mov.b     [w14], w0
    194c:	e5 4f 50    	sub.b     w0, #0x5, [w15]
    194e:	f1 ff 36    	bra       LEU, 0x1932 <.L36>
        }
    }
    // If we checked all of them and the game is still complete, then count it!
    if (game_complete) {
    1950:	05 c8 bf    	mov.b     0x805, WREG
    1952:	00 04 e0    	cp0.b     w0
    1954:	17 00 32    	bra       Z, 0x1984 <.L37>
        for (i = 0; i < 6; i++) {
    1956:	00 40 eb    	clr.b     w0
    1958:	00 4f 78    	mov.b     w0, [w14]
    195a:	0f 00 37    	bra       0x197a <.L38>

0000195c <.L40>:
            if(peripheral_present[i]) {
    195c:	1e 80 fb    	ze        [w14], w0
    195e:	21 c2 20    	mov.w     #0xc22, w1
    1960:	61 40 78    	mov.b     [w1+w0], w0
    1962:	00 04 e0    	cp0.b     w0
    1964:	09 00 32    	bra       Z, 0x1978 <.L39>
                i2c2_start();
    1966:	e4 05 07    	rcall     0x2530 <_i2c2_start> <.LFB14> <.LFE13>
                send_i2c2_byte(peripheral_addrs[i] | 0);  // init a write, last to 0
    1968:	1e 80 fb    	ze        [w14], w0
    196a:	e1 c2 20    	mov.w     #0xc2e, w1
    196c:	61 40 78    	mov.b     [w1+w0], w0
    196e:	00 80 fb    	ze        w0, w0
    1970:	2e 06 07    	rcall     0x25ce <_send_i2c2_byte> <.LFB17> <.LFE16>
                send_i2c2_byte(HEADER_END_WIN << 5); // Broadcast that we won
    1972:	00 02 20    	mov.w     #0x20, w0
    1974:	2c 06 07    	rcall     0x25ce <_send_i2c2_byte> <.LFB17> <.LFE16>
                reset_i2c2_bus();
    1976:	10 06 07    	rcall     0x2598 <_reset_i2c2_bus> <.LFB16> <.LFE15>

00001978 <.L39>:
    1978:	1e 4f e8    	inc.b     [w14], [w14]

0000197a <.L38>:
    197a:	1e 40 78    	mov.b     [w14], w0
    197c:	e5 4f 50    	sub.b     w0, #0x5, [w15]
    197e:	ee ff 36    	bra       LEU, 0x195c <.L40>
            }
        }
        //TODO: Go to 'win' state
        state = end_win;
    1980:	20 b7 21    	mov.w     #0x1b72, w0
    1982:	30 40 88    	mov.w     w0, 0x806

00001984 <.L37>:
    }

    //Handles strikes
    strikeLEDOff(); // Handle strike LEDs
    1984:	9f fe 07    	rcall     0x16c4 <_strikeLEDOff> <.L0> <.LFB0> <.Ltext0>
    switch (num_strikes){
    1986:	03 c8 bf    	mov.b     0x803, WREG
    1988:	00 80 fb    	ze        w0, w0
    198a:	e1 0f 50    	sub.w     w0, #0x1, [w15]
    198c:	11 00 32    	bra       Z, 0x19b0 <.L43>
    198e:	e2 0f 50    	sub.w     w0, #0x2, [w15]
    1990:	1c 00 32    	bra       Z, 0x19ca <.L44>
    1992:	00 00 e0    	cp0.w     w0
    1994:	27 00 3a    	bra       NZ, 0x19e4 <.L56>
        case 0:
            STRIKE1_GLED = ON; delay_by_nop(1);
    1996:	da 82 a8    	bset.b    0x2da, #0x4
    1998:	10 00 20    	mov.w     #0x1, w0
    199a:	01 00 20    	mov.w     #0x0, w1
    199c:	69 04 07    	rcall     0x2270 <_delay_by_nop> <.L0> <.LFB0> <.LFE16> <.Letext0> <.Ltext0>
            STRIKE2_GLED = ON; delay_by_nop(1);
    199e:	da 22 a8    	bset.b    0x2da, #0x1
    19a0:	10 00 20    	mov.w     #0x1, w0
    19a2:	01 00 20    	mov.w     #0x0, w1
    19a4:	65 04 07    	rcall     0x2270 <_delay_by_nop> <.L0> <.LFB0> <.LFE16> <.Letext0> <.Ltext0>
            STRIKE3_GLED = ON; delay_by_nop(1);
    19a6:	ea 62 a8    	bset.b    0x2ea, #0x3
    19a8:	10 00 20    	mov.w     #0x1, w0
    19aa:	01 00 20    	mov.w     #0x0, w1
    19ac:	61 04 07    	rcall     0x2270 <_delay_by_nop> <.L0> <.LFB0> <.LFE16> <.Letext0> <.Ltext0>
        break;
    19ae:	27 00 37    	bra       0x19fe <.L45>

000019b0 <.L43>:
        case 1:
            STRIKE1_RLED = ON; delay_by_nop(1);
    19b0:	da a2 a8    	bset.b    0x2da, #0x5
    19b2:	10 00 20    	mov.w     #0x1, w0
    19b4:	01 00 20    	mov.w     #0x0, w1
    19b6:	5c 04 07    	rcall     0x2270 <_delay_by_nop> <.L0> <.LFB0> <.LFE16> <.Letext0> <.Ltext0>
            STRIKE2_GLED = ON; delay_by_nop(1);
    19b8:	da 22 a8    	bset.b    0x2da, #0x1
    19ba:	10 00 20    	mov.w     #0x1, w0
    19bc:	01 00 20    	mov.w     #0x0, w1
    19be:	58 04 07    	rcall     0x2270 <_delay_by_nop> <.L0> <.LFB0> <.LFE16> <.Letext0> <.Ltext0>
            STRIKE3_GLED = ON; delay_by_nop(1);
    19c0:	ea 62 a8    	bset.b    0x2ea, #0x3
    19c2:	10 00 20    	mov.w     #0x1, w0
    19c4:	01 00 20    	mov.w     #0x0, w1
    19c6:	54 04 07    	rcall     0x2270 <_delay_by_nop> <.L0> <.LFB0> <.LFE16> <.Letext0> <.Ltext0>
        break;
    19c8:	1a 00 37    	bra       0x19fe <.L45>

000019ca <.L44>:
        case 2:
            STRIKE1_RLED = ON; delay_by_nop(1);
    19ca:	da a2 a8    	bset.b    0x2da, #0x5
    19cc:	10 00 20    	mov.w     #0x1, w0
    19ce:	01 00 20    	mov.w     #0x0, w1
    19d0:	4f 04 07    	rcall     0x2270 <_delay_by_nop> <.L0> <.LFB0> <.LFE16> <.Letext0> <.Ltext0>
            STRIKE2_RLED = ON; delay_by_nop(1);
    19d2:	da 02 a8    	bset.b    0x2da, #0x0
    19d4:	10 00 20    	mov.w     #0x1, w0
    19d6:	01 00 20    	mov.w     #0x0, w1
    19d8:	4b 04 07    	rcall     0x2270 <_delay_by_nop> <.L0> <.LFB0> <.LFE16> <.Letext0> <.Ltext0>
            STRIKE3_GLED = ON; delay_by_nop(1);
    19da:	ea 62 a8    	bset.b    0x2ea, #0x3
    19dc:	10 00 20    	mov.w     #0x1, w0
    19de:	01 00 20    	mov.w     #0x0, w1
    19e0:	47 04 07    	rcall     0x2270 <_delay_by_nop> <.L0> <.LFB0> <.LFE16> <.Letext0> <.Ltext0>
        break;
    19e2:	0d 00 37    	bra       0x19fe <.L45>

000019e4 <.L56>:
        default:
            STRIKE1_RLED = ON; delay_by_nop(1);
    19e4:	da a2 a8    	bset.b    0x2da, #0x5
    19e6:	10 00 20    	mov.w     #0x1, w0
    19e8:	01 00 20    	mov.w     #0x0, w1
    19ea:	42 04 07    	rcall     0x2270 <_delay_by_nop> <.L0> <.LFB0> <.LFE16> <.Letext0> <.Ltext0>
            STRIKE2_RLED = ON; delay_by_nop(1);
    19ec:	da 02 a8    	bset.b    0x2da, #0x0
    19ee:	10 00 20    	mov.w     #0x1, w0
    19f0:	01 00 20    	mov.w     #0x0, w1
    19f2:	3e 04 07    	rcall     0x2270 <_delay_by_nop> <.L0> <.LFB0> <.LFE16> <.Letext0> <.Ltext0>
            STRIKE3_RLED = ON; delay_by_nop(1);
    19f4:	cb e2 a8    	bset.b    0x2cb, #0x7
    19f6:	10 00 20    	mov.w     #0x1, w0
    19f8:	01 00 20    	mov.w     #0x0, w1
    19fa:	3a 04 07    	rcall     0x2270 <_delay_by_nop> <.L0> <.LFB0> <.LFE16> <.Letext0> <.Ltext0>
        break;
    19fc:	00 00 00    	nop       

000019fe <.L45>:
    }
    if (num_strikes > 2) {
    19fe:	03 c8 bf    	mov.b     0x803, WREG
    1a00:	e2 4f 50    	sub.b     w0, #0x2, [w15]
    1a02:	18 00 36    	bra       LEU, 0x1a34 <.L46>
        for (i = 0; i < 6; i++) {
    1a04:	00 40 eb    	clr.b     w0
    1a06:	00 4f 78    	mov.b     w0, [w14]
    1a08:	0f 00 37    	bra       0x1a28 <.L47>

00001a0a <.L49>:
            if(peripheral_present[i]) {
    1a0a:	1e 80 fb    	ze        [w14], w0
    1a0c:	21 c2 20    	mov.w     #0xc22, w1
    1a0e:	61 40 78    	mov.b     [w1+w0], w0
    1a10:	00 04 e0    	cp0.b     w0
    1a12:	09 00 32    	bra       Z, 0x1a26 <.L48>
                i2c2_start();
    1a14:	8d 05 07    	rcall     0x2530 <_i2c2_start> <.LFB14> <.LFE13>
                send_i2c2_byte(peripheral_addrs[i] | 0);  // init a write, last to 0
    1a16:	1e 80 fb    	ze        [w14], w0
    1a18:	e1 c2 20    	mov.w     #0xc2e, w1
    1a1a:	61 40 78    	mov.b     [w1+w0], w0
    1a1c:	00 80 fb    	ze        w0, w0
    1a1e:	d7 05 07    	rcall     0x25ce <_send_i2c2_byte> <.LFB17> <.LFE16>
                send_i2c2_byte(HEADER_END_LOSE << 5); // Broadcast the current number of strikes
    1a20:	00 04 20    	mov.w     #0x40, w0
    1a22:	d5 05 07    	rcall     0x25ce <_send_i2c2_byte> <.LFB17> <.LFE16>
                reset_i2c2_bus();
    1a24:	b9 05 07    	rcall     0x2598 <_reset_i2c2_bus> <.LFB16> <.LFE15>

00001a26 <.L48>:
    1a26:	1e 4f e8    	inc.b     [w14], [w14]

00001a28 <.L47>:
    1a28:	1e 40 78    	mov.b     [w14], w0
    1a2a:	e5 4f 50    	sub.b     w0, #0x5, [w15]
    1a2c:	ee ff 36    	bra       LEU, 0x1a0a <.L49>
            }
        }
        state = end_fail;
    1a2e:	60 aa 21    	mov.w     #0x1aa6, w0
    1a30:	30 40 88    	mov.w     w0, 0x806
    1a32:	1e 00 37    	bra       0x1a70 <.L50>

00001a34 <.L46>:
    }
    else if (num_strikes > prev_num_strikes) {
    1a34:	31 80 20    	mov.w     #0x803, w1
    1a36:	91 40 78    	mov.b     [w1], w1
    1a38:	04 c8 bf    	mov.b     0x804, WREG
    1a3a:	80 cf 50    	sub.b     w1, w0, [w15]
    1a3c:	19 00 36    	bra       LEU, 0x1a70 <.L50>
        for (i = 0; i < 6; i++) {
    1a3e:	00 40 eb    	clr.b     w0
    1a40:	00 4f 78    	mov.b     w0, [w14]
    1a42:	13 00 37    	bra       0x1a6a <.L51>

00001a44 <.L53>:
            if (peripheral_present[i]) {
    1a44:	1e 80 fb    	ze        [w14], w0
    1a46:	21 c2 20    	mov.w     #0xc22, w1
    1a48:	61 40 78    	mov.b     [w1+w0], w0
    1a4a:	00 04 e0    	cp0.b     w0
    1a4c:	0d 00 32    	bra       Z, 0x1a68 <.L52>
                i2c2_start();
    1a4e:	70 05 07    	rcall     0x2530 <_i2c2_start> <.LFB14> <.LFE13>
                send_i2c2_byte(peripheral_addrs[i] | 0);  // init a write, last to 0
    1a50:	1e 80 fb    	ze        [w14], w0
    1a52:	e1 c2 20    	mov.w     #0xc2e, w1
    1a54:	61 40 78    	mov.b     [w1+w0], w0
    1a56:	00 80 fb    	ze        w0, w0
    1a58:	ba 05 07    	rcall     0x25ce <_send_i2c2_byte> <.LFB17> <.LFE16>
                send_i2c2_byte((HEADER_NUM_STRIKES<<5) | num_strikes); // Broadcast the current number of strikes
    1a5a:	31 80 20    	mov.w     #0x803, w1
    1a5c:	91 40 78    	mov.b     [w1], w1
    1a5e:	00 ce b3    	mov.b     #0xe0, w0
    1a60:	00 c0 70    	ior.b     w1, w0, w0
    1a62:	00 80 fb    	ze        w0, w0
    1a64:	b4 05 07    	rcall     0x25ce <_send_i2c2_byte> <.LFB17> <.LFE16>
                reset_i2c2_bus();
    1a66:	98 05 07    	rcall     0x2598 <_reset_i2c2_bus> <.LFB16> <.LFE15>

00001a68 <.L52>:
    1a68:	1e 4f e8    	inc.b     [w14], [w14]

00001a6a <.L51>:
    1a6a:	1e 40 78    	mov.b     [w14], w0
    1a6c:	e5 4f 50    	sub.b     w0, #0x5, [w15]
    1a6e:	ea ff 36    	bra       LEU, 0x1a44 <.L53>

00001a70 <.L50>:
            }
        }
    }

    // Check for state transitions
    if (SW2 == 0) {
    1a70:	91 16 80    	mov.w     0x2d2, w1
    1a72:	00 00 21    	mov.w     #0x1000, w0
    1a74:	00 80 60    	and.w     w1, w0, w0
    1a76:	00 00 e0    	cp0.w     w0
    1a78:	02 00 3a    	bra       NZ, 0x1a7e <.L54>
        state = idle;           // SW2 resets to idle
    1a7a:	e0 82 21    	mov.w     #0x182e, w0
    1a7c:	30 40 88    	mov.w     w0, 0x806

00001a7e <.L54>:
    }

    // if we are leaving the state, do clean up stuff
    if (state != last_state) {
    1a7e:	31 40 80    	mov.w     0x806, w1
    1a80:	40 40 80    	mov.w     0x808, w0
    1a82:	80 8f 50    	sub.w     w1, w0, [w15]
    1a84:	0e 00 32    	bra       Z, 0x1aa2 <.L23>
        T1CONbits.TON = 0;
    1a86:	05 e1 a9    	bclr.b    0x105, #0x7
        STRIKE1_GLED = OFF; // Turn off strike LEDs.
    1a88:	da 82 a9    	bclr.b    0x2da, #0x4
        delay_by_nop(1);
    1a8a:	10 00 20    	mov.w     #0x1, w0
    1a8c:	01 00 20    	mov.w     #0x0, w1
    1a8e:	f0 03 07    	rcall     0x2270 <_delay_by_nop> <.L0> <.LFB0> <.LFE16> <.Letext0> <.Ltext0>
        STRIKE2_GLED = OFF;
    1a90:	da 22 a9    	bclr.b    0x2da, #0x1
        delay_by_nop(1);
    1a92:	10 00 20    	mov.w     #0x1, w0
    1a94:	01 00 20    	mov.w     #0x0, w1
    1a96:	ec 03 07    	rcall     0x2270 <_delay_by_nop> <.L0> <.LFB0> <.LFE16> <.Letext0> <.Ltext0>
        STRIKE3_GLED = OFF;
    1a98:	ea 62 a9    	bclr.b    0x2ea, #0x3
        IEC0bits.T2IE = 0; // disable beep interrupt
    1a9a:	94 e0 a9    	bclr.b    0x94, #0x7
        OC1R = 0; // turn off beep
    1a9c:	96 21 ef    	clr.w     0x196
        dispSeconds(time_left);
    1a9e:	00 40 80    	mov.w     0x800, w0
    1aa0:	cd 00 07    	rcall     0x1c3c <_dispSeconds> <.LFB8> <.LFE7>

00001aa2 <.L23>:
    }
}
    1aa2:	00 80 fa    	ulnk      
    1aa4:	00 00 06    	return    

00001aa6 <_end_fail>:

void end_fail(void) {
    1aa6:	00 00 fa    	lnk       #0x0
    if (state != last_state) {  // if we are entering the state, do initialization stuff
    1aa8:	31 40 80    	mov.w     0x806, w1
    1aaa:	40 40 80    	mov.w     0x808, w0
    1aac:	80 8f 50    	sub.w     w1, w0, [w15]
    1aae:	16 00 32    	bra       Z, 0x1adc <.L58>
        last_state = state;
    1ab0:	30 40 80    	mov.w     0x806, w0
    1ab2:	40 40 88    	mov.w     w0, 0x808
        // start timer again to blink red LEDs
        IFS0bits.T1IF = 0; //lower interrupt flag
    1ab4:	84 60 a9    	bclr.b    0x84, #0x3
        TMR1 = 0;          // reset timer register
    1ab6:	00 21 ef    	clr.w     0x100
        T1CONbits.TON = 1; // enable 1 second timer
    1ab8:	05 e1 a8    	bset.b    0x105, #0x7

        OC1RS = PWM_PERIOD_2_3;
    1aba:	00 b6 84    	mov.w     0x96c0, w0
    1abc:	a0 0c 88    	mov.w     w0, 0x194
        OC1R = OC1RS>>1; // start beep
    1abe:	a0 0c 80    	mov.w     0x194, w0
    1ac0:	00 00 d1    	lsr.w     w0, w0
    1ac2:	b0 0c 88    	mov.w     w0, 0x196

        STRIKE1_RLED = ON; delay_by_nop(1); // Turn on strike LEDs red
    1ac4:	da a2 a8    	bset.b    0x2da, #0x5
    1ac6:	10 00 20    	mov.w     #0x1, w0
    1ac8:	01 00 20    	mov.w     #0x0, w1
    1aca:	d2 03 07    	rcall     0x2270 <_delay_by_nop> <.L0> <.LFB0> <.LFE16> <.Letext0> <.Ltext0>
        STRIKE2_RLED = ON; delay_by_nop(1);
    1acc:	da 02 a8    	bset.b    0x2da, #0x0
    1ace:	10 00 20    	mov.w     #0x1, w0
    1ad0:	01 00 20    	mov.w     #0x0, w1
    1ad2:	ce 03 07    	rcall     0x2270 <_delay_by_nop> <.L0> <.LFB0> <.LFE16> <.Letext0> <.Ltext0>
        STRIKE3_RLED = ON; delay_by_nop(1);
    1ad4:	cb e2 a8    	bset.b    0x2cb, #0x7
    1ad6:	10 00 20    	mov.w     #0x1, w0
    1ad8:	01 00 20    	mov.w     #0x0, w1
    1ada:	ca 03 07    	rcall     0x2270 <_delay_by_nop> <.L0> <.LFB0> <.LFE16> <.Letext0> <.Ltext0>

00001adc <.L58>:
    }

    // Perform state tasks
    if (IFS0bits.T1IF == 1) {
    1adc:	20 04 80    	mov.w     0x84, w0
    1ade:	68 00 60    	and.w     w0, #0x8, w0
    1ae0:	00 00 e0    	cp0.w     w0
    1ae2:	33 00 32    	bra       Z, 0x1b4a <.L59>
        IFS0bits.T1IF = 0;  // if it's been a second, lower the counter and show it
    1ae4:	84 60 a9    	bclr.b    0x84, #0x3
        // Blink RLEDs
        STRIKE1_RLED = !STRIKE1_RLED; delay_by_nop(1);
    1ae6:	d1 16 80    	mov.w     0x2da, w1
    1ae8:	00 02 20    	mov.w     #0x20, w0
    1aea:	00 80 60    	and.w     w1, w0, w0
    1aec:	00 f0 a7    	btsc.w    w0, #0xf
    1aee:	00 00 ea    	neg.w     w0, w0
    1af0:	00 00 e9    	dec.w     w0, w0
    1af2:	4f 00 de    	lsr.w     w0, #0xf, w0
    1af4:	00 40 78    	mov.b     w0, w0
    1af6:	00 80 fb    	ze        w0, w0
    1af8:	61 00 60    	and.w     w0, #0x1, w0
    1afa:	45 00 dd    	sl.w      w0, #0x5, w0
    1afc:	d2 16 80    	mov.w     0x2da, w2
    1afe:	f1 fd 2f    	mov.w     #0xffdf, w1
    1b00:	81 00 61    	and.w     w2, w1, w1
    1b02:	01 00 70    	ior.w     w0, w1, w0
    1b04:	d0 16 88    	mov.w     w0, 0x2da
    1b06:	10 00 20    	mov.w     #0x1, w0
    1b08:	01 00 20    	mov.w     #0x0, w1
    1b0a:	b2 03 07    	rcall     0x2270 <_delay_by_nop> <.L0> <.LFB0> <.LFE16> <.Letext0> <.Ltext0>
        STRIKE2_RLED = !STRIKE2_RLED; delay_by_nop(1);
    1b0c:	d0 16 80    	mov.w     0x2da, w0
    1b0e:	61 00 60    	and.w     w0, #0x1, w0
    1b10:	00 f0 a7    	btsc.w    w0, #0xf
    1b12:	00 00 ea    	neg.w     w0, w0
    1b14:	00 00 e9    	dec.w     w0, w0
    1b16:	4f 00 de    	lsr.w     w0, #0xf, w0
    1b18:	00 40 78    	mov.b     w0, w0
    1b1a:	00 80 fb    	ze        w0, w0
    1b1c:	61 00 60    	and.w     w0, #0x1, w0
    1b1e:	d2 16 80    	mov.w     0x2da, w2
    1b20:	e1 ff 2f    	mov.w     #0xfffe, w1
    1b22:	81 00 61    	and.w     w2, w1, w1
    1b24:	01 00 70    	ior.w     w0, w1, w0
    1b26:	d0 16 88    	mov.w     w0, 0x2da
    1b28:	10 00 20    	mov.w     #0x1, w0
    1b2a:	01 00 20    	mov.w     #0x0, w1
    1b2c:	a1 03 07    	rcall     0x2270 <_delay_by_nop> <.L0> <.LFB0> <.LFE16> <.Letext0> <.Ltext0>
        STRIKE3_RLED = !STRIKE3_RLED; delay_by_nop(1);
    1b2e:	50 16 80    	mov.w     0x2ca, w0
    1b30:	00 80 ea    	com.w     w0, w0
    1b32:	4f 00 de    	lsr.w     w0, #0xf, w0
    1b34:	00 40 78    	mov.b     w0, w0
    1b36:	00 80 fb    	ze        w0, w0
    1b38:	4f 00 dd    	sl.w      w0, #0xf, w0
    1b3a:	52 16 80    	mov.w     0x2ca, w2
    1b3c:	f1 ff 27    	mov.w     #0x7fff, w1
    1b3e:	81 00 61    	and.w     w2, w1, w1
    1b40:	01 00 70    	ior.w     w0, w1, w0
    1b42:	50 16 88    	mov.w     w0, 0x2ca
    1b44:	10 00 20    	mov.w     #0x1, w0
    1b46:	01 00 20    	mov.w     #0x0, w1
    1b48:	93 03 07    	rcall     0x2270 <_delay_by_nop> <.L0> <.LFB0> <.LFE16> <.Letext0> <.Ltext0>

00001b4a <.L59>:
    }

    // Check for state transitions

    /* NO TRANSITIONS */

    // if we are leaving the state, do clean up stuff
    if (state != last_state) {
    1b4a:	31 40 80    	mov.w     0x806, w1
    1b4c:	40 40 80    	mov.w     0x808, w0
    1b4e:	80 8f 50    	sub.w     w1, w0, [w15]
    1b50:	0e 00 32    	bra       Z, 0x1b6e <.L57>
        T1CONbits.TON = 0;
    1b52:	05 e1 a9    	bclr.b    0x105, #0x7
        OC1R = 0; // stop beep
    1b54:	96 21 ef    	clr.w     0x196
        STRIKE1_RLED = OFF; delay_by_nop(1);
    1b56:	da a2 a9    	bclr.b    0x2da, #0x5
    1b58:	10 00 20    	mov.w     #0x1, w0
    1b5a:	01 00 20    	mov.w     #0x0, w1
    1b5c:	89 03 07    	rcall     0x2270 <_delay_by_nop> <.L0> <.LFB0> <.LFE16> <.Letext0> <.Ltext0>
        STRIKE2_RLED = OFF; delay_by_nop(1); // turn off strike LEDs
    1b5e:	da 02 a9    	bclr.b    0x2da, #0x0
    1b60:	10 00 20    	mov.w     #0x1, w0
    1b62:	01 00 20    	mov.w     #0x0, w1
    1b64:	85 03 07    	rcall     0x2270 <_delay_by_nop> <.L0> <.LFB0> <.LFE16> <.Letext0> <.Ltext0>
        STRIKE3_RLED = OFF; delay_by_nop(1);
    1b66:	cb e2 a9    	bclr.b    0x2cb, #0x7
    1b68:	10 00 20    	mov.w     #0x1, w0
    1b6a:	01 00 20    	mov.w     #0x0, w1
    1b6c:	81 03 07    	rcall     0x2270 <_delay_by_nop> <.L0> <.LFB0> <.LFE16> <.Letext0> <.Ltext0>

00001b6e <.L57>:
    }
}
    1b6e:	00 80 fa    	ulnk      
    1b70:	00 00 06    	return    

00001b72 <_end_win>:

void end_win(void) {
    1b72:	00 00 fa    	lnk       #0x0
    if (state != last_state) {  // if we are entering the state, do initialization stuff
    1b74:	31 40 80    	mov.w     0x806, w1
    1b76:	40 40 80    	mov.w     0x808, w0
    1b78:	80 8f 50    	sub.w     w1, w0, [w15]
    1b7a:	12 00 32    	bra       Z, 0x1ba0 <.L62>
        last_state = state;
    1b7c:	30 40 80    	mov.w     0x806, w0
    1b7e:	40 40 88    	mov.w     w0, 0x808
        // start timer again to blink red LEDs
        IFS0bits.T1IF = 0; //lower interrupt flag
    1b80:	84 60 a9    	bclr.b    0x84, #0x3
        IEC0bits.T1IE = 0;
    1b82:	94 60 a9    	bclr.b    0x94, #0x3
        TMR1 = 0;          // reset timer register
    1b84:	00 21 ef    	clr.w     0x100
        T1CONbits.TON = 1; // enable 1 second timer
    1b86:	05 e1 a8    	bset.b    0x105, #0x7
        STRIKE1_GLED = ON; delay_by_nop(1); // Turn on strike LEDs red
    1b88:	da 82 a8    	bset.b    0x2da, #0x4
    1b8a:	10 00 20    	mov.w     #0x1, w0
    1b8c:	01 00 20    	mov.w     #0x0, w1
    1b8e:	70 03 07    	rcall     0x2270 <_delay_by_nop> <.L0> <.LFB0> <.LFE16> <.Letext0> <.Ltext0>
        STRIKE2_GLED = ON; delay_by_nop(1);
    1b90:	da 22 a8    	bset.b    0x2da, #0x1
    1b92:	10 00 20    	mov.w     #0x1, w0
    1b94:	01 00 20    	mov.w     #0x0, w1
    1b96:	6c 03 07    	rcall     0x2270 <_delay_by_nop> <.L0> <.LFB0> <.LFE16> <.Letext0> <.Ltext0>
        STRIKE3_GLED = ON; delay_by_nop(1);
    1b98:	ea 62 a8    	bset.b    0x2ea, #0x3
    1b9a:	10 00 20    	mov.w     #0x1, w0
    1b9c:	01 00 20    	mov.w     #0x0, w1
    1b9e:	68 03 07    	rcall     0x2270 <_delay_by_nop> <.L0> <.LFB0> <.LFE16> <.Letext0> <.Ltext0>

00001ba0 <.L62>:
    }

    // Perform state tasks
    if (IFS0bits.T1IF == 1) {
    1ba0:	20 04 80    	mov.w     0x84, w0
    1ba2:	68 00 60    	and.w     w0, #0x8, w0
    1ba4:	00 00 e0    	cp0.w     w0
    1ba6:	37 00 32    	bra       Z, 0x1c16 <.L63>
        IFS0bits.T1IF = 0;  // if it's been a second, lower the counter and show it
    1ba8:	84 60 a9    	bclr.b    0x84, #0x3
        // Blink GLEDs
        STRIKE1_GLED = !STRIKE1_GLED; delay_by_nop(1);
    1baa:	d0 16 80    	mov.w     0x2da, w0
    1bac:	70 00 60    	and.w     w0, #0x10, w0
    1bae:	00 f0 a7    	btsc.w    w0, #0xf
    1bb0:	00 00 ea    	neg.w     w0, w0
    1bb2:	00 00 e9    	dec.w     w0, w0
    1bb4:	4f 00 de    	lsr.w     w0, #0xf, w0
    1bb6:	00 40 78    	mov.b     w0, w0
    1bb8:	00 80 fb    	ze        w0, w0
    1bba:	61 00 60    	and.w     w0, #0x1, w0
    1bbc:	44 00 dd    	sl.w      w0, #0x4, w0
    1bbe:	d2 16 80    	mov.w     0x2da, w2
    1bc0:	f1 fe 2f    	mov.w     #0xffef, w1
    1bc2:	81 00 61    	and.w     w2, w1, w1
    1bc4:	01 00 70    	ior.w     w0, w1, w0
    1bc6:	d0 16 88    	mov.w     w0, 0x2da
    1bc8:	10 00 20    	mov.w     #0x1, w0
    1bca:	01 00 20    	mov.w     #0x0, w1
    1bcc:	51 03 07    	rcall     0x2270 <_delay_by_nop> <.L0> <.LFB0> <.LFE16> <.Letext0> <.Ltext0>
        STRIKE2_GLED = !STRIKE2_GLED; delay_by_nop(1);
    1bce:	d0 16 80    	mov.w     0x2da, w0
    1bd0:	62 00 60    	and.w     w0, #0x2, w0
    1bd2:	00 f0 a7    	btsc.w    w0, #0xf
    1bd4:	00 00 ea    	neg.w     w0, w0
    1bd6:	00 00 e9    	dec.w     w0, w0
    1bd8:	4f 00 de    	lsr.w     w0, #0xf, w0
    1bda:	00 40 78    	mov.b     w0, w0
    1bdc:	00 80 fb    	ze        w0, w0
    1bde:	61 00 60    	and.w     w0, #0x1, w0
    1be0:	00 00 40    	add.w     w0, w0, w0
    1be2:	d2 16 80    	mov.w     0x2da, w2
    1be4:	d1 ff 2f    	mov.w     #0xfffd, w1
    1be6:	81 00 61    	and.w     w2, w1, w1
    1be8:	01 00 70    	ior.w     w0, w1, w0
    1bea:	d0 16 88    	mov.w     w0, 0x2da
    1bec:	10 00 20    	mov.w     #0x1, w0
    1bee:	01 00 20    	mov.w     #0x0, w1
    1bf0:	3f 03 07    	rcall     0x2270 <_delay_by_nop> <.L0> <.LFB0> <.LFE16> <.Letext0> <.Ltext0>
        STRIKE3_GLED = !STRIKE3_GLED; delay_by_nop(1);
    1bf2:	50 17 80    	mov.w     0x2ea, w0
    1bf4:	68 00 60    	and.w     w0, #0x8, w0
    1bf6:	00 f0 a7    	btsc.w    w0, #0xf
    1bf8:	00 00 ea    	neg.w     w0, w0
    1bfa:	00 00 e9    	dec.w     w0, w0
    1bfc:	4f 00 de    	lsr.w     w0, #0xf, w0
    1bfe:	00 40 78    	mov.b     w0, w0
    1c00:	00 80 fb    	ze        w0, w0
    1c02:	61 00 60    	and.w     w0, #0x1, w0
    1c04:	43 00 dd    	sl.w      w0, #0x3, w0
    1c06:	52 17 80    	mov.w     0x2ea, w2
    1c08:	71 ff 2f    	mov.w     #0xfff7, w1
    1c0a:	81 00 61    	and.w     w2, w1, w1
    1c0c:	01 00 70    	ior.w     w0, w1, w0
    1c0e:	50 17 88    	mov.w     w0, 0x2ea
    1c10:	10 00 20    	mov.w     #0x1, w0
    1c12:	01 00 20    	mov.w     #0x0, w1
    1c14:	2d 03 07    	rcall     0x2270 <_delay_by_nop> <.L0> <.LFB0> <.LFE16> <.Letext0> <.Ltext0>

00001c16 <.L63>:
    }

    // Check for state transitions

    /* NO TRANSITIONS */

    // if we are leaving the state, do clean up stuff
    if (state != last_state) {
    1c16:	31 40 80    	mov.w     0x806, w1
    1c18:	40 40 80    	mov.w     0x808, w0
    1c1a:	80 8f 50    	sub.w     w1, w0, [w15]
    1c1c:	0d 00 32    	bra       Z, 0x1c38 <.L61>
        T1CONbits.TON = 0;
    1c1e:	05 e1 a9    	bclr.b    0x105, #0x7
        STRIKE1_GLED = OFF; delay_by_nop(1);
    1c20:	da 82 a9    	bclr.b    0x2da, #0x4
    1c22:	10 00 20    	mov.w     #0x1, w0
    1c24:	01 00 20    	mov.w     #0x0, w1
    1c26:	24 03 07    	rcall     0x2270 <_delay_by_nop> <.L0> <.LFB0> <.LFE16> <.Letext0> <.Ltext0>
        STRIKE2_GLED = OFF; delay_by_nop(1); // turn off strike LEDs
    1c28:	da 22 a9    	bclr.b    0x2da, #0x1
    1c2a:	10 00 20    	mov.w     #0x1, w0
    1c2c:	01 00 20    	mov.w     #0x0, w1
    1c2e:	20 03 07    	rcall     0x2270 <_delay_by_nop> <.L0> <.LFB0> <.LFE16> <.Letext0> <.Ltext0>
        STRIKE3_GLED = OFF; delay_by_nop(1);
    1c30:	ea 62 a9    	bclr.b    0x2ea, #0x3
    1c32:	10 00 20    	mov.w     #0x1, w0
    1c34:	01 00 20    	mov.w     #0x0, w1
    1c36:	1c 03 07    	rcall     0x2270 <_delay_by_nop> <.L0> <.LFB0> <.LFE16> <.Letext0> <.Ltext0>

00001c38 <.L61>:
    }
}
    1c38:	00 80 fa    	ulnk      
    1c3a:	00 00 06    	return    

00001c3c <_dispSeconds>:

// HELPER FUNCTIONS ************************************************************

// Display a seconds variable in minutes and seconds on the seven segment
void dispSeconds(uint16_t seconds) {
    1c3c:	06 00 fa    	lnk       #0x6
    1c3e:	20 07 98    	mov.w     w0, [w14+4]
    // Turn seconds into minutes and seconds
    uint16_t minutes = seconds / 60;
    1c40:	ae 00 90    	mov.w     [w14+4], w1
    1c42:	90 88 28    	mov.w     #0x8889, w0
    1c44:	00 08 b8    	mul.uu    w1, w0, w0
    1c46:	45 08 de    	lsr.w     w1, #0x5, w0
    1c48:	00 0f 78    	mov.w     w0, [w14]
    uint8_t displaySeconds = seconds % 60;
    1c4a:	2e 01 90    	mov.w     [w14+4], w2
    1c4c:	90 88 28    	mov.w     #0x8889, w0
    1c4e:	00 10 b8    	mul.uu    w2, w0, w0
    1c50:	45 08 de    	lsr.w     w1, #0x5, w0
    1c52:	c1 03 20    	mov.w     #0x3c, w1
    1c54:	01 80 b9    	mul.ss    w0, w1, w0
    1c56:	00 00 78    	mov.w     w0, w0
    1c58:	00 00 51    	sub.w     w2, w0, w0
    1c5a:	20 47 98    	mov.b     w0, [w14+2]
    sevseg_writeDigitNum(&matrix, 0, minutes / 10, 0);
    1c5c:	9e 00 78    	mov.w     [w14], w1
    1c5e:	d0 cc 2c    	mov.w     #0xcccd, w0
    1c60:	00 08 b8    	mul.uu    w1, w0, w0
    1c62:	43 08 de    	lsr.w     w1, #0x3, w0
    1c64:	00 40 78    	mov.b     w0, w0
    1c66:	80 41 eb    	clr.b     w3
    1c68:	00 41 78    	mov.b     w0, w2
    1c6a:	80 40 eb    	clr.b     w1
    1c6c:	e0 80 20    	mov.w     #0x80e, w0
    1c6e:	9f 01 07    	rcall     0x1fae <_sevseg_writeDigitNum> <.LFB11> <.LFE10>
    sevseg_writeDigitNum(&matrix, 1, minutes % 10, 0);
    1c70:	1e 01 78    	mov.w     [w14], w2
    1c72:	d0 cc 2c    	mov.w     #0xcccd, w0
    1c74:	00 10 b8    	mul.uu    w2, w0, w0
    1c76:	43 08 de    	lsr.w     w1, #0x3, w0
    1c78:	6a 00 b9    	mul.su    w0, #0xa, w0
    1c7a:	00 00 78    	mov.w     w0, w0
    1c7c:	00 00 51    	sub.w     w2, w0, w0
    1c7e:	00 40 78    	mov.b     w0, w0
    1c80:	80 41 eb    	clr.b     w3
    1c82:	00 41 78    	mov.b     w0, w2
    1c84:	11 c0 b3    	mov.b     #0x1, w1
    1c86:	e0 80 20    	mov.w     #0x80e, w0
    1c88:	92 01 07    	rcall     0x1fae <_sevseg_writeDigitNum> <.LFB11> <.LFE10>
    sevseg_drawColon(&matrix, 1); // Times are supposed to have a colon I guess
    1c8a:	11 c0 b3    	mov.b     #0x1, w1
    1c8c:	e0 80 20    	mov.w     #0x80e, w0
    1c8e:	ab 01 07    	rcall     0x1fe6 <_sevseg_drawColon> <.LFB12> <.LFE11>
    sevseg_writeDigitNum(&matrix, 3, (displaySeconds / 10) % 10, 0);
    1c90:	2e 40 90    	mov.b     [w14+2], w0
    1c92:	80 80 fb    	ze        w0, w1
    1c94:	d0 cc 2c    	mov.w     #0xcccd, w0
    1c96:	00 08 b8    	mul.uu    w1, w0, w0
    1c98:	43 08 de    	lsr.w     w1, #0x3, w0
    1c9a:	00 40 78    	mov.b     w0, w0
    1c9c:	00 81 fb    	ze        w0, w2
    1c9e:	d0 cc 2c    	mov.w     #0xcccd, w0
    1ca0:	00 10 b8    	mul.uu    w2, w0, w0
    1ca2:	43 08 de    	lsr.w     w1, #0x3, w0
    1ca4:	6a 00 b9    	mul.su    w0, #0xa, w0
    1ca6:	00 00 78    	mov.w     w0, w0
    1ca8:	00 00 51    	sub.w     w2, w0, w0
    1caa:	00 40 78    	mov.b     w0, w0
    1cac:	80 41 eb    	clr.b     w3
    1cae:	00 41 78    	mov.b     w0, w2
    1cb0:	31 c0 b3    	mov.b     #0x3, w1
    1cb2:	e0 80 20    	mov.w     #0x80e, w0
    1cb4:	7c 01 07    	rcall     0x1fae <_sevseg_writeDigitNum> <.LFB11> <.LFE10>
    sevseg_writeDigitNum(&matrix, 4, displaySeconds % 10, 0);
    1cb6:	2e 40 90    	mov.b     [w14+2], w0
    1cb8:	00 81 fb    	ze        w0, w2
    1cba:	d0 cc 2c    	mov.w     #0xcccd, w0
    1cbc:	00 10 b8    	mul.uu    w2, w0, w0
    1cbe:	43 08 de    	lsr.w     w1, #0x3, w0
    1cc0:	6a 00 b9    	mul.su    w0, #0xa, w0
    1cc2:	00 00 78    	mov.w     w0, w0
    1cc4:	00 00 51    	sub.w     w2, w0, w0
    1cc6:	00 40 78    	mov.b     w0, w0
    1cc8:	80 41 eb    	clr.b     w3
    1cca:	00 41 78    	mov.b     w0, w2
    1ccc:	41 c0 b3    	mov.b     #0x4, w1
    1cce:	e0 80 20    	mov.w     #0x80e, w0
    1cd0:	6e 01 07    	rcall     0x1fae <_sevseg_writeDigitNum> <.LFB11> <.LFE10>

    led_writeDisplay((_ADAFRUIT_LED*)&matrix.super); //Don't forget to actually write the data!
    1cd2:	e0 80 20    	mov.w     #0x80e, w0
    1cd4:	5d 00 07    	rcall     0x1d90 <_led_writeDisplay> <.LFB3> <.LFE2>
}
    1cd6:	00 80 fa    	ulnk      
    1cd8:	00 00 06    	return    

00001cda <_drawOnce>:

// Draw 1234 on the seven segment
void drawOnce(void) {
    1cda:	00 00 fa    	lnk       #0x0
    sevseg_writeDigitNum(&matrix, 0, 1, 0);
    1cdc:	80 41 eb    	clr.b     w3
    1cde:	12 c0 b3    	mov.b     #0x1, w2
    1ce0:	80 40 eb    	clr.b     w1
    1ce2:	e0 80 20    	mov.w     #0x80e, w0
    1ce4:	64 01 07    	rcall     0x1fae <_sevseg_writeDigitNum> <.LFB11> <.LFE10>
    sevseg_writeDigitNum(&matrix, 1, 2, 0);
    1ce6:	80 41 eb    	clr.b     w3
    1ce8:	22 c0 b3    	mov.b     #0x2, w2
    1cea:	11 c0 b3    	mov.b     #0x1, w1
    1cec:	e0 80 20    	mov.w     #0x80e, w0
    1cee:	5f 01 07    	rcall     0x1fae <_sevseg_writeDigitNum> <.LFB11> <.LFE10>
    sevseg_writeDigitNum(&matrix, 3, 3, 0);
    1cf0:	80 41 eb    	clr.b     w3
    1cf2:	32 c0 b3    	mov.b     #0x3, w2
    1cf4:	31 c0 b3    	mov.b     #0x3, w1
    1cf6:	e0 80 20    	mov.w     #0x80e, w0
    1cf8:	5a 01 07    	rcall     0x1fae <_sevseg_writeDigitNum> <.LFB11> <.LFE10>
    sevseg_writeDigitNum(&matrix, 4, 4, 0);
    1cfa:	80 41 eb    	clr.b     w3
    1cfc:	42 c0 b3    	mov.b     #0x4, w2
    1cfe:	41 c0 b3    	mov.b     #0x4, w1
    1d00:	e0 80 20    	mov.w     #0x80e, w0
    1d02:	55 01 07    	rcall     0x1fae <_sevseg_writeDigitNum> <.LFB11> <.LFE10>
    led_writeDisplay((_ADAFRUIT_LED*)&matrix.super);
    1d04:	e0 80 20    	mov.w     #0x80e, w0
    1d06:	44 00 07    	rcall     0x1d90 <_led_writeDisplay> <.LFB3> <.LFE2>
}
    1d08:	00 80 fa    	ulnk      
    1d0a:	00 00 06    	return    

00001d0c <_led_begin>:

};


void led_begin(_ADAFRUIT_LED* ptr, uint8_t addr){
    1d0c:	04 00 fa    	lnk       #0x4
    1d0e:	00 0f 78    	mov.w     w0, [w14]
    1d10:	21 47 98    	mov.b     w1, [w14+2]
  ptr->i2c_addr = addr;
    1d12:	1e 00 78    	mov.w     [w14], w0
    1d14:	ae 40 90    	mov.b     [w14+2], w1
    1d16:	01 50 98    	mov.b     w1, [w0+16]
  i2c_start();
    1d18:	cb 02 07    	rcall     0x22b0 <_i2c_start> <.LFB2> <.LFE1>
  send_i2c_byte(ptr->i2c_addr);
    1d1a:	1e 00 78    	mov.w     [w14], w0
    1d1c:	00 50 90    	mov.b     [w0+16], w0
    1d1e:	00 80 fb    	ze        w0, w0
    1d20:	16 03 07    	rcall     0x234e <_send_i2c_byte> <.LFB5> <.LFE4>
  send_i2c_byte(0x21); // turn on oscillator
    1d22:	10 02 20    	mov.w     #0x21, w0
    1d24:	14 03 07    	rcall     0x234e <_send_i2c_byte> <.LFB5> <.LFE4>
  reset_i2c_bus();
    1d26:	f8 02 07    	rcall     0x2318 <_reset_i2c_bus> <.LFB4> <.LFE3>
  led_blinkRate((_ADAFRUIT_LED *)ptr, HT16K33_BLINK_OFF);
    1d28:	80 40 eb    	clr.b     w1
    1d2a:	1e 00 78    	mov.w     [w14], w0
    1d2c:	1a 00 07    	rcall     0x1d62 <_led_blinkRate> <.LFB2> <.LFE1>
  led_setBrightness((_ADAFRUIT_LED *)ptr,15); // set max brightness
    1d2e:	f1 c0 b3    	mov.b     #0xf, w1
    1d30:	1e 00 78    	mov.w     [w14], w0
    1d32:	02 00 07    	rcall     0x1d38 <_led_setBrightness> <.LFB1> <.LFE0>
}
    1d34:	00 80 fa    	ulnk      
    1d36:	00 00 06    	return    

00001d38 <_led_setBrightness>:

void led_setBrightness(_ADAFRUIT_LED* ptr, uint8_t b){
    1d38:	04 00 fa    	lnk       #0x4
    1d3a:	00 0f 78    	mov.w     w0, [w14]
    1d3c:	21 47 98    	mov.b     w1, [w14+2]
  if (b > 15) b = 15;
    1d3e:	2e 40 90    	mov.b     [w14+2], w0
    1d40:	ef 4f 50    	sub.b     w0, #0xf, [w15]
    1d42:	02 00 36    	bra       LEU, 0x1d48 <.L3>
    1d44:	f0 c0 b3    	mov.b     #0xf, w0
    1d46:	20 47 98    	mov.b     w0, [w14+2]

00001d48 <.L3>:
  i2c_start();
    1d48:	b3 02 07    	rcall     0x22b0 <_i2c_start> <.LFB2> <.LFE1>
  send_i2c_byte(ptr->i2c_addr);
    1d4a:	1e 00 78    	mov.w     [w14], w0
    1d4c:	00 50 90    	mov.b     [w0+16], w0
    1d4e:	00 80 fb    	ze        w0, w0
    1d50:	fe 02 07    	rcall     0x234e <_send_i2c_byte> <.LFB5> <.LFE4>
  send_i2c_byte(HT16K33_CMD_BRIGHTNESS | b);
    1d52:	ae 40 90    	mov.b     [w14+2], w1
    1d54:	00 ce b3    	mov.b     #0xe0, w0
    1d56:	00 c0 70    	ior.b     w1, w0, w0
    1d58:	00 80 fb    	ze        w0, w0
    1d5a:	f9 02 07    	rcall     0x234e <_send_i2c_byte> <.LFB5> <.LFE4>
  reset_i2c_bus();
    1d5c:	dd 02 07    	rcall     0x2318 <_reset_i2c_bus> <.LFB4> <.LFE3>
}
    1d5e:	00 80 fa    	ulnk      
    1d60:	00 00 06    	return    

00001d62 <_led_blinkRate>:

void led_blinkRate(_ADAFRUIT_LED* ptr, uint8_t b){
    1d62:	04 00 fa    	lnk       #0x4
    1d64:	00 0f 78    	mov.w     w0, [w14]
    1d66:	21 47 98    	mov.b     w1, [w14+2]
  i2c_start();
    1d68:	a3 02 07    	rcall     0x22b0 <_i2c_start> <.LFB2> <.LFE1>
  send_i2c_byte(ptr->i2c_addr);
    1d6a:	1e 00 78    	mov.w     [w14], w0
    1d6c:	00 50 90    	mov.b     [w0+16], w0
    1d6e:	00 80 fb    	ze        w0, w0
    1d70:	ee 02 07    	rcall     0x234e <_send_i2c_byte> <.LFB5> <.LFE4>
  if (b > 3) b = 0; // turn off if not sure
    1d72:	2e 40 90    	mov.b     [w14+2], w0
    1d74:	e3 4f 50    	sub.b     w0, #0x3, [w15]
    1d76:	02 00 36    	bra       LEU, 0x1d7c <.L5>
    1d78:	00 40 eb    	clr.b     w0
    1d7a:	20 47 98    	mov.b     w0, [w14+2]

00001d7c <.L5>:
  send_i2c_byte(HT16K33_BLINK_CMD | HT16K33_BLINK_DISPLAYON | (b << 1));
    1d7c:	2e 40 90    	mov.b     [w14+2], w0
    1d7e:	00 80 fb    	ze        w0, w0
    1d80:	00 00 40    	add.w     w0, w0, w0
    1d82:	80 00 78    	mov.w     w0, w1
    1d84:	10 08 20    	mov.w     #0x81, w0
    1d86:	01 00 70    	ior.w     w0, w1, w0
    1d88:	e2 02 07    	rcall     0x234e <_send_i2c_byte> <.LFB5> <.LFE4>
  reset_i2c_bus();
    1d8a:	c6 02 07    	rcall     0x2318 <_reset_i2c_bus> <.LFB4> <.LFE3>
}
    1d8c:	00 80 fa    	ulnk      
    1d8e:	00 00 06    	return    

00001d90 <_led_writeDisplay>:

void led_writeDisplay(_ADAFRUIT_LED* ptr){
    1d90:	04 00 fa    	lnk       #0x4
    1d92:	10 07 98    	mov.w     w0, [w14+2]
  i2c_start();
    1d94:	8d 02 07    	rcall     0x22b0 <_i2c_start> <.LFB2> <.LFE1>
  send_i2c_byte(ptr->i2c_addr);
    1d96:	1e 00 90    	mov.w     [w14+2], w0
    1d98:	00 50 90    	mov.b     [w0+16], w0
    1d9a:	00 80 fb    	ze        w0, w0
    1d9c:	d8 02 07    	rcall     0x234e <_send_i2c_byte> <.LFB5> <.LFE4>
	send_i2c_byte(0x00); // Start at address 0
    1d9e:	00 00 eb    	clr.w     w0
    1da0:	d6 02 07    	rcall     0x234e <_send_i2c_byte> <.LFB5> <.LFE4>
	uint8_t i;
  for (i=0; i<8; i++) {
    1da2:	00 40 eb    	clr.b     w0
    1da4:	00 4f 78    	mov.b     w0, [w14]
    1da6:	0f 00 37    	bra       0x1dc6 <.L7>

00001da8 <.L8>:
    send_i2c_byte(ptr->displaybuffer[i] & 0xFF);
    1da8:	1e 80 fb    	ze        [w14], w0
    1daa:	9e 00 90    	mov.w     [w14+2], w1
    1dac:	00 00 40    	add.w     w0, w0, w0
    1dae:	61 00 78    	mov.w     [w1+w0], w0
    1db0:	80 00 78    	mov.w     w0, w1
    1db2:	f0 0f 20    	mov.w     #0xff, w0
    1db4:	00 80 60    	and.w     w1, w0, w0
    1db6:	cb 02 07    	rcall     0x234e <_send_i2c_byte> <.LFB5> <.LFE4>
    send_i2c_byte(ptr->displaybuffer[i] >> 8);
    1db8:	1e 80 fb    	ze        [w14], w0
    1dba:	9e 00 90    	mov.w     [w14+2], w1
    1dbc:	00 00 40    	add.w     w0, w0, w0
    1dbe:	61 00 78    	mov.w     [w1+w0], w0
    1dc0:	48 00 de    	lsr.w     w0, #0x8, w0
    1dc2:	c5 02 07    	rcall     0x234e <_send_i2c_byte> <.LFB5> <.LFE4>
    1dc4:	1e 4f e8    	inc.b     [w14], [w14]

00001dc6 <.L7>:
    1dc6:	1e 40 78    	mov.b     [w14], w0
    1dc8:	e7 4f 50    	sub.b     w0, #0x7, [w15]
    1dca:	ee ff 36    	bra       LEU, 0x1da8 <.L8>
  }
  reset_i2c_bus();
    1dcc:	a5 02 07    	rcall     0x2318 <_reset_i2c_bus> <.LFB4> <.LFE3>
}
    1dce:	00 80 fa    	ulnk      
    1dd0:	00 00 06    	return    

00001dd2 <_led_clear>:

void led_clear(_ADAFRUIT_LED* ptr){
    1dd2:	04 00 fa    	lnk       #0x4
    1dd4:	10 07 98    	mov.w     w0, [w14+2]
	uint8_t i;
	for (i=0; i<8; i++) {
    1dd6:	00 40 eb    	clr.b     w0
    1dd8:	00 4f 78    	mov.b     w0, [w14]
    1dda:	07 00 37    	bra       0x1dea <.L10>

00001ddc <.L11>:
    ptr->displaybuffer[i] = 0;
    1ddc:	1e 80 fb    	ze        [w14], w0
    1dde:	9e 00 90    	mov.w     [w14+2], w1
    1de0:	00 00 40    	add.w     w0, w0, w0
    1de2:	00 80 40    	add.w     w1, w0, w0
    1de4:	80 00 eb    	clr.w     w1
    1de6:	01 08 78    	mov.w     w1, [w0]
    1de8:	1e 4f e8    	inc.b     [w14], [w14]

00001dea <.L10>:
    1dea:	1e 40 78    	mov.b     [w14], w0
    1dec:	e7 4f 50    	sub.b     w0, #0x7, [w15]
    1dee:	f6 ff 36    	bra       LEU, 0x1ddc <.L11>
  }
}
    1df0:	00 80 fa    	ulnk      
    1df2:	00 00 06    	return    

00001df4 <_alphanum_begin>:

// ALPHANUM ********************************************************************

void alphanum_begin(_ALPHANUM* ptr, uint8_t addr){
    1df4:	04 00 fa    	lnk       #0x4
    1df6:	00 0f 78    	mov.w     w0, [w14]
    1df8:	21 47 98    	mov.b     w1, [w14+2]
  led_begin((_ADAFRUIT_LED *)ptr, addr); // Call super constructor
    1dfa:	1e 00 78    	mov.w     [w14], w0
    1dfc:	ae 40 90    	mov.b     [w14+2], w1
    1dfe:	86 ff 07    	rcall     0x1d0c <_led_begin> <.L0> <.LFB0> <.LFE9> <.Letext0> <.Ltext0>
}
    1e00:	00 80 fa    	ulnk      
    1e02:	00 00 06    	return    

00001e04 <_alphanum_writeDigitRaw>:

void alphanum_writeDigitRaw(_ALPHANUM* ptr, uint8_t n, uint16_t bitmask){
    1e04:	06 00 fa    	lnk       #0x6
    1e06:	00 0f 78    	mov.w     w0, [w14]
    1e08:	21 47 98    	mov.b     w1, [w14+2]
    1e0a:	22 07 98    	mov.w     w2, [w14+4]
  ptr->super.displaybuffer[n] = bitmask;
    1e0c:	2e 40 90    	mov.b     [w14+2], w0
    1e0e:	00 80 fb    	ze        w0, w0
    1e10:	9e 00 78    	mov.w     [w14], w1
    1e12:	00 00 40    	add.w     w0, w0, w0
    1e14:	00 80 40    	add.w     w1, w0, w0
    1e16:	ae 00 90    	mov.w     [w14+4], w1
    1e18:	01 08 78    	mov.w     w1, [w0]
}
    1e1a:	00 80 fa    	ulnk      
    1e1c:	00 00 06    	return    

00001e1e <_alphanum_writeDigitAscii>:

void alphanum_writeDigitAscii(_ALPHANUM* ptr, uint8_t n, uint8_t ascii, uint8_t dot){
    1e1e:	08 00 fa    	lnk       #0x8
    1e20:	10 07 98    	mov.w     w0, [w14+2]
    1e22:	41 47 98    	mov.b     w1, [w14+4]
    1e24:	52 47 98    	mov.b     w2, [w14+5]
    1e26:	63 47 98    	mov.b     w3, [w14+6]
  uint16_t font = alphafonttable[ascii];
    1e28:	5e 40 90    	mov.b     [w14+5], w0
    1e2a:	00 80 fb    	ze        w0, w0
    1e2c:	80 00 40    	add.w     w0, w0, w1
    1e2e:	00 5c 29    	mov.w     #0x95c0, w0
    1e30:	00 80 40    	add.w     w1, w0, w0
    1e32:	10 0f 78    	mov.w     [w0], [w14]
  ptr->super.displaybuffer[n] = font;
    1e34:	4e 40 90    	mov.b     [w14+4], w0
    1e36:	00 80 fb    	ze        w0, w0
    1e38:	9e 00 90    	mov.w     [w14+2], w1
    1e3a:	00 00 40    	add.w     w0, w0, w0
    1e3c:	00 80 40    	add.w     w1, w0, w0
    1e3e:	1e 08 78    	mov.w     [w14], [w0]
  if (dot) ptr->super.displaybuffer[n] |= (1<<14);
    1e40:	6e 40 90    	mov.b     [w14+6], w0
    1e42:	00 04 e0    	cp0.b     w0
    1e44:	0c 00 32    	bra       Z, 0x1e5e <.L14>
    1e46:	4e 40 90    	mov.b     [w14+4], w0
    1e48:	00 80 fb    	ze        w0, w0
    1e4a:	ce 40 90    	mov.b     [w14+4], w1
    1e4c:	81 80 fb    	ze        w1, w1
    1e4e:	1e 01 90    	mov.w     [w14+2], w2
    1e50:	81 80 40    	add.w     w1, w1, w1
    1e52:	e2 80 78    	mov.w     [w2+w1], w1
    1e54:	01 e0 a0    	bset.w    w1, #0xe
    1e56:	1e 01 90    	mov.w     [w14+2], w2
    1e58:	00 00 40    	add.w     w0, w0, w0
    1e5a:	00 00 41    	add.w     w2, w0, w0
    1e5c:	01 08 78    	mov.w     w1, [w0]

00001e5e <.L14>:
}
    1e5e:	00 80 fa    	ulnk      
    1e60:	00 00 06    	return    

00001e62 <_bargraph_begin>:

// 24 BARGRAPH *****************************************************************

void bargraph_begin(_BARGRAPH* ptr, uint8_t addr){
    1e62:	04 00 fa    	lnk       #0x4
    1e64:	00 0f 78    	mov.w     w0, [w14]
    1e66:	21 47 98    	mov.b     w1, [w14+2]
  led_begin((_ADAFRUIT_LED *)ptr, addr);
    1e68:	1e 00 78    	mov.w     [w14], w0
    1e6a:	ae 40 90    	mov.b     [w14+2], w1
    1e6c:	4f ff 07    	rcall     0x1d0c <_led_begin> <.L0> <.LFB0> <.LFE9> <.Letext0> <.Ltext0>
}
    1e6e:	00 80 fa    	ulnk      
    1e70:	00 00 06    	return    

00001e72 <_bargraph_setBar>:

void bargraph_setBar(_BARGRAPH* ptr, uint8_t bar, uint8_t color){
    1e72:	08 00 fa    	lnk       #0x8
    1e74:	20 07 98    	mov.w     w0, [w14+4]
    1e76:	61 47 98    	mov.b     w1, [w14+6]
    1e78:	72 47 98    	mov.b     w2, [w14+7]
  uint16_t a, c;

  if (bar < 12)
    1e7a:	6e 40 90    	mov.b     [w14+6], w0
    1e7c:	eb 4f 50    	sub.b     w0, #0xb, [w15]
    1e7e:	07 00 3e    	bra       GTU, 0x1e8e <.L18>
    c = bar / 4;
    1e80:	6e 40 90    	mov.b     [w14+6], w0
    1e82:	00 80 fb    	ze        w0, w0
    1e84:	42 00 de    	lsr.w     w0, #0x2, w0
    1e86:	00 40 78    	mov.b     w0, w0
    1e88:	00 80 fb    	ze        w0, w0
    1e8a:	10 07 98    	mov.w     w0, [w14+2]
    1e8c:	08 00 37    	bra       0x1e9e <.L19>

00001e8e <.L18>:
  else
    c = (bar - 12) / 4;
    1e8e:	6e 40 90    	mov.b     [w14+6], w0
    1e90:	00 80 fb    	ze        w0, w0
    1e92:	6c 00 50    	sub.w     w0, #0xc, w0
    1e94:	00 00 e0    	cp0.w     w0
    1e96:	01 00 3d    	bra       GE, 0x1e9a <.L20>
    1e98:	63 00 40    	add.w     w0, #0x3, w0

00001e9a <.L20>:
    1e9a:	42 80 de    	asr.w     w0, #0x2, w0
    1e9c:	10 07 98    	mov.w     w0, [w14+2]

00001e9e <.L19>:

  a = bar % 4;
    1e9e:	6e 40 90    	mov.b     [w14+6], w0
    1ea0:	00 80 fb    	ze        w0, w0
    1ea2:	63 0f 60    	and.w     w0, #0x3, [w14]
  if (bar >= 12)
    1ea4:	6e 40 90    	mov.b     [w14+6], w0
    1ea6:	eb 4f 50    	sub.b     w0, #0xb, [w15]
    1ea8:	02 00 36    	bra       LEU, 0x1eae <.L21>
    a += 4;
    1eaa:	9e 00 78    	mov.w     [w14], w1
    1eac:	64 8f 40    	add.w     w1, #0x4, [w14]

00001eae <.L21>:

  //Serial.print("Ano = "); Serial.print(a); Serial.print(" Cath = "); Serial.println(c);
  if (color == LED_RED) {
    1eae:	7e 40 90    	mov.b     [w14+7], w0
    1eb0:	e1 4f 50    	sub.b     w0, #0x1, [w15]
    1eb2:	1d 00 3a    	bra       NZ, 0x1eee <.L22>
    // Turn on red LED.
    ptr->super.displaybuffer[c] |= _BV(a);
    1eb4:	ae 00 90    	mov.w     [w14+4], w1
    1eb6:	1e 00 90    	mov.w     [w14+2], w0
    1eb8:	00 00 40    	add.w     w0, w0, w0
    1eba:	e1 00 78    	mov.w     [w1+w0], w1
    1ebc:	1e 00 78    	mov.w     [w14], w0
    1ebe:	12 00 20    	mov.w     #0x1, w2
    1ec0:	00 10 dd    	sl.w      w2, w0, w0
    1ec2:	81 00 70    	ior.w     w0, w1, w1
    1ec4:	2e 01 90    	mov.w     [w14+4], w2
    1ec6:	1e 00 90    	mov.w     [w14+2], w0
    1ec8:	00 00 40    	add.w     w0, w0, w0
    1eca:	00 00 41    	add.w     w2, w0, w0
    1ecc:	01 08 78    	mov.w     w1, [w0]
    // Turn off green LED.
    ptr->super.displaybuffer[c] &= ~_BV(a+8);
    1ece:	ae 00 90    	mov.w     [w14+4], w1
    1ed0:	1e 00 90    	mov.w     [w14+2], w0
    1ed2:	00 00 40    	add.w     w0, w0, w0
    1ed4:	e1 00 78    	mov.w     [w1+w0], w1
    1ed6:	1e 01 78    	mov.w     [w14], w2
    1ed8:	68 00 41    	add.w     w2, #0x8, w0
    1eda:	12 00 20    	mov.w     #0x1, w2
    1edc:	00 10 dd    	sl.w      w2, w0, w0
    1ede:	00 80 ea    	com.w     w0, w0
    1ee0:	80 80 60    	and.w     w1, w0, w1
    1ee2:	2e 01 90    	mov.w     [w14+4], w2
    1ee4:	1e 00 90    	mov.w     [w14+2], w0
    1ee6:	00 00 40    	add.w     w0, w0, w0
    1ee8:	00 00 41    	add.w     w2, w0, w0
    1eea:	01 08 78    	mov.w     w1, [w0]
    1eec:	4c 00 37    	bra       0x1f86 <.L17>

00001eee <.L22>:
  } else if (color == LED_YELLOW) {
    1eee:	7e 40 90    	mov.b     [w14+7], w0
    1ef0:	e2 4f 50    	sub.b     w0, #0x2, [w15]
    1ef2:	13 00 3a    	bra       NZ, 0x1f1a <.L24>
    // Turn on red and green LED.
    ptr->super.displaybuffer[c] |= _BV(a) | _BV(a+8);
    1ef4:	ae 00 90    	mov.w     [w14+4], w1
    1ef6:	1e 00 90    	mov.w     [w14+2], w0
    1ef8:	00 00 40    	add.w     w0, w0, w0
    1efa:	e1 00 78    	mov.w     [w1+w0], w1
    1efc:	1e 00 78    	mov.w     [w14], w0
    1efe:	12 00 20    	mov.w     #0x1, w2
    1f00:	00 11 dd    	sl.w      w2, w0, w2
    1f02:	9e 01 78    	mov.w     [w14], w3
    1f04:	68 80 41    	add.w     w3, #0x8, w0
    1f06:	13 00 20    	mov.w     #0x1, w3
    1f08:	00 18 dd    	sl.w      w3, w0, w0
    1f0a:	02 00 70    	ior.w     w0, w2, w0
    1f0c:	81 00 70    	ior.w     w0, w1, w1
    1f0e:	2e 01 90    	mov.w     [w14+4], w2
    1f10:	1e 00 90    	mov.w     [w14+2], w0
    1f12:	00 00 40    	add.w     w0, w0, w0
    1f14:	00 00 41    	add.w     w2, w0, w0
    1f16:	01 08 78    	mov.w     w1, [w0]
    1f18:	36 00 37    	bra       0x1f86 <.L17>

00001f1a <.L24>:
  } else if (color == LED_OFF) {
    1f1a:	7e 40 90    	mov.b     [w14+7], w0
    1f1c:	00 04 e0    	cp0.b     w0
    1f1e:	14 00 3a    	bra       NZ, 0x1f48 <.L25>
    // Turn off red and green LED.
    ptr->super.displaybuffer[c] &= ~_BV(a) & ~_BV(a+8);
    1f20:	ae 00 90    	mov.w     [w14+4], w1
    1f22:	1e 00 90    	mov.w     [w14+2], w0
    1f24:	00 00 40    	add.w     w0, w0, w0
    1f26:	e1 00 78    	mov.w     [w1+w0], w1
    1f28:	1e 00 78    	mov.w     [w14], w0
    1f2a:	12 00 20    	mov.w     #0x1, w2
    1f2c:	00 11 dd    	sl.w      w2, w0, w2
    1f2e:	9e 01 78    	mov.w     [w14], w3
    1f30:	68 80 41    	add.w     w3, #0x8, w0
    1f32:	13 00 20    	mov.w     #0x1, w3
    1f34:	00 18 dd    	sl.w      w3, w0, w0
    1f36:	02 00 70    	ior.w     w0, w2, w0
    1f38:	00 80 ea    	com.w     w0, w0
    1f3a:	80 80 60    	and.w     w1, w0, w1
    1f3c:	2e 01 90    	mov.w     [w14+4], w2
    1f3e:	1e 00 90    	mov.w     [w14+2], w0
    1f40:	00 00 40    	add.w     w0, w0, w0
    1f42:	00 00 41    	add.w     w2, w0, w0
    1f44:	01 08 78    	mov.w     w1, [w0]
    1f46:	1f 00 37    	bra       0x1f86 <.L17>

00001f48 <.L25>:
  } else if (color == LED_GREEN) {
    1f48:	7e 40 90    	mov.b     [w14+7], w0
    1f4a:	e3 4f 50    	sub.b     w0, #0x3, [w15]
    1f4c:	1c 00 3a    	bra       NZ, 0x1f86 <.L17>
    // Turn on green LED.
    ptr->super.displaybuffer[c] |= _BV(a+8);
    1f4e:	ae 00 90    	mov.w     [w14+4], w1
    1f50:	1e 00 90    	mov.w     [w14+2], w0
    1f52:	00 00 40    	add.w     w0, w0, w0
    1f54:	e1 00 78    	mov.w     [w1+w0], w1
    1f56:	1e 01 78    	mov.w     [w14], w2
    1f58:	68 00 41    	add.w     w2, #0x8, w0
    1f5a:	12 00 20    	mov.w     #0x1, w2
    1f5c:	00 10 dd    	sl.w      w2, w0, w0
    1f5e:	81 00 70    	ior.w     w0, w1, w1
    1f60:	2e 01 90    	mov.w     [w14+4], w2
    1f62:	1e 00 90    	mov.w     [w14+2], w0
    1f64:	00 00 40    	add.w     w0, w0, w0
    1f66:	00 00 41    	add.w     w2, w0, w0
    1f68:	01 08 78    	mov.w     w1, [w0]
    // Turn off red LED.
    ptr->super.displaybuffer[c] &= ~_BV(a);
    1f6a:	ae 00 90    	mov.w     [w14+4], w1
    1f6c:	1e 00 90    	mov.w     [w14+2], w0
    1f6e:	00 00 40    	add.w     w0, w0, w0
    1f70:	e1 00 78    	mov.w     [w1+w0], w1
    1f72:	1e 00 78    	mov.w     [w14], w0
    1f74:	12 00 20    	mov.w     #0x1, w2
    1f76:	00 10 dd    	sl.w      w2, w0, w0
    1f78:	00 80 ea    	com.w     w0, w0
    1f7a:	80 80 60    	and.w     w1, w0, w1
    1f7c:	2e 01 90    	mov.w     [w14+4], w2
    1f7e:	1e 00 90    	mov.w     [w14+2], w0
    1f80:	00 00 40    	add.w     w0, w0, w0
    1f82:	00 00 41    	add.w     w2, w0, w0
    1f84:	01 08 78    	mov.w     w1, [w0]

00001f86 <.L17>:
  }
}
    1f86:	00 80 fa    	ulnk      
    1f88:	00 00 06    	return    

00001f8a <_sevseg_writeDigitRaw>:

// 7SEGMENT ********************************************************************

// uint8_t write(_7SEGMENT* ptr, uint8_t c){
//
//   uint8_t r = 0;
//
//   if (c == '\n') ptr->position = 0;
//   if (c == '\r') ptr->position = 0;
//
//   if ((c >= '0') && (c <= '9')) {
//     sevseg_writeDigitNum(ptr, ptr->position, c-'0', 0);
//     r = 1;
//   }
//
//   ptr->position++;
//   if (ptr->position == 2) ptr->position++;
//
//   return r;
// }

void sevseg_writeDigitRaw(_7SEGMENT* ptr, uint8_t x, uint16_t bitmask){
    1f8a:	06 00 fa    	lnk       #0x6
    1f8c:	00 0f 78    	mov.w     w0, [w14]
    1f8e:	21 47 98    	mov.b     w1, [w14+2]
    1f90:	22 07 98    	mov.w     w2, [w14+4]
  if (x > 4) return;
    1f92:	2e 40 90    	mov.b     [w14+2], w0
    1f94:	e4 4f 50    	sub.b     w0, #0x4, [w15]
    1f96:	08 00 3e    	bra       GTU, 0x1fa8 <.L29>
  ptr->super.displaybuffer[x] = bitmask;
    1f98:	2e 40 90    	mov.b     [w14+2], w0
    1f9a:	00 80 fb    	ze        w0, w0
    1f9c:	9e 00 78    	mov.w     [w14], w1
    1f9e:	00 00 40    	add.w     w0, w0, w0
    1fa0:	00 80 40    	add.w     w1, w0, w0
    1fa2:	ae 00 90    	mov.w     [w14+4], w1
    1fa4:	01 08 78    	mov.w     w1, [w0]
    1fa6:	01 00 37    	bra       0x1faa <.L26>

00001fa8 <.L29>:
    1fa8:	00 00 00    	nop       

00001faa <.L26>:
}
    1faa:	00 80 fa    	ulnk      
    1fac:	00 00 06    	return    

00001fae <_sevseg_writeDigitNum>:

void sevseg_writeDigitNum(_7SEGMENT* ptr, uint8_t x, uint8_t num, uint8_t dot){
    1fae:	08 00 fa    	lnk       #0x8
    1fb0:	10 07 98    	mov.w     w0, [w14+2]
    1fb2:	41 47 98    	mov.b     w1, [w14+4]
    1fb4:	52 47 98    	mov.b     w2, [w14+5]
    1fb6:	63 47 98    	mov.b     w3, [w14+6]
  if (x > 4) return;
    1fb8:	4e 40 90    	mov.b     [w14+4], w0
    1fba:	e4 4f 50    	sub.b     w0, #0x4, [w15]
    1fbc:	11 00 3e    	bra       GTU, 0x1fe0 <.L33>
	uint16_t zero = 0x0000;
    1fbe:	00 00 eb    	clr.w     w0
    1fc0:	00 0f 78    	mov.w     w0, [w14]
  sevseg_writeDigitRaw(ptr, x, (numbertable[num] | (dot << 7)));
    1fc2:	5e 40 90    	mov.b     [w14+5], w0
    1fc4:	00 80 fb    	ze        w0, w0
    1fc6:	80 00 40    	add.w     w0, w0, w1
    1fc8:	c0 59 29    	mov.w     #0x959c, w0
    1fca:	00 80 40    	add.w     w1, w0, w0
    1fcc:	90 00 78    	mov.w     [w0], w1
    1fce:	6e 40 90    	mov.b     [w14+6], w0
    1fd0:	00 80 fb    	ze        w0, w0
    1fd2:	47 00 dd    	sl.w      w0, #0x7, w0
    1fd4:	01 00 70    	ior.w     w0, w1, w0
    1fd6:	00 01 78    	mov.w     w0, w2
    1fd8:	ce 40 90    	mov.b     [w14+4], w1
    1fda:	1e 00 90    	mov.w     [w14+2], w0
    1fdc:	d6 ff 07    	rcall     0x1f8a <_sevseg_writeDigitRaw> <.LFB10> <.LFE9>
    1fde:	01 00 37    	bra       0x1fe2 <.L30>

00001fe0 <.L33>:
    1fe0:	00 00 00    	nop       

00001fe2 <.L30>:
}
    1fe2:	00 80 fa    	ulnk      
    1fe4:	00 00 06    	return    

00001fe6 <_sevseg_drawColon>:

void sevseg_drawColon(_7SEGMENT* ptr, uint8_t state){
    1fe6:	04 00 fa    	lnk       #0x4
    1fe8:	00 0f 78    	mov.w     w0, [w14]
    1fea:	21 47 98    	mov.b     w1, [w14+2]
  if (state)
    1fec:	2e 40 90    	mov.b     [w14+2], w0
    1fee:	00 04 e0    	cp0.b     w0
    1ff0:	04 00 32    	bra       Z, 0x1ffa <.L35>
    ptr->super.displaybuffer[2] = 0x2;
    1ff2:	1e 00 78    	mov.w     [w14], w0
    1ff4:	21 00 20    	mov.w     #0x2, w1
    1ff6:	21 00 98    	mov.w     w1, [w0+4]
    1ff8:	03 00 37    	bra       0x2000 <.L34>

00001ffa <.L35>:
  else
    ptr->super.displaybuffer[2] = 0;
    1ffa:	1e 00 78    	mov.w     [w14], w0
    1ffc:	80 00 eb    	clr.w     w1
    1ffe:	21 00 98    	mov.w     w1, [w0+4]

00002000 <.L34>:
}
    2000:	00 80 fa    	ulnk      
    2002:	00 00 06    	return    

00002004 <_sevseg_printNumber>:

void sevseg_printNumber(_7SEGMENT* ptr, long n, uint8_t base){
    2004:	08 00 fa    	lnk       #0x8
    2006:	00 0f 78    	mov.w     w0, [w14]
    2008:	12 07 98    	mov.w     w2, [w14+2]
    200a:	23 07 98    	mov.w     w3, [w14+4]
    200c:	61 47 98    	mov.b     w1, [w14+6]
  sevseg_printFloat(ptr, n, 0, base);
    200e:	1e 00 90    	mov.w     [w14+2], w0
    2010:	ae 00 90    	mov.w     [w14+4], w1
    2012:	c6 f9 07    	rcall     0x13a0 <___floatsisf>
    2014:	00 01 be    	mov.d     w0, w2
    2016:	6e 42 90    	mov.b     [w14+6], w4
    2018:	80 40 eb    	clr.b     w1
    201a:	1e 00 78    	mov.w     [w14], w0
    201c:	02 00 07    	rcall     0x2022 <_sevseg_printFloat> <.LFB14> <.LFE13>
}
    201e:	00 80 fa    	ulnk      
    2020:	00 00 06    	return    

00002022 <_sevseg_printFloat>:

void sevseg_printFloat(_7SEGMENT* ptr, double n, uint8_t fracDigits, uint8_t base){
    2022:	1c 00 fa    	lnk       #0x1c
    2024:	88 1f 78    	mov.w     w8, [w15++]
    2026:	20 0f 98    	mov.w     w0, [w14+20]
    2028:	32 0f 98    	mov.w     w2, [w14+22]
    202a:	43 0f 98    	mov.w     w3, [w14+24]
    202c:	21 5f 98    	mov.b     w1, [w14+26]
    202e:	34 5f 98    	mov.b     w4, [w14+27]
  uint8_t numericDigits = 4;   // available digits on display
    2030:	40 c0 b3    	mov.b     #0x4, w0
    2032:	00 4f 78    	mov.b     w0, [w14]
  uint8_t isNegative = 0;  // true if the number is negative
    2034:	00 40 eb    	clr.b     w0
    2036:	10 47 98    	mov.b     w0, [w14+1]

  // is the number negative?
  if(n < 0) {
    2038:	18 c0 b3    	mov.b     #0x1, w8
    203a:	60 11 b8    	mul.uu    w2, #0x0, w2
    203c:	3e 08 90    	mov.w     [w14+22], w0
    203e:	ce 08 90    	mov.w     [w14+24], w1
    2040:	92 f9 07    	rcall     0x1366 <___eqsf2> <___lesf2> <___ltsf2>
    2042:	00 00 e0    	cp0.w     w0
    2044:	01 00 35    	bra       LT, 0x2048 <.L39>
    2046:	00 44 eb    	clr.b     w8

00002048 <.L39>:
    2048:	08 04 e0    	cp0.b     w8
    204a:	08 00 32    	bra       Z, 0x205c <.L40>
    isNegative = 1;  // need to draw sign later
    204c:	10 c0 b3    	mov.b     #0x1, w0
    204e:	10 47 98    	mov.b     w0, [w14+1]
    --numericDigits;    // the sign will take up one digit
    2050:	1e 4f e9    	dec.b     [w14], [w14]
    n *= -1;            // pretend the number is positive
    2052:	3e 08 90    	mov.w     [w14+22], w0
    2054:	ce 08 90    	mov.w     [w14+24], w1
    2056:	01 f0 a2    	btg.w     w1, #0xf
    2058:	30 0f 98    	mov.w     w0, [w14+22]
    205a:	41 0f 98    	mov.w     w1, [w14+24]

0000205c <.L40>:
  }

  // calculate the factor required to shift all fractional digits
  // into the integer part of the number
  double toIntFactor = 1.0;
    205c:	00 00 20    	mov.w     #0x0, w0
    205e:	01 f8 23    	mov.w     #0x3f80, w1
    2060:	10 07 98    	mov.w     w0, [w14+2]
    2062:	21 07 98    	mov.w     w1, [w14+4]
	int i = 0;
    2064:	00 00 eb    	clr.w     w0
    2066:	30 07 98    	mov.w     w0, [w14+6]
  for(i = 0; i < fracDigits; ++i) toIntFactor *= base;
    2068:	00 00 eb    	clr.w     w0
    206a:	30 07 98    	mov.w     w0, [w14+6]
    206c:	0d 00 37    	bra       0x2088 <.L41>

0000206e <.L42>:
    206e:	3e 58 90    	mov.b     [w14+27], w0
    2070:	00 80 fb    	ze        w0, w0
    2072:	cf 80 de    	asr.w     w0, #0xf, w1
    2074:	95 f9 07    	rcall     0x13a0 <___floatsisf>
    2076:	00 01 be    	mov.d     w0, w2
    2078:	1e 00 90    	mov.w     [w14+2], w0
    207a:	ae 00 90    	mov.w     [w14+4], w1
    207c:	e7 f9 07    	rcall     0x144c <___mulsf3>
    207e:	10 07 98    	mov.w     w0, [w14+2]
    2080:	21 07 98    	mov.w     w1, [w14+4]
    2082:	3e 00 90    	mov.w     [w14+6], w0
    2084:	00 00 e8    	inc.w     w0, w0
    2086:	30 07 98    	mov.w     w0, [w14+6]

00002088 <.L41>:
    2088:	2e 58 90    	mov.b     [w14+26], w0
    208a:	80 80 fb    	ze        w0, w1
    208c:	3e 00 90    	mov.w     [w14+6], w0
    208e:	80 8f 50    	sub.w     w1, w0, [w15]
    2090:	ee ff 3c    	bra       GT, 0x206e <.L42>

  // create integer containing digits to display by applying
  // shifting factor and rounding adjustment
  uint32_t displayNumber = n * toIntFactor + 0.5;
    2092:	1e 01 90    	mov.w     [w14+2], w2
    2094:	ae 01 90    	mov.w     [w14+4], w3
    2096:	3e 08 90    	mov.w     [w14+22], w0
    2098:	ce 08 90    	mov.w     [w14+24], w1
    209a:	d8 f9 07    	rcall     0x144c <___mulsf3>
    209c:	02 00 20    	mov.w     #0x0, w2
    209e:	03 f0 23    	mov.w     #0x3f00, w3
    20a0:	c3 f8 07    	rcall     0x1228 <___addsf3>
    20a2:	63 f9 07    	rcall     0x136a <___fixunssfsi>
    20a4:	40 07 98    	mov.w     w0, [w14+8]
    20a6:	51 07 98    	mov.w     w1, [w14+10]

  // calculate upper bound on displayNumber given
  // available digits on display
  uint32_t tooBig = 1;
    20a8:	10 00 20    	mov.w     #0x1, w0
    20aa:	01 00 20    	mov.w     #0x0, w1
    20ac:	60 07 98    	mov.w     w0, [w14+12]
    20ae:	71 07 98    	mov.w     w1, [w14+14]
  for(i = 0; i < numericDigits; ++i) tooBig *= base;
    20b0:	00 00 eb    	clr.w     w0
    20b2:	30 07 98    	mov.w     w0, [w14+6]
    20b4:	15 00 37    	bra       0x20e0 <.L43>

000020b6 <.L44>:
    20b6:	3e 58 90    	mov.b     [w14+27], w0
    20b8:	00 80 fb    	ze        w0, w0
    20ba:	80 00 eb    	clr.w     w1
    20bc:	7e 01 90    	mov.w     [w14+14], w2
    20be:	00 91 b9    	mul.ss    w2, w0, w2
    20c0:	02 01 78    	mov.w     w2, w2
    20c2:	ee 01 90    	mov.w     [w14+12], w3
    20c4:	01 9a b9    	mul.ss    w3, w1, w4
    20c6:	84 01 78    	mov.w     w4, w3
    20c8:	03 01 41    	add.w     w2, w3, w2
    20ca:	ee 01 90    	mov.w     [w14+12], w3
    20cc:	00 18 b8    	mul.uu    w3, w0, w0
    20ce:	01 01 41    	add.w     w2, w1, w2
    20d0:	82 00 78    	mov.w     w2, w1
    20d2:	60 07 98    	mov.w     w0, [w14+12]
    20d4:	71 07 98    	mov.w     w1, [w14+14]
    20d6:	60 07 98    	mov.w     w0, [w14+12]
    20d8:	71 07 98    	mov.w     w1, [w14+14]
    20da:	3e 00 90    	mov.w     [w14+6], w0
    20dc:	00 00 e8    	inc.w     w0, w0
    20de:	30 07 98    	mov.w     w0, [w14+6]

000020e0 <.L43>:
    20e0:	9e 80 fb    	ze        [w14], w1
    20e2:	3e 00 90    	mov.w     [w14+6], w0
    20e4:	80 8f 50    	sub.w     w1, w0, [w15]
    20e6:	e7 ff 3c    	bra       GT, 0x20b6 <.L44>

  // if displayNumber is too large, try fewer fractional digits
  while(displayNumber >= tooBig) {
    20e8:	18 00 37    	bra       0x211a <.L45>

000020ea <.L46>:
    --fracDigits;
    20ea:	2e 58 90    	mov.b     [w14+26], w0
    20ec:	00 40 e9    	dec.b     w0, w0
    20ee:	20 5f 98    	mov.b     w0, [w14+26]
    toIntFactor /= base;
    20f0:	3e 58 90    	mov.b     [w14+27], w0
    20f2:	00 80 fb    	ze        w0, w0
    20f4:	cf 80 de    	asr.w     w0, #0xf, w1
    20f6:	54 f9 07    	rcall     0x13a0 <___floatsisf>
    20f8:	00 01 be    	mov.d     w0, w2
    20fa:	1e 00 90    	mov.w     [w14+2], w0
    20fc:	ae 00 90    	mov.w     [w14+4], w1
    20fe:	f1 f8 07    	rcall     0x12e2 <___divsf3>
    2100:	10 07 98    	mov.w     w0, [w14+2]
    2102:	21 07 98    	mov.w     w1, [w14+4]
    displayNumber = n * toIntFactor + 0.5;
    2104:	1e 01 90    	mov.w     [w14+2], w2
    2106:	ae 01 90    	mov.w     [w14+4], w3
    2108:	3e 08 90    	mov.w     [w14+22], w0
    210a:	ce 08 90    	mov.w     [w14+24], w1
    210c:	9f f9 07    	rcall     0x144c <___mulsf3>
    210e:	02 00 20    	mov.w     #0x0, w2
    2110:	03 f0 23    	mov.w     #0x3f00, w3
    2112:	8a f8 07    	rcall     0x1228 <___addsf3>
    2114:	2a f9 07    	rcall     0x136a <___fixunssfsi>
    2116:	40 07 98    	mov.w     w0, [w14+8]
    2118:	51 07 98    	mov.w     w1, [w14+10]

0000211a <.L45>:
    211a:	4e 01 90    	mov.w     [w14+8], w2
    211c:	de 01 90    	mov.w     [w14+10], w3
    211e:	6e 00 90    	mov.w     [w14+12], w0
    2120:	fe 00 90    	mov.w     [w14+14], w1
    2122:	80 0f 51    	sub.w     w2, w0, [w15]
    2124:	81 8f 59    	subb.w    w3, w1, [w15]
    2126:	e1 ff 31    	bra       C, 0x20ea <.L46>
  }

  // did toIntFactor shift the decimal off the display?
  if (toIntFactor < 1) {
    2128:	18 c0 b3    	mov.b     #0x1, w8
    212a:	02 00 20    	mov.w     #0x0, w2
    212c:	03 f8 23    	mov.w     #0x3f80, w3
    212e:	1e 00 90    	mov.w     [w14+2], w0
    2130:	ae 00 90    	mov.w     [w14+4], w1
    2132:	19 f9 07    	rcall     0x1366 <___eqsf2> <___lesf2> <___ltsf2>
    2134:	00 00 e0    	cp0.w     w0
    2136:	01 00 35    	bra       LT, 0x213a <.L47>
    2138:	00 44 eb    	clr.b     w8

0000213a <.L47>:
    213a:	08 04 e0    	cp0.b     w8
    213c:	03 00 32    	bra       Z, 0x2144 <.L48> <.LBB2>
    sevseg_printError(ptr);
    213e:	2e 08 90    	mov.w     [w14+20], w0
    2140:	6c 00 07    	rcall     0x221a <_sevseg_printError> <.LFB15> <.LFE14>
    2142:	68 00 37    	bra       0x2214 <.L38> <.LBE2>

00002144 <.L48>:
  } else {
    // otherwise, display the number
    int8_t displayPos = 4;
    2144:	40 c0 b3    	mov.b     #0x4, w0
    2146:	00 57 98    	mov.b     w0, [w14+16]

    if (displayNumber)  //if displayNumber is not 0
    2148:	4e 00 90    	mov.w     [w14+8], w0
    214a:	de 00 90    	mov.w     [w14+10], w1
    214c:	e0 0f 50    	sub.w     w0, #0x0, [w15]
    214e:	e0 8f 58    	subb.w    w1, #0x0, [w15]
    2150:	41 00 32    	bra       Z, 0x21d4 <.L50> <.LBE3>

00002152 <.LBB3>:
    {
			uint8_t i;
      for(i = 0; displayNumber || i <= fracDigits; ++i) {
    2152:	00 40 eb    	clr.b     w0
    2154:	10 57 98    	mov.b     w0, [w14+17]
    2156:	34 00 37    	bra       0x21c0 <.L51>

00002158 <.L55>:
        uint8_t displayDecimal = (fracDigits != 0 && i == fracDigits);
    2158:	2e 58 90    	mov.b     [w14+26], w0
    215a:	00 04 e0    	cp0.b     w0
    215c:	06 00 32    	bra       Z, 0x216a <.L52>
    215e:	9e 50 90    	mov.b     [w14+17], w1
    2160:	2e 58 90    	mov.b     [w14+26], w0
    2162:	80 cf 50    	sub.b     w1, w0, [w15]
    2164:	02 00 3a    	bra       NZ, 0x216a <.L52>
    2166:	10 00 20    	mov.w     #0x1, w0
    2168:	01 00 37    	bra       0x216c <.L53>

0000216a <.L52>:
    216a:	00 00 eb    	clr.w     w0

0000216c <.L53>:
    216c:	20 57 98    	mov.b     w0, [w14+18]
        sevseg_writeDigitNum(ptr, displayPos--, displayNumber % base, displayDecimal);
    216e:	3e 58 90    	mov.b     [w14+27], w0
    2170:	00 80 fb    	ze        w0, w0
    2172:	80 00 eb    	clr.w     w1
    2174:	4e 02 90    	mov.w     [w14+8], w4
    2176:	de 02 90    	mov.w     [w14+10], w5
    2178:	00 01 be    	mov.d     w0, w2
    217a:	04 00 be    	mov.d     w4, w0
    217c:	ab f9 07    	rcall     0x14d4 <___umodsi3>
    217e:	80 40 78    	mov.b     w0, w1
    2180:	0e 50 90    	mov.b     [w14+16], w0
    2182:	0e 51 90    	mov.b     [w14+16], w2
    2184:	02 41 e9    	dec.b     w2, w2
    2186:	02 57 98    	mov.b     w2, [w14+16]
    2188:	ae 51 90    	mov.b     [w14+18], w3
    218a:	01 41 78    	mov.b     w1, w2
    218c:	80 40 78    	mov.b     w0, w1
    218e:	2e 08 90    	mov.w     [w14+20], w0
    2190:	0e ff 07    	rcall     0x1fae <_sevseg_writeDigitNum> <.LFB11> <.LFE10>
        if(displayPos == 2) sevseg_writeDigitRaw(ptr, displayPos--, 0x00);
    2192:	0e 50 90    	mov.b     [w14+16], w0
    2194:	e2 4f 50    	sub.b     w0, #0x2, [w15]
    2196:	08 00 3a    	bra       NZ, 0x21a8 <.L54>
    2198:	0e 50 90    	mov.b     [w14+16], w0
    219a:	8e 50 90    	mov.b     [w14+16], w1
    219c:	81 40 e9    	dec.b     w1, w1
    219e:	01 57 98    	mov.b     w1, [w14+16]
    21a0:	00 01 eb    	clr.w     w2
    21a2:	80 40 78    	mov.b     w0, w1
    21a4:	2e 08 90    	mov.w     [w14+20], w0
    21a6:	f1 fe 07    	rcall     0x1f8a <_sevseg_writeDigitRaw> <.LFB10> <.LFE9>

000021a8 <.L54>:
        displayNumber /= base;
    21a8:	3e 58 90    	mov.b     [w14+27], w0
    21aa:	00 80 fb    	ze        w0, w0
    21ac:	80 00 eb    	clr.w     w1
    21ae:	00 01 be    	mov.d     w0, w2
    21b0:	4e 00 90    	mov.w     [w14+8], w0
    21b2:	de 00 90    	mov.w     [w14+10], w1
    21b4:	7f f9 07    	rcall     0x14b4 <___udivsi3>
    21b6:	40 07 98    	mov.w     w0, [w14+8]
    21b8:	51 07 98    	mov.w     w1, [w14+10]

000021ba <.LBE4>:
    21ba:	1e 50 90    	mov.b     [w14+17], w0
    21bc:	00 40 e8    	inc.b     w0, w0
    21be:	10 57 98    	mov.b     w0, [w14+17]

000021c0 <.L51>:
    21c0:	4e 00 90    	mov.w     [w14+8], w0
    21c2:	de 00 90    	mov.w     [w14+10], w1
    21c4:	e0 0f 50    	sub.w     w0, #0x0, [w15]
    21c6:	e0 8f 58    	subb.w    w1, #0x0, [w15]
    21c8:	c7 ff 3a    	bra       NZ, 0x2158 <.L55> <.LBB4>
    21ca:	9e 50 90    	mov.b     [w14+17], w1
    21cc:	2e 58 90    	mov.b     [w14+26], w0
    21ce:	80 cf 50    	sub.b     w1, w0, [w15]
    21d0:	c3 ff 36    	bra       LEU, 0x2158 <.L55> <.LBB4>
    21d2:	09 00 37    	bra       0x21e6 <.L56>

000021d4 <.L50>:
      }
    }
    else {
      sevseg_writeDigitNum(ptr, displayPos--, 0, 0);
    21d4:	0e 50 90    	mov.b     [w14+16], w0
    21d6:	8e 50 90    	mov.b     [w14+16], w1
    21d8:	81 40 e9    	dec.b     w1, w1
    21da:	01 57 98    	mov.b     w1, [w14+16]
    21dc:	80 41 eb    	clr.b     w3
    21de:	00 41 eb    	clr.b     w2
    21e0:	80 40 78    	mov.b     w0, w1
    21e2:	2e 08 90    	mov.w     [w14+20], w0
    21e4:	e4 fe 07    	rcall     0x1fae <_sevseg_writeDigitNum> <.LFB11> <.LFE10>

000021e6 <.L56>:
    }

    // display negative sign if negative
    if(isNegative) sevseg_writeDigitRaw(ptr, displayPos--, 0x40);
    21e6:	1e 40 90    	mov.b     [w14+1], w0
    21e8:	00 04 e0    	cp0.b     w0
    21ea:	11 00 32    	bra       Z, 0x220e <.L58>
    21ec:	0e 50 90    	mov.b     [w14+16], w0
    21ee:	8e 50 90    	mov.b     [w14+16], w1
    21f0:	81 40 e9    	dec.b     w1, w1
    21f2:	01 57 98    	mov.b     w1, [w14+16]
    21f4:	02 04 20    	mov.w     #0x40, w2
    21f6:	80 40 78    	mov.b     w0, w1
    21f8:	2e 08 90    	mov.w     [w14+20], w0
    21fa:	c7 fe 07    	rcall     0x1f8a <_sevseg_writeDigitRaw> <.LFB10> <.LFE9>

    // clear remaining display positions
    while(displayPos >= 0) sevseg_writeDigitRaw(ptr, displayPos--, 0x00);
    21fc:	08 00 37    	bra       0x220e <.L58>

000021fe <.L59>:
    21fe:	0e 50 90    	mov.b     [w14+16], w0
    2200:	8e 50 90    	mov.b     [w14+16], w1
    2202:	81 40 e9    	dec.b     w1, w1
    2204:	01 57 98    	mov.b     w1, [w14+16]
    2206:	00 01 eb    	clr.w     w2
    2208:	80 40 78    	mov.b     w0, w1
    220a:	2e 08 90    	mov.w     [w14+20], w0
    220c:	be fe 07    	rcall     0x1f8a <_sevseg_writeDigitRaw> <.LFB10> <.LFE9>

0000220e <.L58>:
    220e:	0e 50 90    	mov.b     [w14+16], w0
    2210:	00 04 e0    	cp0.b     w0
    2212:	f5 ff 3d    	bra       GE, 0x21fe <.L59>

00002214 <.L38>:
  }
}
    2214:	4f 04 78    	mov.w     [--w15], w8
    2216:	00 80 fa    	ulnk      
    2218:	00 00 06    	return    

0000221a <_sevseg_printError>:

void sevseg_printError(_7SEGMENT* ptr){
    221a:	04 00 fa    	lnk       #0x4
    221c:	10 07 98    	mov.w     w0, [w14+2]
	uint8_t i;
  for(i = 0; i < SEVENSEG_DIGITS; ++i) {
    221e:	00 40 eb    	clr.b     w0
    2220:	00 4f 78    	mov.b     w0, [w14]
    2222:	0b 00 37    	bra       0x223a <.L61>

00002224 <.L64>:
    sevseg_writeDigitRaw(ptr, i, (i == 2 ? 0x00 : 0x40));
    2224:	1e 40 78    	mov.b     [w14], w0
    2226:	e2 4f 50    	sub.b     w0, #0x2, [w15]
    2228:	02 00 3a    	bra       NZ, 0x222e <.L62>
    222a:	00 00 eb    	clr.w     w0
    222c:	01 00 37    	bra       0x2230 <.L63>

0000222e <.L62>:
    222e:	00 04 20    	mov.w     #0x40, w0

00002230 <.L63>:
    2230:	00 01 78    	mov.w     w0, w2
    2232:	9e 40 78    	mov.b     [w14], w1
    2234:	1e 00 90    	mov.w     [w14+2], w0
    2236:	a9 fe 07    	rcall     0x1f8a <_sevseg_writeDigitRaw> <.LFB10> <.LFE9>
    2238:	1e 4f e8    	inc.b     [w14], [w14]

0000223a <.L61>:
    223a:	1e 40 78    	mov.b     [w14], w0
    223c:	e4 4f 50    	sub.b     w0, #0x4, [w15]
    223e:	f2 ff 36    	bra       LEU, 0x2224 <.L64>
  }
}
    2240:	00 80 fa    	ulnk      
    2242:	00 00 06    	return    

00002244 <_sevseg_writeColon>:


void sevseg_writeColon(_7SEGMENT* ptr){
    2244:	02 00 fa    	lnk       #0x2
    2246:	00 0f 78    	mov.w     w0, [w14]
  /*
  Wire.beginTransmission(i2c_addr);
  Wire.write((uint8_t)0x04);

  Wire.write(displaybuffer[2] & 0xFF);
  Wire.write(displaybuffer[2] >> 8);

  Wire.endTransmission();
  */
  i2c_start();
    2248:	33 00 07    	rcall     0x22b0 <_i2c_start> <.LFB2> <.LFE1>
  send_i2c_byte(ptr->super.i2c_addr);
    224a:	1e 00 78    	mov.w     [w14], w0
    224c:	00 50 90    	mov.b     [w0+16], w0
    224e:	00 80 fb    	ze        w0, w0
    2250:	7e 00 07    	rcall     0x234e <_send_i2c_byte> <.LFB5> <.LFE4>
  send_i2c_byte((uint8_t)0x04); // start at address $02
    2252:	40 00 20    	mov.w     #0x4, w0
    2254:	7c 00 07    	rcall     0x234e <_send_i2c_byte> <.LFB5> <.LFE4>
  send_i2c_byte(ptr->super.displaybuffer[2] & 0xFF);
    2256:	1e 00 78    	mov.w     [w14], w0
    2258:	20 00 90    	mov.w     [w0+4], w0
    225a:	80 00 78    	mov.w     w0, w1
    225c:	f0 0f 20    	mov.w     #0xff, w0
    225e:	00 80 60    	and.w     w1, w0, w0
    2260:	76 00 07    	rcall     0x234e <_send_i2c_byte> <.LFB5> <.LFE4>
  send_i2c_byte(ptr->super.displaybuffer[2] >> 8);
    2262:	1e 00 78    	mov.w     [w14], w0
    2264:	20 00 90    	mov.w     [w0+4], w0
    2266:	48 00 de    	lsr.w     w0, #0x8, w0
    2268:	72 00 07    	rcall     0x234e <_send_i2c_byte> <.LFB5> <.LFE4>
  reset_i2c_bus();
    226a:	56 00 07    	rcall     0x2318 <_reset_i2c_bus> <.LFB4> <.LFE3>
}
    226c:	00 80 fa    	ulnk      
    226e:	00 00 06    	return    

00002270 <_delay_by_nop>:
    2270:	08 00 fa    	lnk       #0x8
    2272:	20 07 98    	mov.w     w0, [w14+4]
    2274:	31 07 98    	mov.w     w1, [w14+6]
    2276:	60 00 b8    	mul.uu    w0, #0x0, w0
    2278:	00 8f be    	mov.d     w0, [w14]
    227a:	05 00 37    	bra       0x2286 <.L2>

0000227c <.L3>:
    227c:	00 00 00    	nop       
    227e:	12 00 20    	mov.w     #0x1, w2
    2280:	03 00 20    	mov.w     #0x0, w3
    2282:	1e 0f 41    	add.w     w2, [w14], [w14]
    2284:	5e 97 49    	addc.w    w3, [++w14], [w14--]

00002286 <.L2>:
    2286:	2e 00 90    	mov.w     [w14+4], w0
    2288:	be 00 90    	mov.w     [w14+6], w1
    228a:	1e 01 be    	mov.d     [w14], w2
    228c:	80 0f 51    	sub.w     w2, w0, [w15]
    228e:	81 8f 59    	subb.w    w3, w1, [w15]
    2290:	f5 ff 39    	bra       NC, 0x227c <.L3>
    2292:	00 80 fa    	ulnk      
    2294:	00 00 06    	return    

00002296 <_i2c_init>:
    2296:	04 00 fa    	lnk       #0x4
    2298:	10 07 98    	mov.w     w0, [w14+2]
    229a:	1e 00 90    	mov.w     [w14+2], w0
    229c:	a0 13 88    	mov.w     w0, 0x274
    229e:	77 e2 a9    	bclr.b    0x277, #0x7
    22a0:	77 22 a8    	bset.b    0x277, #0x1
    22a2:	8e a0 a9    	bclr.b    0x8e, #0x5
    22a4:	77 e2 a8    	bset.b    0x277, #0x7
    22a6:	80 13 80    	mov.w     0x270, w0
    22a8:	00 0f 78    	mov.w     w0, [w14]
    22aa:	36 00 07    	rcall     0x2318 <_reset_i2c_bus> <.LFB4> <.LFE3>
    22ac:	00 80 fa    	ulnk      
    22ae:	00 00 06    	return    

000022b0 <_i2c_start>:
    22b0:	02 00 fa    	lnk       #0x2
    22b2:	00 00 eb    	clr.w     w0
    22b4:	00 0f 78    	mov.w     w0, [w14]
    22b6:	76 a2 a9    	bclr.b    0x276, #0x5
    22b8:	a0 00 20    	mov.w     #0xa, w0
    22ba:	01 00 20    	mov.w     #0x0, w1
    22bc:	d9 ff 07    	rcall     0x2270 <_delay_by_nop> <.L0> <.LFB0> <.LFE16> <.Letext0> <.Ltext0>
    22be:	76 02 a8    	bset.b    0x276, #0x0
    22c0:	00 00 00    	nop       
    22c2:	07 00 37    	bra       0x22d2 <.L6>

000022c4 <.L8>:
    22c4:	10 00 20    	mov.w     #0x1, w0
    22c6:	01 00 20    	mov.w     #0x0, w1
    22c8:	d3 ff 07    	rcall     0x2270 <_delay_by_nop> <.L0> <.LFB0> <.LFE16> <.Letext0> <.Ltext0>
    22ca:	1e 0f e8    	inc.w     [w14], [w14]
    22cc:	1e 00 78    	mov.w     [w14], w0
    22ce:	f4 0f 50    	sub.w     w0, #0x14, [w15]
    22d0:	05 00 3c    	bra       GT, 0x22dc <.L9>

000022d2 <.L6>:
    22d2:	b0 13 80    	mov.w     0x276, w0
    22d4:	61 00 60    	and.w     w0, #0x1, w0
    22d6:	00 00 e0    	cp0.w     w0
    22d8:	f5 ff 3a    	bra       NZ, 0x22c4 <.L8>
    22da:	01 00 37    	bra       0x22de <.L7>

000022dc <.L9>:
    22dc:	00 00 00    	nop       

000022de <.L7>:
    22de:	20 00 20    	mov.w     #0x2, w0
    22e0:	01 00 20    	mov.w     #0x0, w1
    22e2:	c6 ff 07    	rcall     0x2270 <_delay_by_nop> <.L0> <.LFB0> <.LFE16> <.Letext0> <.Ltext0>
    22e4:	00 80 fa    	ulnk      
    22e6:	00 00 06    	return    

000022e8 <_i2c_restart>:
    22e8:	02 00 fa    	lnk       #0x2
    22ea:	00 00 eb    	clr.w     w0
    22ec:	00 0f 78    	mov.w     w0, [w14]
    22ee:	76 22 a8    	bset.b    0x276, #0x1
    22f0:	00 00 00    	nop       
    22f2:	07 00 37    	bra       0x2302 <.L11>

000022f4 <.L13>:
    22f4:	10 00 20    	mov.w     #0x1, w0
    22f6:	01 00 20    	mov.w     #0x0, w1
    22f8:	bb ff 07    	rcall     0x2270 <_delay_by_nop> <.L0> <.LFB0> <.LFE16> <.Letext0> <.Ltext0>
    22fa:	1e 0f e8    	inc.w     [w14], [w14]
    22fc:	1e 00 78    	mov.w     [w14], w0
    22fe:	f4 0f 50    	sub.w     w0, #0x14, [w15]
    2300:	05 00 3c    	bra       GT, 0x230c <.L14>

00002302 <.L11>:
    2302:	b0 13 80    	mov.w     0x276, w0
    2304:	62 00 60    	and.w     w0, #0x2, w0
    2306:	00 00 e0    	cp0.w     w0
    2308:	f5 ff 3a    	bra       NZ, 0x22f4 <.L13>
    230a:	01 00 37    	bra       0x230e <.L12>

0000230c <.L14>:
    230c:	00 00 00    	nop       

0000230e <.L12>:
    230e:	20 00 20    	mov.w     #0x2, w0
    2310:	01 00 20    	mov.w     #0x0, w1
    2312:	ae ff 07    	rcall     0x2270 <_delay_by_nop> <.L0> <.LFB0> <.LFE16> <.Letext0> <.Ltext0>
    2314:	00 80 fa    	ulnk      
    2316:	00 00 06    	return    

00002318 <_reset_i2c_bus>:
    2318:	02 00 fa    	lnk       #0x2
    231a:	00 00 eb    	clr.w     w0
    231c:	00 0f 78    	mov.w     w0, [w14]
    231e:	76 42 a8    	bset.b    0x276, #0x2
    2320:	07 00 37    	bra       0x2330 <.L16>

00002322 <.L18>:
    2322:	10 00 20    	mov.w     #0x1, w0
    2324:	01 00 20    	mov.w     #0x0, w1
    2326:	a4 ff 07    	rcall     0x2270 <_delay_by_nop> <.L0> <.LFB0> <.LFE16> <.Letext0> <.Ltext0>
    2328:	1e 0f e8    	inc.w     [w14], [w14]
    232a:	1e 00 78    	mov.w     [w14], w0
    232c:	f4 0f 50    	sub.w     w0, #0x14, [w15]
    232e:	05 00 3c    	bra       GT, 0x233a <.L19>

00002330 <.L16>:
    2330:	b0 13 80    	mov.w     0x276, w0
    2332:	64 00 60    	and.w     w0, #0x4, w0
    2334:	00 00 e0    	cp0.w     w0
    2336:	f5 ff 3a    	bra       NZ, 0x2322 <.L18>
    2338:	01 00 37    	bra       0x233c <.L17>

0000233a <.L19>:
    233a:	00 00 00    	nop       

0000233c <.L17>:
    233c:	76 62 a9    	bclr.b    0x276, #0x3
    233e:	8e a0 a9    	bclr.b    0x8e, #0x5
    2340:	78 e2 a9    	bclr.b    0x278, #0x7
    2342:	79 42 a9    	bclr.b    0x279, #0x2
    2344:	40 01 20    	mov.w     #0x14, w0
    2346:	01 00 20    	mov.w     #0x0, w1
    2348:	93 ff 07    	rcall     0x2270 <_delay_by_nop> <.L0> <.LFB0> <.LFE16> <.Letext0> <.Ltext0>
    234a:	00 80 fa    	ulnk      
    234c:	00 00 06    	return    

0000234e <_send_i2c_byte>:
    234e:	04 00 fa    	lnk       #0x4
    2350:	10 07 98    	mov.w     w0, [w14+2]
    2352:	00 00 00    	nop       

00002354 <.L21>:
    2354:	c0 13 80    	mov.w     0x278, w0
    2356:	61 00 60    	and.w     w0, #0x1, w0
    2358:	00 00 e0    	cp0.w     w0
    235a:	fc ff 3a    	bra       NZ, 0x2354 <.L21>
    235c:	8e a0 a9    	bclr.b    0x8e, #0x5
    235e:	1e 00 90    	mov.w     [w14+2], w0
    2360:	90 13 88    	mov.w     w0, 0x272
    2362:	00 00 eb    	clr.w     w0
    2364:	00 0f 78    	mov.w     w0, [w14]
    2366:	09 00 37    	bra       0x237a <.L22>

00002368 <.L25>:
    2368:	c1 13 80    	mov.w     0x278, w1
    236a:	00 00 24    	mov.w     #0x4000, w0
    236c:	00 80 60    	and.w     w1, w0, w0
    236e:	00 00 e0    	cp0.w     w0
    2370:	09 00 32    	bra       Z, 0x2384 <.L29>
    2372:	10 00 20    	mov.w     #0x1, w0
    2374:	01 00 20    	mov.w     #0x0, w1
    2376:	7c ff 07    	rcall     0x2270 <_delay_by_nop> <.L0> <.LFB0> <.LFE16> <.Letext0> <.Ltext0>
    2378:	1e 0f e8    	inc.w     [w14], [w14]

0000237a <.L22>:
    237a:	30 1f 20    	mov.w     #0x1f3, w0
    237c:	9e 00 78    	mov.w     [w14], w1
    237e:	80 8f 50    	sub.w     w1, w0, [w15]
    2380:	f3 ff 34    	bra       LE, 0x2368 <.L25>
    2382:	01 00 37    	bra       0x2386 <.L24>

00002384 <.L29>:
    2384:	00 00 00    	nop       

00002386 <.L24>:
    2386:	40 1f 20    	mov.w     #0x1f4, w0
    2388:	9e 00 78    	mov.w     [w14], w1
    238a:	80 8f 50    	sub.w     w1, w0, [w15]
    238c:	02 00 3a    	bra       NZ, 0x2392 <.L26>
    238e:	10 c0 b3    	mov.b     #0x1, w0
    2390:	0c 00 37    	bra       0x23aa <.L27>

00002392 <.L26>:
    2392:	c1 13 80    	mov.w     0x278, w1
    2394:	00 00 28    	mov.w     #0x8000, w0
    2396:	00 80 60    	and.w     w1, w0, w0
    2398:	00 00 e0    	cp0.w     w0
    239a:	03 00 32    	bra       Z, 0x23a2 <.L28>
    239c:	bd ff 07    	rcall     0x2318 <_reset_i2c_bus> <.LFB4> <.LFE3>
    239e:	10 c0 b3    	mov.b     #0x1, w0
    23a0:	04 00 37    	bra       0x23aa <.L27>

000023a2 <.L28>:
    23a2:	20 00 20    	mov.w     #0x2, w0
    23a4:	01 00 20    	mov.w     #0x0, w1
    23a6:	64 ff 07    	rcall     0x2270 <_delay_by_nop> <.L0> <.LFB0> <.LFE16> <.Letext0> <.Ltext0>
    23a8:	00 40 eb    	clr.b     w0

000023aa <.L27>:
    23aa:	00 80 fa    	ulnk      
    23ac:	00 00 06    	return    

000023ae <_i2c_read>:
    23ae:	04 00 fa    	lnk       #0x4
    23b0:	00 00 eb    	clr.w     w0
    23b2:	00 0f 78    	mov.w     w0, [w14]
    23b4:	00 40 eb    	clr.b     w0
    23b6:	20 47 98    	mov.b     w0, [w14+2]
    23b8:	76 62 a8    	bset.b    0x276, #0x3
    23ba:	05 00 37    	bra       0x23c6 <.L31>

000023bc <.L33>:
    23bc:	1e 0f e8    	inc.w     [w14], [w14]
    23be:	00 7d 20    	mov.w     #0x7d0, w0
    23c0:	9e 00 78    	mov.w     [w14], w1
    23c2:	80 8f 50    	sub.w     w1, w0, [w15]
    23c4:	05 00 3c    	bra       GT, 0x23d0 <.L34>

000023c6 <.L31>:
    23c6:	c0 13 80    	mov.w     0x278, w0
    23c8:	62 00 60    	and.w     w0, #0x2, w0
    23ca:	00 00 e0    	cp0.w     w0
    23cc:	f7 ff 32    	bra       Z, 0x23bc <.L33>
    23ce:	01 00 37    	bra       0x23d2 <.L32>

000023d0 <.L34>:
    23d0:	00 00 00    	nop       

000023d2 <.L32>:
    23d2:	80 13 80    	mov.w     0x270, w0
    23d4:	20 47 98    	mov.b     w0, [w14+2]
    23d6:	2e 40 90    	mov.b     [w14+2], w0
    23d8:	00 80 fa    	ulnk      
    23da:	00 00 06    	return    

000023dc <_i2c_read_ack>:
    23dc:	04 00 fa    	lnk       #0x4
    23de:	00 00 eb    	clr.w     w0
    23e0:	00 0f 78    	mov.w     w0, [w14]
    23e2:	00 40 eb    	clr.b     w0
    23e4:	20 47 98    	mov.b     w0, [w14+2]
    23e6:	76 62 a8    	bset.b    0x276, #0x3
    23e8:	05 00 37    	bra       0x23f4 <.L36>

000023ea <.L38>:
    23ea:	1e 0f e8    	inc.w     [w14], [w14]
    23ec:	00 7d 20    	mov.w     #0x7d0, w0
    23ee:	9e 00 78    	mov.w     [w14], w1
    23f0:	80 8f 50    	sub.w     w1, w0, [w15]
    23f2:	05 00 3c    	bra       GT, 0x23fe <.L39>

000023f4 <.L36>:
    23f4:	c0 13 80    	mov.w     0x278, w0
    23f6:	62 00 60    	and.w     w0, #0x2, w0
    23f8:	00 00 e0    	cp0.w     w0
    23fa:	f7 ff 32    	bra       Z, 0x23ea <.L38>
    23fc:	01 00 37    	bra       0x2400 <.L37>

000023fe <.L39>:
    23fe:	00 00 00    	nop       

00002400 <.L37>:
    2400:	80 13 80    	mov.w     0x270, w0
    2402:	20 47 98    	mov.b     w0, [w14+2]
    2404:	76 82 a8    	bset.b    0x276, #0x4
    2406:	a0 00 20    	mov.w     #0xa, w0
    2408:	01 00 20    	mov.w     #0x0, w1
    240a:	32 ff 07    	rcall     0x2270 <_delay_by_nop> <.L0> <.LFB0> <.LFE16> <.Letext0> <.Ltext0>
    240c:	2e 40 90    	mov.b     [w14+2], w0
    240e:	00 80 fa    	ulnk      
    2410:	00 00 06    	return    

00002412 <_i2c_read_nack>:
    2412:	04 00 fa    	lnk       #0x4
    2414:	00 00 eb    	clr.w     w0
    2416:	00 0f 78    	mov.w     w0, [w14]
    2418:	00 40 eb    	clr.b     w0
    241a:	20 47 98    	mov.b     w0, [w14+2]
    241c:	76 62 a8    	bset.b    0x276, #0x3
    241e:	05 00 37    	bra       0x242a <.L41>

00002420 <.L43>:
    2420:	1e 0f e8    	inc.w     [w14], [w14]
    2422:	00 7d 20    	mov.w     #0x7d0, w0
    2424:	9e 00 78    	mov.w     [w14], w1
    2426:	80 8f 50    	sub.w     w1, w0, [w15]
    2428:	05 00 3c    	bra       GT, 0x2434 <.L44>

0000242a <.L41>:
    242a:	c0 13 80    	mov.w     0x278, w0
    242c:	62 00 60    	and.w     w0, #0x2, w0
    242e:	00 00 e0    	cp0.w     w0
    2430:	f7 ff 32    	bra       Z, 0x2420 <.L43>
    2432:	01 00 37    	bra       0x2436 <.L42>

00002434 <.L44>:
    2434:	00 00 00    	nop       

00002436 <.L42>:
    2436:	80 13 80    	mov.w     0x270, w0
    2438:	20 47 98    	mov.b     w0, [w14+2]
    243a:	76 a2 a8    	bset.b    0x276, #0x5
    243c:	76 82 a8    	bset.b    0x276, #0x4
    243e:	a0 00 20    	mov.w     #0xa, w0
    2440:	01 00 20    	mov.w     #0x0, w1
    2442:	16 ff 07    	rcall     0x2270 <_delay_by_nop> <.L0> <.LFB0> <.LFE16> <.Letext0> <.Ltext0>
    2444:	2e 40 90    	mov.b     [w14+2], w0
    2446:	00 80 fa    	ulnk      
    2448:	00 00 06    	return    

0000244a <_I2Cwrite>:
    244a:	04 00 fa    	lnk       #0x4
    244c:	00 4f 78    	mov.b     w0, [w14]
    244e:	11 47 98    	mov.b     w1, [w14+1]
    2450:	22 47 98    	mov.b     w2, [w14+2]
    2452:	2e ff 07    	rcall     0x22b0 <_i2c_start> <.LFB2> <.LFE1>
    2454:	1e 00 fb    	se        [w14], w0
    2456:	80 00 78    	mov.w     w0, w1
    2458:	e0 ff 2f    	mov.w     #0xfffe, w0
    245a:	00 80 60    	and.w     w1, w0, w0
    245c:	78 ff 07    	rcall     0x234e <_send_i2c_byte> <.LFB5> <.LFE4>
    245e:	1e 40 90    	mov.b     [w14+1], w0
    2460:	00 00 fb    	se        w0, w0
    2462:	75 ff 07    	rcall     0x234e <_send_i2c_byte> <.LFB5> <.LFE4>
    2464:	2e 40 90    	mov.b     [w14+2], w0
    2466:	00 00 fb    	se        w0, w0
    2468:	72 ff 07    	rcall     0x234e <_send_i2c_byte> <.LFB5> <.LFE4>
    246a:	56 ff 07    	rcall     0x2318 <_reset_i2c_bus> <.LFB4> <.LFE3>
    246c:	00 80 fa    	ulnk      
    246e:	00 00 06    	return    

00002470 <_I2Cread>:
    2470:	04 00 fa    	lnk       #0x4
    2472:	20 47 98    	mov.b     w0, [w14+2]
    2474:	31 47 98    	mov.b     w1, [w14+3]
    2476:	1c ff 07    	rcall     0x22b0 <_i2c_start> <.LFB2> <.LFE1>
    2478:	2e 40 90    	mov.b     [w14+2], w0
    247a:	00 00 fb    	se        w0, w0
    247c:	68 ff 07    	rcall     0x234e <_send_i2c_byte> <.LFB5> <.LFE4>
    247e:	3e 40 90    	mov.b     [w14+3], w0
    2480:	00 00 fb    	se        w0, w0
    2482:	65 ff 07    	rcall     0x234e <_send_i2c_byte> <.LFB5> <.LFE4>
    2484:	a0 00 20    	mov.w     #0xa, w0
    2486:	01 00 20    	mov.w     #0x0, w1
    2488:	f3 fe 07    	rcall     0x2270 <_delay_by_nop> <.L0> <.LFB0> <.LFE16> <.Letext0> <.Ltext0>
    248a:	2e ff 07    	rcall     0x22e8 <_i2c_restart> <.LFB3> <.LFE2>
    248c:	2e 40 90    	mov.b     [w14+2], w0
    248e:	00 04 a0    	bset.b    w0, #0x0
    2490:	00 00 fb    	se        w0, w0
    2492:	5d ff 07    	rcall     0x234e <_send_i2c_byte> <.LFB5> <.LFE4>
    2494:	8c ff 07    	rcall     0x23ae <_i2c_read> <.LFB6> <.LFE5>
    2496:	00 4f 78    	mov.b     w0, [w14]
    2498:	3f ff 07    	rcall     0x2318 <_reset_i2c_bus> <.LFB4> <.LFE3>
    249a:	1e 40 78    	mov.b     [w14], w0
    249c:	00 80 fa    	ulnk      
    249e:	00 00 06    	return    

000024a0 <_I2Cpoll>:
    24a0:	04 00 fa    	lnk       #0x4
    24a2:	20 47 98    	mov.b     w0, [w14+2]
    24a4:	00 40 eb    	clr.b     w0
    24a6:	00 4f 78    	mov.b     w0, [w14]
    24a8:	03 ff 07    	rcall     0x22b0 <_i2c_start> <.LFB2> <.LFE1>
    24aa:	2e 40 90    	mov.b     [w14+2], w0
    24ac:	00 00 fb    	se        w0, w0
    24ae:	80 00 78    	mov.w     w0, w1
    24b0:	e0 ff 2f    	mov.w     #0xfffe, w0
    24b2:	00 80 60    	and.w     w1, w0, w0
    24b4:	4c ff 07    	rcall     0x234e <_send_i2c_byte> <.LFB5> <.LFE4>
    24b6:	00 4f 78    	mov.b     w0, [w14]
    24b8:	2f ff 07    	rcall     0x2318 <_reset_i2c_bus> <.LFB4> <.LFE3>
    24ba:	1e 40 78    	mov.b     [w14], w0
    24bc:	00 04 e0    	cp0.b     w0
    24be:	02 00 3a    	bra       NZ, 0x24c4 <.L48>
    24c0:	10 c0 b3    	mov.b     #0x1, w0
    24c2:	01 00 37    	bra       0x24c6 <.L49>

000024c4 <.L48>:
    24c4:	00 40 eb    	clr.b     w0

000024c6 <.L49>:
    24c6:	00 80 fa    	ulnk      
    24c8:	00 00 06    	return    

000024ca <_I2Cwritearray>:
    24ca:	08 00 fa    	lnk       #0x8
    24cc:	20 47 98    	mov.b     w0, [w14+2]
    24ce:	21 07 98    	mov.w     w1, [w14+4]
    24d0:	62 47 98    	mov.b     w2, [w14+6]
    24d2:	00 40 eb    	clr.b     w0
    24d4:	00 4f 78    	mov.b     w0, [w14]
    24d6:	ec fe 07    	rcall     0x22b0 <_i2c_start> <.LFB2> <.LFE1>
    24d8:	2e 40 90    	mov.b     [w14+2], w0
    24da:	00 00 fb    	se        w0, w0
    24dc:	80 00 78    	mov.w     w0, w1
    24de:	e0 ff 2f    	mov.w     #0xfffe, w0
    24e0:	00 80 60    	and.w     w1, w0, w0
    24e2:	35 ff 07    	rcall     0x234e <_send_i2c_byte> <.LFB5> <.LFE4>
    24e4:	00 4f 78    	mov.b     w0, [w14]
    24e6:	00 40 eb    	clr.b     w0
    24e8:	10 47 98    	mov.b     w0, [w14+1]
    24ea:	0d 00 37    	bra       0x2506 <.L51>

000024ec <.L52>:
    24ec:	1e 40 90    	mov.b     [w14+1], w0
    24ee:	00 80 fb    	ze        w0, w0
    24f0:	ae 00 90    	mov.w     [w14+4], w1
    24f2:	00 80 40    	add.w     w1, w0, w0
    24f4:	10 40 78    	mov.b     [w0], w0
    24f6:	00 00 fb    	se        w0, w0
    24f8:	2a ff 07    	rcall     0x234e <_send_i2c_byte> <.LFB5> <.LFE4>
    24fa:	9e 40 78    	mov.b     [w14], w1
    24fc:	01 40 70    	ior.b     w0, w1, w0
    24fe:	00 4f 78    	mov.b     w0, [w14]
    2500:	1e 40 90    	mov.b     [w14+1], w0
    2502:	00 40 e8    	inc.b     w0, w0
    2504:	10 47 98    	mov.b     w0, [w14+1]

00002506 <.L51>:
    2506:	9e 40 90    	mov.b     [w14+1], w1
    2508:	6e 40 90    	mov.b     [w14+6], w0
    250a:	80 cf 50    	sub.b     w1, w0, [w15]
    250c:	ef ff 39    	bra       NC, 0x24ec <.L52>
    250e:	04 ff 07    	rcall     0x2318 <_reset_i2c_bus> <.LFB4> <.LFE3>
    2510:	1e 40 78    	mov.b     [w14], w0
    2512:	00 80 fa    	ulnk      
    2514:	00 00 06    	return    

00002516 <_i2c2_init>:
    2516:	04 00 fa    	lnk       #0x4
    2518:	10 07 98    	mov.w     w0, [w14+2]
    251a:	1e 00 90    	mov.w     [w14+2], w0
    251c:	a0 10 88    	mov.w     w0, 0x214
    251e:	17 e2 a9    	bclr.b    0x217, #0x7
    2520:	17 22 a8    	bset.b    0x217, #0x1
    2522:	8a 40 a9    	bclr.b    0x8a, #0x2
    2524:	17 e2 a8    	bset.b    0x217, #0x7
    2526:	80 10 80    	mov.w     0x210, w0
    2528:	00 0f 78    	mov.w     w0, [w14]
    252a:	f6 fe 07    	rcall     0x2318 <_reset_i2c_bus> <.LFB4> <.LFE3>
    252c:	00 80 fa    	ulnk      
    252e:	00 00 06    	return    

00002530 <_i2c2_start>:
    2530:	02 00 fa    	lnk       #0x2
    2532:	00 00 eb    	clr.w     w0
    2534:	00 0f 78    	mov.w     w0, [w14]
    2536:	16 a2 a9    	bclr.b    0x216, #0x5
    2538:	a0 00 20    	mov.w     #0xa, w0
    253a:	01 00 20    	mov.w     #0x0, w1
    253c:	99 fe 07    	rcall     0x2270 <_delay_by_nop> <.L0> <.LFB0> <.LFE16> <.Letext0> <.Ltext0>
    253e:	16 02 a8    	bset.b    0x216, #0x0
    2540:	00 00 00    	nop       
    2542:	07 00 37    	bra       0x2552 <.L55>

00002544 <.L57>:
    2544:	10 00 20    	mov.w     #0x1, w0
    2546:	01 00 20    	mov.w     #0x0, w1
    2548:	93 fe 07    	rcall     0x2270 <_delay_by_nop> <.L0> <.LFB0> <.LFE16> <.Letext0> <.Ltext0>
    254a:	1e 0f e8    	inc.w     [w14], [w14]
    254c:	1e 00 78    	mov.w     [w14], w0
    254e:	f4 0f 50    	sub.w     w0, #0x14, [w15]
    2550:	05 00 3c    	bra       GT, 0x255c <.L58>

00002552 <.L55>:
    2552:	b0 10 80    	mov.w     0x216, w0
    2554:	61 00 60    	and.w     w0, #0x1, w0
    2556:	00 00 e0    	cp0.w     w0
    2558:	f5 ff 3a    	bra       NZ, 0x2544 <.L57>
    255a:	01 00 37    	bra       0x255e <.L56>

0000255c <.L58>:
    255c:	00 00 00    	nop       

0000255e <.L56>:
    255e:	20 00 20    	mov.w     #0x2, w0
    2560:	01 00 20    	mov.w     #0x0, w1
    2562:	86 fe 07    	rcall     0x2270 <_delay_by_nop> <.L0> <.LFB0> <.LFE16> <.Letext0> <.Ltext0>
    2564:	00 80 fa    	ulnk      
    2566:	00 00 06    	return    

00002568 <_i2c2_restart>:
    2568:	02 00 fa    	lnk       #0x2
    256a:	00 00 eb    	clr.w     w0
    256c:	00 0f 78    	mov.w     w0, [w14]
    256e:	16 22 a8    	bset.b    0x216, #0x1
    2570:	00 00 00    	nop       
    2572:	07 00 37    	bra       0x2582 <.L60>

00002574 <.L62>:
    2574:	10 00 20    	mov.w     #0x1, w0
    2576:	01 00 20    	mov.w     #0x0, w1
    2578:	7b fe 07    	rcall     0x2270 <_delay_by_nop> <.L0> <.LFB0> <.LFE16> <.Letext0> <.Ltext0>
    257a:	1e 0f e8    	inc.w     [w14], [w14]
    257c:	1e 00 78    	mov.w     [w14], w0
    257e:	f4 0f 50    	sub.w     w0, #0x14, [w15]
    2580:	05 00 3c    	bra       GT, 0x258c <.L63>

00002582 <.L60>:
    2582:	b0 10 80    	mov.w     0x216, w0
    2584:	62 00 60    	and.w     w0, #0x2, w0
    2586:	00 00 e0    	cp0.w     w0
    2588:	f5 ff 3a    	bra       NZ, 0x2574 <.L62>
    258a:	01 00 37    	bra       0x258e <.L61>

0000258c <.L63>:
    258c:	00 00 00    	nop       

0000258e <.L61>:
    258e:	20 00 20    	mov.w     #0x2, w0
    2590:	01 00 20    	mov.w     #0x0, w1
    2592:	6e fe 07    	rcall     0x2270 <_delay_by_nop> <.L0> <.LFB0> <.LFE16> <.Letext0> <.Ltext0>
    2594:	00 80 fa    	ulnk      
    2596:	00 00 06    	return    

00002598 <_reset_i2c2_bus>:
    2598:	02 00 fa    	lnk       #0x2
    259a:	00 00 eb    	clr.w     w0
    259c:	00 0f 78    	mov.w     w0, [w14]
    259e:	16 42 a8    	bset.b    0x216, #0x2
    25a0:	07 00 37    	bra       0x25b0 <.L65>

000025a2 <.L67>:
    25a2:	10 00 20    	mov.w     #0x1, w0
    25a4:	01 00 20    	mov.w     #0x0, w1
    25a6:	64 fe 07    	rcall     0x2270 <_delay_by_nop> <.L0> <.LFB0> <.LFE16> <.Letext0> <.Ltext0>
    25a8:	1e 0f e8    	inc.w     [w14], [w14]
    25aa:	1e 00 78    	mov.w     [w14], w0
    25ac:	f4 0f 50    	sub.w     w0, #0x14, [w15]
    25ae:	05 00 3c    	bra       GT, 0x25ba <.L68>

000025b0 <.L65>:
    25b0:	b0 10 80    	mov.w     0x216, w0
    25b2:	64 00 60    	and.w     w0, #0x4, w0
    25b4:	00 00 e0    	cp0.w     w0
    25b6:	f5 ff 3a    	bra       NZ, 0x25a2 <.L67>
    25b8:	01 00 37    	bra       0x25bc <.L66>

000025ba <.L68>:
    25ba:	00 00 00    	nop       

000025bc <.L66>:
    25bc:	16 62 a9    	bclr.b    0x216, #0x3
    25be:	8a 40 a9    	bclr.b    0x8a, #0x2
    25c0:	18 e2 a9    	bclr.b    0x218, #0x7
    25c2:	19 42 a9    	bclr.b    0x219, #0x2
    25c4:	40 01 20    	mov.w     #0x14, w0
    25c6:	01 00 20    	mov.w     #0x0, w1
    25c8:	53 fe 07    	rcall     0x2270 <_delay_by_nop> <.L0> <.LFB0> <.LFE16> <.Letext0> <.Ltext0>
    25ca:	00 80 fa    	ulnk      
    25cc:	00 00 06    	return    

000025ce <_send_i2c2_byte>:
    25ce:	04 00 fa    	lnk       #0x4
    25d0:	10 07 98    	mov.w     w0, [w14+2]
    25d2:	00 00 00    	nop       

000025d4 <.L70>:
    25d4:	c0 10 80    	mov.w     0x218, w0
    25d6:	61 00 60    	and.w     w0, #0x1, w0
    25d8:	00 00 e0    	cp0.w     w0
    25da:	fc ff 3a    	bra       NZ, 0x25d4 <.L70>
    25dc:	8a 40 a9    	bclr.b    0x8a, #0x2
    25de:	1e 00 90    	mov.w     [w14+2], w0
    25e0:	90 10 88    	mov.w     w0, 0x212
    25e2:	00 00 eb    	clr.w     w0
    25e4:	00 0f 78    	mov.w     w0, [w14]
    25e6:	09 00 37    	bra       0x25fa <.L71>

000025e8 <.L74>:
    25e8:	c1 10 80    	mov.w     0x218, w1
    25ea:	00 00 24    	mov.w     #0x4000, w0
    25ec:	00 80 60    	and.w     w1, w0, w0
    25ee:	00 00 e0    	cp0.w     w0
    25f0:	09 00 32    	bra       Z, 0x2604 <.L78>
    25f2:	10 00 20    	mov.w     #0x1, w0
    25f4:	01 00 20    	mov.w     #0x0, w1
    25f6:	3c fe 07    	rcall     0x2270 <_delay_by_nop> <.L0> <.LFB0> <.LFE16> <.Letext0> <.Ltext0>
    25f8:	1e 0f e8    	inc.w     [w14], [w14]

000025fa <.L71>:
    25fa:	30 1f 20    	mov.w     #0x1f3, w0
    25fc:	9e 00 78    	mov.w     [w14], w1
    25fe:	80 8f 50    	sub.w     w1, w0, [w15]
    2600:	f3 ff 34    	bra       LE, 0x25e8 <.L74>
    2602:	01 00 37    	bra       0x2606 <.L73>

00002604 <.L78>:
    2604:	00 00 00    	nop       

00002606 <.L73>:
    2606:	40 1f 20    	mov.w     #0x1f4, w0
    2608:	9e 00 78    	mov.w     [w14], w1
    260a:	80 8f 50    	sub.w     w1, w0, [w15]
    260c:	02 00 3a    	bra       NZ, 0x2612 <.L75>
    260e:	10 c0 b3    	mov.b     #0x1, w0
    2610:	0c 00 37    	bra       0x262a <.L76>

00002612 <.L75>:
    2612:	c1 10 80    	mov.w     0x218, w1
    2614:	00 00 28    	mov.w     #0x8000, w0
    2616:	00 80 60    	and.w     w1, w0, w0
    2618:	00 00 e0    	cp0.w     w0
    261a:	03 00 32    	bra       Z, 0x2622 <.L77>
    261c:	bd ff 07    	rcall     0x2598 <_reset_i2c2_bus> <.LFB16> <.LFE15>
    261e:	10 c0 b3    	mov.b     #0x1, w0
    2620:	04 00 37    	bra       0x262a <.L76>

00002622 <.L77>:
    2622:	20 00 20    	mov.w     #0x2, w0
    2624:	01 00 20    	mov.w     #0x0, w1
    2626:	24 fe 07    	rcall     0x2270 <_delay_by_nop> <.L0> <.LFB0> <.LFE16> <.Letext0> <.Ltext0>
    2628:	00 40 eb    	clr.b     w0

0000262a <.L76>:
    262a:	00 80 fa    	ulnk      
    262c:	00 00 06    	return    

0000262e <_i2c2_read>:
    262e:	04 00 fa    	lnk       #0x4
    2630:	00 00 eb    	clr.w     w0
    2632:	00 0f 78    	mov.w     w0, [w14]
    2634:	00 40 eb    	clr.b     w0
    2636:	20 47 98    	mov.b     w0, [w14+2]
    2638:	16 62 a8    	bset.b    0x216, #0x3
    263a:	05 00 37    	bra       0x2646 <.L80>

0000263c <.L82>:
    263c:	1e 0f e8    	inc.w     [w14], [w14]
    263e:	00 7d 20    	mov.w     #0x7d0, w0
    2640:	9e 00 78    	mov.w     [w14], w1
    2642:	80 8f 50    	sub.w     w1, w0, [w15]
    2644:	05 00 3c    	bra       GT, 0x2650 <.L83>

00002646 <.L80>:
    2646:	c0 10 80    	mov.w     0x218, w0
    2648:	62 00 60    	and.w     w0, #0x2, w0
    264a:	00 00 e0    	cp0.w     w0
    264c:	f7 ff 32    	bra       Z, 0x263c <.L82>
    264e:	01 00 37    	bra       0x2652 <.L81>

00002650 <.L83>:
    2650:	00 00 00    	nop       

00002652 <.L81>:
    2652:	80 10 80    	mov.w     0x210, w0
    2654:	20 47 98    	mov.b     w0, [w14+2]
    2656:	2e 40 90    	mov.b     [w14+2], w0
    2658:	00 80 fa    	ulnk      
    265a:	00 00 06    	return    

0000265c <_i2c2_read_ack>:
    265c:	04 00 fa    	lnk       #0x4
    265e:	00 00 eb    	clr.w     w0
    2660:	00 0f 78    	mov.w     w0, [w14]
    2662:	00 40 eb    	clr.b     w0
    2664:	20 47 98    	mov.b     w0, [w14+2]
    2666:	16 62 a8    	bset.b    0x216, #0x3
    2668:	05 00 37    	bra       0x2674 <.L85>

0000266a <.L87>:
    266a:	1e 0f e8    	inc.w     [w14], [w14]
    266c:	00 7d 20    	mov.w     #0x7d0, w0
    266e:	9e 00 78    	mov.w     [w14], w1
    2670:	80 8f 50    	sub.w     w1, w0, [w15]
    2672:	05 00 3c    	bra       GT, 0x267e <.L88>

00002674 <.L85>:
    2674:	c0 10 80    	mov.w     0x218, w0
    2676:	62 00 60    	and.w     w0, #0x2, w0
    2678:	00 00 e0    	cp0.w     w0
    267a:	f7 ff 32    	bra       Z, 0x266a <.L87>
    267c:	01 00 37    	bra       0x2680 <.L86>

0000267e <.L88>:
    267e:	00 00 00    	nop       

00002680 <.L86>:
    2680:	80 10 80    	mov.w     0x210, w0
    2682:	20 47 98    	mov.b     w0, [w14+2]
    2684:	16 82 a8    	bset.b    0x216, #0x4
    2686:	a0 00 20    	mov.w     #0xa, w0
    2688:	01 00 20    	mov.w     #0x0, w1
    268a:	f2 fd 07    	rcall     0x2270 <_delay_by_nop> <.L0> <.LFB0> <.LFE16> <.Letext0> <.Ltext0>
    268c:	2e 40 90    	mov.b     [w14+2], w0
    268e:	00 80 fa    	ulnk      
    2690:	00 00 06    	return    

00002692 <_i2c2_read_nack>:
    2692:	04 00 fa    	lnk       #0x4
    2694:	00 00 eb    	clr.w     w0
    2696:	00 0f 78    	mov.w     w0, [w14]
    2698:	00 40 eb    	clr.b     w0
    269a:	20 47 98    	mov.b     w0, [w14+2]
    269c:	16 62 a8    	bset.b    0x216, #0x3
    269e:	05 00 37    	bra       0x26aa <.L90>

000026a0 <.L92>:
    26a0:	1e 0f e8    	inc.w     [w14], [w14]
    26a2:	00 7d 20    	mov.w     #0x7d0, w0
    26a4:	9e 00 78    	mov.w     [w14], w1
    26a6:	80 8f 50    	sub.w     w1, w0, [w15]
    26a8:	05 00 3c    	bra       GT, 0x26b4 <.L93>

000026aa <.L90>:
    26aa:	c0 10 80    	mov.w     0x218, w0
    26ac:	62 00 60    	and.w     w0, #0x2, w0
    26ae:	00 00 e0    	cp0.w     w0
    26b0:	f7 ff 32    	bra       Z, 0x26a0 <.L92>
    26b2:	01 00 37    	bra       0x26b6 <.L91>

000026b4 <.L93>:
    26b4:	00 00 00    	nop       

000026b6 <.L91>:
    26b6:	80 10 80    	mov.w     0x210, w0
    26b8:	20 47 98    	mov.b     w0, [w14+2]
    26ba:	16 a2 a8    	bset.b    0x216, #0x5
    26bc:	16 82 a8    	bset.b    0x216, #0x4
    26be:	a0 00 20    	mov.w     #0xa, w0
    26c0:	01 00 20    	mov.w     #0x0, w1
    26c2:	d6 fd 07    	rcall     0x2270 <_delay_by_nop> <.L0> <.LFB0> <.LFE16> <.Letext0> <.Ltext0>
    26c4:	2e 40 90    	mov.b     [w14+2], w0
    26c6:	00 80 fa    	ulnk      
    26c8:	00 00 06    	return    

000026ca <_I2C2poll>:
    26ca:	04 00 fa    	lnk       #0x4
    26cc:	20 47 98    	mov.b     w0, [w14+2]
    26ce:	00 40 eb    	clr.b     w0
    26d0:	00 4f 78    	mov.b     w0, [w14]
    26d2:	2e ff 07    	rcall     0x2530 <_i2c2_start> <.LFB14> <.LFE13>
    26d4:	2e 40 90    	mov.b     [w14+2], w0
    26d6:	00 00 fb    	se        w0, w0
    26d8:	80 00 78    	mov.w     w0, w1
    26da:	e0 ff 2f    	mov.w     #0xfffe, w0
    26dc:	00 80 60    	and.w     w1, w0, w0
    26de:	77 ff 07    	rcall     0x25ce <_send_i2c2_byte> <.LFB17> <.LFE16>
    26e0:	00 4f 78    	mov.b     w0, [w14]
    26e2:	5a ff 07    	rcall     0x2598 <_reset_i2c2_bus> <.LFB16> <.LFE15>
    26e4:	1e 40 78    	mov.b     [w14], w0
    26e6:	00 04 e0    	cp0.b     w0
    26e8:	02 00 3a    	bra       NZ, 0x26ee <.L95>
    26ea:	10 c0 b3    	mov.b     #0x1, w0
    26ec:	01 00 37    	bra       0x26f0 <.L96>

000026ee <.L95>:
    26ee:	00 40 eb    	clr.b     w0

000026f0 <.L96>:
    26f0:	00 80 fa    	ulnk      
    26f2:	00 00 06    	return    
Disassembly of section .isr.text:

000026f4 <__T1Interrupt>:
    26f4:	80 9f be    	mov.d     w0, [w15++]
    26f6:	32 00 f8    	push      0x32
    26f8:	34 00 f8    	push      0x34
    26fa:	10 00 20    	mov.w     #0x1, w0
    26fc:	a0 01 88    	mov.w     w0, 0x34
    26fe:	00 20 20    	mov.w     #0x200, w0
    2700:	90 01 88    	mov.w     w0, 0x32
    2702:	00 00 fa    	lnk       #0x0
    2704:	84 60 a9    	bclr.b    0x84, #0x3
    2706:	00 40 80    	mov.w     0x800, w0
    2708:	00 00 e9    	dec.w     w0, w0
    270a:	00 40 88    	mov.w     w0, 0x800
    270c:	31 40 80    	mov.w     0x806, w1
    270e:	e0 85 21    	mov.w     #0x185e, w0
    2710:	80 8f 50    	sub.w     w1, w0, [w15]
    2712:	09 00 3a    	bra       NZ, 0x2726 <.L10>
    2714:	06 21 ef    	clr.w     0x106
    2716:	0a 68 ef    	clr.b     0x80a
    2718:	94 e0 a8    	bset.b    0x94, #0x7
    271a:	11 e1 a8    	bset.b    0x111, #0x7
    271c:	00 b6 84    	mov.w     0x96c0, w0
    271e:	a0 0c 88    	mov.w     w0, 0x194
    2720:	a0 0c 80    	mov.w     0x194, w0
    2722:	00 00 d1    	lsr.w     w0, w0
    2724:	b0 0c 88    	mov.w     w0, 0x196

00002726 <.L10>:
    2726:	00 80 fa    	ulnk      
    2728:	34 00 f9    	pop       0x34
    272a:	32 00 f9    	pop       0x32
    272c:	4f 00 be    	mov.d     [--w15], w0
    272e:	00 40 06    	retfie    

00002730 <__T2Interrupt>:
    2730:	36 00 f8    	push      0x36
    2732:	80 9f be    	mov.d     w0, [w15++]
    2734:	82 9f be    	mov.d     w2, [w15++]
    2736:	84 9f be    	mov.d     w4, [w15++]
    2738:	86 9f be    	mov.d     w6, [w15++]
    273a:	32 00 f8    	push      0x32
    273c:	34 00 f8    	push      0x34
    273e:	10 00 20    	mov.w     #0x1, w0
    2740:	a0 01 88    	mov.w     w0, 0x34
    2742:	00 20 20    	mov.w     #0x200, w0
    2744:	90 01 88    	mov.w     w0, 0x32
    2746:	00 00 fa    	lnk       #0x0
    2748:	84 e0 a9    	bclr.b    0x84, #0x7
    274a:	0a c8 bf    	mov.b     0x80a, WREG
    274c:	00 80 fb    	ze        w0, w0
    274e:	e1 0f 50    	sub.w     w0, #0x1, [w15]
    2750:	11 00 32    	bra       Z, 0x2774 <.L15>
    2752:	e2 0f 50    	sub.w     w0, #0x2, [w15]
    2754:	20 00 32    	bra       Z, 0x2796 <.L16>
    2756:	00 00 e0    	cp0.w     w0
    2758:	2e 00 3a    	bra       NZ, 0x27b6 <.L18>
    275a:	96 21 ef    	clr.w     0x196
    275c:	0a c8 bf    	mov.b     0x80a, WREG
    275e:	00 40 e8    	inc.b     w0, w0
    2760:	0a e8 b7    	mov.b     WREG, 0x80a
    2762:	ec 22 a9    	bclr.b    0x2ec, #0x1
    2764:	10 00 20    	mov.w     #0x1, w0
    2766:	01 00 20    	mov.w     #0x0, w1
    2768:	83 fd 07    	rcall     0x2270 <_delay_by_nop> <.L0> <.LFB0> <.LFE16> <.Letext0> <.Ltext0>
    276a:	dc e2 a8    	bset.b    0x2dc, #0x7
    276c:	10 00 20    	mov.w     #0x1, w0
    276e:	01 00 20    	mov.w     #0x0, w1
    2770:	7f fd 07    	rcall     0x2270 <_delay_by_nop> <.L0> <.LFB0> <.LFE16> <.Letext0> <.Ltext0>
    2772:	22 00 37    	bra       0x27b8 <.L12>

00002774 <.L15>:
    2774:	10 b6 84    	mov.w     0x96c2, w0
    2776:	a0 0c 88    	mov.w     w0, 0x194
    2778:	a0 0c 80    	mov.w     0x194, w0
    277a:	00 00 d1    	lsr.w     w0, w0
    277c:	b0 0c 88    	mov.w     w0, 0x196
    277e:	dc e2 a9    	bclr.b    0x2dc, #0x7
    2780:	10 00 20    	mov.w     #0x1, w0
    2782:	01 00 20    	mov.w     #0x0, w1
    2784:	75 fd 07    	rcall     0x2270 <_delay_by_nop> <.L0> <.LFB0> <.LFE16> <.Letext0> <.Ltext0>
    2786:	ec 02 a8    	bset.b    0x2ec, #0x0
    2788:	10 00 20    	mov.w     #0x1, w0
    278a:	01 00 20    	mov.w     #0x0, w1
    278c:	71 fd 07    	rcall     0x2270 <_delay_by_nop> <.L0> <.LFB0> <.LFE16> <.Letext0> <.Ltext0>
    278e:	0a c8 bf    	mov.b     0x80a, WREG
    2790:	00 40 e8    	inc.b     w0, w0
    2792:	0a e8 b7    	mov.b     WREG, 0x80a
    2794:	11 00 37    	bra       0x27b8 <.L12>

00002796 <.L16>:
    2796:	00 b6 84    	mov.w     0x96c0, w0
    2798:	a0 0c 88    	mov.w     w0, 0x194
    279a:	96 21 ef    	clr.w     0x196
    279c:	dc e2 a9    	bclr.b    0x2dc, #0x7
    279e:	10 00 20    	mov.w     #0x1, w0
    27a0:	01 00 20    	mov.w     #0x0, w1
    27a2:	66 fd 07    	rcall     0x2270 <_delay_by_nop> <.L0> <.LFB0> <.LFE16> <.Letext0> <.Ltext0>
    27a4:	ec 02 a8    	bset.b    0x2ec, #0x0
    27a6:	10 00 20    	mov.w     #0x1, w0
    27a8:	01 00 20    	mov.w     #0x0, w1
    27aa:	62 fd 07    	rcall     0x2270 <_delay_by_nop> <.L0> <.LFB0> <.LFE16> <.Letext0> <.Ltext0>
    27ac:	0a c8 bf    	mov.b     0x80a, WREG
    27ae:	00 40 e8    	inc.b     w0, w0
    27b0:	0a e8 b7    	mov.b     WREG, 0x80a
    27b2:	00 00 00    	nop       
    27b4:	01 00 37    	bra       0x27b8 <.L12>

000027b6 <.L18>:
    27b6:	00 00 00    	nop       

000027b8 <.L12>:
    27b8:	00 80 fa    	ulnk      
    27ba:	34 00 f9    	pop       0x34
    27bc:	32 00 f9    	pop       0x32
    27be:	4f 03 be    	mov.d     [--w15], w6
    27c0:	4f 02 be    	mov.d     [--w15], w4
    27c2:	4f 01 be    	mov.d     [--w15], w2
    27c4:	4f 00 be    	mov.d     [--w15], w0
    27c6:	36 00 f9    	pop       0x36
    27c8:	00 40 06    	retfie    
Disassembly of section .text:

000027ca <_init_elecanisms>:
*/

#include "elecanisms.h"

void init_elecanisms(void) {
    27ca:	00 00 fa    	lnk       #0x0
    CLKDIV = 0x0100;        // RCDIV = 001 (4MHz, div2), 
    27cc:	00 10 20    	mov.w     #0x100, w0
    27ce:	20 3a 88    	mov.w     w0, 0x744
                            // CPDIV = 00 (FOSC = 32MHz, FCY = 16MHz)

    // Configure all pins on the digital headers to be inputs
    D0_DIR = IN;
    27d0:	d8 a2 a8    	bset.b    0x2d8, #0x5
    D1_DIR = IN;
    27d2:	d8 82 a8    	bset.b    0x2d8, #0x4
    D2_DIR = IN;
    27d4:	e8 82 a8    	bset.b    0x2e8, #0x4
    D3_DIR = IN;
    27d6:	e8 a2 a8    	bset.b    0x2e8, #0x5
    D4_DIR = IN;
    27d8:	c9 e2 a8    	bset.b    0x2c9, #0x7
    D5_DIR = IN;
    27da:	e8 62 a8    	bset.b    0x2e8, #0x3
    D6_DIR = IN;
    27dc:	d9 02 a8    	bset.b    0x2d9, #0x0
    D7_DIR = IN;
    27de:	d9 62 a8    	bset.b    0x2d9, #0x3
    D8_DIR = IN;
    27e0:	d9 22 a8    	bset.b    0x2d9, #0x1
    D9_DIR = IN;
    27e2:	d9 42 a8    	bset.b    0x2d9, #0x2
    D10_DIR = IN;
    27e4:	d8 02 a8    	bset.b    0x2d8, #0x0
    D11_DIR = IN;
    27e6:	d8 22 a8    	bset.b    0x2d8, #0x1
    D12_DIR = IN;
    27e8:	d8 42 a8    	bset.b    0x2d8, #0x2
    D13_DIR = IN;
    27ea:	d8 62 a8    	bset.b    0x2d8, #0x3

    // Configure all pins on the analog header to be inputs
    A0_DIR = IN;
    27ec:	c8 a2 a8    	bset.b    0x2c8, #0x5
    A1_DIR = IN;
    27ee:	c8 82 a8    	bset.b    0x2c8, #0x4
    A2_DIR = IN;
    27f0:	c8 62 a8    	bset.b    0x2c8, #0x3
    A3_DIR = IN;
    27f2:	c8 42 a8    	bset.b    0x2c8, #0x2
    A4_DIR = IN;
    27f4:	c8 22 a8    	bset.b    0x2c8, #0x1
    A5_DIR = IN;
    27f6:	c8 02 a8    	bset.b    0x2c8, #0x0

    // Make all pins digital I/Os except for A0,...,A5
    ANSB = 0x003F;
    27f8:	f0 03 20    	mov.w     #0x3f, w0
    27fa:	10 27 88    	mov.w     w0, 0x4e2
    ANSC = 0;
    27fc:	e4 24 ef    	clr.w     0x4e4
    ANSD = 0;
    27fe:	e6 24 ef    	clr.w     0x4e6
    ANSF = 0;
    2800:	ea 24 ef    	clr.w     0x4ea
    ANSG = 0;
    2802:	ec 24 ef    	clr.w     0x4ec

    // Configure and enable the ADC module: 
    //   set output data format to integer (FORM<1:0> = 0b00)
    //   set conversion trigger source select bits to internal counter 
    //     (SSRC<2:0> = 0b111)
    //   set auto-sample time bits to 12*TAD (SAMC<4:0> = 12)
    //   set conversion clock select bits to 64*TCY (ADCS<7:0> = 64)
    //   set initial channel selection to A0
    AD1CON1 = 0x00E0; 
    2804:	00 0e 20    	mov.w     #0xe0, w0
    2806:	00 19 88    	mov.w     w0, 0x320
    AD1CON2 = 0;
    2808:	22 23 ef    	clr.w     0x322
    AD1CON3 = 0x0C40;
    280a:	00 c4 20    	mov.w     #0xc40, w0
    280c:	20 19 88    	mov.w     w0, 0x324
    AD1CHS = A0_AN;
    280e:	50 00 20    	mov.w     #0x5, w0
    2810:	40 19 88    	mov.w     w0, 0x328
    AD1CON1bits.ADON = 1;
    2812:	21 e3 a8    	bset.b    0x321, #0x7

    // Configure LED pins as outputs, set to low (off)
    LED1_DIR = OUT; LED1 = 0;
    2814:	d8 e2 a9    	bclr.b    0x2d8, #0x7
    2816:	dc e2 a9    	bclr.b    0x2dc, #0x7
    LED2_DIR = OUT; LED2 = 0;
    2818:	e8 02 a9    	bclr.b    0x2e8, #0x0
    281a:	ec 02 a9    	bclr.b    0x2ec, #0x0
    LED3_DIR = OUT; LED3 = 0;
    281c:	e8 22 a9    	bclr.b    0x2e8, #0x1
    281e:	ec 22 a9    	bclr.b    0x2ec, #0x1

    // Configure SW pins as inputs
    SW1_DIR = IN;
    2820:	d1 e2 a8    	bset.b    0x2d1, #0x7
    SW2_DIR = IN;
    2822:	d1 82 a8    	bset.b    0x2d1, #0x4
    SW3_DIR = IN;
    2824:	c9 82 a8    	bset.b    0x2c9, #0x4
}
    2826:	00 80 fa    	ulnk      
    2828:	00 00 06    	return    

0000282a <_read_analog>:

uint16_t read_analog(uint16_t pin_an) {
    282a:	02 00 fa    	lnk       #0x2
    282c:	00 0f 78    	mov.w     w0, [w14]
    AD1CHS = pin_an;
    282e:	9e 00 78    	mov.w     [w14], w1
    2830:	41 19 88    	mov.w     w1, 0x328
    AD1CON1bits.SAMP = 1;
    2832:	20 23 a8    	bset.b    0x320, #0x1
    while (AD1CON1bits.DONE == 0) {}
    2834:	00 00 00    	nop       

00002836 <.L3>:
    2836:	00 19 80    	mov.w     0x320, w0
    2838:	61 00 60    	and.w     w0, #0x1, w0
    283a:	00 00 e0    	cp0.w     w0
    283c:	fc ff 32    	bra       Z, 0x2836 <.L3>
    return ADC1BUF0;
    283e:	00 18 80    	mov.w     0x300, w0
}
    2840:	00 80 fa    	ulnk      
    2842:	00 00 06    	return    

00002844 <_parity>:
    2844:	02 00 fa    	lnk       #0x2
    2846:	00 0f 78    	mov.w     w0, [w14]
    2848:	1e 00 78    	mov.w     [w14], w0
    284a:	48 00 de    	lsr.w     w0, #0x8, w0
    284c:	1e 0f 68    	xor.w     w0, [w14], [w14]
    284e:	1e 00 78    	mov.w     [w14], w0
    2850:	44 00 de    	lsr.w     w0, #0x4, w0
    2852:	1e 0f 68    	xor.w     w0, [w14], [w14]
    2854:	1e 00 78    	mov.w     [w14], w0
    2856:	42 00 de    	lsr.w     w0, #0x2, w0
    2858:	1e 0f 68    	xor.w     w0, [w14], [w14]
    285a:	1e 00 78    	mov.w     [w14], w0
    285c:	00 00 d1    	lsr.w     w0, w0
    285e:	1e 0f 68    	xor.w     w0, [w14], [w14]
    2860:	1e 00 78    	mov.w     [w14], w0
    2862:	00 40 78    	mov.b     w0, w0
    2864:	61 40 60    	and.b     w0, #0x1, w0
    2866:	00 80 fa    	ulnk      
    2868:	00 00 06    	return    
Disassembly of section .dinit:

0000286a <.dinit>:
    286a:	2e 0c 00    	nop       
    286c:	06 00 00    	nop       
    286e:	82 00 00    	nop       
    2870:	10 20 30    	bra       OV, 0x6892
    2872:	40 50 60    	and.b     w0, [--w0], [w0--]
    2874:	0e 08 00    	nop       
    2876:	20 04 00    	nop       
    2878:	80 00 00    	nop       
    287a:	00 08 00    	nop       
    287c:	0c 00 00    	nop       
    287e:	80 00 00    	nop       
    2880:	0c 08 00    	nop       
    2882:	02 00 00    	nop       
    2884:	82 00 00    	nop       
    2886:	e0 00 00    	nop       
    2888:	00 00 00    	nop       
Disassembly of section .isr:

0000288a <__DefaultInterrupt>:
    288a:	00 40 da    	break     
    288c:	00 00 fe    	reset     
