
master.elf:     file format elf32-pic30

Disassembly of section .aivt._AltADC1Interrupt:

0000012e <.aivt._AltADC1Interrupt>:
 12e:	06 21 00    	nop       
Disassembly of section .aivt._AltAddressError:

00000108 <.aivt._AltAddressError>:
 108:	06 21 00    	nop       
Disassembly of section .aivt._AltCNInterrupt:

0000013a <.aivt._AltCNInterrupt>:
 13a:	06 21 00    	nop       
Disassembly of section .aivt._AltCRCInterrupt:

0000019a <.aivt._AltCRCInterrupt>:
 19a:	06 21 00    	nop       
Disassembly of section .aivt._AltCTMUInterrupt:

000001ae <.aivt._AltCTMUInterrupt>:
 1ae:	06 21 00    	nop       
Disassembly of section .aivt._AltCompInterrupt:

00000138 <.aivt._AltCompInterrupt>:
 138:	06 21 00    	nop       
Disassembly of section .aivt._AltIC1Interrupt:

00000116 <.aivt._AltIC1Interrupt>:
 116:	06 21 00    	nop       
Disassembly of section .aivt._AltIC2Interrupt:

0000011e <.aivt._AltIC2Interrupt>:
 11e:	06 21 00    	nop       
Disassembly of section .aivt._AltIC3Interrupt:

0000015e <.aivt._AltIC3Interrupt>:
 15e:	06 21 00    	nop       
Disassembly of section .aivt._AltIC4Interrupt:

00000160 <.aivt._AltIC4Interrupt>:
 160:	06 21 00    	nop       
Disassembly of section .aivt._AltIC5Interrupt:

00000162 <.aivt._AltIC5Interrupt>:
 162:	06 21 00    	nop       
Disassembly of section .aivt._AltIC6Interrupt:

00000164 <.aivt._AltIC6Interrupt>:
 164:	06 21 00    	nop       
Disassembly of section .aivt._AltIC7Interrupt:

00000140 <.aivt._AltIC7Interrupt>:
 140:	06 21 00    	nop       
Disassembly of section .aivt._AltIC8Interrupt:

00000142 <.aivt._AltIC8Interrupt>:
 142:	06 21 00    	nop       
Disassembly of section .aivt._AltIC9Interrupt:

000001ce <.aivt._AltIC9Interrupt>:
 1ce:	06 21 00    	nop       
Disassembly of section .aivt._AltINT0Interrupt:

00000114 <.aivt._AltINT0Interrupt>:
 114:	06 21 00    	nop       
Disassembly of section .aivt._AltINT1Interrupt:

0000013c <.aivt._AltINT1Interrupt>:
 13c:	06 21 00    	nop       
Disassembly of section .aivt._AltINT2Interrupt:

0000014e <.aivt._AltINT2Interrupt>:
 14e:	06 21 00    	nop       
Disassembly of section .aivt._AltINT3Interrupt:

0000017e <.aivt._AltINT3Interrupt>:
 17e:	06 21 00    	nop       
Disassembly of section .aivt._AltINT4Interrupt:

00000180 <.aivt._AltINT4Interrupt>:
 180:	06 21 00    	nop       
Disassembly of section .aivt._AltInterrupt14:

00000130 <.aivt._AltInterrupt14>:
 130:	06 21 00    	nop       
Disassembly of section .aivt._AltInterrupt15:

00000132 <.aivt._AltInterrupt15>:
 132:	06 21 00    	nop       
Disassembly of section .aivt._AltInterrupt21:

0000013e <.aivt._AltInterrupt21>:
 13e:	06 21 00    	nop       
Disassembly of section .aivt._AltInterrupt24:

00000144 <.aivt._AltInterrupt24>:
 144:	06 21 00    	nop       
Disassembly of section .aivt._AltInterrupt34:

00000158 <.aivt._AltInterrupt34>:
 158:	06 21 00    	nop       
Disassembly of section .aivt._AltInterrupt35:

0000015a <.aivt._AltInterrupt35>:
 15a:	06 21 00    	nop       
Disassembly of section .aivt._AltInterrupt36:

0000015c <.aivt._AltInterrupt36>:
 15c:	06 21 00    	nop       
Disassembly of section .aivt._AltInterrupt4:

0000011c <.aivt._AltInterrupt4>:
 11c:	06 21 00    	nop       
Disassembly of section .aivt._AltInterrupt46:

00000170 <.aivt._AltInterrupt46>:
 170:	06 21 00    	nop       
Disassembly of section .aivt._AltInterrupt47:

00000172 <.aivt._AltInterrupt47>:
 172:	06 21 00    	nop       
Disassembly of section .aivt._AltInterrupt48:

00000174 <.aivt._AltInterrupt48>:
 174:	06 21 00    	nop       
Disassembly of section .aivt._AltInterrupt51:

0000017a <.aivt._AltInterrupt51>:
 17a:	06 21 00    	nop       
Disassembly of section .aivt._AltInterrupt52:

0000017c <.aivt._AltInterrupt52>:
 17c:	06 21 00    	nop       
Disassembly of section .aivt._AltInterrupt55:

00000182 <.aivt._AltInterrupt55>:
 182:	06 21 00    	nop       
Disassembly of section .aivt._AltInterrupt56:

00000184 <.aivt._AltInterrupt56>:
 184:	06 21 00    	nop       
Disassembly of section .aivt._AltInterrupt57:

00000186 <.aivt._AltInterrupt57>:
 186:	06 21 00    	nop       
Disassembly of section .aivt._AltInterrupt58:

00000188 <.aivt._AltInterrupt58>:
 188:	06 21 00    	nop       
Disassembly of section .aivt._AltInterrupt59:

0000018a <.aivt._AltInterrupt59>:
 18a:	06 21 00    	nop       
Disassembly of section .aivt._AltInterrupt60:

0000018c <.aivt._AltInterrupt60>:
 18c:	06 21 00    	nop       
Disassembly of section .aivt._AltInterrupt61:

0000018e <.aivt._AltInterrupt61>:
 18e:	06 21 00    	nop       
Disassembly of section .aivt._AltInterrupt63:

00000192 <.aivt._AltInterrupt63>:
 192:	06 21 00    	nop       
Disassembly of section .aivt._AltInterrupt64:

00000194 <.aivt._AltInterrupt64>:
 194:	06 21 00    	nop       
Disassembly of section .aivt._AltInterrupt68:

0000019c <.aivt._AltInterrupt68>:
 19c:	06 21 00    	nop       
Disassembly of section .aivt._AltInterrupt69:

0000019e <.aivt._AltInterrupt69>:
 19e:	06 21 00    	nop       
Disassembly of section .aivt._AltInterrupt70:

000001a0 <.aivt._AltInterrupt70>:
 1a0:	06 21 00    	nop       
Disassembly of section .aivt._AltInterrupt71:

000001a2 <.aivt._AltInterrupt71>:
 1a2:	06 21 00    	nop       
Disassembly of section .aivt._AltInterrupt73:

000001a6 <.aivt._AltInterrupt73>:
 1a6:	06 21 00    	nop       
Disassembly of section .aivt._AltInterrupt74:

000001a8 <.aivt._AltInterrupt74>:
 1a8:	06 21 00    	nop       
Disassembly of section .aivt._AltInterrupt75:

000001aa <.aivt._AltInterrupt75>:
 1aa:	06 21 00    	nop       
Disassembly of section .aivt._AltInterrupt76:

000001ac <.aivt._AltInterrupt76>:
 1ac:	06 21 00    	nop       
Disassembly of section .aivt._AltInterrupt78:

000001b0 <.aivt._AltInterrupt78>:
 1b0:	06 21 00    	nop       
Disassembly of section .aivt._AltInterrupt79:

000001b2 <.aivt._AltInterrupt79>:
 1b2:	06 21 00    	nop       
Disassembly of section .aivt._AltInterrupt80:

000001b4 <.aivt._AltInterrupt80>:
 1b4:	06 21 00    	nop       
Disassembly of section .aivt._AltLVDInterrupt:

000001a4 <.aivt._AltLVDInterrupt>:
 1a4:	06 21 00    	nop       
Disassembly of section .aivt._AltMI2C1Interrupt:

00000136 <.aivt._AltMI2C1Interrupt>:
 136:	06 21 00    	nop       
Disassembly of section .aivt._AltMI2C2Interrupt:

00000178 <.aivt._AltMI2C2Interrupt>:
 178:	06 21 00    	nop       
Disassembly of section .aivt._AltMI2C3Interrupt:

000001be <.aivt._AltMI2C3Interrupt>:
 1be:	06 21 00    	nop       
Disassembly of section .aivt._AltMathError:

0000010c <.aivt._AltMathError>:
 10c:	06 21 00    	nop       
Disassembly of section .aivt._AltOC1Interrupt:

00000118 <.aivt._AltOC1Interrupt>:
 118:	06 21 00    	nop       
Disassembly of section .aivt._AltOC2Interrupt:

00000120 <.aivt._AltOC2Interrupt>:
 120:	06 21 00    	nop       
Disassembly of section .aivt._AltOC3Interrupt:

00000146 <.aivt._AltOC3Interrupt>:
 146:	06 21 00    	nop       
Disassembly of section .aivt._AltOC4Interrupt:

00000148 <.aivt._AltOC4Interrupt>:
 148:	06 21 00    	nop       
Disassembly of section .aivt._AltOC5Interrupt:

00000166 <.aivt._AltOC5Interrupt>:
 166:	06 21 00    	nop       
Disassembly of section .aivt._AltOC6Interrupt:

00000168 <.aivt._AltOC6Interrupt>:
 168:	06 21 00    	nop       
Disassembly of section .aivt._AltOC7Interrupt:

0000016a <.aivt._AltOC7Interrupt>:
 16a:	06 21 00    	nop       
Disassembly of section .aivt._AltOC8Interrupt:

0000016c <.aivt._AltOC8Interrupt>:
 16c:	06 21 00    	nop       
Disassembly of section .aivt._AltOC9Interrupt:

000001cc <.aivt._AltOC9Interrupt>:
 1cc:	06 21 00    	nop       
Disassembly of section .aivt._AltOscillatorFail:

00000106 <.aivt._AltOscillatorFail>:
 106:	06 21 00    	nop       
Disassembly of section .aivt._AltPMPInterrupt:

0000016e <.aivt._AltPMPInterrupt>:
 16e:	06 21 00    	nop       
Disassembly of section .aivt._AltRTCCInterrupt:

00000190 <.aivt._AltRTCCInterrupt>:
 190:	06 21 00    	nop       
Disassembly of section .aivt._AltReservedTrap0:

00000104 <.aivt._AltReservedTrap0>:
 104:	06 21 00    	nop       
Disassembly of section .aivt._AltReservedTrap5:

0000010e <.aivt._AltReservedTrap5>:
 10e:	06 21 00    	nop       
Disassembly of section .aivt._AltReservedTrap6:

00000110 <.aivt._AltReservedTrap6>:
 110:	06 21 00    	nop       
Disassembly of section .aivt._AltReservedTrap7:

00000112 <.aivt._AltReservedTrap7>:
 112:	06 21 00    	nop       
Disassembly of section .aivt._AltSI2C1Interrupt:

00000134 <.aivt._AltSI2C1Interrupt>:
 134:	06 21 00    	nop       
Disassembly of section .aivt._AltSI2C2Interrupt:

00000176 <.aivt._AltSI2C2Interrupt>:
 176:	06 21 00    	nop       
Disassembly of section .aivt._AltSI2C3Interrupt:

000001bc <.aivt._AltSI2C3Interrupt>:
 1bc:	06 21 00    	nop       
Disassembly of section .aivt._AltSPI1ErrInterrupt:

00000126 <.aivt._AltSPI1ErrInterrupt>:
 126:	06 21 00    	nop       
Disassembly of section .aivt._AltSPI1Interrupt:

00000128 <.aivt._AltSPI1Interrupt>:
 128:	06 21 00    	nop       
Disassembly of section .aivt._AltSPI2ErrInterrupt:

00000154 <.aivt._AltSPI2ErrInterrupt>:
 154:	06 21 00    	nop       
Disassembly of section .aivt._AltSPI2Interrupt:

00000156 <.aivt._AltSPI2Interrupt>:
 156:	06 21 00    	nop       
Disassembly of section .aivt._AltSPI3ErrInterrupt:

000001c8 <.aivt._AltSPI3ErrInterrupt>:
 1c8:	06 21 00    	nop       
Disassembly of section .aivt._AltSPI3Interrupt:

000001ca <.aivt._AltSPI3Interrupt>:
 1ca:	06 21 00    	nop       
Disassembly of section .aivt._AltStackError:

0000010a <.aivt._AltStackError>:
 10a:	06 21 00    	nop       
Disassembly of section .aivt._AltT1Interrupt:

0000011a <.aivt._AltT1Interrupt>:
 11a:	06 21 00    	nop       
Disassembly of section .aivt._AltT2Interrupt:

00000122 <.aivt._AltT2Interrupt>:
 122:	06 21 00    	nop       
Disassembly of section .aivt._AltT3Interrupt:

00000124 <.aivt._AltT3Interrupt>:
 124:	06 21 00    	nop       
Disassembly of section .aivt._AltT4Interrupt:

0000014a <.aivt._AltT4Interrupt>:
 14a:	06 21 00    	nop       
Disassembly of section .aivt._AltT5Interrupt:

0000014c <.aivt._AltT5Interrupt>:
 14c:	06 21 00    	nop       
Disassembly of section .aivt._AltU1ErrInterrupt:

00000196 <.aivt._AltU1ErrInterrupt>:
 196:	06 21 00    	nop       
Disassembly of section .aivt._AltU1RXInterrupt:

0000012a <.aivt._AltU1RXInterrupt>:
 12a:	06 21 00    	nop       
Disassembly of section .aivt._AltU1TXInterrupt:

0000012c <.aivt._AltU1TXInterrupt>:
 12c:	06 21 00    	nop       
Disassembly of section .aivt._AltU2ErrInterrupt:

00000198 <.aivt._AltU2ErrInterrupt>:
 198:	06 21 00    	nop       
Disassembly of section .aivt._AltU2RXInterrupt:

00000150 <.aivt._AltU2RXInterrupt>:
 150:	06 21 00    	nop       
Disassembly of section .aivt._AltU2TXInterrupt:

00000152 <.aivt._AltU2TXInterrupt>:
 152:	06 21 00    	nop       
Disassembly of section .aivt._AltU3ErrInterrupt:

000001b6 <.aivt._AltU3ErrInterrupt>:
 1b6:	06 21 00    	nop       
Disassembly of section .aivt._AltU3RXInterrupt:

000001b8 <.aivt._AltU3RXInterrupt>:
 1b8:	06 21 00    	nop       
Disassembly of section .aivt._AltU3TXInterrupt:

000001ba <.aivt._AltU3TXInterrupt>:
 1ba:	06 21 00    	nop       
Disassembly of section .aivt._AltU4ErrInterrupt:

000001c2 <.aivt._AltU4ErrInterrupt>:
 1c2:	06 21 00    	nop       
Disassembly of section .aivt._AltU4RXInterrupt:

000001c4 <.aivt._AltU4RXInterrupt>:
 1c4:	06 21 00    	nop       
Disassembly of section .aivt._AltU4TXInterrupt:

000001c6 <.aivt._AltU4TXInterrupt>:
 1c6:	06 21 00    	nop       
Disassembly of section .aivt._AltUSB1Interrupt:

000001c0 <.aivt._AltUSB1Interrupt>:
 1c0:	06 21 00    	nop       
Disassembly of section .reset:

00000000 <.reset>:
   0:	10 11 04    	goto      0x1110 <__reset>
   2:	00 00 00 
Disassembly of section .text:

00001110 <__reset>:
    1110:	af 81 20    	mov.w     #0x81a, w15
    1112:	0e ff 27    	mov.w     #0x7ff0, w14
    1114:	0e 01 88    	mov.w     w14, 0x20
    1116:	00 00 00    	nop       
    1118:	00 00 20    	mov.w     #0x0, w0
    111a:	00 00 e0    	cp0.w     w0
    111c:	02 00 32    	bra       Z, 0x1122 <CORCON_RESET>
    111e:	00 01 20    	mov.w     #0x10, w0
    1120:	20 02 88    	mov.w     w0, 0x44

00001122 <CORCON_RESET>:
    1122:	14 00 07    	rcall     0x114c <__psv_init>
    1124:	7d 00 07    	rcall     0x1220 <__crt_start_mode> <__crt_start_mode_normal>
    1126:	00 00 e0    	cp0.w     w0
    1128:	03 00 3a    	bra       NZ, 0x1130 <L11>
    112a:	80 0f 22    	mov.w     #0x20f8, w0
    112c:	01 00 20    	mov.w     #0x0, w1
    112e:	02 00 37    	bra       0x1134 <L21>

00001130 <L11>:
    1130:	00 00 20    	mov.w     #0x0, w0
    1132:	01 00 20    	mov.w     #0x0, w1

00001134 <L21>:
    1134:	81 0f 70    	ior.w     w0, w1, [w15]
    1136:	01 00 32    	bra       Z, 0x113a <L12>
    1138:	14 00 07    	rcall     0x1162 <__data_init> <__data_init_da>

0000113a <L12>:
    113a:	00 00 20    	mov.w     #0x0, w0
    113c:	00 00 e0    	cp0.w     w0
    113e:	02 00 32    	bra       Z, 0x1144 <L13>
    1140:	00 00 02    	call      0x0 <__DEFAULT_VECTOR-0x110c>
    1142:	00 00 00 

00001144 <L13>:
    1144:	0a 20 02    	call      0x200a <_main>
    1146:	00 00 00 
    1148:	00 40 da    	break     
    114a:	00 00 fe    	reset     

0000114c <__psv_init>:
    114c:	44 40 a9    	bclr.b    0x44, #0x2
    114e:	20 02 20    	mov.w     #0x22, w0
    1150:	00 00 e0    	cp0.w     w0
    1152:	03 00 32    	bra       Z, 0x115a <L14>
    1154:	00 20 20    	mov.w     #0x200, w0
    1156:	90 01 88    	mov.w     w0, 0x32
    1158:	44 40 a8    	bset.b    0x44, #0x2

0000115a <L14>:
    115a:	00 00 06    	return    

0000115c <__long_indirect_call>:
    115c:	8a 1f 78    	mov.w     w10, [w15++]
    115e:	8b 1f 78    	mov.w     w11, [w15++]
    1160:	00 00 06    	return    

00001162 <__data_init>:
    1162:	a1 02 88    	mov.w     w1, 0x54
    1164:	80 04 78    	mov.w     w0, w9
    1166:	00 00 eb    	clr.w     w0
    1168:	1f 00 37    	bra       0x11a8 <L41>

0000116a <L11>:
    116a:	e2 84 44    	add.w     w9, #0x2, w9
    116c:	54 a0 b4    	addc.w    0x54
    116e:	99 05 ba    	tblrdl.w  [w9], w11
    1170:	e2 84 44    	add.w     w9, #0x2, w9
    1172:	54 a0 b4    	addc.w    0x54
    1174:	99 06 ba    	tblrdl.w  [w9], w13
    1176:	e2 84 44    	add.w     w9, #0x2, w9
    1178:	54 a0 b4    	addc.w    0x54
    117a:	00 06 eb    	clr.w     w12
    117c:	47 6f de    	lsr.w     w13, #0x7, w14
    117e:	fd 07 b2    	and.w     #0x7f, w13
    1180:	ae 01 88    	mov.w     w14, 0x34
    1182:	63 6c e1    	cp.b      w13, #0x3
    1184:	03 00 3a    	bra       NZ, 0x118c <L21>
    1186:	ea ff 07    	rcall     0x115c <__long_indirect_call>
    1188:	00 00 eb    	clr.w     w0
    118a:	0e 00 37    	bra       0x11a8 <L41>

0000118c <L21>:
    118c:	60 6c e1    	cp.b      w13, #0x0
    118e:	08 00 3a    	bra       NZ, 0x11a0 <L22>

00001190 <L91>:
    1190:	00 4d eb    	clr.b     [w10]
    1192:	0a 05 e8    	inc.w     w10, w10
    1194:	02 00 39    	bra       NC, 0x119a <L81>
    1196:	34 20 ec    	inc.w     0x34
    1198:	0a f0 a0    	bset.w    w10, #0xf

0000119a <L81>:
    119a:	8b 05 e9    	dec.w     w11, w11
    119c:	f9 ff 3e    	bra       GTU, 0x1190 <L91>
    119e:	04 00 37    	bra       0x11a8 <L41>

000011a0 <L22>:
    11a0:	61 68 e1    	cp.w      w13, #0x1
    11a2:	01 00 32    	bra       Z, 0x11a6 <L31>
    11a4:	00 86 eb    	setm.w    w12

000011a6 <L31>:
    11a6:	0b 00 07    	rcall     0x11be <L13> <__memcpyd3extended>

000011a8 <L41>:
    11a8:	19 c7 ba    	tblrdh.b  [w9], w14
    11aa:	19 05 ba    	tblrdl.w  [w9], w10
    11ac:	0e 04 e0    	cp0.b     w14
    11ae:	03 00 3a    	bra       NZ, 0x11b6 <L12>
    11b0:	0a 00 e0    	cp0.w     w10
    11b2:	db ff 3a    	bra       NZ, 0x116a <L11>
    11b4:	00 00 06    	return    

000011b6 <L12>:
    11b6:	fe 07 b2    	and.w     #0x7f, w14
    11b8:	ae 02 88    	mov.w     w14, 0x54
    11ba:	8a 04 78    	mov.w     w10, w9
    11bc:	f5 ff 37    	bra       0x11a8 <L41>

000011be <L13>:
    11be:	0c d0 a3    	btst.c    w12, #0xd
    11c0:	e2 0f 4d    	addc.w    w10, #0x2, [w15]
    11c2:	1c 00 39    	bra       NC, 0x11fc <L23>
    11c4:	89 02 78    	mov.w     w9, w5
    11c6:	35 4d ba    	tblrdl.b  [w5++], [w10]
    11c8:	0a 05 e8    	inc.w     w10, w10
    11ca:	02 00 39    	bra       NC, 0x11d0 <L32>
    11cc:	34 20 ec    	inc.w     0x34
    11ce:	0a f0 a0    	bset.w    w10, #0xf

000011d0 <L32>:
    11d0:	8b 05 e9    	dec.w     w11, w11
    11d2:	0f 00 32    	bra       Z, 0x11f2 <L42>
    11d4:	25 4d ba    	tblrdl.b  [w5--], [w10]
    11d6:	0a 05 e8    	inc.w     w10, w10
    11d8:	02 00 39    	bra       NC, 0x11de <L33>
    11da:	34 20 ec    	inc.w     0x34
    11dc:	0a f0 a0    	bset.w    w10, #0xf

000011de <L33>:
    11de:	8b 05 e9    	dec.w     w11, w11
    11e0:	08 00 32    	bra       Z, 0x11f2 <L42>
    11e2:	0c 00 e0    	cp0.w     w12
    11e4:	06 00 32    	bra       Z, 0x11f2 <L42>
    11e6:	15 cd ba    	tblrdh.b  [w5], [w10]
    11e8:	0a 05 e8    	inc.w     w10, w10
    11ea:	02 00 39    	bra       NC, 0x11f0 <L34>
    11ec:	34 20 ec    	inc.w     0x34
    11ee:	0a f0 a0    	bset.w    w10, #0xf

000011f0 <L34>:
    11f0:	8b 05 e9    	dec.w     w11, w11

000011f2 <L42>:
    11f2:	89 84 e8    	inc2.w    w9, w9
    11f4:	54 a0 b4    	addc.w    0x54
    11f6:	0b 00 e0    	cp0.w     w11
    11f8:	e2 ff 3a    	bra       NZ, 0x11be <L13> <__memcpyd3extended>
    11fa:	00 00 06    	return    

000011fc <L23>:
    11fc:	99 02 ba    	tblrdl.w  [w9], w5
    11fe:	05 5d 78    	mov.b     w5, [w10++]
    1200:	8b 05 e9    	dec.w     w11, w11
    1202:	f7 ff 32    	bra       Z, 0x11f2 <L42>
    1204:	c8 2a de    	lsr.w     w5, #0x8, w5
    1206:	05 5d 78    	mov.b     w5, [w10++]
    1208:	8b 05 e9    	dec.w     w11, w11
    120a:	f3 ff 32    	bra       Z, 0x11f2 <L42>
    120c:	0c 00 e0    	cp0.w     w12
    120e:	f1 ff 32    	bra       Z, 0x11f2 <L42>
    1210:	19 dd ba    	tblrdh.b  [w9], [w10++]
    1212:	ee ff 37    	bra       0x11f0 <L34>

00001214 <.handle>:
    1214:	32 1e 04    	goto      0x1e32 <_active>
    1216:	00 00 00 
    1218:	02 1e 04    	goto      0x1e02 <_idle>
    121a:	00 00 00 
    121c:	ae 1e 04    	goto      0x1eae <_end>
    121e:	00 00 00 

00001220 <__crt_start_mode>:
    1220:	00 00 05    	retlw.w   #0x0, w0

00001222 <___subsf3>:
    1222:	03 f0 a2    	btg.w     w3, #0xf

00001224 <___addsf3>:
    1224:	88 9f be    	mov.d     w8, [w15++]
    1226:	8a 9f be    	mov.d     w10, [w15++]
    1228:	8c 1f 78    	mov.w     w12, [w15++]
    122a:	f6 00 07    	rcall     0x1418 <__funpack2>
    122c:	fd 00 33    	bra       N, 0x1428 <__fPropagateNaN>
    122e:	64 50 e1    	cp.w      w10, #0x4
    1230:	4f 00 32    	bra       Z, 0x12d0 <aisinfinite>

00001232 <checkspecialb>:
    1232:	64 20 e1    	cp.w      w4, #0x4
    1234:	52 00 32    	bra       Z, 0x12da <return2>
    1236:	03 82 6c    	xor.w     w9, w3, w4
    1238:	07 00 3b    	bra       NN, 0x1248 <getsign>
    123a:	09 05 d0    	sl.w      w9, w10
    123c:	03 06 d0    	sl.w      w3, w12
    123e:	82 0f 54    	sub.w     w8, w2, [w15]
    1240:	0c 06 5d    	subb.w    w10, w12, w12
    1242:	02 00 39    	bra       NC, 0x1248 <getsign>
    1244:	02 00 32    	bra       Z, 0x124a <gotsign>
    1246:	89 01 78    	mov.w     w9, w3

00001248 <getsign>:
    1248:	03 06 78    	mov.w     w3, w12

0000124a <gotsign>:
    124a:	85 82 55    	sub.w     w11, w5, w5
    124c:	04 00 3d    	bra       GE, 0x1256 <expcanonical>
    124e:	00 03 fd    	exch      w0, w6
    1250:	81 03 fd    	exch      w1, w7
    1252:	85 02 ea    	neg.w     w5, w5
    1254:	8b 85 42    	add.w     w5, w11, w11

00001256 <expcanonical>:
    1256:	84 0f 72    	ior.w     w4, w4, [w15]
    1258:	02 00 3b    	bra       NN, 0x125e <nonegate>
    125a:	60 00 10    	subr.w    w0, #0x0, w0
    125c:	e0 80 18    	subbr.w   w1, #0x0, w1

0000125e <nonegate>:
    125e:	60 11 b8    	mul.uu    w2, #0x0, w2
    1260:	00 05 eb    	clr.w     w10
    1262:	7a 28 e1    	cp.w      w5, #0x1a
    1264:	0a 00 39    	bra       NC, 0x127a <aligniter>
    1266:	06 00 78    	mov.w     w6, w0
    1268:	c7 5d dd    	sl.w      w11, #0x7, w11
    126a:	f7 07 b2    	and.w     #0x7f, w7
    126c:	87 80 75    	ior.w     w11, w7, w1
    126e:	2d 00 37    	bra       0x12ca <signoff>

00001270 <align>:
    1270:	82 81 71    	ior.w     w3, w2, w3
    1272:	0a 01 78    	mov.w     w10, w2
    1274:	61 05 60    	and.w     w0, #0x1, w10
    1276:	81 80 d1    	asr.w     w1, w1
    1278:	00 80 d3    	rrc.w     w0, w0

0000127a <aligniter>:
    127a:	85 02 e9    	dec.w     w5, w5
    127c:	f9 ff 3b    	bra       NN, 0x1270 <align>

0000127e <aligned>:
    127e:	06 04 40    	add.w     w0, w6, w8
    1280:	87 84 48    	addc.w    w1, w7, w9
    1282:	02 00 3b    	bra       NN, 0x1288 <normalizesum>
    1284:	60 04 14    	subr.w    w8, #0x0, w8
    1286:	e0 84 1c    	subbr.w   w9, #0x0, w9

00001288 <normalizesum>:
    1288:	09 88 a3    	btst.z    w9, #0x8
    128a:	07 00 32    	bra       Z, 0x129a <checknormal>
    128c:	8a 81 71    	ior.w     w3, w10, w3
    128e:	82 81 71    	ior.w     w3, w2, w3
    1290:	61 01 64    	and.w     w8, #0x1, w2
    1292:	89 04 d1    	lsr.w     w9, w9
    1294:	08 84 d3    	rrc.w     w8, w8
    1296:	8b 05 e8    	inc.w     w11, w11
    1298:	17 00 37    	bra       0x12c8 <round>

0000129a <checknormal>:
    129a:	09 78 a3    	btst.z    w9, #0x7
    129c:	13 00 3a    	bra       NZ, 0x12c4 <discardguard>

0000129e <underflow>:
    129e:	0b 00 e0    	cp0.w     w11
    12a0:	13 00 34    	bra       LE, 0x12c8 <round>
    12a2:	8b 05 e9    	dec.w     w11, w11
    12a4:	08 04 44    	add.w     w8, w8, w8
    12a6:	89 84 4c    	addc.w    w9, w9, w9
    12a8:	0a 44 74    	ior.b     w8, w10, w8
    12aa:	09 78 a3    	btst.z    w9, #0x7
    12ac:	0d 00 3a    	bra       NZ, 0x12c8 <round>

000012ae <normalizeloop>:
    12ae:	0b 00 e0    	cp0.w     w11
    12b0:	07 00 34    	bra       LE, 0x12c0 <normalizeexit>
    12b2:	8b 05 e9    	dec.w     w11, w11
    12b4:	08 04 44    	add.w     w8, w8, w8
    12b6:	89 84 4c    	addc.w    w9, w9, w9
    12b8:	01 00 3a    	bra       NZ, 0x12bc <normalizetest>
    12ba:	0b 00 20    	mov.w     #0x0, w11

000012bc <normalizetest>:
    12bc:	09 78 a3    	btst.z    w9, #0x7
    12be:	f7 ff 32    	bra       Z, 0x12ae <normalizeloop>

000012c0 <normalizeexit>:
    12c0:	00 01 eb    	clr.w     w2
    12c2:	02 00 37    	bra       0x12c8 <round>

000012c4 <discardguard>:
    12c4:	82 81 71    	ior.w     w3, w2, w3
    12c6:	0a 01 78    	mov.w     w10, w2

000012c8 <round>:
    12c8:	6c 00 07    	rcall     0x13a2 <__fpack>

000012ca <signoff>:
    12ca:	0c f0 a7    	btsc.w    w12, #0xf
    12cc:	01 f0 a0    	bset.w    w1, #0xf
    12ce:	b5 00 37    	bra       0x143a <__fbopExit>

000012d0 <aisinfinite>:
    12d0:	64 20 e1    	cp.w      w4, #0x4
    12d2:	02 00 3a    	bra       NZ, 0x12d8 <return8>
    12d4:	83 8f 6c    	xor.w     w9, w3, [w15]
    12d6:	b5 00 33    	bra       N, 0x1442 <__fbopReturnNaN>

000012d8 <return8>:
    12d8:	08 01 be    	mov.d     w8, w2

000012da <return2>:
    12da:	02 00 be    	mov.d     w2, w0
    12dc:	ae 00 37    	bra       0x143a <__fbopExit>

000012de <___divsf3>:
    12de:	88 9f be    	mov.d     w8, [w15++]
    12e0:	8a 9f be    	mov.d     w10, [w15++]
    12e2:	8c 1f 78    	mov.w     w12, [w15++]
    12e4:	99 00 07    	rcall     0x1418 <__funpack2>
    12e6:	a0 00 33    	bra       N, 0x1428 <__fPropagateNaN>
    12e8:	03 86 6c    	xor.w     w9, w3, w12
    12ea:	64 50 e1    	cp.w      w10, #0x4
    12ec:	2e 00 32    	bra       Z, 0x134a <aisinfinite>
    12ee:	64 20 e1    	cp.w      w4, #0x4
    12f0:	33 00 32    	bra       Z, 0x1358 <returnZero>
    12f2:	61 50 e1    	cp.w      w10, #0x1
    12f4:	2f 00 32    	bra       Z, 0x1354 <aiszero>
    12f6:	61 20 e1    	cp.w      w4, #0x1
    12f8:	31 00 32    	bra       Z, 0x135c <returnInf>

000012fa <finitenonzero>:
    12fa:	85 85 55    	sub.w     w11, w5, w11
    12fc:	eb 07 b0    	add.w     #0x7e, w11
    12fe:	09 00 20    	mov.w     #0x0, w9
    1300:	08 04 20    	mov.w     #0x40, w8
    1302:	05 00 37    	bra       0x130e <diventry>

00001304 <divnext>:
    1304:	08 04 44    	add.w     w8, w8, w8
    1306:	89 84 4c    	addc.w    w9, w9, w9
    1308:	0a 00 31    	bra       C, 0x131e <divdone> <formsticky>

0000130a <divloop>:
    130a:	06 03 43    	add.w     w6, w6, w6
    130c:	87 83 4b    	addc.w    w7, w7, w7

0000130e <diventry>:
    130e:	00 01 53    	sub.w     w6, w0, w2
    1310:	81 81 5b    	subb.w    w7, w1, w3
    1312:	f8 ff 33    	bra       N, 0x1304 <divnext>
    1314:	02 03 be    	mov.d     w2, w6
    1316:	08 00 a0    	bset.w    w8, #0x0
    1318:	08 04 44    	add.w     w8, w8, w8
    131a:	89 84 4c    	addc.w    w9, w9, w9
    131c:	f6 ff 39    	bra       NC, 0x130a <divloop>

0000131e <divdone>:
    131e:	c6 39 dd    	sl.w      w7, #0x6, w3
    1320:	83 01 73    	ior.w     w6, w3, w3
    1322:	01 00 32    	bra       Z, 0x1326 <stickyok>
    1324:	13 00 20    	mov.w     #0x1, w3

00001326 <stickyok>:
    1326:	89 04 d1    	lsr.w     w9, w9
    1328:	08 84 d3    	rrc.w     w8, w8
    132a:	09 98 a3    	btst.z    w9, #0x9
    132c:	05 00 32    	bra       Z, 0x1338 <guardused>
    132e:	08 00 a7    	btsc.w    w8, #0x0
    1330:	03 00 a0    	bset.w    w3, #0x0
    1332:	89 04 d1    	lsr.w     w9, w9
    1334:	08 84 d3    	rrc.w     w8, w8
    1336:	8b 05 e8    	inc.w     w11, w11

00001338 <guardused>:
    1338:	89 04 d1    	lsr.w     w9, w9
    133a:	08 84 d3    	rrc.w     w8, w8
    133c:	00 01 eb    	clr.w     w2
    133e:	02 81 d2    	rlc.w     w2, w2
    1340:	30 00 07    	rcall     0x13a2 <__fpack>

00001342 <return0>:
    1342:	01 f0 a1    	bclr.w    w1, #0xf
    1344:	0c f0 a7    	btsc.w    w12, #0xf
    1346:	01 f0 a0    	bset.w    w1, #0xf
    1348:	78 00 37    	bra       0x143a <__fbopExit>

0000134a <aisinfinite>:
    134a:	64 20 e1    	cp.w      w4, #0x4
    134c:	7a 00 32    	bra       Z, 0x1442 <__fbopReturnNaN>

0000134e <return8>:
    134e:	08 01 be    	mov.d     w8, w2

00001350 <return2>:
    1350:	02 00 be    	mov.d     w2, w0
    1352:	f7 ff 37    	bra       0x1342 <return0>

00001354 <aiszero>:
    1354:	61 20 e1    	cp.w      w4, #0x1
    1356:	75 00 32    	bra       Z, 0x1442 <__fbopReturnNaN>

00001358 <returnZero>:
    1358:	60 00 b8    	mul.uu    w0, #0x0, w0
    135a:	f3 ff 37    	bra       0x1342 <return0>

0000135c <returnInf>:
    135c:	00 00 20    	mov.w     #0x0, w0
    135e:	01 f8 27    	mov.w     #0x7f80, w1
    1360:	f0 ff 37    	bra       0x1342 <return0>

00001362 <___eqsf2>:
    1362:	14 00 20    	mov.w     #0x1, w4
    1364:	b8 00 37    	bra       0x14d6 <__fcompare>

00001366 <___fixunssfsi>:
    1366:	00 01 be    	mov.d     w0, w2
    1368:	42 00 07    	rcall     0x13ee <__funpack>
    136a:	04 70 a7    	btsc.w    w4, #0x7
    136c:	03 f0 a1    	bclr.w    w3, #0xf
    136e:	03 f8 a3    	btst.z    w3, #0xf
    1370:	13 00 3a    	bra       NZ, 0x1398 <returnzero>
    1372:	65 09 b1    	sub.w     #0x96, w5
    1374:	10 00 32    	bra       Z, 0x1396 <exit>
    1376:	09 00 35    	bra       LT, 0x138a <shiftright>
    1378:	69 28 e1    	cp.w      w5, #0x9
    137a:	02 00 35    	bra       LT, 0x1380 <shiftleft>
    137c:	01 00 28    	mov.w     #0x8000, w1
    137e:	00 00 05    	retlw.w   #0x0, w0

00001380 <shiftleft>:
    1380:	00 00 40    	add.w     w0, w0, w0
    1382:	81 80 48    	addc.w    w1, w1, w1
    1384:	85 02 e9    	dec.w     w5, w5
    1386:	fc ff 3a    	bra       NZ, 0x1380 <shiftleft>
    1388:	00 00 06    	return    

0000138a <shiftright>:
    138a:	f8 8f 42    	add.w     w5, #0x18, [w15]
    138c:	05 00 35    	bra       LT, 0x1398 <returnzero>

0000138e <shiftrightloop>:
    138e:	81 00 d1    	lsr.w     w1, w1
    1390:	00 80 d3    	rrc.w     w0, w0
    1392:	85 02 e8    	inc.w     w5, w5
    1394:	fc ff 3a    	bra       NZ, 0x138e <shiftrightloop>

00001396 <exit>:
    1396:	00 00 06    	return    

00001398 <returnzero>:
    1398:	80 00 eb    	clr.w     w1
    139a:	00 00 05    	retlw.w   #0x0, w0

0000139c <___floatsisf>:
    139c:	4f 89 de    	asr.w     w1, #0xf, w2
    139e:	82 01 78    	mov.w     w2, w3
    13a0:	b5 00 37    	bra       0x150c <___floatdisf>

000013a2 <__fpack>:
    13a2:	81 00 20    	mov.w     #0x8, w1
    13a4:	61 80 55    	sub.w     w11, #0x1, w0
    13a6:	0b 00 3d    	bra       GE, 0x13be <notsubnormal>
    13a8:	0b 00 20    	mov.w     #0x0, w11
    13aa:	61 fe 2f    	mov.w     #0xffe6, w1
    13ac:	01 00 e1    	cp.w      w0, w1
    13ae:	1d 00 34    	bra       LE, 0x13ea <zerosig>

000013b0 <subnormal>:
    13b0:	82 81 71    	ior.w     w3, w2, w3
    13b2:	61 01 64    	and.w     w8, #0x1, w2
    13b4:	89 04 d1    	lsr.w     w9, w9
    13b6:	08 84 d3    	rrc.w     w8, w8
    13b8:	00 00 e8    	inc.w     w0, w0
    13ba:	fa ff 3a    	bra       NZ, 0x13b0 <subnormal>
    13bc:	71 00 20    	mov.w     #0x7, w1

000013be <notsubnormal>:
    13be:	61 00 64    	and.w     w8, #0x1, w0
    13c0:	03 00 70    	ior.w     w0, w3, w0
    13c2:	02 00 60    	and.w     w0, w2, w0
    13c4:	09 00 32    	bra       Z, 0x13d8 <packupandgo>
    13c6:	61 04 44    	add.w     w8, #0x1, w8
    13c8:	e0 84 4c    	addc.w    w9, #0x0, w9
    13ca:	09 88 a5    	btst.z    w9, w1
    13cc:	05 00 32    	bra       Z, 0x13d8 <packupandgo>
    13ce:	8b 05 e8    	inc.w     w11, w11
    13d0:	68 08 e1    	cp.w      w1, #0x8
    13d2:	02 00 3a    	bra       NZ, 0x13d8 <packupandgo>
    13d4:	89 04 d1    	lsr.w     w9, w9
    13d6:	08 84 d3    	rrc.w     w8, w8

000013d8 <packupandgo>:
    13d8:	f2 0f 20    	mov.w     #0xff, w2
    13da:	02 58 e1    	cp.w      w11, w2
    13dc:	05 00 3d    	bra       GE, 0x13e8 <overflow>
    13de:	c7 5d dd    	sl.w      w11, #0x7, w11
    13e0:	f9 07 b2    	and.w     #0x7f, w9
    13e2:	89 80 75    	ior.w     w11, w9, w1
    13e4:	08 00 78    	mov.w     w8, w0
    13e6:	00 00 06    	return    

000013e8 <overflow>:
    13e8:	0b f8 27    	mov.w     #0x7f80, w11

000013ea <zerosig>:
    13ea:	8b 00 78    	mov.w     w11, w1
    13ec:	00 00 05    	retlw.w   #0x0, w0

000013ee <__funpack>:
    13ee:	c7 0a de    	lsr.w     w1, #0x7, w5
    13f0:	f1 07 b2    	and.w     #0x7f, w1
    13f2:	f5 0f b2    	and.w     #0xff, w5
    13f4:	08 00 32    	bra       Z, 0x1406 <zeroorsub>
    13f6:	e1 cf 42    	add.b     w5, #0x1, [w15]
    13f8:	02 00 32    	bra       Z, 0x13fe <nanorinf>

000013fa <finitereturn>:
    13fa:	01 70 a0    	bset.w    w1, #0x7
    13fc:	24 00 05    	retlw.w   #0x2, w4

000013fe <nanorinf>:
    13fe:	81 0f 70    	ior.w     w0, w1, [w15]
    1400:	01 00 32    	bra       Z, 0x1404 <infinite>
    1402:	04 08 05    	retlw.w   #0x80, w4

00001404 <infinite>:
    1404:	44 00 05    	retlw.w   #0x4, w4

00001406 <zeroorsub>:
    1406:	81 0f 70    	ior.w     w0, w1, [w15]
    1408:	02 00 3a    	bra       NZ, 0x140e <subnormal>
    140a:	14 00 05    	retlw.w   #0x1, w4

0000140c <normalize>:
    140c:	85 02 e9    	dec.w     w5, w5

0000140e <subnormal>:
    140e:	00 00 40    	add.w     w0, w0, w0
    1410:	81 c0 48    	addc.b    w1, w1, w1
    1412:	fc ff 3b    	bra       NN, 0x140c <normalize>
    1414:	01 70 a0    	bset.w    w1, #0x7
    1416:	24 00 05    	retlw.w   #0x2, w4

00001418 <__funpack2>:
    1418:	00 04 be    	mov.d     w0, w8
    141a:	e9 ff 07    	rcall     0x13ee <__funpack>
    141c:	00 03 be    	mov.d     w0, w6
    141e:	04 05 be    	mov.d     w4, w10
    1420:	02 00 be    	mov.d     w2, w0
    1422:	e5 ff 07    	rcall     0x13ee <__funpack>
    1424:	84 4f 75    	ior.b     w10, w4, [w15]
    1426:	00 00 06    	return    

00001428 <__fPropagateNaN>:
    1428:	02 00 be    	mov.d     w2, w0
    142a:	64 50 e1    	cp.w      w10, #0x4
    142c:	05 00 36    	bra       LEU, 0x1438 <return0>
    142e:	64 20 e1    	cp.w      w4, #0x4
    1430:	02 00 36    	bra       LEU, 0x1436 <return8>
    1432:	09 68 a3    	btst.z    w9, #0x6
    1434:	01 00 3a    	bra       NZ, 0x1438 <return0>

00001436 <return8>:
    1436:	08 00 be    	mov.d     w8, w0

00001438 <return0>:
    1438:	01 60 a0    	bset.w    w1, #0x6

0000143a <__fbopExit>:
    143a:	4f 06 78    	mov.w     [--w15], w12
    143c:	4f 05 be    	mov.d     [--w15], w10
    143e:	4f 04 be    	mov.d     [--w15], w8
    1440:	00 00 06    	return    

00001442 <__fbopReturnNaN>:
    1442:	f0 ff 2f    	mov.w     #0xffff, w0
    1444:	f1 ff 27    	mov.w     #0x7fff, w1
    1446:	f9 ff 37    	bra       0x143a <__fbopExit>

00001448 <___mulsf3>:
    1448:	88 9f be    	mov.d     w8, [w15++]
    144a:	8a 9f be    	mov.d     w10, [w15++]
    144c:	8c 1f 78    	mov.w     w12, [w15++]
    144e:	e4 ff 07    	rcall     0x1418 <__funpack2>
    1450:	eb ff 33    	bra       N, 0x1428 <__fPropagateNaN>
    1452:	03 86 6c    	xor.w     w9, w3, w12
    1454:	64 50 e1    	cp.w      w10, #0x4
    1456:	24 00 32    	bra       Z, 0x14a0 <aisinfinite>
    1458:	64 20 e1    	cp.w      w4, #0x4
    145a:	27 00 32    	bra       Z, 0x14aa <bisinfinite>
    145c:	61 50 e1    	cp.w      w10, #0x1
    145e:	22 00 32    	bra       Z, 0x14a4 <return8>
    1460:	61 20 e1    	cp.w      w4, #0x1
    1462:	21 00 32    	bra       Z, 0x14a6 <return2>
    1464:	8b 85 42    	add.w     w5, w11, w11
    1466:	eb 07 b1    	sub.w     #0x7e, w11
    1468:	01 34 b8    	mul.uu    w6, w1, w8
    146a:	00 3a b8    	mul.uu    w7, w0, w4
    146c:	08 04 42    	add.w     w4, w8, w8
    146e:	89 84 4a    	addc.w    w5, w9, w9
    1470:	01 3a b8    	mul.uu    w7, w1, w4
    1472:	00 30 b8    	mul.uu    w6, w0, w0
    1474:	88 80 40    	add.w     w1, w8, w1
    1476:	09 01 4a    	addc.w    w4, w9, w2
    1478:	04 00 33    	bra       N, 0x1482 <formsticky>
    147a:	00 00 40    	add.w     w0, w0, w0
    147c:	81 80 48    	addc.w    w1, w1, w1
    147e:	02 01 49    	addc.w    w2, w2, w2
    1480:	8b 05 e9    	dec.w     w11, w11

00001482 <formsticky>:
    1482:	c9 09 dd    	sl.w      w1, #0x9, w3
    1484:	83 01 70    	ior.w     w0, w3, w3
    1486:	01 00 32    	bra       Z, 0x148a <formRandSig>
    1488:	13 00 20    	mov.w     #0x1, w3

0000148a <formRandSig>:
    148a:	c8 14 de    	lsr.w     w2, #0x8, w9
    148c:	48 14 dd    	sl.w      w2, #0x8, w8
    148e:	47 09 de    	lsr.w     w1, #0x7, w2
    1490:	12 00 b2    	and.w     #0x1, w2
    1492:	c8 08 de    	lsr.w     w1, #0x8, w1
    1494:	08 84 70    	ior.w     w1, w8, w8
    1496:	85 ff 07    	rcall     0x13a2 <__fpack>

00001498 <return0>:
    1498:	01 f0 a1    	bclr.w    w1, #0xf
    149a:	0c f0 a7    	btsc.w    w12, #0xf
    149c:	01 f0 a0    	bset.w    w1, #0xf
    149e:	cd ff 37    	bra       0x143a <__fbopExit>

000014a0 <aisinfinite>:
    14a0:	61 20 e1    	cp.w      w4, #0x1
    14a2:	cf ff 32    	bra       Z, 0x1442 <__fbopReturnNaN>

000014a4 <return8>:
    14a4:	08 01 be    	mov.d     w8, w2

000014a6 <return2>:
    14a6:	02 00 be    	mov.d     w2, w0
    14a8:	f7 ff 37    	bra       0x1498 <return0>

000014aa <bisinfinite>:
    14aa:	61 50 e1    	cp.w      w10, #0x1
    14ac:	fc ff 3a    	bra       NZ, 0x14a6 <return2>
    14ae:	c9 ff 37    	bra       0x1442 <__fbopReturnNaN>

000014b0 <___udivsi3>:
    14b0:	60 22 b8    	mul.uu    w4, #0x0, w4
    14b2:	06 02 20    	mov.w     #0x20, w6

000014b4 <nextbit>:
    14b4:	00 00 d0    	sl.w      w0, w0
    14b6:	81 80 d2    	rlc.w     w1, w1
    14b8:	04 82 d2    	rlc.w     w4, w4
    14ba:	85 82 d2    	rlc.w     w5, w5
    14bc:	00 00 a0    	bset.w    w0, #0x0
    14be:	02 02 52    	sub.w     w4, w2, w4
    14c0:	83 82 5a    	subb.w    w5, w3, w5
    14c2:	03 00 31    	bra       C, 0x14ca <iterate>
    14c4:	02 02 42    	add.w     w4, w2, w4
    14c6:	83 82 4a    	addc.w    w5, w3, w5
    14c8:	00 00 a1    	bclr.w    w0, #0x0

000014ca <iterate>:
    14ca:	06 03 e9    	dec.w     w6, w6
    14cc:	f3 ff 3a    	bra       NZ, 0x14b4 <nextbit>
    14ce:	00 00 06    	return    

000014d0 <___umodsi3>:
    14d0:	ef ff 07    	rcall     0x14b0 <___udivsi3>
    14d2:	04 00 be    	mov.d     w4, w0
    14d4:	00 00 06    	return    

000014d6 <__fcompare>:
    14d6:	88 9f be    	mov.d     w8, [w15++]
    14d8:	8a 9f be    	mov.d     w10, [w15++]
    14da:	84 1f 78    	mov.w     w4, [w15++]
    14dc:	9d ff 07    	rcall     0x1418 <__funpack2>
    14de:	4f 00 78    	mov.w     [--w15], w0
    14e0:	11 00 33    	bra       N, 0x1504 <exit>
    14e2:	f0 ff 2f    	mov.w     #0xffff, w0
    14e4:	83 8f 6c    	xor.w     w9, w3, [w15]
    14e6:	06 00 3b    	bra       NN, 0x14f4 <comparemag>
    14e8:	04 05 65    	and.w     w10, w4, w10
    14ea:	0a 00 a7    	btsc.w    w10, #0x0
    14ec:	08 00 37    	bra       0x14fe <returnEqual>
    14ee:	09 f0 a6    	btss.w    w9, #0xf
    14f0:	10 00 20    	mov.w     #0x1, w0
    14f2:	08 00 37    	bra       0x1504 <exit>

000014f4 <comparemag>:
    14f4:	82 0f 54    	sub.w     w8, w2, [w15]
    14f6:	83 8f 5c    	subb.w    w9, w3, [w15]
    14f8:	03 00 39    	bra       NC, 0x1500 <adjust>
    14fa:	10 00 20    	mov.w     #0x1, w0
    14fc:	01 00 3e    	bra       GTU, 0x1500 <adjust>

000014fe <returnEqual>:
    14fe:	00 00 20    	mov.w     #0x0, w0

00001500 <adjust>:
    1500:	09 f0 a7    	btsc.w    w9, #0xf
    1502:	00 00 ea    	neg.w     w0, w0

00001504 <exit>:
    1504:	4f 05 be    	mov.d     [--w15], w10
    1506:	4f 04 be    	mov.d     [--w15], w8
    1508:	00 00 e0    	cp0.w     w0
    150a:	00 00 06    	return    

0000150c <___floatdisf>:
    150c:	88 1f 78    	mov.w     w8, [w15++]
    150e:	03 04 78    	mov.w     w3, w8
    1510:	03 00 e0    	cp0.w     w3
    1512:	07 00 3d    	bra       GE, 0x1522 <notspecial>

00001514 <negative>:
    1514:	60 00 10    	subr.w    w0, #0x0, w0
    1516:	e0 80 18    	subbr.w   w1, #0x0, w1
    1518:	60 01 19    	subbr.w   w2, #0x0, w2
    151a:	e0 81 19    	subbr.w   w3, #0x0, w3
    151c:	02 00 3b    	bra       NN, 0x1522 <notspecial>
    151e:	01 f0 2d    	mov.w     #0xdf00, w1
    1520:	03 00 37    	bra       0x1528 <return0>

00001522 <notspecial>:
    1522:	04 00 07    	rcall     0x152c <___floatundisf>
    1524:	08 f0 a7    	btsc.w    w8, #0xf
    1526:	01 f0 a0    	bset.w    w1, #0xf

00001528 <return0>:
    1528:	4f 04 78    	mov.w     [--w15], w8
    152a:	00 00 06    	return    

0000152c <___floatundisf>:
    152c:	88 9f be    	mov.d     w8, [w15++]
    152e:	8a 9f be    	mov.d     w10, [w15++]
    1530:	00 82 70    	ior.w     w1, w0, w4
    1532:	04 02 71    	ior.w     w2, w4, w4
    1534:	04 82 71    	ior.w     w3, w4, w4
    1536:	26 00 32    	bra       Z, 0x1584 <return0>
    1538:	00 04 be    	mov.d     w0, w8
    153a:	02 00 be    	mov.d     w2, w0
    153c:	60 11 b8    	mul.uu    w2, #0x0, w2
    153e:	6b 09 20    	mov.w     #0x96, w11
    1540:	95 02 20    	mov.w     #0x29, w5
    1542:	01 82 cf    	ff1l      w1, w4
    1544:	0a 00 39    	bra       NC, 0x155a <fixshift>
    1546:	05 41 b1    	sub.b     #0x10, w5
    1548:	00 82 cf    	ff1l      w0, w4
    154a:	07 00 39    	bra       NC, 0x155a <fixshift>
    154c:	05 41 b1    	sub.b     #0x10, w5
    154e:	09 82 cf    	ff1l      w9, w4
    1550:	04 00 39    	bra       NC, 0x155a <fixshift>
    1552:	05 41 b1    	sub.b     #0x10, w5
    1554:	08 82 cf    	ff1l      w8, w4
    1556:	01 00 39    	bra       NC, 0x155a <fixshift>
    1558:	05 41 b1    	sub.b     #0x10, w5

0000155a <fixshift>:
    155a:	05 42 52    	sub.b     w4, w5, w4
    155c:	12 00 32    	bra       Z, 0x1582 <round>
    155e:	0a 00 3b    	bra       NN, 0x1574 <shiftleft>

00001560 <shiftright>:
    1560:	82 81 71    	ior.w     w3, w2, w3
    1562:	61 01 64    	and.w     w8, #0x1, w2
    1564:	81 00 d1    	lsr.w     w1, w1
    1566:	00 80 d3    	rrc.w     w0, w0
    1568:	89 84 d3    	rrc.w     w9, w9
    156a:	08 84 d3    	rrc.w     w8, w8
    156c:	8b 05 e8    	inc.w     w11, w11
    156e:	04 42 e8    	inc.b     w4, w4
    1570:	f7 ff 3a    	bra       NZ, 0x1560 <shiftright>
    1572:	07 00 37    	bra       0x1582 <round>

00001574 <shiftleft>:
    1574:	08 04 44    	add.w     w8, w8, w8
    1576:	89 84 4c    	addc.w    w9, w9, w9
    1578:	00 00 48    	addc.w    w0, w0, w0
    157a:	81 80 48    	addc.w    w1, w1, w1
    157c:	8b 05 e9    	dec.w     w11, w11
    157e:	04 42 e9    	dec.b     w4, w4
    1580:	f9 ff 3a    	bra       NZ, 0x1574 <shiftleft>

00001582 <round>:
    1582:	0f ff 07    	rcall     0x13a2 <__fpack>

00001584 <return0>:
    1584:	4f 05 be    	mov.d     [--w15], w10
    1586:	4f 04 be    	mov.d     [--w15], w8
    1588:	00 00 06    	return    
Disassembly of section .application_ivt:

00001000 <__DEFAULT_VECTOR-0x10c>:
    1000:	10 11 04    	goto      0x1110 <__reset>
    1002:	00 00 00 
    1004:	06 21 04    	goto      0x2106 <__DefaultInterrupt>
    1006:	00 00 00 
    1008:	06 21 04    	goto      0x2106 <__DefaultInterrupt>
    100a:	00 00 00 
    100c:	06 21 04    	goto      0x2106 <__DefaultInterrupt>
    100e:	00 00 00 
    1010:	06 21 04    	goto      0x2106 <__DefaultInterrupt>
    1012:	00 00 00 
    1014:	06 21 04    	goto      0x2106 <__DefaultInterrupt>
    1016:	00 00 00 
    1018:	06 21 04    	goto      0x2106 <__DefaultInterrupt>
    101a:	00 00 00 
    101c:	06 21 04    	goto      0x2106 <__DefaultInterrupt>
    101e:	00 00 00 
    1020:	06 21 04    	goto      0x2106 <__DefaultInterrupt>
    1022:	00 00 00 
    1024:	06 21 04    	goto      0x2106 <__DefaultInterrupt>
    1026:	00 00 00 
    1028:	06 21 04    	goto      0x2106 <__DefaultInterrupt>
    102a:	00 00 00 
    102c:	06 21 04    	goto      0x2106 <__DefaultInterrupt>
    102e:	00 00 00 
    1030:	06 21 04    	goto      0x2106 <__DefaultInterrupt>
    1032:	00 00 00 
    1034:	06 21 04    	goto      0x2106 <__DefaultInterrupt>
    1036:	00 00 00 
    1038:	06 21 04    	goto      0x2106 <__DefaultInterrupt>
    103a:	00 00 00 
    103c:	06 21 04    	goto      0x2106 <__DefaultInterrupt>
    103e:	00 00 00 
    1040:	06 21 04    	goto      0x2106 <__DefaultInterrupt>
    1042:	00 00 00 
    1044:	06 21 04    	goto      0x2106 <__DefaultInterrupt>
    1046:	00 00 00 
    1048:	06 21 04    	goto      0x2106 <__DefaultInterrupt>
    104a:	00 00 00 
    104c:	06 21 04    	goto      0x2106 <__DefaultInterrupt>
    104e:	00 00 00 
    1050:	06 21 04    	goto      0x2106 <__DefaultInterrupt>
    1052:	00 00 00 
    1054:	06 21 04    	goto      0x2106 <__DefaultInterrupt>
    1056:	00 00 00 
    1058:	06 21 04    	goto      0x2106 <__DefaultInterrupt>
    105a:	00 00 00 
    105c:	06 21 04    	goto      0x2106 <__DefaultInterrupt>
    105e:	00 00 00 
    1060:	06 21 04    	goto      0x2106 <__DefaultInterrupt>
    1062:	00 00 00 
    1064:	06 21 04    	goto      0x2106 <__DefaultInterrupt>
    1066:	00 00 00 
    1068:	06 21 04    	goto      0x2106 <__DefaultInterrupt>
    106a:	00 00 00 
    106c:	06 21 04    	goto      0x2106 <__DefaultInterrupt>
    106e:	00 00 00 
    1070:	06 21 04    	goto      0x2106 <__DefaultInterrupt>
    1072:	00 00 00 
    1074:	06 21 04    	goto      0x2106 <__DefaultInterrupt>
    1076:	00 00 00 
    1078:	06 21 04    	goto      0x2106 <__DefaultInterrupt>
    107a:	00 00 00 
    107c:	06 21 04    	goto      0x2106 <__DefaultInterrupt>
    107e:	00 00 00 
    1080:	06 21 04    	goto      0x2106 <__DefaultInterrupt>
    1082:	00 00 00 
    1084:	06 21 04    	goto      0x2106 <__DefaultInterrupt>
    1086:	00 00 00 
    1088:	06 21 04    	goto      0x2106 <__DefaultInterrupt>
    108a:	00 00 00 
    108c:	06 21 04    	goto      0x2106 <__DefaultInterrupt>
    108e:	00 00 00 
    1090:	06 21 04    	goto      0x2106 <__DefaultInterrupt>
    1092:	00 00 00 
    1094:	06 21 04    	goto      0x2106 <__DefaultInterrupt>
    1096:	00 00 00 
    1098:	06 21 04    	goto      0x2106 <__DefaultInterrupt>
    109a:	00 00 00 
    109c:	06 21 04    	goto      0x2106 <__DefaultInterrupt>
    109e:	00 00 00 
    10a0:	06 21 04    	goto      0x2106 <__DefaultInterrupt>
    10a2:	00 00 00 
    10a4:	06 21 04    	goto      0x2106 <__DefaultInterrupt>
    10a6:	00 00 00 
    10a8:	06 21 04    	goto      0x2106 <__DefaultInterrupt>
    10aa:	00 00 00 
    10ac:	06 21 04    	goto      0x2106 <__DefaultInterrupt>
    10ae:	00 00 00 
    10b0:	06 21 04    	goto      0x2106 <__DefaultInterrupt>
    10b2:	00 00 00 
    10b4:	06 21 04    	goto      0x2106 <__DefaultInterrupt>
    10b6:	00 00 00 
    10b8:	06 21 04    	goto      0x2106 <__DefaultInterrupt>
    10ba:	00 00 00 
    10bc:	06 21 04    	goto      0x2106 <__DefaultInterrupt>
    10be:	00 00 00 
    10c0:	06 21 04    	goto      0x2106 <__DefaultInterrupt>
    10c2:	00 00 00 
    10c4:	06 21 04    	goto      0x2106 <__DefaultInterrupt>
    10c6:	00 00 00 
    10c8:	06 21 04    	goto      0x2106 <__DefaultInterrupt>
    10ca:	00 00 00 
    10cc:	06 21 04    	goto      0x2106 <__DefaultInterrupt>
    10ce:	00 00 00 
    10d0:	06 21 04    	goto      0x2106 <__DefaultInterrupt>
    10d2:	00 00 00 
    10d4:	06 21 04    	goto      0x2106 <__DefaultInterrupt>
    10d6:	00 00 00 
    10d8:	06 21 04    	goto      0x2106 <__DefaultInterrupt>
    10da:	00 00 00 
    10dc:	06 21 04    	goto      0x2106 <__DefaultInterrupt>
    10de:	00 00 00 
    10e0:	06 21 04    	goto      0x2106 <__DefaultInterrupt>
    10e2:	00 00 00 
    10e4:	06 21 04    	goto      0x2106 <__DefaultInterrupt>
    10e6:	00 00 00 
    10e8:	06 21 04    	goto      0x2106 <__DefaultInterrupt>
    10ea:	00 00 00 
    10ec:	06 21 04    	goto      0x2106 <__DefaultInterrupt>
    10ee:	00 00 00 
    10f0:	06 21 04    	goto      0x2106 <__DefaultInterrupt>
    10f2:	00 00 00 
    10f4:	06 21 04    	goto      0x2106 <__DefaultInterrupt>
    10f6:	00 00 00 
    10f8:	06 21 04    	goto      0x2106 <__DefaultInterrupt>
    10fa:	00 00 00 
    10fc:	06 21 04    	goto      0x2106 <__DefaultInterrupt>
    10fe:	00 00 00 
    1100:	06 21 04    	goto      0x2106 <__DefaultInterrupt>
    1102:	00 00 00 
    1104:	06 21 04    	goto      0x2106 <__DefaultInterrupt>
    1106:	00 00 00 
    1108:	06 21 04    	goto      0x2106 <__DefaultInterrupt>
    110a:	00 00 00 

0000110c <__DEFAULT_VECTOR>:
    110c:	06 21 04    	goto      0x2106 <__DefaultInterrupt>
    110e:	00 00 00 
Disassembly of section .ivt:

00000004 <.ivt>:
   4:	04 10 00    	nop       
   6:	08 10 00    	nop       
   8:	0c 10 00    	nop       
   a:	10 10 00    	nop       
   c:	14 10 00    	nop       
   e:	0c 11 00    	nop       
  10:	0c 11 00    	nop       
  12:	0c 11 00    	nop       
  14:	18 10 00    	nop       
  16:	1c 10 00    	nop       
  18:	20 10 00    	nop       
  1a:	24 10 00    	nop       
  1c:	0c 11 00    	nop       
  1e:	28 10 00    	nop       
  20:	2c 10 00    	nop       
  22:	30 10 00    	nop       
  24:	34 10 00    	nop       
  26:	38 10 00    	nop       
  28:	3c 10 00    	nop       
  2a:	40 10 00    	nop       
  2c:	44 10 00    	nop       
  2e:	48 10 00    	nop       
  30:	0c 11 00    	nop       
  32:	0c 11 00    	nop       
  34:	4c 10 00    	nop       
  36:	50 10 00    	nop       
  38:	54 10 00    	nop       
  3a:	58 10 00    	nop       
  3c:	5c 10 00    	nop       
  3e:	0c 11 00    	nop       
  40:	60 10 00    	nop       
  42:	64 10 00    	nop       
  44:	0c 11 00    	nop       
  46:	68 10 00    	nop       
  48:	6c 10 00    	nop       
  4a:	70 10 00    	nop       
  4c:	74 10 00    	nop       
  4e:	78 10 00    	nop       
  50:	7c 10 00    	nop       
  52:	80 10 00    	nop       
  54:	84 10 00    	nop       
  56:	88 10 00    	nop       
  58:	0c 11 00    	nop       
  5a:	0c 11 00    	nop       
  5c:	0c 11 00    	nop       
  5e:	8c 10 00    	nop       
  60:	90 10 00    	nop       
  62:	94 10 00    	nop       
  64:	98 10 00    	nop       
  66:	9c 10 00    	nop       
  68:	a0 10 00    	nop       
  6a:	a4 10 00    	nop       
  6c:	a8 10 00    	nop       
  6e:	ac 10 00    	nop       
  70:	0c 11 00    	nop       
  72:	0c 11 00    	nop       
  74:	0c 11 00    	nop       
  76:	b0 10 00    	nop       
  78:	b4 10 00    	nop       
  7a:	0c 11 00    	nop       
  7c:	0c 11 00    	nop       
  7e:	b8 10 00    	nop       
  80:	bc 10 00    	nop       
  82:	0c 11 00    	nop       
  84:	0c 11 00    	nop       
  86:	0c 11 00    	nop       
  88:	0c 11 00    	nop       
  8a:	0c 11 00    	nop       
  8c:	0c 11 00    	nop       
  8e:	0c 11 00    	nop       
  90:	c0 10 00    	nop       
  92:	0c 11 00    	nop       
  94:	0c 11 00    	nop       
  96:	c4 10 00    	nop       
  98:	c8 10 00    	nop       
  9a:	cc 10 00    	nop       
  9c:	0c 11 00    	nop       
  9e:	0c 11 00    	nop       
  a0:	0c 11 00    	nop       
  a2:	0c 11 00    	nop       
  a4:	d0 10 00    	nop       
  a6:	0c 11 00    	nop       
  a8:	0c 11 00    	nop       
  aa:	0c 11 00    	nop       
  ac:	0c 11 00    	nop       
  ae:	d4 10 00    	nop       
  b0:	0c 11 00    	nop       
  b2:	0c 11 00    	nop       
  b4:	0c 11 00    	nop       
  b6:	d8 10 00    	nop       
  b8:	dc 10 00    	nop       
  ba:	e0 10 00    	nop       
  bc:	e4 10 00    	nop       
  be:	e8 10 00    	nop       
  c0:	ec 10 00    	nop       
  c2:	f0 10 00    	nop       
  c4:	f4 10 00    	nop       
  c6:	f8 10 00    	nop       
  c8:	fc 10 00    	nop       
  ca:	00 11 00    	nop       
  cc:	04 11 00    	nop       
  ce:	08 11 00    	nop       
  d0:	0c 11 00    	nop       
  d2:	0c 11 00    	nop       
  d4:	0c 11 00    	nop       
  d6:	0c 11 00    	nop       
  d8:	0c 11 00    	nop       
  da:	0c 11 00    	nop       
  dc:	0c 11 00    	nop       
  de:	0c 11 00    	nop       
  e0:	0c 11 00    	nop       
  e2:	0c 11 00    	nop       
  e4:	0c 11 00    	nop       
  e6:	0c 11 00    	nop       
  e8:	0c 11 00    	nop       
  ea:	0c 11 00    	nop       
  ec:	0c 11 00    	nop       
  ee:	0c 11 00    	nop       
  f0:	0c 11 00    	nop       
  f2:	0c 11 00    	nop       
  f4:	0c 11 00    	nop       
  f6:	0c 11 00    	nop       
  f8:	0c 11 00    	nop       
  fa:	0c 11 00    	nop       
  fc:	0c 11 00    	nop       
  fe:	0c 11 00    	nop       
Disassembly of section .const:

0000958a <_numbertable>:
    958a:	3f 00       	.word 0x3f
    958c:	06 00       	.word 0x6
    958e:	5b 00       	.word 0x5b
    9590:	4f 00       	.word 0x4f
    9592:	66 00       	.word 0x66
    9594:	6d 00       	.word 0x6d
    9596:	7d 00       	.word 0x7d
    9598:	07 00       	.word 0x7
    959a:	7f 00       	.word 0x7f
    959c:	6f 00       	.word 0x6f
    959e:	77 00       	.word 0x77
    95a0:	7c 00       	.word 0x7c
    95a2:	39 00       	.word 0x39
    95a4:	5e 00       	.word 0x5e
    95a6:	79 00       	.word 0x79
    95a8:	71 00       	.word 0x71

000095aa <_target_addr>:
    95aa:	e0 00       	.word 0xe0
Disassembly of section .text:

000015ac <_led_begin>:
//
// };


void led_begin(_ADAFRUIT_LED* ptr, uint8_t addr){
    15ac:	04 00 fa    	lnk       #0x4
    15ae:	00 0f 78    	mov.w     w0, [w14]
    15b0:	21 47 98    	mov.b     w1, [w14+2]
  ptr->i2c_addr = addr;
    15b2:	1e 00 78    	mov.w     [w14], w0
    15b4:	ae 40 90    	mov.b     [w14+2], w1
    15b6:	01 50 98    	mov.b     w1, [w0+16]
	LED1 = 1;
    15b8:	dc e2 a8    	bset.b    0x2dc, #0x7
  i2c_start();
    15ba:	f5 02 07    	rcall     0x1ba6 <_i2c_start> <.LFB2> <.LFE1>
  send_i2c_byte(ptr->i2c_addr);
    15bc:	1e 00 78    	mov.w     [w14], w0
    15be:	00 50 90    	mov.b     [w0+16], w0
    15c0:	00 80 fb    	ze        w0, w0
    15c2:	40 03 07    	rcall     0x1c44 <_send_i2c_byte> <.LFB5> <.LFE4>
  send_i2c_byte(0x21); // turn on oscillator
    15c4:	10 02 20    	mov.w     #0x21, w0
    15c6:	3e 03 07    	rcall     0x1c44 <_send_i2c_byte> <.LFB5> <.LFE4>
  reset_i2c_bus();
    15c8:	22 03 07    	rcall     0x1c0e <_reset_i2c_bus> <.LFB4> <.LFE3>
  led_blinkRate((_ADAFRUIT_LED *)ptr, HT16K33_BLINK_OFF);
    15ca:	80 40 eb    	clr.b     w1
    15cc:	1e 00 78    	mov.w     [w14], w0
    15ce:	1a 00 07    	rcall     0x1604 <_led_blinkRate> <.LFB2> <.LFE1>
  led_setBrightness((_ADAFRUIT_LED *)ptr,15); // set max brightness
    15d0:	f1 c0 b3    	mov.b     #0xf, w1
    15d2:	1e 00 78    	mov.w     [w14], w0
    15d4:	02 00 07    	rcall     0x15da <_led_setBrightness> <.LFB1> <.LFE0>
}
    15d6:	00 80 fa    	ulnk      
    15d8:	00 00 06    	return    

000015da <_led_setBrightness>:

void led_setBrightness(_ADAFRUIT_LED* ptr, uint8_t b){
    15da:	04 00 fa    	lnk       #0x4
    15dc:	00 0f 78    	mov.w     w0, [w14]
    15de:	21 47 98    	mov.b     w1, [w14+2]
  if (b > 15) b = 15;
    15e0:	2e 40 90    	mov.b     [w14+2], w0
    15e2:	ef 4f 50    	sub.b     w0, #0xf, [w15]
    15e4:	02 00 36    	bra       LEU, 0x15ea <.L3>
    15e6:	f0 c0 b3    	mov.b     #0xf, w0
    15e8:	20 47 98    	mov.b     w0, [w14+2]

000015ea <.L3>:
  i2c_start();
    15ea:	dd 02 07    	rcall     0x1ba6 <_i2c_start> <.LFB2> <.LFE1>
  send_i2c_byte(ptr->i2c_addr);
    15ec:	1e 00 78    	mov.w     [w14], w0
    15ee:	00 50 90    	mov.b     [w0+16], w0
    15f0:	00 80 fb    	ze        w0, w0
    15f2:	28 03 07    	rcall     0x1c44 <_send_i2c_byte> <.LFB5> <.LFE4>
  send_i2c_byte(HT16K33_CMD_BRIGHTNESS | b);
    15f4:	ae 40 90    	mov.b     [w14+2], w1
    15f6:	00 ce b3    	mov.b     #0xe0, w0
    15f8:	00 c0 70    	ior.b     w1, w0, w0
    15fa:	00 80 fb    	ze        w0, w0
    15fc:	23 03 07    	rcall     0x1c44 <_send_i2c_byte> <.LFB5> <.LFE4>
  reset_i2c_bus();
    15fe:	07 03 07    	rcall     0x1c0e <_reset_i2c_bus> <.LFB4> <.LFE3>
}
    1600:	00 80 fa    	ulnk      
    1602:	00 00 06    	return    

00001604 <_led_blinkRate>:

void led_blinkRate(_ADAFRUIT_LED* ptr, uint8_t b){
    1604:	04 00 fa    	lnk       #0x4
    1606:	00 0f 78    	mov.w     w0, [w14]
    1608:	21 47 98    	mov.b     w1, [w14+2]
  i2c_start();
    160a:	cd 02 07    	rcall     0x1ba6 <_i2c_start> <.LFB2> <.LFE1>
  send_i2c_byte(ptr->i2c_addr);
    160c:	1e 00 78    	mov.w     [w14], w0
    160e:	00 50 90    	mov.b     [w0+16], w0
    1610:	00 80 fb    	ze        w0, w0
    1612:	18 03 07    	rcall     0x1c44 <_send_i2c_byte> <.LFB5> <.LFE4>
  if (b > 3) b = 0; // turn off if not sure
    1614:	2e 40 90    	mov.b     [w14+2], w0
    1616:	e3 4f 50    	sub.b     w0, #0x3, [w15]
    1618:	02 00 36    	bra       LEU, 0x161e <.L5>
    161a:	00 40 eb    	clr.b     w0
    161c:	20 47 98    	mov.b     w0, [w14+2]

0000161e <.L5>:
  send_i2c_byte(HT16K33_BLINK_CMD | HT16K33_BLINK_DISPLAYON | (b << 1));
    161e:	2e 40 90    	mov.b     [w14+2], w0
    1620:	00 80 fb    	ze        w0, w0
    1622:	00 00 40    	add.w     w0, w0, w0
    1624:	80 00 78    	mov.w     w0, w1
    1626:	10 08 20    	mov.w     #0x81, w0
    1628:	01 00 70    	ior.w     w0, w1, w0
    162a:	0c 03 07    	rcall     0x1c44 <_send_i2c_byte> <.LFB5> <.LFE4>
  reset_i2c_bus();
    162c:	f0 02 07    	rcall     0x1c0e <_reset_i2c_bus> <.LFB4> <.LFE3>
}
    162e:	00 80 fa    	ulnk      
    1630:	00 00 06    	return    

00001632 <_led_writeDisplay>:

void led_writeDisplay(_ADAFRUIT_LED* ptr){
    1632:	04 00 fa    	lnk       #0x4
    1634:	10 07 98    	mov.w     w0, [w14+2]
  i2c_start();
    1636:	b7 02 07    	rcall     0x1ba6 <_i2c_start> <.LFB2> <.LFE1>
  send_i2c_byte(ptr->i2c_addr);
    1638:	1e 00 90    	mov.w     [w14+2], w0
    163a:	00 50 90    	mov.b     [w0+16], w0
    163c:	00 80 fb    	ze        w0, w0
    163e:	02 03 07    	rcall     0x1c44 <_send_i2c_byte> <.LFB5> <.LFE4>
	send_i2c_byte(0x00); // Start at address 0
    1640:	00 00 eb    	clr.w     w0
    1642:	00 03 07    	rcall     0x1c44 <_send_i2c_byte> <.LFB5> <.LFE4>
	uint8_t i;
  for (i=0; i<8; i++) {
    1644:	00 40 eb    	clr.b     w0
    1646:	00 4f 78    	mov.b     w0, [w14]
    1648:	0f 00 37    	bra       0x1668 <.L7>

0000164a <.L8>:
    send_i2c_byte(ptr->displaybuffer[i] & 0xFF);
    164a:	1e 80 fb    	ze        [w14], w0
    164c:	9e 00 90    	mov.w     [w14+2], w1
    164e:	00 00 40    	add.w     w0, w0, w0
    1650:	61 00 78    	mov.w     [w1+w0], w0
    1652:	80 00 78    	mov.w     w0, w1
    1654:	f0 0f 20    	mov.w     #0xff, w0
    1656:	00 80 60    	and.w     w1, w0, w0
    1658:	f5 02 07    	rcall     0x1c44 <_send_i2c_byte> <.LFB5> <.LFE4>
    send_i2c_byte(ptr->displaybuffer[i] >> 8);
    165a:	1e 80 fb    	ze        [w14], w0
    165c:	9e 00 90    	mov.w     [w14+2], w1
    165e:	00 00 40    	add.w     w0, w0, w0
    1660:	61 00 78    	mov.w     [w1+w0], w0
    1662:	48 00 de    	lsr.w     w0, #0x8, w0
    1664:	ef 02 07    	rcall     0x1c44 <_send_i2c_byte> <.LFB5> <.LFE4>
    1666:	1e 4f e8    	inc.b     [w14], [w14]

00001668 <.L7>:
    1668:	1e 40 78    	mov.b     [w14], w0
    166a:	e7 4f 50    	sub.b     w0, #0x7, [w15]
    166c:	ee ff 36    	bra       LEU, 0x164a <.L8>
  }
  reset_i2c_bus();
    166e:	cf 02 07    	rcall     0x1c0e <_reset_i2c_bus> <.LFB4> <.LFE3>
}
    1670:	00 80 fa    	ulnk      
    1672:	00 00 06    	return    

00001674 <_led_clear>:

void led_clear(_ADAFRUIT_LED* ptr){
    1674:	04 00 fa    	lnk       #0x4
    1676:	10 07 98    	mov.w     w0, [w14+2]
	uint8_t i;
	for (i=0; i<8; i++) {
    1678:	00 40 eb    	clr.b     w0
    167a:	00 4f 78    	mov.b     w0, [w14]
    167c:	07 00 37    	bra       0x168c <.L10>

0000167e <.L11>:
    ptr->displaybuffer[i] = 0;
    167e:	1e 80 fb    	ze        [w14], w0
    1680:	9e 00 90    	mov.w     [w14+2], w1
    1682:	00 00 40    	add.w     w0, w0, w0
    1684:	00 80 40    	add.w     w1, w0, w0
    1686:	80 00 eb    	clr.w     w1
    1688:	01 08 78    	mov.w     w1, [w0]
    168a:	1e 4f e8    	inc.b     [w14], [w14]

0000168c <.L10>:
    168c:	1e 40 78    	mov.b     [w14], w0
    168e:	e7 4f 50    	sub.b     w0, #0x7, [w15]
    1690:	f6 ff 36    	bra       LEU, 0x167e <.L11>
  }
}
    1692:	00 80 fa    	ulnk      
    1694:	00 00 06    	return    

00001696 <_alphanum_begin>:

// ALPHANUM ********************************************************************

void alphanum_begin(_ALPHANUM* ptr, uint8_t addr){
    1696:	04 00 fa    	lnk       #0x4
    1698:	00 0f 78    	mov.w     w0, [w14]
    169a:	21 47 98    	mov.b     w1, [w14+2]
  led_begin((_ADAFRUIT_LED *)ptr, addr); // Call super constructor
    169c:	1e 00 78    	mov.w     [w14], w0
    169e:	ae 40 90    	mov.b     [w14+2], w1
    16a0:	85 ff 07    	rcall     0x15ac <_led_begin> <.L0> <.LFB0> <.Ltext0>
}
    16a2:	00 80 fa    	ulnk      
    16a4:	00 00 06    	return    

000016a6 <_alphanum_writeDigitRaw>:

void alphanum_writeDigitRaw(_ALPHANUM* ptr, uint8_t n, uint16_t bitmask){
    16a6:	06 00 fa    	lnk       #0x6
    16a8:	00 0f 78    	mov.w     w0, [w14]
    16aa:	21 47 98    	mov.b     w1, [w14+2]
    16ac:	22 07 98    	mov.w     w2, [w14+4]
  ptr->super.displaybuffer[n] = bitmask;
    16ae:	2e 40 90    	mov.b     [w14+2], w0
    16b0:	00 80 fb    	ze        w0, w0
    16b2:	9e 00 78    	mov.w     [w14], w1
    16b4:	00 00 40    	add.w     w0, w0, w0
    16b6:	00 80 40    	add.w     w1, w0, w0
    16b8:	ae 00 90    	mov.w     [w14+4], w1
    16ba:	01 08 78    	mov.w     w1, [w0]
}
    16bc:	00 80 fa    	ulnk      
    16be:	00 00 06    	return    

000016c0 <_alphanum_writeDigitAscii>:

void alphanum_writeDigitAscii(_ALPHANUM* ptr, uint8_t n, uint8_t ascii, uint8_t dot){
    16c0:	06 00 fa    	lnk       #0x6
    16c2:	00 0f 78    	mov.w     w0, [w14]
    16c4:	21 47 98    	mov.b     w1, [w14+2]
    16c6:	32 47 98    	mov.b     w2, [w14+3]
    16c8:	43 47 98    	mov.b     w3, [w14+4]
  // uint16_t font = alphafonttable[ascii];
  // ptr->super.displaybuffer[n] = font;
  if (dot) ptr->super.displaybuffer[n] |= (1<<14);
    16ca:	4e 40 90    	mov.b     [w14+4], w0
    16cc:	00 04 e0    	cp0.b     w0
    16ce:	0c 00 32    	bra       Z, 0x16e8 <.L14>
    16d0:	2e 40 90    	mov.b     [w14+2], w0
    16d2:	00 80 fb    	ze        w0, w0
    16d4:	ae 40 90    	mov.b     [w14+2], w1
    16d6:	81 80 fb    	ze        w1, w1
    16d8:	1e 01 78    	mov.w     [w14], w2
    16da:	81 80 40    	add.w     w1, w1, w1
    16dc:	e2 80 78    	mov.w     [w2+w1], w1
    16de:	01 e0 a0    	bset.w    w1, #0xe
    16e0:	1e 01 78    	mov.w     [w14], w2
    16e2:	00 00 40    	add.w     w0, w0, w0
    16e4:	00 00 41    	add.w     w2, w0, w0
    16e6:	01 08 78    	mov.w     w1, [w0]

000016e8 <.L14>:
}
    16e8:	00 80 fa    	ulnk      
    16ea:	00 00 06    	return    

000016ec <_bargraph_begin>:

// 24 BARGRAPH *****************************************************************

void bargraph_begin(_BARGRAPH* ptr, uint8_t addr){
    16ec:	04 00 fa    	lnk       #0x4
    16ee:	00 0f 78    	mov.w     w0, [w14]
    16f0:	21 47 98    	mov.b     w1, [w14+2]
  led_begin((_ADAFRUIT_LED *)ptr, addr);
    16f2:	1e 00 78    	mov.w     [w14], w0
    16f4:	ae 40 90    	mov.b     [w14+2], w1
    16f6:	5a ff 07    	rcall     0x15ac <_led_begin> <.L0> <.LFB0> <.Ltext0>
}
    16f8:	00 80 fa    	ulnk      
    16fa:	00 00 06    	return    

000016fc <_bargraph_setBar>:

void bargraph_setBar(_BARGRAPH* ptr, uint8_t bar, uint8_t color){
    16fc:	08 00 fa    	lnk       #0x8
    16fe:	20 07 98    	mov.w     w0, [w14+4]
    1700:	61 47 98    	mov.b     w1, [w14+6]
    1702:	72 47 98    	mov.b     w2, [w14+7]
  uint16_t a, c;

  if (bar < 12)
    1704:	6e 40 90    	mov.b     [w14+6], w0
    1706:	eb 4f 50    	sub.b     w0, #0xb, [w15]
    1708:	07 00 3e    	bra       GTU, 0x1718 <.L18>
    c = bar / 4;
    170a:	6e 40 90    	mov.b     [w14+6], w0
    170c:	00 80 fb    	ze        w0, w0
    170e:	42 00 de    	lsr.w     w0, #0x2, w0
    1710:	00 40 78    	mov.b     w0, w0
    1712:	00 80 fb    	ze        w0, w0
    1714:	10 07 98    	mov.w     w0, [w14+2]
    1716:	08 00 37    	bra       0x1728 <.L19>

00001718 <.L18>:
  else
    c = (bar - 12) / 4;
    1718:	6e 40 90    	mov.b     [w14+6], w0
    171a:	00 80 fb    	ze        w0, w0
    171c:	6c 00 50    	sub.w     w0, #0xc, w0
    171e:	00 00 e0    	cp0.w     w0
    1720:	01 00 3d    	bra       GE, 0x1724 <.L20>
    1722:	63 00 40    	add.w     w0, #0x3, w0

00001724 <.L20>:
    1724:	42 80 de    	asr.w     w0, #0x2, w0
    1726:	10 07 98    	mov.w     w0, [w14+2]

00001728 <.L19>:

  a = bar % 4;
    1728:	6e 40 90    	mov.b     [w14+6], w0
    172a:	00 80 fb    	ze        w0, w0
    172c:	63 0f 60    	and.w     w0, #0x3, [w14]
  if (bar >= 12)
    172e:	6e 40 90    	mov.b     [w14+6], w0
    1730:	eb 4f 50    	sub.b     w0, #0xb, [w15]
    1732:	02 00 36    	bra       LEU, 0x1738 <.L21>
    a += 4;
    1734:	9e 00 78    	mov.w     [w14], w1
    1736:	64 8f 40    	add.w     w1, #0x4, [w14]

00001738 <.L21>:

  //Serial.print("Ano = "); Serial.print(a); Serial.print(" Cath = "); Serial.println(c);
  if (color == LED_RED) {
    1738:	7e 40 90    	mov.b     [w14+7], w0
    173a:	e1 4f 50    	sub.b     w0, #0x1, [w15]
    173c:	1d 00 3a    	bra       NZ, 0x1778 <.L22>
    // Turn on red LED.
    ptr->super.displaybuffer[c] |= _BV(a);
    173e:	ae 00 90    	mov.w     [w14+4], w1
    1740:	1e 00 90    	mov.w     [w14+2], w0
    1742:	00 00 40    	add.w     w0, w0, w0
    1744:	e1 00 78    	mov.w     [w1+w0], w1
    1746:	1e 00 78    	mov.w     [w14], w0
    1748:	12 00 20    	mov.w     #0x1, w2
    174a:	00 10 dd    	sl.w      w2, w0, w0
    174c:	81 00 70    	ior.w     w0, w1, w1
    174e:	2e 01 90    	mov.w     [w14+4], w2
    1750:	1e 00 90    	mov.w     [w14+2], w0
    1752:	00 00 40    	add.w     w0, w0, w0
    1754:	00 00 41    	add.w     w2, w0, w0
    1756:	01 08 78    	mov.w     w1, [w0]
    // Turn off green LED.
    ptr->super.displaybuffer[c] &= ~_BV(a+8);
    1758:	ae 00 90    	mov.w     [w14+4], w1
    175a:	1e 00 90    	mov.w     [w14+2], w0
    175c:	00 00 40    	add.w     w0, w0, w0
    175e:	e1 00 78    	mov.w     [w1+w0], w1
    1760:	1e 01 78    	mov.w     [w14], w2
    1762:	68 00 41    	add.w     w2, #0x8, w0
    1764:	12 00 20    	mov.w     #0x1, w2
    1766:	00 10 dd    	sl.w      w2, w0, w0
    1768:	00 80 ea    	com.w     w0, w0
    176a:	80 80 60    	and.w     w1, w0, w1
    176c:	2e 01 90    	mov.w     [w14+4], w2
    176e:	1e 00 90    	mov.w     [w14+2], w0
    1770:	00 00 40    	add.w     w0, w0, w0
    1772:	00 00 41    	add.w     w2, w0, w0
    1774:	01 08 78    	mov.w     w1, [w0]
    1776:	4c 00 37    	bra       0x1810 <.L17>

00001778 <.L22>:
  } else if (color == LED_YELLOW) {
    1778:	7e 40 90    	mov.b     [w14+7], w0
    177a:	e2 4f 50    	sub.b     w0, #0x2, [w15]
    177c:	13 00 3a    	bra       NZ, 0x17a4 <.L24>
    // Turn on red and green LED.
    ptr->super.displaybuffer[c] |= _BV(a) | _BV(a+8);
    177e:	ae 00 90    	mov.w     [w14+4], w1
    1780:	1e 00 90    	mov.w     [w14+2], w0
    1782:	00 00 40    	add.w     w0, w0, w0
    1784:	e1 00 78    	mov.w     [w1+w0], w1
    1786:	1e 00 78    	mov.w     [w14], w0
    1788:	12 00 20    	mov.w     #0x1, w2
    178a:	00 11 dd    	sl.w      w2, w0, w2
    178c:	9e 01 78    	mov.w     [w14], w3
    178e:	68 80 41    	add.w     w3, #0x8, w0
    1790:	13 00 20    	mov.w     #0x1, w3
    1792:	00 18 dd    	sl.w      w3, w0, w0
    1794:	02 00 70    	ior.w     w0, w2, w0
    1796:	81 00 70    	ior.w     w0, w1, w1
    1798:	2e 01 90    	mov.w     [w14+4], w2
    179a:	1e 00 90    	mov.w     [w14+2], w0
    179c:	00 00 40    	add.w     w0, w0, w0
    179e:	00 00 41    	add.w     w2, w0, w0
    17a0:	01 08 78    	mov.w     w1, [w0]
    17a2:	36 00 37    	bra       0x1810 <.L17>

000017a4 <.L24>:
  } else if (color == LED_OFF) {
    17a4:	7e 40 90    	mov.b     [w14+7], w0
    17a6:	00 04 e0    	cp0.b     w0
    17a8:	14 00 3a    	bra       NZ, 0x17d2 <.L25>
    // Turn off red and green LED.
    ptr->super.displaybuffer[c] &= ~_BV(a) & ~_BV(a+8);
    17aa:	ae 00 90    	mov.w     [w14+4], w1
    17ac:	1e 00 90    	mov.w     [w14+2], w0
    17ae:	00 00 40    	add.w     w0, w0, w0
    17b0:	e1 00 78    	mov.w     [w1+w0], w1
    17b2:	1e 00 78    	mov.w     [w14], w0
    17b4:	12 00 20    	mov.w     #0x1, w2
    17b6:	00 11 dd    	sl.w      w2, w0, w2
    17b8:	9e 01 78    	mov.w     [w14], w3
    17ba:	68 80 41    	add.w     w3, #0x8, w0
    17bc:	13 00 20    	mov.w     #0x1, w3
    17be:	00 18 dd    	sl.w      w3, w0, w0
    17c0:	02 00 70    	ior.w     w0, w2, w0
    17c2:	00 80 ea    	com.w     w0, w0
    17c4:	80 80 60    	and.w     w1, w0, w1
    17c6:	2e 01 90    	mov.w     [w14+4], w2
    17c8:	1e 00 90    	mov.w     [w14+2], w0
    17ca:	00 00 40    	add.w     w0, w0, w0
    17cc:	00 00 41    	add.w     w2, w0, w0
    17ce:	01 08 78    	mov.w     w1, [w0]
    17d0:	1f 00 37    	bra       0x1810 <.L17>

000017d2 <.L25>:
  } else if (color == LED_GREEN) {
    17d2:	7e 40 90    	mov.b     [w14+7], w0
    17d4:	e3 4f 50    	sub.b     w0, #0x3, [w15]
    17d6:	1c 00 3a    	bra       NZ, 0x1810 <.L17>
    // Turn on green LED.
    ptr->super.displaybuffer[c] |= _BV(a+8);
    17d8:	ae 00 90    	mov.w     [w14+4], w1
    17da:	1e 00 90    	mov.w     [w14+2], w0
    17dc:	00 00 40    	add.w     w0, w0, w0
    17de:	e1 00 78    	mov.w     [w1+w0], w1
    17e0:	1e 01 78    	mov.w     [w14], w2
    17e2:	68 00 41    	add.w     w2, #0x8, w0
    17e4:	12 00 20    	mov.w     #0x1, w2
    17e6:	00 10 dd    	sl.w      w2, w0, w0
    17e8:	81 00 70    	ior.w     w0, w1, w1
    17ea:	2e 01 90    	mov.w     [w14+4], w2
    17ec:	1e 00 90    	mov.w     [w14+2], w0
    17ee:	00 00 40    	add.w     w0, w0, w0
    17f0:	00 00 41    	add.w     w2, w0, w0
    17f2:	01 08 78    	mov.w     w1, [w0]
    // Turn off red LED.
    ptr->super.displaybuffer[c] &= ~_BV(a);
    17f4:	ae 00 90    	mov.w     [w14+4], w1
    17f6:	1e 00 90    	mov.w     [w14+2], w0
    17f8:	00 00 40    	add.w     w0, w0, w0
    17fa:	e1 00 78    	mov.w     [w1+w0], w1
    17fc:	1e 00 78    	mov.w     [w14], w0
    17fe:	12 00 20    	mov.w     #0x1, w2
    1800:	00 10 dd    	sl.w      w2, w0, w0
    1802:	00 80 ea    	com.w     w0, w0
    1804:	80 80 60    	and.w     w1, w0, w1
    1806:	2e 01 90    	mov.w     [w14+4], w2
    1808:	1e 00 90    	mov.w     [w14+2], w0
    180a:	00 00 40    	add.w     w0, w0, w0
    180c:	00 00 41    	add.w     w2, w0, w0
    180e:	01 08 78    	mov.w     w1, [w0]

00001810 <.L17>:
  }
}
    1810:	00 80 fa    	ulnk      
    1812:	00 00 06    	return    

00001814 <_write>:

// 7SEGMENT ********************************************************************

uint8_t write(_7SEGMENT* ptr, uint8_t c){
    1814:	06 00 fa    	lnk       #0x6
    1816:	10 07 98    	mov.w     w0, [w14+2]
    1818:	41 47 98    	mov.b     w1, [w14+4]

  uint8_t r = 0;
    181a:	00 40 eb    	clr.b     w0
    181c:	00 4f 78    	mov.b     w0, [w14]

  if (c == '\n') ptr->position = 0;
    181e:	4e 40 90    	mov.b     [w14+4], w0
    1820:	ea 4f 50    	sub.b     w0, #0xa, [w15]
    1822:	03 00 3a    	bra       NZ, 0x182a <.L27>
    1824:	1e 00 90    	mov.w     [w14+2], w0
    1826:	80 40 eb    	clr.b     w1
    1828:	21 50 98    	mov.b     w1, [w0+18]

0000182a <.L27>:
  if (c == '\r') ptr->position = 0;
    182a:	4e 40 90    	mov.b     [w14+4], w0
    182c:	ed 4f 50    	sub.b     w0, #0xd, [w15]
    182e:	03 00 3a    	bra       NZ, 0x1836 <.L28>
    1830:	1e 00 90    	mov.w     [w14+2], w0
    1832:	80 40 eb    	clr.b     w1
    1834:	21 50 98    	mov.b     w1, [w0+18]

00001836 <.L28>:

  if ((c >= '0') && (c <= '9')) {
    1836:	ce 40 90    	mov.b     [w14+4], w1
    1838:	f0 c2 b3    	mov.b     #0x2f, w0
    183a:	80 cf 50    	sub.b     w1, w0, [w15]
    183c:	10 00 36    	bra       LEU, 0x185e <.L29>
    183e:	ce 40 90    	mov.b     [w14+4], w1
    1840:	90 c3 b3    	mov.b     #0x39, w0
    1842:	80 cf 50    	sub.b     w1, w0, [w15]
    1844:	0c 00 3e    	bra       GTU, 0x185e <.L29>
    sevseg_writeDigitNum(ptr, ptr->position, c-'0', 0);
    1846:	ce 40 90    	mov.b     [w14+4], w1
    1848:	00 cd b3    	mov.b     #0xd0, w0
    184a:	80 c0 40    	add.b     w1, w0, w1
    184c:	1e 00 90    	mov.w     [w14+2], w0
    184e:	20 50 90    	mov.b     [w0+18], w0
    1850:	80 41 eb    	clr.b     w3
    1852:	01 41 78    	mov.b     w1, w2
    1854:	80 40 78    	mov.b     w0, w1
    1856:	1e 00 90    	mov.w     [w14+2], w0
    1858:	25 00 07    	rcall     0x18a4 <_sevseg_writeDigitNum> <.LFB12> <.LFE11>
    r = 1;
    185a:	10 c0 b3    	mov.b     #0x1, w0
    185c:	00 4f 78    	mov.b     w0, [w14]

0000185e <.L29>:
  }

  ptr->position++;
    185e:	1e 00 90    	mov.w     [w14+2], w0
    1860:	20 50 90    	mov.b     [w0+18], w0
    1862:	80 40 e8    	inc.b     w0, w1
    1864:	1e 00 90    	mov.w     [w14+2], w0
    1866:	21 50 98    	mov.b     w1, [w0+18]
  if (ptr->position == 2) ptr->position++;
    1868:	1e 00 90    	mov.w     [w14+2], w0
    186a:	20 50 90    	mov.b     [w0+18], w0
    186c:	e2 4f 50    	sub.b     w0, #0x2, [w15]
    186e:	05 00 3a    	bra       NZ, 0x187a <.L30>
    1870:	1e 00 90    	mov.w     [w14+2], w0
    1872:	20 50 90    	mov.b     [w0+18], w0
    1874:	80 40 e8    	inc.b     w0, w1
    1876:	1e 00 90    	mov.w     [w14+2], w0
    1878:	21 50 98    	mov.b     w1, [w0+18]

0000187a <.L30>:

  return r;
    187a:	1e 40 78    	mov.b     [w14], w0
}
    187c:	00 80 fa    	ulnk      
    187e:	00 00 06    	return    

00001880 <_sevseg_writeDigitRaw>:

void sevseg_writeDigitRaw(_7SEGMENT* ptr, uint8_t x, uint16_t bitmask){
    1880:	06 00 fa    	lnk       #0x6
    1882:	00 0f 78    	mov.w     w0, [w14]
    1884:	21 47 98    	mov.b     w1, [w14+2]
    1886:	22 07 98    	mov.w     w2, [w14+4]
  if (x > 4) return;
    1888:	2e 40 90    	mov.b     [w14+2], w0
    188a:	e4 4f 50    	sub.b     w0, #0x4, [w15]
    188c:	08 00 3e    	bra       GTU, 0x189e <.L34>
  ptr->super.displaybuffer[x] = bitmask;
    188e:	2e 40 90    	mov.b     [w14+2], w0
    1890:	00 80 fb    	ze        w0, w0
    1892:	9e 00 78    	mov.w     [w14], w1
    1894:	00 00 40    	add.w     w0, w0, w0
    1896:	00 80 40    	add.w     w1, w0, w0
    1898:	ae 00 90    	mov.w     [w14+4], w1
    189a:	01 08 78    	mov.w     w1, [w0]
    189c:	01 00 37    	bra       0x18a0 <.L31>

0000189e <.L34>:
    189e:	00 00 00    	nop       

000018a0 <.L31>:
}
    18a0:	00 80 fa    	ulnk      
    18a2:	00 00 06    	return    

000018a4 <_sevseg_writeDigitNum>:

void sevseg_writeDigitNum(_7SEGMENT* ptr, uint8_t x, uint8_t num, uint8_t dot){
    18a4:	08 00 fa    	lnk       #0x8
    18a6:	10 07 98    	mov.w     w0, [w14+2]
    18a8:	41 47 98    	mov.b     w1, [w14+4]
    18aa:	52 47 98    	mov.b     w2, [w14+5]
    18ac:	63 47 98    	mov.b     w3, [w14+6]
  if (x > 4) return;
    18ae:	4e 40 90    	mov.b     [w14+4], w0
    18b0:	e4 4f 50    	sub.b     w0, #0x4, [w15]
    18b2:	11 00 3e    	bra       GTU, 0x18d6 <.L38>
	uint16_t zero = 0x0000;
    18b4:	00 00 eb    	clr.w     w0
    18b6:	00 0f 78    	mov.w     w0, [w14]
  sevseg_writeDigitRaw(ptr, x, (numbertable[num] | (dot << 7)));
    18b8:	5e 40 90    	mov.b     [w14+5], w0
    18ba:	00 80 fb    	ze        w0, w0
    18bc:	80 00 40    	add.w     w0, w0, w1
    18be:	a0 58 29    	mov.w     #0x958a, w0
    18c0:	00 80 40    	add.w     w1, w0, w0
    18c2:	90 00 78    	mov.w     [w0], w1
    18c4:	6e 40 90    	mov.b     [w14+6], w0
    18c6:	00 80 fb    	ze        w0, w0
    18c8:	47 00 dd    	sl.w      w0, #0x7, w0
    18ca:	01 00 70    	ior.w     w0, w1, w0
    18cc:	00 01 78    	mov.w     w0, w2
    18ce:	ce 40 90    	mov.b     [w14+4], w1
    18d0:	1e 00 90    	mov.w     [w14+2], w0
    18d2:	d6 ff 07    	rcall     0x1880 <_sevseg_writeDigitRaw> <.LFB11> <.LFE10>
    18d4:	01 00 37    	bra       0x18d8 <.L35>

000018d6 <.L38>:
    18d6:	00 00 00    	nop       

000018d8 <.L35>:
}
    18d8:	00 80 fa    	ulnk      
    18da:	00 00 06    	return    

000018dc <_sevseg_drawColon>:

void sevseg_drawColon(_7SEGMENT* ptr, uint8_t state){
    18dc:	04 00 fa    	lnk       #0x4
    18de:	00 0f 78    	mov.w     w0, [w14]
    18e0:	21 47 98    	mov.b     w1, [w14+2]
  if (state)
    18e2:	2e 40 90    	mov.b     [w14+2], w0
    18e4:	00 04 e0    	cp0.b     w0
    18e6:	04 00 32    	bra       Z, 0x18f0 <.L40>
    ptr->super.displaybuffer[2] = 0x2;
    18e8:	1e 00 78    	mov.w     [w14], w0
    18ea:	21 00 20    	mov.w     #0x2, w1
    18ec:	21 00 98    	mov.w     w1, [w0+4]
    18ee:	03 00 37    	bra       0x18f6 <.L39>

000018f0 <.L40>:
  else
    ptr->super.displaybuffer[2] = 0;
    18f0:	1e 00 78    	mov.w     [w14], w0
    18f2:	80 00 eb    	clr.w     w1
    18f4:	21 00 98    	mov.w     w1, [w0+4]

000018f6 <.L39>:
}
    18f6:	00 80 fa    	ulnk      
    18f8:	00 00 06    	return    

000018fa <_sevseg_printNumber>:

void sevseg_printNumber(_7SEGMENT* ptr, long n, uint8_t base){
    18fa:	08 00 fa    	lnk       #0x8
    18fc:	00 0f 78    	mov.w     w0, [w14]
    18fe:	12 07 98    	mov.w     w2, [w14+2]
    1900:	23 07 98    	mov.w     w3, [w14+4]
    1902:	61 47 98    	mov.b     w1, [w14+6]
  sevseg_printFloat(ptr, n, 0, base);
    1904:	1e 00 90    	mov.w     [w14+2], w0
    1906:	ae 00 90    	mov.w     [w14+4], w1
    1908:	49 fd 07    	rcall     0x139c <___floatsisf>
    190a:	00 01 be    	mov.d     w0, w2
    190c:	6e 42 90    	mov.b     [w14+6], w4
    190e:	80 40 eb    	clr.b     w1
    1910:	1e 00 78    	mov.w     [w14], w0
    1912:	02 00 07    	rcall     0x1918 <_sevseg_printFloat> <.LFB15> <.LFE14>
}
    1914:	00 80 fa    	ulnk      
    1916:	00 00 06    	return    

00001918 <_sevseg_printFloat>:

void sevseg_printFloat(_7SEGMENT* ptr, double n, uint8_t fracDigits, uint8_t base){
    1918:	1c 00 fa    	lnk       #0x1c
    191a:	88 1f 78    	mov.w     w8, [w15++]
    191c:	20 0f 98    	mov.w     w0, [w14+20]
    191e:	32 0f 98    	mov.w     w2, [w14+22]
    1920:	43 0f 98    	mov.w     w3, [w14+24]
    1922:	21 5f 98    	mov.b     w1, [w14+26]
    1924:	34 5f 98    	mov.b     w4, [w14+27]
  uint8_t numericDigits = 4;   // available digits on display
    1926:	40 c0 b3    	mov.b     #0x4, w0
    1928:	00 4f 78    	mov.b     w0, [w14]
  uint8_t isNegative = 0;  // true if the number is negative
    192a:	00 40 eb    	clr.b     w0
    192c:	10 47 98    	mov.b     w0, [w14+1]

  // is the number negative?
  if(n < 0) {
    192e:	18 c0 b3    	mov.b     #0x1, w8
    1930:	60 11 b8    	mul.uu    w2, #0x0, w2
    1932:	3e 08 90    	mov.w     [w14+22], w0
    1934:	ce 08 90    	mov.w     [w14+24], w1
    1936:	15 fd 07    	rcall     0x1362 <___eqsf2> <___lesf2> <___ltsf2>
    1938:	00 00 e0    	cp0.w     w0
    193a:	01 00 35    	bra       LT, 0x193e <.L44>
    193c:	00 44 eb    	clr.b     w8

0000193e <.L44>:
    193e:	08 04 e0    	cp0.b     w8
    1940:	08 00 32    	bra       Z, 0x1952 <.L45>
    isNegative = 1;  // need to draw sign later
    1942:	10 c0 b3    	mov.b     #0x1, w0
    1944:	10 47 98    	mov.b     w0, [w14+1]
    --numericDigits;    // the sign will take up one digit
    1946:	1e 4f e9    	dec.b     [w14], [w14]
    n *= -1;            // pretend the number is positive
    1948:	3e 08 90    	mov.w     [w14+22], w0
    194a:	ce 08 90    	mov.w     [w14+24], w1
    194c:	01 f0 a2    	btg.w     w1, #0xf
    194e:	30 0f 98    	mov.w     w0, [w14+22]
    1950:	41 0f 98    	mov.w     w1, [w14+24]

00001952 <.L45>:
  }

  // calculate the factor required to shift all fractional digits
  // into the integer part of the number
  double toIntFactor = 1.0;
    1952:	00 00 20    	mov.w     #0x0, w0
    1954:	01 f8 23    	mov.w     #0x3f80, w1
    1956:	10 07 98    	mov.w     w0, [w14+2]
    1958:	21 07 98    	mov.w     w1, [w14+4]
	int i = 0;
    195a:	00 00 eb    	clr.w     w0
    195c:	30 07 98    	mov.w     w0, [w14+6]
  for(i = 0; i < fracDigits; ++i) toIntFactor *= base;
    195e:	00 00 eb    	clr.w     w0
    1960:	30 07 98    	mov.w     w0, [w14+6]
    1962:	0d 00 37    	bra       0x197e <.L46>

00001964 <.L47>:
    1964:	3e 58 90    	mov.b     [w14+27], w0
    1966:	00 80 fb    	ze        w0, w0
    1968:	cf 80 de    	asr.w     w0, #0xf, w1
    196a:	18 fd 07    	rcall     0x139c <___floatsisf>
    196c:	00 01 be    	mov.d     w0, w2
    196e:	1e 00 90    	mov.w     [w14+2], w0
    1970:	ae 00 90    	mov.w     [w14+4], w1
    1972:	6a fd 07    	rcall     0x1448 <___mulsf3>
    1974:	10 07 98    	mov.w     w0, [w14+2]
    1976:	21 07 98    	mov.w     w1, [w14+4]
    1978:	3e 00 90    	mov.w     [w14+6], w0
    197a:	00 00 e8    	inc.w     w0, w0
    197c:	30 07 98    	mov.w     w0, [w14+6]

0000197e <.L46>:
    197e:	2e 58 90    	mov.b     [w14+26], w0
    1980:	80 80 fb    	ze        w0, w1
    1982:	3e 00 90    	mov.w     [w14+6], w0
    1984:	80 8f 50    	sub.w     w1, w0, [w15]
    1986:	ee ff 3c    	bra       GT, 0x1964 <.L47>

  // create integer containing digits to display by applying
  // shifting factor and rounding adjustment
  uint32_t displayNumber = n * toIntFactor + 0.5;
    1988:	1e 01 90    	mov.w     [w14+2], w2
    198a:	ae 01 90    	mov.w     [w14+4], w3
    198c:	3e 08 90    	mov.w     [w14+22], w0
    198e:	ce 08 90    	mov.w     [w14+24], w1
    1990:	5b fd 07    	rcall     0x1448 <___mulsf3>
    1992:	02 00 20    	mov.w     #0x0, w2
    1994:	03 f0 23    	mov.w     #0x3f00, w3
    1996:	46 fc 07    	rcall     0x1224 <___addsf3>
    1998:	e6 fc 07    	rcall     0x1366 <___fixunssfsi>
    199a:	40 07 98    	mov.w     w0, [w14+8]
    199c:	51 07 98    	mov.w     w1, [w14+10]

  // calculate upper bound on displayNumber given
  // available digits on display
  uint32_t tooBig = 1;
    199e:	10 00 20    	mov.w     #0x1, w0
    19a0:	01 00 20    	mov.w     #0x0, w1
    19a2:	60 07 98    	mov.w     w0, [w14+12]
    19a4:	71 07 98    	mov.w     w1, [w14+14]
  for(i = 0; i < numericDigits; ++i) tooBig *= base;
    19a6:	00 00 eb    	clr.w     w0
    19a8:	30 07 98    	mov.w     w0, [w14+6]
    19aa:	15 00 37    	bra       0x19d6 <.L48>

000019ac <.L49>:
    19ac:	3e 58 90    	mov.b     [w14+27], w0
    19ae:	00 80 fb    	ze        w0, w0
    19b0:	80 00 eb    	clr.w     w1
    19b2:	7e 01 90    	mov.w     [w14+14], w2
    19b4:	00 91 b9    	mul.ss    w2, w0, w2
    19b6:	02 01 78    	mov.w     w2, w2
    19b8:	ee 01 90    	mov.w     [w14+12], w3
    19ba:	01 9a b9    	mul.ss    w3, w1, w4
    19bc:	84 01 78    	mov.w     w4, w3
    19be:	03 01 41    	add.w     w2, w3, w2
    19c0:	ee 01 90    	mov.w     [w14+12], w3
    19c2:	00 18 b8    	mul.uu    w3, w0, w0
    19c4:	01 01 41    	add.w     w2, w1, w2
    19c6:	82 00 78    	mov.w     w2, w1
    19c8:	60 07 98    	mov.w     w0, [w14+12]
    19ca:	71 07 98    	mov.w     w1, [w14+14]
    19cc:	60 07 98    	mov.w     w0, [w14+12]
    19ce:	71 07 98    	mov.w     w1, [w14+14]
    19d0:	3e 00 90    	mov.w     [w14+6], w0
    19d2:	00 00 e8    	inc.w     w0, w0
    19d4:	30 07 98    	mov.w     w0, [w14+6]

000019d6 <.L48>:
    19d6:	9e 80 fb    	ze        [w14], w1
    19d8:	3e 00 90    	mov.w     [w14+6], w0
    19da:	80 8f 50    	sub.w     w1, w0, [w15]
    19dc:	e7 ff 3c    	bra       GT, 0x19ac <.L49>

  // if displayNumber is too large, try fewer fractional digits
  while(displayNumber >= tooBig) {
    19de:	18 00 37    	bra       0x1a10 <.L50>

000019e0 <.L51>:
    --fracDigits;
    19e0:	2e 58 90    	mov.b     [w14+26], w0
    19e2:	00 40 e9    	dec.b     w0, w0
    19e4:	20 5f 98    	mov.b     w0, [w14+26]
    toIntFactor /= base;
    19e6:	3e 58 90    	mov.b     [w14+27], w0
    19e8:	00 80 fb    	ze        w0, w0
    19ea:	cf 80 de    	asr.w     w0, #0xf, w1
    19ec:	d7 fc 07    	rcall     0x139c <___floatsisf>
    19ee:	00 01 be    	mov.d     w0, w2
    19f0:	1e 00 90    	mov.w     [w14+2], w0
    19f2:	ae 00 90    	mov.w     [w14+4], w1
    19f4:	74 fc 07    	rcall     0x12de <___divsf3>
    19f6:	10 07 98    	mov.w     w0, [w14+2]
    19f8:	21 07 98    	mov.w     w1, [w14+4]
    displayNumber = n * toIntFactor + 0.5;
    19fa:	1e 01 90    	mov.w     [w14+2], w2
    19fc:	ae 01 90    	mov.w     [w14+4], w3
    19fe:	3e 08 90    	mov.w     [w14+22], w0
    1a00:	ce 08 90    	mov.w     [w14+24], w1
    1a02:	22 fd 07    	rcall     0x1448 <___mulsf3>
    1a04:	02 00 20    	mov.w     #0x0, w2
    1a06:	03 f0 23    	mov.w     #0x3f00, w3
    1a08:	0d fc 07    	rcall     0x1224 <___addsf3>
    1a0a:	ad fc 07    	rcall     0x1366 <___fixunssfsi>
    1a0c:	40 07 98    	mov.w     w0, [w14+8]
    1a0e:	51 07 98    	mov.w     w1, [w14+10]

00001a10 <.L50>:
    1a10:	4e 01 90    	mov.w     [w14+8], w2
    1a12:	de 01 90    	mov.w     [w14+10], w3
    1a14:	6e 00 90    	mov.w     [w14+12], w0
    1a16:	fe 00 90    	mov.w     [w14+14], w1
    1a18:	80 0f 51    	sub.w     w2, w0, [w15]
    1a1a:	81 8f 59    	subb.w    w3, w1, [w15]
    1a1c:	e1 ff 31    	bra       C, 0x19e0 <.L51>
  }

  // did toIntFactor shift the decimal off the display?
  if (toIntFactor < 1) {
    1a1e:	18 c0 b3    	mov.b     #0x1, w8
    1a20:	02 00 20    	mov.w     #0x0, w2
    1a22:	03 f8 23    	mov.w     #0x3f80, w3
    1a24:	1e 00 90    	mov.w     [w14+2], w0
    1a26:	ae 00 90    	mov.w     [w14+4], w1
    1a28:	9c fc 07    	rcall     0x1362 <___eqsf2> <___lesf2> <___ltsf2>
    1a2a:	00 00 e0    	cp0.w     w0
    1a2c:	01 00 35    	bra       LT, 0x1a30 <.L52>
    1a2e:	00 44 eb    	clr.b     w8

00001a30 <.L52>:
    1a30:	08 04 e0    	cp0.b     w8
    1a32:	03 00 32    	bra       Z, 0x1a3a <.L53> <.LBB2>
    sevseg_printError(ptr);
    1a34:	2e 08 90    	mov.w     [w14+20], w0
    1a36:	6c 00 07    	rcall     0x1b10 <_sevseg_printError> <.LFB16> <.LFE15>
    1a38:	68 00 37    	bra       0x1b0a <.L43> <.LBE2>

00001a3a <.L53>:
  } else {
    // otherwise, display the number
    int8_t displayPos = 4;
    1a3a:	40 c0 b3    	mov.b     #0x4, w0
    1a3c:	00 57 98    	mov.b     w0, [w14+16]

    if (displayNumber)  //if displayNumber is not 0
    1a3e:	4e 00 90    	mov.w     [w14+8], w0
    1a40:	de 00 90    	mov.w     [w14+10], w1
    1a42:	e0 0f 50    	sub.w     w0, #0x0, [w15]
    1a44:	e0 8f 58    	subb.w    w1, #0x0, [w15]
    1a46:	41 00 32    	bra       Z, 0x1aca <.L55> <.LBE3>

00001a48 <.LBB3>:
    {
			uint8_t i;
      for(i = 0; displayNumber || i <= fracDigits; ++i) {
    1a48:	00 40 eb    	clr.b     w0
    1a4a:	10 57 98    	mov.b     w0, [w14+17]
    1a4c:	34 00 37    	bra       0x1ab6 <.L56>

00001a4e <.L60>:
        uint8_t displayDecimal = (fracDigits != 0 && i == fracDigits);
    1a4e:	2e 58 90    	mov.b     [w14+26], w0
    1a50:	00 04 e0    	cp0.b     w0
    1a52:	06 00 32    	bra       Z, 0x1a60 <.L57>
    1a54:	9e 50 90    	mov.b     [w14+17], w1
    1a56:	2e 58 90    	mov.b     [w14+26], w0
    1a58:	80 cf 50    	sub.b     w1, w0, [w15]
    1a5a:	02 00 3a    	bra       NZ, 0x1a60 <.L57>
    1a5c:	10 00 20    	mov.w     #0x1, w0
    1a5e:	01 00 37    	bra       0x1a62 <.L58>

00001a60 <.L57>:
    1a60:	00 00 eb    	clr.w     w0

00001a62 <.L58>:
    1a62:	20 57 98    	mov.b     w0, [w14+18]
        sevseg_writeDigitNum(ptr, displayPos--, displayNumber % base, displayDecimal);
    1a64:	3e 58 90    	mov.b     [w14+27], w0
    1a66:	00 80 fb    	ze        w0, w0
    1a68:	80 00 eb    	clr.w     w1
    1a6a:	4e 02 90    	mov.w     [w14+8], w4
    1a6c:	de 02 90    	mov.w     [w14+10], w5
    1a6e:	00 01 be    	mov.d     w0, w2
    1a70:	04 00 be    	mov.d     w4, w0
    1a72:	2e fd 07    	rcall     0x14d0 <___umodsi3>
    1a74:	80 40 78    	mov.b     w0, w1
    1a76:	0e 50 90    	mov.b     [w14+16], w0
    1a78:	0e 51 90    	mov.b     [w14+16], w2
    1a7a:	02 41 e9    	dec.b     w2, w2
    1a7c:	02 57 98    	mov.b     w2, [w14+16]
    1a7e:	ae 51 90    	mov.b     [w14+18], w3
    1a80:	01 41 78    	mov.b     w1, w2
    1a82:	80 40 78    	mov.b     w0, w1
    1a84:	2e 08 90    	mov.w     [w14+20], w0
    1a86:	0e ff 07    	rcall     0x18a4 <_sevseg_writeDigitNum> <.LFB12> <.LFE11>
        if(displayPos == 2) sevseg_writeDigitRaw(ptr, displayPos--, 0x00);
    1a88:	0e 50 90    	mov.b     [w14+16], w0
    1a8a:	e2 4f 50    	sub.b     w0, #0x2, [w15]
    1a8c:	08 00 3a    	bra       NZ, 0x1a9e <.L59>
    1a8e:	0e 50 90    	mov.b     [w14+16], w0
    1a90:	8e 50 90    	mov.b     [w14+16], w1
    1a92:	81 40 e9    	dec.b     w1, w1
    1a94:	01 57 98    	mov.b     w1, [w14+16]
    1a96:	00 01 eb    	clr.w     w2
    1a98:	80 40 78    	mov.b     w0, w1
    1a9a:	2e 08 90    	mov.w     [w14+20], w0
    1a9c:	f1 fe 07    	rcall     0x1880 <_sevseg_writeDigitRaw> <.LFB11> <.LFE10>

00001a9e <.L59>:
        displayNumber /= base;
    1a9e:	3e 58 90    	mov.b     [w14+27], w0
    1aa0:	00 80 fb    	ze        w0, w0
    1aa2:	80 00 eb    	clr.w     w1
    1aa4:	00 01 be    	mov.d     w0, w2
    1aa6:	4e 00 90    	mov.w     [w14+8], w0
    1aa8:	de 00 90    	mov.w     [w14+10], w1
    1aaa:	02 fd 07    	rcall     0x14b0 <___udivsi3>
    1aac:	40 07 98    	mov.w     w0, [w14+8]
    1aae:	51 07 98    	mov.w     w1, [w14+10]

00001ab0 <.LBE4>:
    1ab0:	1e 50 90    	mov.b     [w14+17], w0
    1ab2:	00 40 e8    	inc.b     w0, w0
    1ab4:	10 57 98    	mov.b     w0, [w14+17]

00001ab6 <.L56>:
    1ab6:	4e 00 90    	mov.w     [w14+8], w0
    1ab8:	de 00 90    	mov.w     [w14+10], w1
    1aba:	e0 0f 50    	sub.w     w0, #0x0, [w15]
    1abc:	e0 8f 58    	subb.w    w1, #0x0, [w15]
    1abe:	c7 ff 3a    	bra       NZ, 0x1a4e <.L60> <.LBB4>
    1ac0:	9e 50 90    	mov.b     [w14+17], w1
    1ac2:	2e 58 90    	mov.b     [w14+26], w0
    1ac4:	80 cf 50    	sub.b     w1, w0, [w15]
    1ac6:	c3 ff 36    	bra       LEU, 0x1a4e <.L60> <.LBB4>
    1ac8:	09 00 37    	bra       0x1adc <.L61>

00001aca <.L55>:
      }
    }
    else {
      sevseg_writeDigitNum(ptr, displayPos--, 0, 0);
    1aca:	0e 50 90    	mov.b     [w14+16], w0
    1acc:	8e 50 90    	mov.b     [w14+16], w1
    1ace:	81 40 e9    	dec.b     w1, w1
    1ad0:	01 57 98    	mov.b     w1, [w14+16]
    1ad2:	80 41 eb    	clr.b     w3
    1ad4:	00 41 eb    	clr.b     w2
    1ad6:	80 40 78    	mov.b     w0, w1
    1ad8:	2e 08 90    	mov.w     [w14+20], w0
    1ada:	e4 fe 07    	rcall     0x18a4 <_sevseg_writeDigitNum> <.LFB12> <.LFE11>

00001adc <.L61>:
    }

    // display negative sign if negative
    if(isNegative) sevseg_writeDigitRaw(ptr, displayPos--, 0x40);
    1adc:	1e 40 90    	mov.b     [w14+1], w0
    1ade:	00 04 e0    	cp0.b     w0
    1ae0:	11 00 32    	bra       Z, 0x1b04 <.L63>
    1ae2:	0e 50 90    	mov.b     [w14+16], w0
    1ae4:	8e 50 90    	mov.b     [w14+16], w1
    1ae6:	81 40 e9    	dec.b     w1, w1
    1ae8:	01 57 98    	mov.b     w1, [w14+16]
    1aea:	02 04 20    	mov.w     #0x40, w2
    1aec:	80 40 78    	mov.b     w0, w1
    1aee:	2e 08 90    	mov.w     [w14+20], w0
    1af0:	c7 fe 07    	rcall     0x1880 <_sevseg_writeDigitRaw> <.LFB11> <.LFE10>

    // clear remaining display positions
    while(displayPos >= 0) sevseg_writeDigitRaw(ptr, displayPos--, 0x00);
    1af2:	08 00 37    	bra       0x1b04 <.L63>

00001af4 <.L64>:
    1af4:	0e 50 90    	mov.b     [w14+16], w0
    1af6:	8e 50 90    	mov.b     [w14+16], w1
    1af8:	81 40 e9    	dec.b     w1, w1
    1afa:	01 57 98    	mov.b     w1, [w14+16]
    1afc:	00 01 eb    	clr.w     w2
    1afe:	80 40 78    	mov.b     w0, w1
    1b00:	2e 08 90    	mov.w     [w14+20], w0
    1b02:	be fe 07    	rcall     0x1880 <_sevseg_writeDigitRaw> <.LFB11> <.LFE10>

00001b04 <.L63>:
    1b04:	0e 50 90    	mov.b     [w14+16], w0
    1b06:	00 04 e0    	cp0.b     w0
    1b08:	f5 ff 3d    	bra       GE, 0x1af4 <.L64>

00001b0a <.L43>:
  }
}
    1b0a:	4f 04 78    	mov.w     [--w15], w8
    1b0c:	00 80 fa    	ulnk      
    1b0e:	00 00 06    	return    

00001b10 <_sevseg_printError>:

void sevseg_printError(_7SEGMENT* ptr){
    1b10:	04 00 fa    	lnk       #0x4
    1b12:	10 07 98    	mov.w     w0, [w14+2]
	uint8_t i;
  for(i = 0; i < SEVENSEG_DIGITS; ++i) {
    1b14:	00 40 eb    	clr.b     w0
    1b16:	00 4f 78    	mov.b     w0, [w14]
    1b18:	0b 00 37    	bra       0x1b30 <.L66>

00001b1a <.L69>:
    sevseg_writeDigitRaw(ptr, i, (i == 2 ? 0x00 : 0x40));
    1b1a:	1e 40 78    	mov.b     [w14], w0
    1b1c:	e2 4f 50    	sub.b     w0, #0x2, [w15]
    1b1e:	02 00 3a    	bra       NZ, 0x1b24 <.L67>
    1b20:	00 00 eb    	clr.w     w0
    1b22:	01 00 37    	bra       0x1b26 <.L68>

00001b24 <.L67>:
    1b24:	00 04 20    	mov.w     #0x40, w0

00001b26 <.L68>:
    1b26:	00 01 78    	mov.w     w0, w2
    1b28:	9e 40 78    	mov.b     [w14], w1
    1b2a:	1e 00 90    	mov.w     [w14+2], w0
    1b2c:	a9 fe 07    	rcall     0x1880 <_sevseg_writeDigitRaw> <.LFB11> <.LFE10>
    1b2e:	1e 4f e8    	inc.b     [w14], [w14]

00001b30 <.L66>:
    1b30:	1e 40 78    	mov.b     [w14], w0
    1b32:	e4 4f 50    	sub.b     w0, #0x4, [w15]
    1b34:	f2 ff 36    	bra       LEU, 0x1b1a <.L69>
  }
}
    1b36:	00 80 fa    	ulnk      
    1b38:	00 00 06    	return    

00001b3a <_sevseg_writeColon>:


void sevseg_writeColon(_7SEGMENT* ptr){
    1b3a:	02 00 fa    	lnk       #0x2
    1b3c:	00 0f 78    	mov.w     w0, [w14]
  /*
  Wire.beginTransmission(i2c_addr);
  Wire.write((uint8_t)0x04);

  Wire.write(displaybuffer[2] & 0xFF);
  Wire.write(displaybuffer[2] >> 8);

  Wire.endTransmission();
  */
  i2c_start();
    1b3e:	33 00 07    	rcall     0x1ba6 <_i2c_start> <.LFB2> <.LFE1>
  send_i2c_byte(ptr->super.i2c_addr);
    1b40:	1e 00 78    	mov.w     [w14], w0
    1b42:	00 50 90    	mov.b     [w0+16], w0
    1b44:	00 80 fb    	ze        w0, w0
    1b46:	7e 00 07    	rcall     0x1c44 <_send_i2c_byte> <.LFB5> <.LFE4>
  send_i2c_byte((uint8_t)0x04); // start at address $02
    1b48:	40 00 20    	mov.w     #0x4, w0
    1b4a:	7c 00 07    	rcall     0x1c44 <_send_i2c_byte> <.LFB5> <.LFE4>
  send_i2c_byte(ptr->super.displaybuffer[2] & 0xFF);
    1b4c:	1e 00 78    	mov.w     [w14], w0
    1b4e:	20 00 90    	mov.w     [w0+4], w0
    1b50:	80 00 78    	mov.w     w0, w1
    1b52:	f0 0f 20    	mov.w     #0xff, w0
    1b54:	00 80 60    	and.w     w1, w0, w0
    1b56:	76 00 07    	rcall     0x1c44 <_send_i2c_byte> <.LFB5> <.LFE4>
  send_i2c_byte(ptr->super.displaybuffer[2] >> 8);
    1b58:	1e 00 78    	mov.w     [w14], w0
    1b5a:	20 00 90    	mov.w     [w0+4], w0
    1b5c:	48 00 de    	lsr.w     w0, #0x8, w0
    1b5e:	72 00 07    	rcall     0x1c44 <_send_i2c_byte> <.LFB5> <.LFE4>
  reset_i2c_bus();
    1b60:	56 00 07    	rcall     0x1c0e <_reset_i2c_bus> <.LFB4> <.LFE3>
}
    1b62:	00 80 fa    	ulnk      
    1b64:	00 00 06    	return    

00001b66 <_delay_by_nop>:
    1b66:	08 00 fa    	lnk       #0x8
    1b68:	20 07 98    	mov.w     w0, [w14+4]
    1b6a:	31 07 98    	mov.w     w1, [w14+6]
    1b6c:	60 00 b8    	mul.uu    w0, #0x0, w0
    1b6e:	00 8f be    	mov.d     w0, [w14]
    1b70:	05 00 37    	bra       0x1b7c <.L2>

00001b72 <.L3>:
    1b72:	00 00 00    	nop       
    1b74:	12 00 20    	mov.w     #0x1, w2
    1b76:	03 00 20    	mov.w     #0x0, w3
    1b78:	1e 0f 41    	add.w     w2, [w14], [w14]
    1b7a:	5e 97 49    	addc.w    w3, [++w14], [w14--]

00001b7c <.L2>:
    1b7c:	2e 00 90    	mov.w     [w14+4], w0
    1b7e:	be 00 90    	mov.w     [w14+6], w1
    1b80:	1e 01 be    	mov.d     [w14], w2
    1b82:	80 0f 51    	sub.w     w2, w0, [w15]
    1b84:	81 8f 59    	subb.w    w3, w1, [w15]
    1b86:	f5 ff 39    	bra       NC, 0x1b72 <.L3>
    1b88:	00 80 fa    	ulnk      
    1b8a:	00 00 06    	return    

00001b8c <_i2c_init>:
    1b8c:	04 00 fa    	lnk       #0x4
    1b8e:	10 07 98    	mov.w     w0, [w14+2]
    1b90:	1e 00 90    	mov.w     [w14+2], w0
    1b92:	a0 13 88    	mov.w     w0, 0x274
    1b94:	77 e2 a9    	bclr.b    0x277, #0x7
    1b96:	77 22 a8    	bset.b    0x277, #0x1
    1b98:	8e a0 a9    	bclr.b    0x8e, #0x5
    1b9a:	77 e2 a8    	bset.b    0x277, #0x7
    1b9c:	80 13 80    	mov.w     0x270, w0
    1b9e:	00 0f 78    	mov.w     w0, [w14]
    1ba0:	36 00 07    	rcall     0x1c0e <_reset_i2c_bus> <.LFB4> <.LFE3>
    1ba2:	00 80 fa    	ulnk      
    1ba4:	00 00 06    	return    

00001ba6 <_i2c_start>:
    1ba6:	02 00 fa    	lnk       #0x2
    1ba8:	00 00 eb    	clr.w     w0
    1baa:	00 0f 78    	mov.w     w0, [w14]
    1bac:	76 a2 a9    	bclr.b    0x276, #0x5
    1bae:	a0 00 20    	mov.w     #0xa, w0
    1bb0:	01 00 20    	mov.w     #0x0, w1
    1bb2:	d9 ff 07    	rcall     0x1b66 <_delay_by_nop> <.L0> <.LFB0> <.LFE17> <.Letext0> <.Ltext0>
    1bb4:	76 02 a8    	bset.b    0x276, #0x0
    1bb6:	00 00 00    	nop       
    1bb8:	07 00 37    	bra       0x1bc8 <.L6>

00001bba <.L8>:
    1bba:	10 00 20    	mov.w     #0x1, w0
    1bbc:	01 00 20    	mov.w     #0x0, w1
    1bbe:	d3 ff 07    	rcall     0x1b66 <_delay_by_nop> <.L0> <.LFB0> <.LFE17> <.Letext0> <.Ltext0>
    1bc0:	1e 0f e8    	inc.w     [w14], [w14]
    1bc2:	1e 00 78    	mov.w     [w14], w0
    1bc4:	f4 0f 50    	sub.w     w0, #0x14, [w15]
    1bc6:	05 00 3c    	bra       GT, 0x1bd2 <.L9>

00001bc8 <.L6>:
    1bc8:	b0 13 80    	mov.w     0x276, w0
    1bca:	61 00 60    	and.w     w0, #0x1, w0
    1bcc:	00 00 e0    	cp0.w     w0
    1bce:	f5 ff 3a    	bra       NZ, 0x1bba <.L8>
    1bd0:	01 00 37    	bra       0x1bd4 <.L7>

00001bd2 <.L9>:
    1bd2:	00 00 00    	nop       

00001bd4 <.L7>:
    1bd4:	20 00 20    	mov.w     #0x2, w0
    1bd6:	01 00 20    	mov.w     #0x0, w1
    1bd8:	c6 ff 07    	rcall     0x1b66 <_delay_by_nop> <.L0> <.LFB0> <.LFE17> <.Letext0> <.Ltext0>
    1bda:	00 80 fa    	ulnk      
    1bdc:	00 00 06    	return    

00001bde <_i2c_restart>:
    1bde:	02 00 fa    	lnk       #0x2
    1be0:	00 00 eb    	clr.w     w0
    1be2:	00 0f 78    	mov.w     w0, [w14]
    1be4:	76 22 a8    	bset.b    0x276, #0x1
    1be6:	00 00 00    	nop       
    1be8:	07 00 37    	bra       0x1bf8 <.L11>

00001bea <.L13>:
    1bea:	10 00 20    	mov.w     #0x1, w0
    1bec:	01 00 20    	mov.w     #0x0, w1
    1bee:	bb ff 07    	rcall     0x1b66 <_delay_by_nop> <.L0> <.LFB0> <.LFE17> <.Letext0> <.Ltext0>
    1bf0:	1e 0f e8    	inc.w     [w14], [w14]
    1bf2:	1e 00 78    	mov.w     [w14], w0
    1bf4:	f4 0f 50    	sub.w     w0, #0x14, [w15]
    1bf6:	05 00 3c    	bra       GT, 0x1c02 <.L14>

00001bf8 <.L11>:
    1bf8:	b0 13 80    	mov.w     0x276, w0
    1bfa:	62 00 60    	and.w     w0, #0x2, w0
    1bfc:	00 00 e0    	cp0.w     w0
    1bfe:	f5 ff 3a    	bra       NZ, 0x1bea <.L13>
    1c00:	01 00 37    	bra       0x1c04 <.L12>

00001c02 <.L14>:
    1c02:	00 00 00    	nop       

00001c04 <.L12>:
    1c04:	20 00 20    	mov.w     #0x2, w0
    1c06:	01 00 20    	mov.w     #0x0, w1
    1c08:	ae ff 07    	rcall     0x1b66 <_delay_by_nop> <.L0> <.LFB0> <.LFE17> <.Letext0> <.Ltext0>
    1c0a:	00 80 fa    	ulnk      
    1c0c:	00 00 06    	return    

00001c0e <_reset_i2c_bus>:
    1c0e:	02 00 fa    	lnk       #0x2
    1c10:	00 00 eb    	clr.w     w0
    1c12:	00 0f 78    	mov.w     w0, [w14]
    1c14:	76 42 a8    	bset.b    0x276, #0x2
    1c16:	07 00 37    	bra       0x1c26 <.L16>

00001c18 <.L18>:
    1c18:	10 00 20    	mov.w     #0x1, w0
    1c1a:	01 00 20    	mov.w     #0x0, w1
    1c1c:	a4 ff 07    	rcall     0x1b66 <_delay_by_nop> <.L0> <.LFB0> <.LFE17> <.Letext0> <.Ltext0>
    1c1e:	1e 0f e8    	inc.w     [w14], [w14]
    1c20:	1e 00 78    	mov.w     [w14], w0
    1c22:	f4 0f 50    	sub.w     w0, #0x14, [w15]
    1c24:	05 00 3c    	bra       GT, 0x1c30 <.L19>

00001c26 <.L16>:
    1c26:	b0 13 80    	mov.w     0x276, w0
    1c28:	64 00 60    	and.w     w0, #0x4, w0
    1c2a:	00 00 e0    	cp0.w     w0
    1c2c:	f5 ff 3a    	bra       NZ, 0x1c18 <.L18>
    1c2e:	01 00 37    	bra       0x1c32 <.L17>

00001c30 <.L19>:
    1c30:	00 00 00    	nop       

00001c32 <.L17>:
    1c32:	76 62 a9    	bclr.b    0x276, #0x3
    1c34:	8e a0 a9    	bclr.b    0x8e, #0x5
    1c36:	78 e2 a9    	bclr.b    0x278, #0x7
    1c38:	79 42 a9    	bclr.b    0x279, #0x2
    1c3a:	40 01 20    	mov.w     #0x14, w0
    1c3c:	01 00 20    	mov.w     #0x0, w1
    1c3e:	93 ff 07    	rcall     0x1b66 <_delay_by_nop> <.L0> <.LFB0> <.LFE17> <.Letext0> <.Ltext0>
    1c40:	00 80 fa    	ulnk      
    1c42:	00 00 06    	return    

00001c44 <_send_i2c_byte>:
    1c44:	04 00 fa    	lnk       #0x4
    1c46:	10 07 98    	mov.w     w0, [w14+2]
    1c48:	00 00 00    	nop       

00001c4a <.L21>:
    1c4a:	c0 13 80    	mov.w     0x278, w0
    1c4c:	61 00 60    	and.w     w0, #0x1, w0
    1c4e:	00 00 e0    	cp0.w     w0
    1c50:	fc ff 3a    	bra       NZ, 0x1c4a <.L21>
    1c52:	8e a0 a9    	bclr.b    0x8e, #0x5
    1c54:	1e 00 90    	mov.w     [w14+2], w0
    1c56:	90 13 88    	mov.w     w0, 0x272
    1c58:	00 00 eb    	clr.w     w0
    1c5a:	00 0f 78    	mov.w     w0, [w14]
    1c5c:	09 00 37    	bra       0x1c70 <.L22>

00001c5e <.L25>:
    1c5e:	c1 13 80    	mov.w     0x278, w1
    1c60:	00 00 24    	mov.w     #0x4000, w0
    1c62:	00 80 60    	and.w     w1, w0, w0
    1c64:	00 00 e0    	cp0.w     w0
    1c66:	09 00 32    	bra       Z, 0x1c7a <.L29>
    1c68:	10 00 20    	mov.w     #0x1, w0
    1c6a:	01 00 20    	mov.w     #0x0, w1
    1c6c:	7c ff 07    	rcall     0x1b66 <_delay_by_nop> <.L0> <.LFB0> <.LFE17> <.Letext0> <.Ltext0>
    1c6e:	1e 0f e8    	inc.w     [w14], [w14]

00001c70 <.L22>:
    1c70:	30 1f 20    	mov.w     #0x1f3, w0
    1c72:	9e 00 78    	mov.w     [w14], w1
    1c74:	80 8f 50    	sub.w     w1, w0, [w15]
    1c76:	f3 ff 34    	bra       LE, 0x1c5e <.L25>
    1c78:	01 00 37    	bra       0x1c7c <.L24>

00001c7a <.L29>:
    1c7a:	00 00 00    	nop       

00001c7c <.L24>:
    1c7c:	40 1f 20    	mov.w     #0x1f4, w0
    1c7e:	9e 00 78    	mov.w     [w14], w1
    1c80:	80 8f 50    	sub.w     w1, w0, [w15]
    1c82:	02 00 3a    	bra       NZ, 0x1c88 <.L26>
    1c84:	10 c0 b3    	mov.b     #0x1, w0
    1c86:	0c 00 37    	bra       0x1ca0 <.L27>

00001c88 <.L26>:
    1c88:	c1 13 80    	mov.w     0x278, w1
    1c8a:	00 00 28    	mov.w     #0x8000, w0
    1c8c:	00 80 60    	and.w     w1, w0, w0
    1c8e:	00 00 e0    	cp0.w     w0
    1c90:	03 00 32    	bra       Z, 0x1c98 <.L28>
    1c92:	bd ff 07    	rcall     0x1c0e <_reset_i2c_bus> <.LFB4> <.LFE3>
    1c94:	10 c0 b3    	mov.b     #0x1, w0
    1c96:	04 00 37    	bra       0x1ca0 <.L27>

00001c98 <.L28>:
    1c98:	20 00 20    	mov.w     #0x2, w0
    1c9a:	01 00 20    	mov.w     #0x0, w1
    1c9c:	64 ff 07    	rcall     0x1b66 <_delay_by_nop> <.L0> <.LFB0> <.LFE17> <.Letext0> <.Ltext0>
    1c9e:	00 40 eb    	clr.b     w0

00001ca0 <.L27>:
    1ca0:	00 80 fa    	ulnk      
    1ca2:	00 00 06    	return    

00001ca4 <_i2c_read>:
    1ca4:	04 00 fa    	lnk       #0x4
    1ca6:	00 00 eb    	clr.w     w0
    1ca8:	00 0f 78    	mov.w     w0, [w14]
    1caa:	00 40 eb    	clr.b     w0
    1cac:	20 47 98    	mov.b     w0, [w14+2]
    1cae:	76 62 a8    	bset.b    0x276, #0x3
    1cb0:	05 00 37    	bra       0x1cbc <.L31>

00001cb2 <.L33>:
    1cb2:	1e 0f e8    	inc.w     [w14], [w14]
    1cb4:	00 7d 20    	mov.w     #0x7d0, w0
    1cb6:	9e 00 78    	mov.w     [w14], w1
    1cb8:	80 8f 50    	sub.w     w1, w0, [w15]
    1cba:	05 00 3c    	bra       GT, 0x1cc6 <.L34>

00001cbc <.L31>:
    1cbc:	c0 13 80    	mov.w     0x278, w0
    1cbe:	62 00 60    	and.w     w0, #0x2, w0
    1cc0:	00 00 e0    	cp0.w     w0
    1cc2:	f7 ff 32    	bra       Z, 0x1cb2 <.L33>
    1cc4:	01 00 37    	bra       0x1cc8 <.L32>

00001cc6 <.L34>:
    1cc6:	00 00 00    	nop       

00001cc8 <.L32>:
    1cc8:	80 13 80    	mov.w     0x270, w0
    1cca:	20 47 98    	mov.b     w0, [w14+2]
    1ccc:	2e 40 90    	mov.b     [w14+2], w0
    1cce:	00 80 fa    	ulnk      
    1cd0:	00 00 06    	return    

00001cd2 <_i2c_read_ack>:
    1cd2:	04 00 fa    	lnk       #0x4
    1cd4:	00 00 eb    	clr.w     w0
    1cd6:	00 0f 78    	mov.w     w0, [w14]
    1cd8:	00 40 eb    	clr.b     w0
    1cda:	20 47 98    	mov.b     w0, [w14+2]
    1cdc:	76 62 a8    	bset.b    0x276, #0x3
    1cde:	05 00 37    	bra       0x1cea <.L36>

00001ce0 <.L38>:
    1ce0:	1e 0f e8    	inc.w     [w14], [w14]
    1ce2:	00 7d 20    	mov.w     #0x7d0, w0
    1ce4:	9e 00 78    	mov.w     [w14], w1
    1ce6:	80 8f 50    	sub.w     w1, w0, [w15]
    1ce8:	05 00 3c    	bra       GT, 0x1cf4 <.L39>

00001cea <.L36>:
    1cea:	c0 13 80    	mov.w     0x278, w0
    1cec:	62 00 60    	and.w     w0, #0x2, w0
    1cee:	00 00 e0    	cp0.w     w0
    1cf0:	f7 ff 32    	bra       Z, 0x1ce0 <.L38>
    1cf2:	01 00 37    	bra       0x1cf6 <.L37>

00001cf4 <.L39>:
    1cf4:	00 00 00    	nop       

00001cf6 <.L37>:
    1cf6:	80 13 80    	mov.w     0x270, w0
    1cf8:	20 47 98    	mov.b     w0, [w14+2]
    1cfa:	76 82 a8    	bset.b    0x276, #0x4
    1cfc:	a0 00 20    	mov.w     #0xa, w0
    1cfe:	01 00 20    	mov.w     #0x0, w1
    1d00:	32 ff 07    	rcall     0x1b66 <_delay_by_nop> <.L0> <.LFB0> <.LFE17> <.Letext0> <.Ltext0>
    1d02:	2e 40 90    	mov.b     [w14+2], w0
    1d04:	00 80 fa    	ulnk      
    1d06:	00 00 06    	return    

00001d08 <_i2c_read_nack>:
    1d08:	04 00 fa    	lnk       #0x4
    1d0a:	00 00 eb    	clr.w     w0
    1d0c:	00 0f 78    	mov.w     w0, [w14]
    1d0e:	00 40 eb    	clr.b     w0
    1d10:	20 47 98    	mov.b     w0, [w14+2]
    1d12:	76 62 a8    	bset.b    0x276, #0x3
    1d14:	05 00 37    	bra       0x1d20 <.L41>

00001d16 <.L43>:
    1d16:	1e 0f e8    	inc.w     [w14], [w14]
    1d18:	00 7d 20    	mov.w     #0x7d0, w0
    1d1a:	9e 00 78    	mov.w     [w14], w1
    1d1c:	80 8f 50    	sub.w     w1, w0, [w15]
    1d1e:	05 00 3c    	bra       GT, 0x1d2a <.L44>

00001d20 <.L41>:
    1d20:	c0 13 80    	mov.w     0x278, w0
    1d22:	62 00 60    	and.w     w0, #0x2, w0
    1d24:	00 00 e0    	cp0.w     w0
    1d26:	f7 ff 32    	bra       Z, 0x1d16 <.L43>
    1d28:	01 00 37    	bra       0x1d2c <.L42>

00001d2a <.L44>:
    1d2a:	00 00 00    	nop       

00001d2c <.L42>:
    1d2c:	80 13 80    	mov.w     0x270, w0
    1d2e:	20 47 98    	mov.b     w0, [w14+2]
    1d30:	76 a2 a8    	bset.b    0x276, #0x5
    1d32:	76 82 a8    	bset.b    0x276, #0x4
    1d34:	a0 00 20    	mov.w     #0xa, w0
    1d36:	01 00 20    	mov.w     #0x0, w1
    1d38:	16 ff 07    	rcall     0x1b66 <_delay_by_nop> <.L0> <.LFB0> <.LFE17> <.Letext0> <.Ltext0>
    1d3a:	2e 40 90    	mov.b     [w14+2], w0
    1d3c:	00 80 fa    	ulnk      
    1d3e:	00 00 06    	return    

00001d40 <_I2Cwrite>:
    1d40:	04 00 fa    	lnk       #0x4
    1d42:	00 4f 78    	mov.b     w0, [w14]
    1d44:	11 47 98    	mov.b     w1, [w14+1]
    1d46:	22 47 98    	mov.b     w2, [w14+2]
    1d48:	2e ff 07    	rcall     0x1ba6 <_i2c_start> <.LFB2> <.LFE1>
    1d4a:	1e 00 fb    	se        [w14], w0
    1d4c:	80 00 78    	mov.w     w0, w1
    1d4e:	e0 ff 2f    	mov.w     #0xfffe, w0
    1d50:	00 80 60    	and.w     w1, w0, w0
    1d52:	78 ff 07    	rcall     0x1c44 <_send_i2c_byte> <.LFB5> <.LFE4>
    1d54:	1e 40 90    	mov.b     [w14+1], w0
    1d56:	00 00 fb    	se        w0, w0
    1d58:	75 ff 07    	rcall     0x1c44 <_send_i2c_byte> <.LFB5> <.LFE4>
    1d5a:	2e 40 90    	mov.b     [w14+2], w0
    1d5c:	00 00 fb    	se        w0, w0
    1d5e:	72 ff 07    	rcall     0x1c44 <_send_i2c_byte> <.LFB5> <.LFE4>
    1d60:	56 ff 07    	rcall     0x1c0e <_reset_i2c_bus> <.LFB4> <.LFE3>
    1d62:	00 80 fa    	ulnk      
    1d64:	00 00 06    	return    

00001d66 <_I2Cread>:
    1d66:	04 00 fa    	lnk       #0x4
    1d68:	20 47 98    	mov.b     w0, [w14+2]
    1d6a:	31 47 98    	mov.b     w1, [w14+3]
    1d6c:	1c ff 07    	rcall     0x1ba6 <_i2c_start> <.LFB2> <.LFE1>
    1d6e:	2e 40 90    	mov.b     [w14+2], w0
    1d70:	00 00 fb    	se        w0, w0
    1d72:	68 ff 07    	rcall     0x1c44 <_send_i2c_byte> <.LFB5> <.LFE4>
    1d74:	3e 40 90    	mov.b     [w14+3], w0
    1d76:	00 00 fb    	se        w0, w0
    1d78:	65 ff 07    	rcall     0x1c44 <_send_i2c_byte> <.LFB5> <.LFE4>
    1d7a:	a0 00 20    	mov.w     #0xa, w0
    1d7c:	01 00 20    	mov.w     #0x0, w1
    1d7e:	f3 fe 07    	rcall     0x1b66 <_delay_by_nop> <.L0> <.LFB0> <.LFE17> <.Letext0> <.Ltext0>
    1d80:	2e ff 07    	rcall     0x1bde <_i2c_restart> <.LFB3> <.LFE2>
    1d82:	2e 40 90    	mov.b     [w14+2], w0
    1d84:	00 04 a0    	bset.b    w0, #0x0
    1d86:	00 00 fb    	se        w0, w0
    1d88:	5d ff 07    	rcall     0x1c44 <_send_i2c_byte> <.LFB5> <.LFE4>
    1d8a:	8c ff 07    	rcall     0x1ca4 <_i2c_read> <.LFB6> <.LFE5>
    1d8c:	00 4f 78    	mov.b     w0, [w14]
    1d8e:	3f ff 07    	rcall     0x1c0e <_reset_i2c_bus> <.LFB4> <.LFE3>
    1d90:	1e 40 78    	mov.b     [w14], w0
    1d92:	00 80 fa    	ulnk      
    1d94:	00 00 06    	return    

00001d96 <_I2Cpoll>:
    1d96:	04 00 fa    	lnk       #0x4
    1d98:	20 47 98    	mov.b     w0, [w14+2]
    1d9a:	00 40 eb    	clr.b     w0
    1d9c:	00 4f 78    	mov.b     w0, [w14]
    1d9e:	03 ff 07    	rcall     0x1ba6 <_i2c_start> <.LFB2> <.LFE1>
    1da0:	2e 40 90    	mov.b     [w14+2], w0
    1da2:	00 00 fb    	se        w0, w0
    1da4:	80 00 78    	mov.w     w0, w1
    1da6:	e0 ff 2f    	mov.w     #0xfffe, w0
    1da8:	00 80 60    	and.w     w1, w0, w0
    1daa:	4c ff 07    	rcall     0x1c44 <_send_i2c_byte> <.LFB5> <.LFE4>
    1dac:	00 4f 78    	mov.b     w0, [w14]
    1dae:	2f ff 07    	rcall     0x1c0e <_reset_i2c_bus> <.LFB4> <.LFE3>
    1db0:	1e 40 78    	mov.b     [w14], w0
    1db2:	00 80 fa    	ulnk      
    1db4:	00 00 06    	return    

00001db6 <_I2Cwritearray>:
    1db6:	08 00 fa    	lnk       #0x8
    1db8:	20 47 98    	mov.b     w0, [w14+2]
    1dba:	21 07 98    	mov.w     w1, [w14+4]
    1dbc:	62 47 98    	mov.b     w2, [w14+6]
    1dbe:	00 40 eb    	clr.b     w0
    1dc0:	00 4f 78    	mov.b     w0, [w14]
    1dc2:	f1 fe 07    	rcall     0x1ba6 <_i2c_start> <.LFB2> <.LFE1>
    1dc4:	2e 40 90    	mov.b     [w14+2], w0
    1dc6:	00 00 fb    	se        w0, w0
    1dc8:	80 00 78    	mov.w     w0, w1
    1dca:	e0 ff 2f    	mov.w     #0xfffe, w0
    1dcc:	00 80 60    	and.w     w1, w0, w0
    1dce:	3a ff 07    	rcall     0x1c44 <_send_i2c_byte> <.LFB5> <.LFE4>
    1dd0:	00 4f 78    	mov.b     w0, [w14]
    1dd2:	00 40 eb    	clr.b     w0
    1dd4:	10 47 98    	mov.b     w0, [w14+1]
    1dd6:	0d 00 37    	bra       0x1df2 <.L49>

00001dd8 <.L50>:
    1dd8:	1e 40 90    	mov.b     [w14+1], w0
    1dda:	00 80 fb    	ze        w0, w0
    1ddc:	ae 00 90    	mov.w     [w14+4], w1
    1dde:	00 80 40    	add.w     w1, w0, w0
    1de0:	10 40 78    	mov.b     [w0], w0
    1de2:	00 00 fb    	se        w0, w0
    1de4:	2f ff 07    	rcall     0x1c44 <_send_i2c_byte> <.LFB5> <.LFE4>
    1de6:	9e 40 78    	mov.b     [w14], w1
    1de8:	01 40 70    	ior.b     w0, w1, w0
    1dea:	00 4f 78    	mov.b     w0, [w14]
    1dec:	1e 40 90    	mov.b     [w14+1], w0
    1dee:	00 40 e8    	inc.b     w0, w0
    1df0:	10 47 98    	mov.b     w0, [w14+1]

00001df2 <.L49>:
    1df2:	9e 40 90    	mov.b     [w14+1], w1
    1df4:	6e 40 90    	mov.b     [w14+6], w0
    1df6:	80 cf 50    	sub.b     w1, w0, [w15]
    1df8:	ef ff 39    	bra       NC, 0x1dd8 <.L50>
    1dfa:	09 ff 07    	rcall     0x1c0e <_reset_i2c_bus> <.LFB4> <.LFE3>
    1dfc:	1e 40 78    	mov.b     [w14], w0
    1dfe:	00 80 fa    	ulnk      
    1e00:	00 00 06    	return    

00001e02 <_idle>:
    1e02:	00 00 fa    	lnk       #0x0
    1e04:	11 40 80    	mov.w     0x802, w1
    1e06:	20 40 80    	mov.w     0x804, w0
    1e08:	80 8f 50    	sub.w     w1, w0, [w15]
    1e0a:	05 00 32    	bra       Z, 0x1e16 <.L2>
    1e0c:	10 40 80    	mov.w     0x802, w0
    1e0e:	20 40 88    	mov.w     w0, 0x804
    1e10:	a0 00 20    	mov.w     #0xa, w0
    1e12:	93 00 07    	rcall     0x1f3a <_dispSeconds> <.LFB3> <.LFE2>
    1e14:	db 02 a8    	bset.b    0x2db, #0x0

00001e16 <.L2>:
    1e16:	d1 16 80    	mov.w     0x2da, w1
    1e18:	00 20 20    	mov.w     #0x200, w0
    1e1a:	00 80 60    	and.w     w1, w0, w0
    1e1c:	00 00 e0    	cp0.w     w0
    1e1e:	02 00 3a    	bra       NZ, 0x1e24 <.L3>
    1e20:	20 e3 21    	mov.w     #0x1e32, w0
    1e22:	10 40 88    	mov.w     w0, 0x802

00001e24 <.L3>:
    1e24:	11 40 80    	mov.w     0x802, w1
    1e26:	20 40 80    	mov.w     0x804, w0
    1e28:	80 8f 50    	sub.w     w1, w0, [w15]
    1e2a:	01 00 32    	bra       Z, 0x1e2e <.L1>
    1e2c:	db 02 a9    	bclr.b    0x2db, #0x0

00001e2e <.L1>:
    1e2e:	00 80 fa    	ulnk      
    1e30:	00 00 06    	return    

00001e32 <_active>:
    1e32:	00 00 fa    	lnk       #0x0
    1e34:	11 40 80    	mov.w     0x802, w1
    1e36:	20 40 80    	mov.w     0x804, w0
    1e38:	80 8f 50    	sub.w     w1, w0, [w15]
    1e3a:	12 00 32    	bra       Z, 0x1e60 <.L6>
    1e3c:	10 40 80    	mov.w     0x802, w0
    1e3e:	20 40 88    	mov.w     w0, 0x804
    1e40:	84 60 a9    	bclr.b    0x84, #0x3
    1e42:	00 21 ef    	clr.w     0x100
    1e44:	05 e1 a8    	bset.b    0x105, #0x7
    1e46:	a0 00 20    	mov.w     #0xa, w0
    1e48:	00 40 88    	mov.w     w0, 0x800
    1e4a:	00 40 80    	mov.w     0x800, w0
    1e4c:	76 00 07    	rcall     0x1f3a <_dispSeconds> <.LFB3> <.LFE2>
    1e4e:	da 82 a8    	bset.b    0x2da, #0x4
    1e50:	10 00 20    	mov.w     #0x1, w0
    1e52:	01 00 20    	mov.w     #0x0, w1
    1e54:	88 fe 07    	rcall     0x1b66 <_delay_by_nop> <.L0> <.LFB0> <.LFE17> <.Letext0> <.Ltext0>
    1e56:	ea a2 a8    	bset.b    0x2ea, #0x5
    1e58:	10 00 20    	mov.w     #0x1, w0
    1e5a:	01 00 20    	mov.w     #0x0, w1
    1e5c:	84 fe 07    	rcall     0x1b66 <_delay_by_nop> <.L0> <.LFB0> <.LFE17> <.Letext0> <.Ltext0>
    1e5e:	ea 62 a8    	bset.b    0x2ea, #0x3

00001e60 <.L6>:
    1e60:	20 04 80    	mov.w     0x84, w0
    1e62:	68 00 60    	and.w     w0, #0x8, w0
    1e64:	00 00 e0    	cp0.w     w0
    1e66:	06 00 32    	bra       Z, 0x1e74 <.L7>
    1e68:	84 60 a9    	bclr.b    0x84, #0x3
    1e6a:	00 40 80    	mov.w     0x800, w0
    1e6c:	00 00 e9    	dec.w     w0, w0
    1e6e:	00 40 88    	mov.w     w0, 0x800
    1e70:	00 40 80    	mov.w     0x800, w0
    1e72:	63 00 07    	rcall     0x1f3a <_dispSeconds> <.LFB3> <.LFE2>

00001e74 <.L7>:
    1e74:	91 16 80    	mov.w     0x2d2, w1
    1e76:	00 00 21    	mov.w     #0x1000, w0
    1e78:	00 80 60    	and.w     w1, w0, w0
    1e7a:	00 00 e0    	cp0.w     w0
    1e7c:	03 00 3a    	bra       NZ, 0x1e84 <.L8>
    1e7e:	20 e0 21    	mov.w     #0x1e02, w0
    1e80:	10 40 88    	mov.w     w0, 0x802
    1e82:	05 00 37    	bra       0x1e8e <.L9>

00001e84 <.L8>:
    1e84:	00 40 80    	mov.w     0x800, w0
    1e86:	00 00 e0    	cp0.w     w0
    1e88:	02 00 3a    	bra       NZ, 0x1e8e <.L9>
    1e8a:	e0 ea 21    	mov.w     #0x1eae, w0
    1e8c:	10 40 88    	mov.w     w0, 0x802

00001e8e <.L9>:
    1e8e:	11 40 80    	mov.w     0x802, w1
    1e90:	20 40 80    	mov.w     0x804, w0
    1e92:	80 8f 50    	sub.w     w1, w0, [w15]
    1e94:	0a 00 32    	bra       Z, 0x1eaa <.L5>
    1e96:	05 e1 a9    	bclr.b    0x105, #0x7
    1e98:	da 82 a9    	bclr.b    0x2da, #0x4
    1e9a:	10 00 20    	mov.w     #0x1, w0
    1e9c:	01 00 20    	mov.w     #0x0, w1
    1e9e:	63 fe 07    	rcall     0x1b66 <_delay_by_nop> <.L0> <.LFB0> <.LFE17> <.Letext0> <.Ltext0>
    1ea0:	ea a2 a9    	bclr.b    0x2ea, #0x5
    1ea2:	10 00 20    	mov.w     #0x1, w0
    1ea4:	01 00 20    	mov.w     #0x0, w1
    1ea6:	5f fe 07    	rcall     0x1b66 <_delay_by_nop> <.L0> <.LFB0> <.LFE17> <.Letext0> <.Ltext0>
    1ea8:	ea 62 a9    	bclr.b    0x2ea, #0x3

00001eaa <.L5>:
    1eaa:	00 80 fa    	ulnk      
    1eac:	00 00 06    	return    

00001eae <_end>:
    1eae:	00 00 fa    	lnk       #0x0
    1eb0:	11 40 80    	mov.w     0x802, w1
    1eb2:	20 40 80    	mov.w     0x804, w0
    1eb4:	80 8f 50    	sub.w     w1, w0, [w15]
    1eb6:	08 00 32    	bra       Z, 0x1ec8 <.L12>
    1eb8:	10 40 80    	mov.w     0x802, w0
    1eba:	20 40 88    	mov.w     w0, 0x804
    1ebc:	84 60 a9    	bclr.b    0x84, #0x3
    1ebe:	00 21 ef    	clr.w     0x100
    1ec0:	05 e1 a8    	bset.b    0x105, #0x7
    1ec2:	da a2 a8    	bset.b    0x2da, #0x5
    1ec4:	ea 82 a8    	bset.b    0x2ea, #0x4
    1ec6:	cb e2 a8    	bset.b    0x2cb, #0x7

00001ec8 <.L12>:
    1ec8:	20 04 80    	mov.w     0x84, w0
    1eca:	68 00 60    	and.w     w0, #0x8, w0
    1ecc:	00 00 e0    	cp0.w     w0
    1ece:	2b 00 32    	bra       Z, 0x1f26 <.L13>
    1ed0:	84 60 a9    	bclr.b    0x84, #0x3
    1ed2:	d1 16 80    	mov.w     0x2da, w1
    1ed4:	00 02 20    	mov.w     #0x20, w0
    1ed6:	00 80 60    	and.w     w1, w0, w0
    1ed8:	00 f0 a7    	btsc.w    w0, #0xf
    1eda:	00 00 ea    	neg.w     w0, w0
    1edc:	00 00 e9    	dec.w     w0, w0
    1ede:	4f 00 de    	lsr.w     w0, #0xf, w0
    1ee0:	00 40 78    	mov.b     w0, w0
    1ee2:	00 80 fb    	ze        w0, w0
    1ee4:	61 00 60    	and.w     w0, #0x1, w0
    1ee6:	45 00 dd    	sl.w      w0, #0x5, w0
    1ee8:	d2 16 80    	mov.w     0x2da, w2
    1eea:	f1 fd 2f    	mov.w     #0xffdf, w1
    1eec:	81 00 61    	and.w     w2, w1, w1
    1eee:	01 00 70    	ior.w     w0, w1, w0
    1ef0:	d0 16 88    	mov.w     w0, 0x2da
    1ef2:	50 17 80    	mov.w     0x2ea, w0
    1ef4:	70 00 60    	and.w     w0, #0x10, w0
    1ef6:	00 f0 a7    	btsc.w    w0, #0xf
    1ef8:	00 00 ea    	neg.w     w0, w0
    1efa:	00 00 e9    	dec.w     w0, w0
    1efc:	4f 00 de    	lsr.w     w0, #0xf, w0
    1efe:	00 40 78    	mov.b     w0, w0
    1f00:	00 80 fb    	ze        w0, w0
    1f02:	61 00 60    	and.w     w0, #0x1, w0
    1f04:	44 00 dd    	sl.w      w0, #0x4, w0
    1f06:	52 17 80    	mov.w     0x2ea, w2
    1f08:	f1 fe 2f    	mov.w     #0xffef, w1
    1f0a:	81 00 61    	and.w     w2, w1, w1
    1f0c:	01 00 70    	ior.w     w0, w1, w0
    1f0e:	50 17 88    	mov.w     w0, 0x2ea
    1f10:	50 16 80    	mov.w     0x2ca, w0
    1f12:	00 80 ea    	com.w     w0, w0
    1f14:	4f 00 de    	lsr.w     w0, #0xf, w0
    1f16:	00 40 78    	mov.b     w0, w0
    1f18:	00 80 fb    	ze        w0, w0
    1f1a:	4f 00 dd    	sl.w      w0, #0xf, w0
    1f1c:	52 16 80    	mov.w     0x2ca, w2
    1f1e:	f1 ff 27    	mov.w     #0x7fff, w1
    1f20:	81 00 61    	and.w     w2, w1, w1
    1f22:	01 00 70    	ior.w     w0, w1, w0
    1f24:	50 16 88    	mov.w     w0, 0x2ca

00001f26 <.L13>:
    1f26:	11 40 80    	mov.w     0x802, w1
    1f28:	20 40 80    	mov.w     0x804, w0
    1f2a:	80 8f 50    	sub.w     w1, w0, [w15]
    1f2c:	04 00 32    	bra       Z, 0x1f36 <.L11>
    1f2e:	05 e1 a9    	bclr.b    0x105, #0x7
    1f30:	da a2 a9    	bclr.b    0x2da, #0x5
    1f32:	ea 82 a9    	bclr.b    0x2ea, #0x4
    1f34:	cb e2 a9    	bclr.b    0x2cb, #0x7

00001f36 <.L11>:
    1f36:	00 80 fa    	ulnk      
    1f38:	00 00 06    	return    

00001f3a <_dispSeconds>:
    1f3a:	06 00 fa    	lnk       #0x6
    1f3c:	20 07 98    	mov.w     w0, [w14+4]
    1f3e:	ae 00 90    	mov.w     [w14+4], w1
    1f40:	90 88 28    	mov.w     #0x8889, w0
    1f42:	00 08 b8    	mul.uu    w1, w0, w0
    1f44:	45 08 de    	lsr.w     w1, #0x5, w0
    1f46:	00 0f 78    	mov.w     w0, [w14]
    1f48:	2e 01 90    	mov.w     [w14+4], w2
    1f4a:	90 88 28    	mov.w     #0x8889, w0
    1f4c:	00 10 b8    	mul.uu    w2, w0, w0
    1f4e:	45 08 de    	lsr.w     w1, #0x5, w0
    1f50:	c1 03 20    	mov.w     #0x3c, w1
    1f52:	01 80 b9    	mul.ss    w0, w1, w0
    1f54:	00 00 78    	mov.w     w0, w0
    1f56:	00 00 51    	sub.w     w2, w0, w0
    1f58:	20 47 98    	mov.b     w0, [w14+2]
    1f5a:	9e 00 78    	mov.w     [w14], w1
    1f5c:	d0 cc 2c    	mov.w     #0xcccd, w0
    1f5e:	00 08 b8    	mul.uu    w1, w0, w0
    1f60:	43 08 de    	lsr.w     w1, #0x3, w0
    1f62:	00 40 78    	mov.b     w0, w0
    1f64:	80 41 eb    	clr.b     w3
    1f66:	00 41 78    	mov.b     w0, w2
    1f68:	80 40 eb    	clr.b     w1
    1f6a:	60 80 20    	mov.w     #0x806, w0
    1f6c:	9b fc 07    	rcall     0x18a4 <_sevseg_writeDigitNum> <.LFB12> <.LFE11>
    1f6e:	1e 01 78    	mov.w     [w14], w2
    1f70:	d0 cc 2c    	mov.w     #0xcccd, w0
    1f72:	00 10 b8    	mul.uu    w2, w0, w0
    1f74:	43 08 de    	lsr.w     w1, #0x3, w0
    1f76:	6a 00 b9    	mul.su    w0, #0xa, w0
    1f78:	00 00 78    	mov.w     w0, w0
    1f7a:	00 00 51    	sub.w     w2, w0, w0
    1f7c:	00 40 78    	mov.b     w0, w0
    1f7e:	80 41 eb    	clr.b     w3
    1f80:	00 41 78    	mov.b     w0, w2
    1f82:	11 c0 b3    	mov.b     #0x1, w1
    1f84:	60 80 20    	mov.w     #0x806, w0
    1f86:	8e fc 07    	rcall     0x18a4 <_sevseg_writeDigitNum> <.LFB12> <.LFE11>
    1f88:	11 c0 b3    	mov.b     #0x1, w1
    1f8a:	60 80 20    	mov.w     #0x806, w0
    1f8c:	a7 fc 07    	rcall     0x18dc <_sevseg_drawColon> <.LFB13> <.LFE12>
    1f8e:	2e 40 90    	mov.b     [w14+2], w0
    1f90:	80 80 fb    	ze        w0, w1
    1f92:	d0 cc 2c    	mov.w     #0xcccd, w0
    1f94:	00 08 b8    	mul.uu    w1, w0, w0
    1f96:	43 08 de    	lsr.w     w1, #0x3, w0
    1f98:	00 40 78    	mov.b     w0, w0
    1f9a:	00 81 fb    	ze        w0, w2
    1f9c:	d0 cc 2c    	mov.w     #0xcccd, w0
    1f9e:	00 10 b8    	mul.uu    w2, w0, w0
    1fa0:	43 08 de    	lsr.w     w1, #0x3, w0
    1fa2:	6a 00 b9    	mul.su    w0, #0xa, w0
    1fa4:	00 00 78    	mov.w     w0, w0
    1fa6:	00 00 51    	sub.w     w2, w0, w0
    1fa8:	00 40 78    	mov.b     w0, w0
    1faa:	80 41 eb    	clr.b     w3
    1fac:	00 41 78    	mov.b     w0, w2
    1fae:	31 c0 b3    	mov.b     #0x3, w1
    1fb0:	60 80 20    	mov.w     #0x806, w0
    1fb2:	78 fc 07    	rcall     0x18a4 <_sevseg_writeDigitNum> <.LFB12> <.LFE11>
    1fb4:	2e 40 90    	mov.b     [w14+2], w0
    1fb6:	00 81 fb    	ze        w0, w2
    1fb8:	d0 cc 2c    	mov.w     #0xcccd, w0
    1fba:	00 10 b8    	mul.uu    w2, w0, w0
    1fbc:	43 08 de    	lsr.w     w1, #0x3, w0
    1fbe:	6a 00 b9    	mul.su    w0, #0xa, w0
    1fc0:	00 00 78    	mov.w     w0, w0
    1fc2:	00 00 51    	sub.w     w2, w0, w0
    1fc4:	00 40 78    	mov.b     w0, w0
    1fc6:	80 41 eb    	clr.b     w3
    1fc8:	00 41 78    	mov.b     w0, w2
    1fca:	41 c0 b3    	mov.b     #0x4, w1
    1fcc:	60 80 20    	mov.w     #0x806, w0
    1fce:	6a fc 07    	rcall     0x18a4 <_sevseg_writeDigitNum> <.LFB12> <.LFE11>
    1fd0:	60 80 20    	mov.w     #0x806, w0
    1fd2:	2f fb 07    	rcall     0x1632 <_led_writeDisplay> <.LFB3> <.LFE2>
    1fd4:	00 80 fa    	ulnk      
    1fd6:	00 00 06    	return    

00001fd8 <_drawOnce>:
    1fd8:	00 00 fa    	lnk       #0x0
    1fda:	80 41 eb    	clr.b     w3
    1fdc:	12 c0 b3    	mov.b     #0x1, w2
    1fde:	80 40 eb    	clr.b     w1
    1fe0:	60 80 20    	mov.w     #0x806, w0
    1fe2:	60 fc 07    	rcall     0x18a4 <_sevseg_writeDigitNum> <.LFB12> <.LFE11>
    1fe4:	80 41 eb    	clr.b     w3
    1fe6:	22 c0 b3    	mov.b     #0x2, w2
    1fe8:	11 c0 b3    	mov.b     #0x1, w1
    1fea:	60 80 20    	mov.w     #0x806, w0
    1fec:	5b fc 07    	rcall     0x18a4 <_sevseg_writeDigitNum> <.LFB12> <.LFE11>
    1fee:	80 41 eb    	clr.b     w3
    1ff0:	32 c0 b3    	mov.b     #0x3, w2
    1ff2:	31 c0 b3    	mov.b     #0x3, w1
    1ff4:	60 80 20    	mov.w     #0x806, w0
    1ff6:	56 fc 07    	rcall     0x18a4 <_sevseg_writeDigitNum> <.LFB12> <.LFE11>
    1ff8:	80 41 eb    	clr.b     w3
    1ffa:	42 c0 b3    	mov.b     #0x4, w2
    1ffc:	41 c0 b3    	mov.b     #0x4, w1
    1ffe:	60 80 20    	mov.w     #0x806, w0
    2000:	51 fc 07    	rcall     0x18a4 <_sevseg_writeDigitNum> <.LFB12> <.LFE11>
    2002:	60 80 20    	mov.w     #0x806, w0
    2004:	16 fb 07    	rcall     0x1632 <_led_writeDisplay> <.LFB3> <.LFE2>
    2006:	00 80 fa    	ulnk      
    2008:	00 00 06    	return    

0000200a <_main>:
    200a:	00 00 fa    	lnk       #0x0
    200c:	25 00 07    	rcall     0x2058 <_init_elecanisms> <.L0> <.LFB0> <.LFE5> <.Letext0> <.Ltext0>
    200e:	00 10 20    	mov.w     #0x100, w0
    2010:	20 3a 88    	mov.w     w0, 0x744
    2012:	80 3e 20    	mov.w     #0x3e8, w0
    2014:	bb fd 07    	rcall     0x1b8c <_i2c_init> <.LFB1> <.LFE0>
    2016:	a0 5a 29    	mov.w     #0x95aa, w0
    2018:	10 40 78    	mov.b     [w0], w0
    201a:	80 40 78    	mov.b     w0, w1
    201c:	60 80 20    	mov.w     #0x806, w0
    201e:	c6 fa 07    	rcall     0x15ac <_led_begin> <.L0> <.LFB0> <.Ltext0>
    2020:	a0 00 20    	mov.w     #0xa, w0
    2022:	00 40 88    	mov.w     w0, 0x800
    2024:	d8 a2 a9    	bclr.b    0x2d8, #0x5
    2026:	d8 82 a9    	bclr.b    0x2d8, #0x4
    2028:	e8 82 a9    	bclr.b    0x2e8, #0x4
    202a:	e8 a2 a9    	bclr.b    0x2e8, #0x5
    202c:	c9 e2 a9    	bclr.b    0x2c9, #0x7
    202e:	e8 62 a9    	bclr.b    0x2e8, #0x3
    2030:	d9 02 a9    	bclr.b    0x2d9, #0x0
    2032:	d9 62 a9    	bclr.b    0x2d9, #0x3
    2034:	d9 42 a9    	bclr.b    0x2d9, #0x2
    2036:	db 02 a9    	bclr.b    0x2db, #0x0
    2038:	db 62 a9    	bclr.b    0x2db, #0x3
    203a:	d9 22 a8    	bset.b    0x2d9, #0x1
    203c:	74 c0 a8    	bset.b    0x74, #0x6
    203e:	db 42 a9    	bclr.b    0x2db, #0x2
    2040:	00 03 20    	mov.w     #0x30, w0
    2042:	20 08 88    	mov.w     w0, 0x104
    2044:	20 42 2f    	mov.w     #0xf422, w0
    2046:	10 08 88    	mov.w     w0, 0x102
    2048:	00 21 ef    	clr.w     0x100
    204a:	84 60 a9    	bclr.b    0x84, #0x3
    204c:	20 e0 21    	mov.w     #0x1e02, w0
    204e:	10 40 88    	mov.w     w0, 0x802
    2050:	04 28 ef    	clr.w     0x804

00002052 <.L18>:
    2052:	10 40 80    	mov.w     0x802, w0
    2054:	00 00 01    	call      w0
    2056:	fd ff 37    	bra       0x2052 <.L18>

00002058 <_init_elecanisms>:
*/

#include "elecanisms.h"

void init_elecanisms(void) {
    2058:	00 00 fa    	lnk       #0x0
    CLKDIV = 0x0100;        // RCDIV = 001 (4MHz, div2), 
    205a:	00 10 20    	mov.w     #0x100, w0
    205c:	20 3a 88    	mov.w     w0, 0x744
                            // CPDIV = 00 (FOSC = 32MHz, FCY = 16MHz)

    // Configure all pins on the digital headers to be inputs
    D0_DIR = IN;
    205e:	d8 a2 a8    	bset.b    0x2d8, #0x5
    D1_DIR = IN;
    2060:	d8 82 a8    	bset.b    0x2d8, #0x4
    D2_DIR = IN;
    2062:	e8 82 a8    	bset.b    0x2e8, #0x4
    D3_DIR = IN;
    2064:	e8 a2 a8    	bset.b    0x2e8, #0x5
    D4_DIR = IN;
    2066:	c9 e2 a8    	bset.b    0x2c9, #0x7
    D5_DIR = IN;
    2068:	e8 62 a8    	bset.b    0x2e8, #0x3
    D6_DIR = IN;
    206a:	d9 02 a8    	bset.b    0x2d9, #0x0
    D7_DIR = IN;
    206c:	d9 62 a8    	bset.b    0x2d9, #0x3
    D8_DIR = IN;
    206e:	d9 22 a8    	bset.b    0x2d9, #0x1
    D9_DIR = IN;
    2070:	d9 42 a8    	bset.b    0x2d9, #0x2
    D10_DIR = IN;
    2072:	d8 02 a8    	bset.b    0x2d8, #0x0
    D11_DIR = IN;
    2074:	d8 22 a8    	bset.b    0x2d8, #0x1
    D12_DIR = IN;
    2076:	d8 42 a8    	bset.b    0x2d8, #0x2
    D13_DIR = IN;
    2078:	d8 62 a8    	bset.b    0x2d8, #0x3

    // Configure all pins on the analog header to be inputs
    A0_DIR = IN;
    207a:	c8 a2 a8    	bset.b    0x2c8, #0x5
    A1_DIR = IN;
    207c:	c8 82 a8    	bset.b    0x2c8, #0x4
    A2_DIR = IN;
    207e:	c8 62 a8    	bset.b    0x2c8, #0x3
    A3_DIR = IN;
    2080:	c8 42 a8    	bset.b    0x2c8, #0x2
    A4_DIR = IN;
    2082:	c8 22 a8    	bset.b    0x2c8, #0x1
    A5_DIR = IN;
    2084:	c8 02 a8    	bset.b    0x2c8, #0x0

    // Make all pins digital I/Os except for A0,...,A5
    ANSB = 0x003F;
    2086:	f0 03 20    	mov.w     #0x3f, w0
    2088:	10 27 88    	mov.w     w0, 0x4e2
    ANSC = 0;
    208a:	e4 24 ef    	clr.w     0x4e4
    ANSD = 0;
    208c:	e6 24 ef    	clr.w     0x4e6
    ANSF = 0;
    208e:	ea 24 ef    	clr.w     0x4ea
    ANSG = 0;
    2090:	ec 24 ef    	clr.w     0x4ec

    // Configure and enable the ADC module: 
    //   set output data format to integer (FORM<1:0> = 0b00)
    //   set conversion trigger source select bits to internal counter 
    //     (SSRC<2:0> = 0b111)
    //   set auto-sample time bits to 12*TAD (SAMC<4:0> = 12)
    //   set conversion clock select bits to 64*TCY (ADCS<7:0> = 64)
    //   set initial channel selection to A0
    AD1CON1 = 0x00E0; 
    2092:	00 0e 20    	mov.w     #0xe0, w0
    2094:	00 19 88    	mov.w     w0, 0x320
    AD1CON2 = 0;
    2096:	22 23 ef    	clr.w     0x322
    AD1CON3 = 0x0C40;
    2098:	00 c4 20    	mov.w     #0xc40, w0
    209a:	20 19 88    	mov.w     w0, 0x324
    AD1CHS = A0_AN;
    209c:	50 00 20    	mov.w     #0x5, w0
    209e:	40 19 88    	mov.w     w0, 0x328
    AD1CON1bits.ADON = 1;
    20a0:	21 e3 a8    	bset.b    0x321, #0x7

    // Configure LED pins as outputs, set to low (off)
    LED1_DIR = OUT; LED1 = 0;
    20a2:	d8 e2 a9    	bclr.b    0x2d8, #0x7
    20a4:	dc e2 a9    	bclr.b    0x2dc, #0x7
    LED2_DIR = OUT; LED2 = 0;
    20a6:	e8 02 a9    	bclr.b    0x2e8, #0x0
    20a8:	ec 02 a9    	bclr.b    0x2ec, #0x0
    LED3_DIR = OUT; LED3 = 0;
    20aa:	e8 22 a9    	bclr.b    0x2e8, #0x1
    20ac:	ec 22 a9    	bclr.b    0x2ec, #0x1

    // Configure SW pins as inputs
    SW1_DIR = IN;
    20ae:	d1 e2 a8    	bset.b    0x2d1, #0x7
    SW2_DIR = IN;
    20b0:	d1 82 a8    	bset.b    0x2d1, #0x4
    SW3_DIR = IN;
    20b2:	c9 82 a8    	bset.b    0x2c9, #0x4
}
    20b4:	00 80 fa    	ulnk      
    20b6:	00 00 06    	return    

000020b8 <_read_analog>:

uint16_t read_analog(uint16_t pin_an) {
    20b8:	02 00 fa    	lnk       #0x2
    20ba:	00 0f 78    	mov.w     w0, [w14]
    AD1CHS = pin_an;
    20bc:	9e 00 78    	mov.w     [w14], w1
    20be:	41 19 88    	mov.w     w1, 0x328
    AD1CON1bits.SAMP = 1;
    20c0:	20 23 a8    	bset.b    0x320, #0x1
    while (AD1CON1bits.DONE == 0) {}
    20c2:	00 00 00    	nop       

000020c4 <.L3>:
    20c4:	00 19 80    	mov.w     0x320, w0
    20c6:	61 00 60    	and.w     w0, #0x1, w0
    20c8:	00 00 e0    	cp0.w     w0
    20ca:	fc ff 32    	bra       Z, 0x20c4 <.L3>
    return ADC1BUF0;
    20cc:	00 18 80    	mov.w     0x300, w0
}
    20ce:	00 80 fa    	ulnk      
    20d0:	00 00 06    	return    

000020d2 <_parity>:
    20d2:	02 00 fa    	lnk       #0x2
    20d4:	00 0f 78    	mov.w     w0, [w14]
    20d6:	1e 00 78    	mov.w     [w14], w0
    20d8:	48 00 de    	lsr.w     w0, #0x8, w0
    20da:	1e 0f 68    	xor.w     w0, [w14], [w14]
    20dc:	1e 00 78    	mov.w     [w14], w0
    20de:	44 00 de    	lsr.w     w0, #0x4, w0
    20e0:	1e 0f 68    	xor.w     w0, [w14], [w14]
    20e2:	1e 00 78    	mov.w     [w14], w0
    20e4:	42 00 de    	lsr.w     w0, #0x2, w0
    20e6:	1e 0f 68    	xor.w     w0, [w14], [w14]
    20e8:	1e 00 78    	mov.w     [w14], w0
    20ea:	00 00 d1    	lsr.w     w0, w0
    20ec:	1e 0f 68    	xor.w     w0, [w14], [w14]
    20ee:	1e 00 78    	mov.w     [w14], w0
    20f0:	00 40 78    	mov.b     w0, w0
    20f2:	61 40 60    	and.b     w0, #0x1, w0
    20f4:	00 80 fa    	ulnk      
    20f6:	00 00 06    	return    
Disassembly of section .dinit:

000020f8 <.dinit>:
    20f8:	06 08 00    	nop       
    20fa:	14 00 00    	nop       
    20fc:	80 00 00    	nop       
    20fe:	00 08 00    	nop       
    2100:	06 00 00    	nop       
    2102:	80 00 00    	nop       
    2104:	00 00 00    	nop       
Disassembly of section .isr:

00002106 <__DefaultInterrupt>:
    2106:	00 40 da    	break     
    2108:	00 00 fe    	reset     
