
codeword.elf:     file format elf32-pic30

Disassembly of section .aivt._AltADC1Interrupt:

0000012e <.aivt._AltADC1Interrupt>:
 12e:	08 2b 00    	nop       
Disassembly of section .aivt._AltAddressError:

00000108 <.aivt._AltAddressError>:
 108:	08 2b 00    	nop       
Disassembly of section .aivt._AltCNInterrupt:

0000013a <.aivt._AltCNInterrupt>:
 13a:	08 2b 00    	nop       
Disassembly of section .aivt._AltCRCInterrupt:

0000019a <.aivt._AltCRCInterrupt>:
 19a:	08 2b 00    	nop       
Disassembly of section .aivt._AltCTMUInterrupt:

000001ae <.aivt._AltCTMUInterrupt>:
 1ae:	08 2b 00    	nop       
Disassembly of section .aivt._AltCompInterrupt:

00000138 <.aivt._AltCompInterrupt>:
 138:	08 2b 00    	nop       
Disassembly of section .aivt._AltIC1Interrupt:

00000116 <.aivt._AltIC1Interrupt>:
 116:	08 2b 00    	nop       
Disassembly of section .aivt._AltIC2Interrupt:

0000011e <.aivt._AltIC2Interrupt>:
 11e:	08 2b 00    	nop       
Disassembly of section .aivt._AltIC3Interrupt:

0000015e <.aivt._AltIC3Interrupt>:
 15e:	08 2b 00    	nop       
Disassembly of section .aivt._AltIC4Interrupt:

00000160 <.aivt._AltIC4Interrupt>:
 160:	08 2b 00    	nop       
Disassembly of section .aivt._AltIC5Interrupt:

00000162 <.aivt._AltIC5Interrupt>:
 162:	08 2b 00    	nop       
Disassembly of section .aivt._AltIC6Interrupt:

00000164 <.aivt._AltIC6Interrupt>:
 164:	08 2b 00    	nop       
Disassembly of section .aivt._AltIC7Interrupt:

00000140 <.aivt._AltIC7Interrupt>:
 140:	08 2b 00    	nop       
Disassembly of section .aivt._AltIC8Interrupt:

00000142 <.aivt._AltIC8Interrupt>:
 142:	08 2b 00    	nop       
Disassembly of section .aivt._AltIC9Interrupt:

000001ce <.aivt._AltIC9Interrupt>:
 1ce:	08 2b 00    	nop       
Disassembly of section .aivt._AltINT0Interrupt:

00000114 <.aivt._AltINT0Interrupt>:
 114:	08 2b 00    	nop       
Disassembly of section .aivt._AltINT1Interrupt:

0000013c <.aivt._AltINT1Interrupt>:
 13c:	08 2b 00    	nop       
Disassembly of section .aivt._AltINT2Interrupt:

0000014e <.aivt._AltINT2Interrupt>:
 14e:	08 2b 00    	nop       
Disassembly of section .aivt._AltINT3Interrupt:

0000017e <.aivt._AltINT3Interrupt>:
 17e:	08 2b 00    	nop       
Disassembly of section .aivt._AltINT4Interrupt:

00000180 <.aivt._AltINT4Interrupt>:
 180:	08 2b 00    	nop       
Disassembly of section .aivt._AltInterrupt14:

00000130 <.aivt._AltInterrupt14>:
 130:	08 2b 00    	nop       
Disassembly of section .aivt._AltInterrupt15:

00000132 <.aivt._AltInterrupt15>:
 132:	08 2b 00    	nop       
Disassembly of section .aivt._AltInterrupt21:

0000013e <.aivt._AltInterrupt21>:
 13e:	08 2b 00    	nop       
Disassembly of section .aivt._AltInterrupt24:

00000144 <.aivt._AltInterrupt24>:
 144:	08 2b 00    	nop       
Disassembly of section .aivt._AltInterrupt34:

00000158 <.aivt._AltInterrupt34>:
 158:	08 2b 00    	nop       
Disassembly of section .aivt._AltInterrupt35:

0000015a <.aivt._AltInterrupt35>:
 15a:	08 2b 00    	nop       
Disassembly of section .aivt._AltInterrupt36:

0000015c <.aivt._AltInterrupt36>:
 15c:	08 2b 00    	nop       
Disassembly of section .aivt._AltInterrupt4:

0000011c <.aivt._AltInterrupt4>:
 11c:	08 2b 00    	nop       
Disassembly of section .aivt._AltInterrupt46:

00000170 <.aivt._AltInterrupt46>:
 170:	08 2b 00    	nop       
Disassembly of section .aivt._AltInterrupt47:

00000172 <.aivt._AltInterrupt47>:
 172:	08 2b 00    	nop       
Disassembly of section .aivt._AltInterrupt48:

00000174 <.aivt._AltInterrupt48>:
 174:	08 2b 00    	nop       
Disassembly of section .aivt._AltInterrupt51:

0000017a <.aivt._AltInterrupt51>:
 17a:	08 2b 00    	nop       
Disassembly of section .aivt._AltInterrupt52:

0000017c <.aivt._AltInterrupt52>:
 17c:	08 2b 00    	nop       
Disassembly of section .aivt._AltInterrupt55:

00000182 <.aivt._AltInterrupt55>:
 182:	08 2b 00    	nop       
Disassembly of section .aivt._AltInterrupt56:

00000184 <.aivt._AltInterrupt56>:
 184:	08 2b 00    	nop       
Disassembly of section .aivt._AltInterrupt57:

00000186 <.aivt._AltInterrupt57>:
 186:	08 2b 00    	nop       
Disassembly of section .aivt._AltInterrupt58:

00000188 <.aivt._AltInterrupt58>:
 188:	08 2b 00    	nop       
Disassembly of section .aivt._AltInterrupt59:

0000018a <.aivt._AltInterrupt59>:
 18a:	08 2b 00    	nop       
Disassembly of section .aivt._AltInterrupt60:

0000018c <.aivt._AltInterrupt60>:
 18c:	08 2b 00    	nop       
Disassembly of section .aivt._AltInterrupt61:

0000018e <.aivt._AltInterrupt61>:
 18e:	08 2b 00    	nop       
Disassembly of section .aivt._AltInterrupt63:

00000192 <.aivt._AltInterrupt63>:
 192:	08 2b 00    	nop       
Disassembly of section .aivt._AltInterrupt64:

00000194 <.aivt._AltInterrupt64>:
 194:	08 2b 00    	nop       
Disassembly of section .aivt._AltInterrupt68:

0000019c <.aivt._AltInterrupt68>:
 19c:	08 2b 00    	nop       
Disassembly of section .aivt._AltInterrupt69:

0000019e <.aivt._AltInterrupt69>:
 19e:	08 2b 00    	nop       
Disassembly of section .aivt._AltInterrupt70:

000001a0 <.aivt._AltInterrupt70>:
 1a0:	08 2b 00    	nop       
Disassembly of section .aivt._AltInterrupt71:

000001a2 <.aivt._AltInterrupt71>:
 1a2:	08 2b 00    	nop       
Disassembly of section .aivt._AltInterrupt73:

000001a6 <.aivt._AltInterrupt73>:
 1a6:	08 2b 00    	nop       
Disassembly of section .aivt._AltInterrupt74:

000001a8 <.aivt._AltInterrupt74>:
 1a8:	08 2b 00    	nop       
Disassembly of section .aivt._AltInterrupt75:

000001aa <.aivt._AltInterrupt75>:
 1aa:	08 2b 00    	nop       
Disassembly of section .aivt._AltInterrupt76:

000001ac <.aivt._AltInterrupt76>:
 1ac:	08 2b 00    	nop       
Disassembly of section .aivt._AltInterrupt78:

000001b0 <.aivt._AltInterrupt78>:
 1b0:	08 2b 00    	nop       
Disassembly of section .aivt._AltInterrupt79:

000001b2 <.aivt._AltInterrupt79>:
 1b2:	08 2b 00    	nop       
Disassembly of section .aivt._AltInterrupt80:

000001b4 <.aivt._AltInterrupt80>:
 1b4:	08 2b 00    	nop       
Disassembly of section .aivt._AltLVDInterrupt:

000001a4 <.aivt._AltLVDInterrupt>:
 1a4:	08 2b 00    	nop       
Disassembly of section .aivt._AltMI2C1Interrupt:

00000136 <.aivt._AltMI2C1Interrupt>:
 136:	08 2b 00    	nop       
Disassembly of section .aivt._AltMI2C2Interrupt:

00000178 <.aivt._AltMI2C2Interrupt>:
 178:	08 2b 00    	nop       
Disassembly of section .aivt._AltMI2C3Interrupt:

000001be <.aivt._AltMI2C3Interrupt>:
 1be:	08 2b 00    	nop       
Disassembly of section .aivt._AltMathError:

0000010c <.aivt._AltMathError>:
 10c:	08 2b 00    	nop       
Disassembly of section .aivt._AltOC1Interrupt:

00000118 <.aivt._AltOC1Interrupt>:
 118:	08 2b 00    	nop       
Disassembly of section .aivt._AltOC2Interrupt:

00000120 <.aivt._AltOC2Interrupt>:
 120:	08 2b 00    	nop       
Disassembly of section .aivt._AltOC3Interrupt:

00000146 <.aivt._AltOC3Interrupt>:
 146:	08 2b 00    	nop       
Disassembly of section .aivt._AltOC4Interrupt:

00000148 <.aivt._AltOC4Interrupt>:
 148:	08 2b 00    	nop       
Disassembly of section .aivt._AltOC5Interrupt:

00000166 <.aivt._AltOC5Interrupt>:
 166:	08 2b 00    	nop       
Disassembly of section .aivt._AltOC6Interrupt:

00000168 <.aivt._AltOC6Interrupt>:
 168:	08 2b 00    	nop       
Disassembly of section .aivt._AltOC7Interrupt:

0000016a <.aivt._AltOC7Interrupt>:
 16a:	08 2b 00    	nop       
Disassembly of section .aivt._AltOC8Interrupt:

0000016c <.aivt._AltOC8Interrupt>:
 16c:	08 2b 00    	nop       
Disassembly of section .aivt._AltOC9Interrupt:

000001cc <.aivt._AltOC9Interrupt>:
 1cc:	08 2b 00    	nop       
Disassembly of section .aivt._AltOscillatorFail:

00000106 <.aivt._AltOscillatorFail>:
 106:	08 2b 00    	nop       
Disassembly of section .aivt._AltPMPInterrupt:

0000016e <.aivt._AltPMPInterrupt>:
 16e:	08 2b 00    	nop       
Disassembly of section .aivt._AltRTCCInterrupt:

00000190 <.aivt._AltRTCCInterrupt>:
 190:	08 2b 00    	nop       
Disassembly of section .aivt._AltReservedTrap0:

00000104 <.aivt._AltReservedTrap0>:
 104:	08 2b 00    	nop       
Disassembly of section .aivt._AltReservedTrap5:

0000010e <.aivt._AltReservedTrap5>:
 10e:	08 2b 00    	nop       
Disassembly of section .aivt._AltReservedTrap6:

00000110 <.aivt._AltReservedTrap6>:
 110:	08 2b 00    	nop       
Disassembly of section .aivt._AltReservedTrap7:

00000112 <.aivt._AltReservedTrap7>:
 112:	08 2b 00    	nop       
Disassembly of section .aivt._AltSI2C1Interrupt:

00000134 <.aivt._AltSI2C1Interrupt>:
 134:	08 2b 00    	nop       
Disassembly of section .aivt._AltSI2C2Interrupt:

00000176 <.aivt._AltSI2C2Interrupt>:
 176:	08 2b 00    	nop       
Disassembly of section .aivt._AltSI2C3Interrupt:

000001bc <.aivt._AltSI2C3Interrupt>:
 1bc:	08 2b 00    	nop       
Disassembly of section .aivt._AltSPI1ErrInterrupt:

00000126 <.aivt._AltSPI1ErrInterrupt>:
 126:	08 2b 00    	nop       
Disassembly of section .aivt._AltSPI1Interrupt:

00000128 <.aivt._AltSPI1Interrupt>:
 128:	08 2b 00    	nop       
Disassembly of section .aivt._AltSPI2ErrInterrupt:

00000154 <.aivt._AltSPI2ErrInterrupt>:
 154:	08 2b 00    	nop       
Disassembly of section .aivt._AltSPI2Interrupt:

00000156 <.aivt._AltSPI2Interrupt>:
 156:	08 2b 00    	nop       
Disassembly of section .aivt._AltSPI3ErrInterrupt:

000001c8 <.aivt._AltSPI3ErrInterrupt>:
 1c8:	08 2b 00    	nop       
Disassembly of section .aivt._AltSPI3Interrupt:

000001ca <.aivt._AltSPI3Interrupt>:
 1ca:	08 2b 00    	nop       
Disassembly of section .aivt._AltStackError:

0000010a <.aivt._AltStackError>:
 10a:	08 2b 00    	nop       
Disassembly of section .aivt._AltT1Interrupt:

0000011a <.aivt._AltT1Interrupt>:
 11a:	08 2b 00    	nop       
Disassembly of section .aivt._AltT2Interrupt:

00000122 <.aivt._AltT2Interrupt>:
 122:	08 2b 00    	nop       
Disassembly of section .aivt._AltT3Interrupt:

00000124 <.aivt._AltT3Interrupt>:
 124:	08 2b 00    	nop       
Disassembly of section .aivt._AltT4Interrupt:

0000014a <.aivt._AltT4Interrupt>:
 14a:	08 2b 00    	nop       
Disassembly of section .aivt._AltT5Interrupt:

0000014c <.aivt._AltT5Interrupt>:
 14c:	08 2b 00    	nop       
Disassembly of section .aivt._AltU1ErrInterrupt:

00000196 <.aivt._AltU1ErrInterrupt>:
 196:	08 2b 00    	nop       
Disassembly of section .aivt._AltU1RXInterrupt:

0000012a <.aivt._AltU1RXInterrupt>:
 12a:	08 2b 00    	nop       
Disassembly of section .aivt._AltU1TXInterrupt:

0000012c <.aivt._AltU1TXInterrupt>:
 12c:	08 2b 00    	nop       
Disassembly of section .aivt._AltU2ErrInterrupt:

00000198 <.aivt._AltU2ErrInterrupt>:
 198:	08 2b 00    	nop       
Disassembly of section .aivt._AltU2RXInterrupt:

00000150 <.aivt._AltU2RXInterrupt>:
 150:	08 2b 00    	nop       
Disassembly of section .aivt._AltU2TXInterrupt:

00000152 <.aivt._AltU2TXInterrupt>:
 152:	08 2b 00    	nop       
Disassembly of section .aivt._AltU3ErrInterrupt:

000001b6 <.aivt._AltU3ErrInterrupt>:
 1b6:	08 2b 00    	nop       
Disassembly of section .aivt._AltU3RXInterrupt:

000001b8 <.aivt._AltU3RXInterrupt>:
 1b8:	08 2b 00    	nop       
Disassembly of section .aivt._AltU3TXInterrupt:

000001ba <.aivt._AltU3TXInterrupt>:
 1ba:	08 2b 00    	nop       
Disassembly of section .aivt._AltU4ErrInterrupt:

000001c2 <.aivt._AltU4ErrInterrupt>:
 1c2:	08 2b 00    	nop       
Disassembly of section .aivt._AltU4RXInterrupt:

000001c4 <.aivt._AltU4RXInterrupt>:
 1c4:	08 2b 00    	nop       
Disassembly of section .aivt._AltU4TXInterrupt:

000001c6 <.aivt._AltU4TXInterrupt>:
 1c6:	08 2b 00    	nop       
Disassembly of section .aivt._AltUSB1Interrupt:

000001c0 <.aivt._AltUSB1Interrupt>:
 1c0:	08 2b 00    	nop       
Disassembly of section .reset:

00000000 <.reset>:
   0:	10 11 04    	goto      0x1110 <__reset>
   2:	00 00 00 
Disassembly of section .text:

00001110 <__reset>:
    1110:	6f 05 21    	mov.w     #0x1056, w15
    1112:	0e ff 27    	mov.w     #0x7ff0, w14
    1114:	0e 01 88    	mov.w     w14, 0x20
    1116:	00 00 00    	nop       
    1118:	00 00 20    	mov.w     #0x0, w0
    111a:	00 00 e0    	cp0.w     w0
    111c:	02 00 32    	bra       Z, 0x1122 <CORCON_RESET>
    111e:	00 01 20    	mov.w     #0x10, w0
    1120:	20 02 88    	mov.w     w0, 0x44

00001122 <CORCON_RESET>:
    1122:	14 00 07    	rcall     0x114c <__psv_init>
    1124:	81 00 07    	rcall     0x1228 <__crt_start_mode> <__crt_start_mode_normal>
    1126:	00 00 e0    	cp0.w     w0
    1128:	03 00 3a    	bra       NZ, 0x1130 <L11>
    112a:	20 ae 22    	mov.w     #0x2ae2, w0
    112c:	01 00 20    	mov.w     #0x0, w1
    112e:	02 00 37    	bra       0x1134 <L21>

00001130 <L11>:
    1130:	00 00 20    	mov.w     #0x0, w0
    1132:	01 00 20    	mov.w     #0x0, w1

00001134 <L21>:
    1134:	81 0f 70    	ior.w     w0, w1, [w15]
    1136:	01 00 32    	bra       Z, 0x113a <L12>
    1138:	14 00 07    	rcall     0x1162 <__data_init> <__data_init_da>

0000113a <L12>:
    113a:	00 00 20    	mov.w     #0x0, w0
    113c:	00 00 e0    	cp0.w     w0
    113e:	02 00 32    	bra       Z, 0x1144 <L13>
    1140:	00 00 02    	call      0x0 <__DEFAULT_VECTOR-0x110c>
    1142:	00 00 00 

00001144 <L13>:
    1144:	d4 15 02    	call      0x15d4 <_main>
    1146:	00 00 00 
    1148:	00 40 da    	break     
    114a:	00 00 fe    	reset     

0000114c <__psv_init>:
    114c:	44 40 a9    	bclr.b    0x44, #0x2
    114e:	a0 3a 20    	mov.w     #0x3aa, w0
    1150:	00 00 e0    	cp0.w     w0
    1152:	03 00 32    	bra       Z, 0x115a <L14>
    1154:	00 20 20    	mov.w     #0x200, w0
    1156:	90 01 88    	mov.w     w0, 0x32
    1158:	44 40 a8    	bset.b    0x44, #0x2

0000115a <L14>:
    115a:	00 00 06    	return    

0000115c <__long_indirect_call>:
    115c:	8a 1f 78    	mov.w     w10, [w15++]
    115e:	8b 1f 78    	mov.w     w11, [w15++]
    1160:	00 00 06    	return    

00001162 <__data_init>:
    1162:	a1 02 88    	mov.w     w1, 0x54
    1164:	80 04 78    	mov.w     w0, w9
    1166:	00 00 eb    	clr.w     w0
    1168:	1f 00 37    	bra       0x11a8 <L41>

0000116a <L11>:
    116a:	e2 84 44    	add.w     w9, #0x2, w9
    116c:	54 a0 b4    	addc.w    0x54
    116e:	99 05 ba    	tblrdl.w  [w9], w11
    1170:	e2 84 44    	add.w     w9, #0x2, w9
    1172:	54 a0 b4    	addc.w    0x54
    1174:	99 06 ba    	tblrdl.w  [w9], w13
    1176:	e2 84 44    	add.w     w9, #0x2, w9
    1178:	54 a0 b4    	addc.w    0x54
    117a:	00 06 eb    	clr.w     w12
    117c:	47 6f de    	lsr.w     w13, #0x7, w14
    117e:	fd 07 b2    	and.w     #0x7f, w13
    1180:	ae 01 88    	mov.w     w14, 0x34
    1182:	63 6c e1    	cp.b      w13, #0x3
    1184:	03 00 3a    	bra       NZ, 0x118c <L21>
    1186:	ea ff 07    	rcall     0x115c <__long_indirect_call>
    1188:	00 00 eb    	clr.w     w0
    118a:	0e 00 37    	bra       0x11a8 <L41>

0000118c <L21>:
    118c:	60 6c e1    	cp.b      w13, #0x0
    118e:	08 00 3a    	bra       NZ, 0x11a0 <L22>

00001190 <L91>:
    1190:	00 4d eb    	clr.b     [w10]
    1192:	0a 05 e8    	inc.w     w10, w10
    1194:	02 00 39    	bra       NC, 0x119a <L81>
    1196:	34 20 ec    	inc.w     0x34
    1198:	0a f0 a0    	bset.w    w10, #0xf

0000119a <L81>:
    119a:	8b 05 e9    	dec.w     w11, w11
    119c:	f9 ff 3e    	bra       GTU, 0x1190 <L91>
    119e:	04 00 37    	bra       0x11a8 <L41>

000011a0 <L22>:
    11a0:	61 68 e1    	cp.w      w13, #0x1
    11a2:	01 00 32    	bra       Z, 0x11a6 <L31>
    11a4:	00 86 eb    	setm.w    w12

000011a6 <L31>:
    11a6:	0b 00 07    	rcall     0x11be <L13> <__memcpyd3extended>

000011a8 <L41>:
    11a8:	19 c7 ba    	tblrdh.b  [w9], w14
    11aa:	19 05 ba    	tblrdl.w  [w9], w10
    11ac:	0e 04 e0    	cp0.b     w14
    11ae:	03 00 3a    	bra       NZ, 0x11b6 <L12>
    11b0:	0a 00 e0    	cp0.w     w10
    11b2:	db ff 3a    	bra       NZ, 0x116a <L11>
    11b4:	00 00 06    	return    

000011b6 <L12>:
    11b6:	fe 07 b2    	and.w     #0x7f, w14
    11b8:	ae 02 88    	mov.w     w14, 0x54
    11ba:	8a 04 78    	mov.w     w10, w9
    11bc:	f5 ff 37    	bra       0x11a8 <L41>

000011be <L13>:
    11be:	0c d0 a3    	btst.c    w12, #0xd
    11c0:	e2 0f 4d    	addc.w    w10, #0x2, [w15]
    11c2:	1c 00 39    	bra       NC, 0x11fc <L23>
    11c4:	89 02 78    	mov.w     w9, w5
    11c6:	35 4d ba    	tblrdl.b  [w5++], [w10]
    11c8:	0a 05 e8    	inc.w     w10, w10
    11ca:	02 00 39    	bra       NC, 0x11d0 <L32>
    11cc:	34 20 ec    	inc.w     0x34
    11ce:	0a f0 a0    	bset.w    w10, #0xf

000011d0 <L32>:
    11d0:	8b 05 e9    	dec.w     w11, w11
    11d2:	0f 00 32    	bra       Z, 0x11f2 <L42>
    11d4:	25 4d ba    	tblrdl.b  [w5--], [w10]
    11d6:	0a 05 e8    	inc.w     w10, w10
    11d8:	02 00 39    	bra       NC, 0x11de <L33>
    11da:	34 20 ec    	inc.w     0x34
    11dc:	0a f0 a0    	bset.w    w10, #0xf

000011de <L33>:
    11de:	8b 05 e9    	dec.w     w11, w11
    11e0:	08 00 32    	bra       Z, 0x11f2 <L42>
    11e2:	0c 00 e0    	cp0.w     w12
    11e4:	06 00 32    	bra       Z, 0x11f2 <L42>
    11e6:	15 cd ba    	tblrdh.b  [w5], [w10]
    11e8:	0a 05 e8    	inc.w     w10, w10
    11ea:	02 00 39    	bra       NC, 0x11f0 <L34>
    11ec:	34 20 ec    	inc.w     0x34
    11ee:	0a f0 a0    	bset.w    w10, #0xf

000011f0 <L34>:
    11f0:	8b 05 e9    	dec.w     w11, w11

000011f2 <L42>:
    11f2:	89 84 e8    	inc2.w    w9, w9
    11f4:	54 a0 b4    	addc.w    0x54
    11f6:	0b 00 e0    	cp0.w     w11
    11f8:	e2 ff 3a    	bra       NZ, 0x11be <L13> <__memcpyd3extended>
    11fa:	00 00 06    	return    

000011fc <L23>:
    11fc:	99 02 ba    	tblrdl.w  [w9], w5
    11fe:	05 5d 78    	mov.b     w5, [w10++]
    1200:	8b 05 e9    	dec.w     w11, w11
    1202:	f7 ff 32    	bra       Z, 0x11f2 <L42>
    1204:	c8 2a de    	lsr.w     w5, #0x8, w5
    1206:	05 5d 78    	mov.b     w5, [w10++]
    1208:	8b 05 e9    	dec.w     w11, w11
    120a:	f3 ff 32    	bra       Z, 0x11f2 <L42>
    120c:	0c 00 e0    	cp0.w     w12
    120e:	f1 ff 32    	bra       Z, 0x11f2 <L42>
    1210:	19 dd ba    	tblrdh.b  [w9], [w10++]
    1212:	ee ff 37    	bra       0x11f0 <L34>

00001214 <.handle>:
    1214:	56 18 04    	goto      0x1856 <_setup>
    1216:	00 00 00 
    1218:	90 18 04    	goto      0x1890 <_run>
    121a:	00 00 00 
    121c:	60 19 04    	goto      0x1960 <_solved>
    121e:	00 00 00 
    1220:	ae 19 04    	goto      0x19ae <_end_win>
    1222:	00 00 00 
    1224:	04 1a 04    	goto      0x1a04 <_end_fail>
    1226:	00 00 00 

00001228 <__crt_start_mode>:
    1228:	00 00 05    	retlw.w   #0x0, w0
Disassembly of section .application_ivt:

00001000 <__DEFAULT_VECTOR-0x10c>:
    1000:	10 11 04    	goto      0x1110 <__reset>
    1002:	00 00 00 
    1004:	08 2b 04    	goto      0x2b08 <__DefaultInterrupt>
    1006:	00 00 00 
    1008:	08 2b 04    	goto      0x2b08 <__DefaultInterrupt>
    100a:	00 00 00 
    100c:	08 2b 04    	goto      0x2b08 <__DefaultInterrupt>
    100e:	00 00 00 
    1010:	08 2b 04    	goto      0x2b08 <__DefaultInterrupt>
    1012:	00 00 00 
    1014:	08 2b 04    	goto      0x2b08 <__DefaultInterrupt>
    1016:	00 00 00 
    1018:	08 2b 04    	goto      0x2b08 <__DefaultInterrupt>
    101a:	00 00 00 
    101c:	08 2b 04    	goto      0x2b08 <__DefaultInterrupt>
    101e:	00 00 00 
    1020:	08 2b 04    	goto      0x2b08 <__DefaultInterrupt>
    1022:	00 00 00 
    1024:	08 2b 04    	goto      0x2b08 <__DefaultInterrupt>
    1026:	00 00 00 
    1028:	08 2b 04    	goto      0x2b08 <__DefaultInterrupt>
    102a:	00 00 00 
    102c:	08 2b 04    	goto      0x2b08 <__DefaultInterrupt>
    102e:	00 00 00 
    1030:	66 27 04    	goto      0x2766 <__T2Interrupt>
    1032:	00 00 00 
    1034:	08 2b 04    	goto      0x2b08 <__DefaultInterrupt>
    1036:	00 00 00 
    1038:	08 2b 04    	goto      0x2b08 <__DefaultInterrupt>
    103a:	00 00 00 
    103c:	08 2b 04    	goto      0x2b08 <__DefaultInterrupt>
    103e:	00 00 00 
    1040:	ec 29 04    	goto      0x29ec <__U1RXInterrupt>
    1042:	00 00 00 
    1044:	8a 29 04    	goto      0x298a <__U1TXInterrupt>
    1046:	00 00 00 
    1048:	08 2b 04    	goto      0x2b08 <__DefaultInterrupt>
    104a:	00 00 00 
    104c:	08 2b 04    	goto      0x2b08 <__DefaultInterrupt>
    104e:	00 00 00 
    1050:	08 2b 04    	goto      0x2b08 <__DefaultInterrupt>
    1052:	00 00 00 
    1054:	08 2b 04    	goto      0x2b08 <__DefaultInterrupt>
    1056:	00 00 00 
    1058:	42 27 04    	goto      0x2742 <__CNInterrupt>
    105a:	00 00 00 
    105c:	08 2b 04    	goto      0x2b08 <__DefaultInterrupt>
    105e:	00 00 00 
    1060:	08 2b 04    	goto      0x2b08 <__DefaultInterrupt>
    1062:	00 00 00 
    1064:	08 2b 04    	goto      0x2b08 <__DefaultInterrupt>
    1066:	00 00 00 
    1068:	08 2b 04    	goto      0x2b08 <__DefaultInterrupt>
    106a:	00 00 00 
    106c:	08 2b 04    	goto      0x2b08 <__DefaultInterrupt>
    106e:	00 00 00 
    1070:	08 2b 04    	goto      0x2b08 <__DefaultInterrupt>
    1072:	00 00 00 
    1074:	08 2b 04    	goto      0x2b08 <__DefaultInterrupt>
    1076:	00 00 00 
    1078:	08 2b 04    	goto      0x2b08 <__DefaultInterrupt>
    107a:	00 00 00 
    107c:	08 2b 04    	goto      0x2b08 <__DefaultInterrupt>
    107e:	00 00 00 
    1080:	08 2b 04    	goto      0x2b08 <__DefaultInterrupt>
    1082:	00 00 00 
    1084:	08 2b 04    	goto      0x2b08 <__DefaultInterrupt>
    1086:	00 00 00 
    1088:	08 2b 04    	goto      0x2b08 <__DefaultInterrupt>
    108a:	00 00 00 
    108c:	08 2b 04    	goto      0x2b08 <__DefaultInterrupt>
    108e:	00 00 00 
    1090:	08 2b 04    	goto      0x2b08 <__DefaultInterrupt>
    1092:	00 00 00 
    1094:	08 2b 04    	goto      0x2b08 <__DefaultInterrupt>
    1096:	00 00 00 
    1098:	08 2b 04    	goto      0x2b08 <__DefaultInterrupt>
    109a:	00 00 00 
    109c:	08 2b 04    	goto      0x2b08 <__DefaultInterrupt>
    109e:	00 00 00 
    10a0:	08 2b 04    	goto      0x2b08 <__DefaultInterrupt>
    10a2:	00 00 00 
    10a4:	08 2b 04    	goto      0x2b08 <__DefaultInterrupt>
    10a6:	00 00 00 
    10a8:	08 2b 04    	goto      0x2b08 <__DefaultInterrupt>
    10aa:	00 00 00 
    10ac:	08 2b 04    	goto      0x2b08 <__DefaultInterrupt>
    10ae:	00 00 00 
    10b0:	ba 28 04    	goto      0x28ba <__SI2C2Interrupt>
    10b2:	00 00 00 
    10b4:	08 2b 04    	goto      0x2b08 <__DefaultInterrupt>
    10b6:	00 00 00 
    10b8:	08 2b 04    	goto      0x2b08 <__DefaultInterrupt>
    10ba:	00 00 00 
    10bc:	08 2b 04    	goto      0x2b08 <__DefaultInterrupt>
    10be:	00 00 00 
    10c0:	08 2b 04    	goto      0x2b08 <__DefaultInterrupt>
    10c2:	00 00 00 
    10c4:	08 2b 04    	goto      0x2b08 <__DefaultInterrupt>
    10c6:	00 00 00 
    10c8:	08 2b 04    	goto      0x2b08 <__DefaultInterrupt>
    10ca:	00 00 00 
    10cc:	08 2b 04    	goto      0x2b08 <__DefaultInterrupt>
    10ce:	00 00 00 
    10d0:	08 2b 04    	goto      0x2b08 <__DefaultInterrupt>
    10d2:	00 00 00 
    10d4:	08 2b 04    	goto      0x2b08 <__DefaultInterrupt>
    10d6:	00 00 00 
    10d8:	08 2b 04    	goto      0x2b08 <__DefaultInterrupt>
    10da:	00 00 00 
    10dc:	08 2b 04    	goto      0x2b08 <__DefaultInterrupt>
    10de:	00 00 00 
    10e0:	08 2b 04    	goto      0x2b08 <__DefaultInterrupt>
    10e2:	00 00 00 
    10e4:	08 2b 04    	goto      0x2b08 <__DefaultInterrupt>
    10e6:	00 00 00 
    10e8:	08 2b 04    	goto      0x2b08 <__DefaultInterrupt>
    10ea:	00 00 00 
    10ec:	08 2b 04    	goto      0x2b08 <__DefaultInterrupt>
    10ee:	00 00 00 
    10f0:	08 2b 04    	goto      0x2b08 <__DefaultInterrupt>
    10f2:	00 00 00 
    10f4:	08 2b 04    	goto      0x2b08 <__DefaultInterrupt>
    10f6:	00 00 00 
    10f8:	08 2b 04    	goto      0x2b08 <__DefaultInterrupt>
    10fa:	00 00 00 
    10fc:	08 2b 04    	goto      0x2b08 <__DefaultInterrupt>
    10fe:	00 00 00 
    1100:	08 2b 04    	goto      0x2b08 <__DefaultInterrupt>
    1102:	00 00 00 
    1104:	08 2b 04    	goto      0x2b08 <__DefaultInterrupt>
    1106:	00 00 00 
    1108:	08 2b 04    	goto      0x2b08 <__DefaultInterrupt>
    110a:	00 00 00 

0000110c <__DEFAULT_VECTOR>:
    110c:	08 2b 04    	goto      0x2b08 <__DefaultInterrupt>
    110e:	00 00 00 
Disassembly of section .ivt:

00000004 <.ivt>:
   4:	04 10 00    	nop       
   6:	08 10 00    	nop       
   8:	0c 10 00    	nop       
   a:	10 10 00    	nop       
   c:	14 10 00    	nop       
   e:	0c 11 00    	nop       
  10:	0c 11 00    	nop       
  12:	0c 11 00    	nop       
  14:	18 10 00    	nop       
  16:	1c 10 00    	nop       
  18:	20 10 00    	nop       
  1a:	24 10 00    	nop       
  1c:	0c 11 00    	nop       
  1e:	28 10 00    	nop       
  20:	2c 10 00    	nop       
  22:	30 10 00    	nop       
  24:	34 10 00    	nop       
  26:	38 10 00    	nop       
  28:	3c 10 00    	nop       
  2a:	40 10 00    	nop       
  2c:	44 10 00    	nop       
  2e:	48 10 00    	nop       
  30:	0c 11 00    	nop       
  32:	0c 11 00    	nop       
  34:	4c 10 00    	nop       
  36:	50 10 00    	nop       
  38:	54 10 00    	nop       
  3a:	58 10 00    	nop       
  3c:	5c 10 00    	nop       
  3e:	0c 11 00    	nop       
  40:	60 10 00    	nop       
  42:	64 10 00    	nop       
  44:	0c 11 00    	nop       
  46:	68 10 00    	nop       
  48:	6c 10 00    	nop       
  4a:	70 10 00    	nop       
  4c:	74 10 00    	nop       
  4e:	78 10 00    	nop       
  50:	7c 10 00    	nop       
  52:	80 10 00    	nop       
  54:	84 10 00    	nop       
  56:	88 10 00    	nop       
  58:	0c 11 00    	nop       
  5a:	0c 11 00    	nop       
  5c:	0c 11 00    	nop       
  5e:	8c 10 00    	nop       
  60:	90 10 00    	nop       
  62:	94 10 00    	nop       
  64:	98 10 00    	nop       
  66:	9c 10 00    	nop       
  68:	a0 10 00    	nop       
  6a:	a4 10 00    	nop       
  6c:	a8 10 00    	nop       
  6e:	ac 10 00    	nop       
  70:	0c 11 00    	nop       
  72:	0c 11 00    	nop       
  74:	0c 11 00    	nop       
  76:	b0 10 00    	nop       
  78:	b4 10 00    	nop       
  7a:	0c 11 00    	nop       
  7c:	0c 11 00    	nop       
  7e:	b8 10 00    	nop       
  80:	bc 10 00    	nop       
  82:	0c 11 00    	nop       
  84:	0c 11 00    	nop       
  86:	0c 11 00    	nop       
  88:	0c 11 00    	nop       
  8a:	0c 11 00    	nop       
  8c:	0c 11 00    	nop       
  8e:	0c 11 00    	nop       
  90:	c0 10 00    	nop       
  92:	0c 11 00    	nop       
  94:	0c 11 00    	nop       
  96:	c4 10 00    	nop       
  98:	c8 10 00    	nop       
  9a:	cc 10 00    	nop       
  9c:	0c 11 00    	nop       
  9e:	0c 11 00    	nop       
  a0:	0c 11 00    	nop       
  a2:	0c 11 00    	nop       
  a4:	d0 10 00    	nop       
  a6:	0c 11 00    	nop       
  a8:	0c 11 00    	nop       
  aa:	0c 11 00    	nop       
  ac:	0c 11 00    	nop       
  ae:	d4 10 00    	nop       
  b0:	0c 11 00    	nop       
  b2:	0c 11 00    	nop       
  b4:	0c 11 00    	nop       
  b6:	d8 10 00    	nop       
  b8:	dc 10 00    	nop       
  ba:	e0 10 00    	nop       
  bc:	e4 10 00    	nop       
  be:	e8 10 00    	nop       
  c0:	ec 10 00    	nop       
  c2:	f0 10 00    	nop       
  c4:	f4 10 00    	nop       
  c6:	f8 10 00    	nop       
  c8:	fc 10 00    	nop       
  ca:	00 11 00    	nop       
  cc:	04 11 00    	nop       
  ce:	08 11 00    	nop       
  d0:	0c 11 00    	nop       
  d2:	0c 11 00    	nop       
  d4:	0c 11 00    	nop       
  d6:	0c 11 00    	nop       
  d8:	0c 11 00    	nop       
  da:	0c 11 00    	nop       
  dc:	0c 11 00    	nop       
  de:	0c 11 00    	nop       
  e0:	0c 11 00    	nop       
  e2:	0c 11 00    	nop       
  e4:	0c 11 00    	nop       
  e6:	0c 11 00    	nop       
  e8:	0c 11 00    	nop       
  ea:	0c 11 00    	nop       
  ec:	0c 11 00    	nop       
  ee:	0c 11 00    	nop       
  f0:	0c 11 00    	nop       
  f2:	0c 11 00    	nop       
  f4:	0c 11 00    	nop       
  f6:	0c 11 00    	nop       
  f8:	0c 11 00    	nop       
  fa:	0c 11 00    	nop       
  fc:	0c 11 00    	nop       
  fe:	0c 11 00    	nop       
Disassembly of section .const:

0000922a <.LC2-0x2ee>:
    922a:	61 62       	.word 0x6261
    922c:	6f 75       	.word 0x756f
    922e:	74 00       	.word 0x74
    9230:	65 76       	.word 0x7665
    9232:	65 72       	.word 0x7265
    9234:	79 00       	.word 0x79
    9236:	6c 61       	.word 0x616c
    9238:	72 67       	.word 0x6772
    923a:	65 00       	.word 0x65
    923c:	70 6c       	.word 0x6c70
    923e:	61 6e       	.word 0x6e61
    9240:	74 00       	.word 0x74
    9242:	73 70       	.word 0x7073
    9244:	65 6c       	.word 0x6c65
    9246:	6c 00       	.word 0x6c
    9248:	74 68       	.word 0x6874
    924a:	65 73       	.word 0x7365
    924c:	65 00       	.word 0x65
    924e:	77 68       	.word 0x6877
    9250:	65 72       	.word 0x7265
    9252:	65 00       	.word 0x65
    9254:	61 66       	.word 0x6661
    9256:	74 65       	.word 0x6574
    9258:	72 00       	.word 0x72
    925a:	66 69       	.word 0x6966
    925c:	72 73       	.word 0x7372
    925e:	74 00       	.word 0x74
    9260:	6c 65       	.word 0x656c
    9262:	61 72       	.word 0x7261
    9264:	6e 00       	.word 0x6e
    9266:	70 6f       	.word 0x6f70
    9268:	69 6e       	.word 0x6e69
    926a:	74 00       	.word 0x74
    926c:	73 74       	.word 0x7473
    926e:	69 6c       	.word 0x6c69
    9270:	6c 00       	.word 0x6c
    9272:	74 68       	.word 0x6874
    9274:	69 6e       	.word 0x6e69
    9276:	67 00       	.word 0x67
    9278:	77 68       	.word 0x6877
    927a:	69 63       	.word 0x6369
    927c:	68 00       	.word 0x68
    927e:	61 67       	.word 0x6761
    9280:	61 69       	.word 0x6961
    9282:	6e 00       	.word 0x6e
    9284:	66 6f       	.word 0x6f66
    9286:	75 6e       	.word 0x6e75
    9288:	64 00       	.word 0x64
    928a:	6e 65       	.word 0x656e
    928c:	76 65       	.word 0x6576
    928e:	72 00       	.word 0x72
    9290:	72 69       	.word 0x6972
    9292:	67 68       	.word 0x6867
    9294:	74 00       	.word 0x74
    9296:	73 74       	.word 0x7473
    9298:	75 64       	.word 0x6475
    929a:	79 00       	.word 0x79
    929c:	74 68       	.word 0x6874
    929e:	69 6e       	.word 0x6e69
    92a0:	6b 00       	.word 0x6b
    92a2:	77 6f       	.word 0x6f77
    92a4:	72 6c       	.word 0x6c72
    92a6:	64 00       	.word 0x64
    92a8:	62 65       	.word 0x6562
    92aa:	6c 6f       	.word 0x6f6c
    92ac:	77 00       	.word 0x77
    92ae:	67 72       	.word 0x7267
    92b0:	65 61       	.word 0x6165
    92b2:	74 00       	.word 0x74
    92b4:	6f 74       	.word 0x746f
    92b6:	68 65       	.word 0x6568
    92b8:	72 00       	.word 0x72
    92ba:	73 6d       	.word 0x6d73
    92bc:	61 6c       	.word 0x6c61
    92be:	6c 00       	.word 0x6c
    92c0:	74 68       	.word 0x6874
    92c2:	65 69       	.word 0x6965
    92c4:	72 00       	.word 0x72
    92c6:	74 68       	.word 0x6874
    92c8:	72 65       	.word 0x6572
    92ca:	65 00       	.word 0x65
    92cc:	77 6f       	.word 0x6f77
    92ce:	75 6c       	.word 0x6c75
    92d0:	64 00       	.word 0x64
    92d2:	63 6f       	.word 0x6f63
    92d4:	75 6c       	.word 0x6c75
    92d6:	64 00       	.word 0x64
    92d8:	68 6f       	.word 0x6f68
    92da:	75 73       	.word 0x7375
    92dc:	65 00       	.word 0x65
    92de:	70 6c       	.word 0x6c70
    92e0:	61 63       	.word 0x6361
    92e2:	65 00       	.word 0x65
    92e4:	73 6f       	.word 0x6f73
    92e6:	75 6e       	.word 0x6e75
    92e8:	64 00       	.word 0x64
    92ea:	74 68       	.word 0x6874
    92ec:	65 72       	.word 0x7265
    92ee:	65 00       	.word 0x65
    92f0:	77 61       	.word 0x6177
    92f2:	74 65       	.word 0x6574
    92f4:	72 00       	.word 0x72
    92f6:	77 72       	.word 0x7277
    92f8:	69 74       	.word 0x7469
    92fa:	65 00       	.word 0x65
    92fc:	57 52       	.word 0x5257
    92fe:	49 54       	.word 0x5449
    9300:	45 47       	.word 0x4745
    9302:	59 51       	.word 0x5159
    9304:	57 56       	.word 0x5657
    9306:	4d 52       	.word 0x524d
    9308:	54 45       	.word 0x4554
    930a:	50 49       	.word 0x4950
    930c:	58 5a       	.word 0x5a58
    930e:	46 4d       	.word 0x4d46
    9310:	49 4a       	.word 0x4a49
    9312:	59 4a       	.word 0x4a59
    9314:	54 46       	.word 0x4654
    9316:	50 42       	.word 0x4250
    9318:	41 4d       	.word 0x4d41
    931a:	45 51       	.word 0x5145
    931c:	50 47       	.word 0x4750
    931e:	58 00       	.word 0x58
    9320:	53 54       	.word 0x5453
    9322:	49 4c       	.word 0x4c49
    9324:	4c 53       	.word 0x534c
    9326:	47 43       	.word 0x4347
    9328:	42 57       	.word 0x5742
    932a:	54 52       	.word 0x5254
    932c:	54 56       	.word 0x5654
    932e:	5a 53       	.word 0x535a
    9330:	4a 56       	.word 0x564a
    9332:	49 44       	.word 0x4449
    9334:	52 46       	.word 0x4652
    9336:	50 4c       	.word 0x4c50
    9338:	4a 4f       	.word 0x4f4a
    933a:	4b 55       	.word 0x554b
    933c:	53 49       	.word 0x4953
    933e:	4a 4c       	.word 0x4c4a
    9340:	41 46       	.word 0x4641
    9342:	5a 00       	.word 0x5a
    9344:	45 56       	.word 0x5645
    9346:	45 52       	.word 0x5245
    9348:	59 4b       	.word 0x4b59
    934a:	45 58       	.word 0x5845
    934c:	4d 59       	.word 0x594d
    934e:	5a 4d       	.word 0x4d5a
    9350:	53 43       	.word 0x4353
    9352:	54 56       	.word 0x5654
    9354:	50 41       	.word 0x4150
    9356:	47 4e       	.word 0x4e47
    9358:	44 45       	.word 0x4544
    935a:	46 44       	.word 0x4446
    935c:	48 45       	.word 0x4548
    935e:	52 51       	.word 0x5152
    9360:	4a 48       	.word 0x484a
    9362:	4d 57       	.word 0x574d
    9364:	4e 59       	.word 0x594e
    9366:	58 00       	.word 0x58
    9368:	57 4f       	.word 0x4f57
    936a:	52 4c       	.word 0x4c52
    936c:	44 47       	.word 0x4744
    936e:	57 51       	.word 0x5157
    9370:	41 50       	.word 0x5041
    9372:	4e 57       	.word 0x574e
    9374:	45 4f       	.word 0x4f45
    9376:	4b 4d       	.word 0x4d4b
    9378:	51 51       	.word 0x5151
    937a:	57 52       	.word 0x5257
    937c:	5a 59       	.word 0x595a
    937e:	4a 50       	.word 0x504a
    9380:	44 4c       	.word 0x4c44
    9382:	4a 42       	.word 0x424a
    9384:	49 4e       	.word 0x4e49
    9386:	53 49       	.word 0x4953
    9388:	43 44       	.word 0x4443
    938a:	48 00       	.word 0x48
    938c:	57 52       	.word 0x5257
    938e:	49 54       	.word 0x5449
    9390:	45 47       	.word 0x4745
    9392:	57 4a       	.word 0x4a57
    9394:	58 44       	.word 0x4458
    9396:	4c 5a       	.word 0x5a4c
    9398:	50 4c       	.word 0x4c50
    939a:	58 49       	.word 0x4958
    939c:	52 4a       	.word 0x4a52
    939e:	54 43       	.word 0x4354
    93a0:	49 46       	.word 0x4649
    93a2:	53 54       	.word 0x5453
    93a4:	46 48       	.word 0x4846
    93a6:	42 49       	.word 0x4942
    93a8:	4f 53       	.word 0x534f
    93aa:	51 58       	.word 0x5851
    93ac:	55 4a       	.word 0x4a55
    93ae:	45 00       	.word 0x45
    93b0:	46 4f       	.word 0x4f46
    93b2:	55 4e       	.word 0x4e55
    93b4:	44 5a       	.word 0x5a44
    93b6:	49 4a       	.word 0x4a49
    93b8:	43 45       	.word 0x4543
    93ba:	46 4f       	.word 0x4f46
    93bc:	47 4d       	.word 0x4d47
    93be:	51 59       	.word 0x5951
    93c0:	4e 51       	.word 0x514e
    93c2:	42 56       	.word 0x5642
    93c4:	45 55       	.word 0x5545
    93c6:	4a 5a       	.word 0x5a4a
    93c8:	4e 4f       	.word 0x4f4e
    93ca:	55 57       	.word 0x5755
    93cc:	4a 51       	.word 0x514a
    93ce:	47 4c       	.word 0x4c47
    93d0:	49 44       	.word 0x4449
    93d2:	50 00       	.word 0x50
    93d4:	43 4f       	.word 0x4f43
    93d6:	55 4c       	.word 0x4c55
    93d8:	44 44       	.word 0x4444
    93da:	58 43       	.word 0x4358
    93dc:	55 4a       	.word 0x4a55
    93de:	54 4f       	.word 0x4f54
    93e0:	5a 55       	.word 0x555a
    93e2:	50 51       	.word 0x5150
    93e4:	59 4d       	.word 0x4d59
    93e6:	4b 58       	.word 0x584b
    93e8:	56 55       	.word 0x5556
    93ea:	53 4c       	.word 0x4c53
    93ec:	4b 52       	.word 0x524b
    93ee:	51 56       	.word 0x5651
    93f0:	57 4d       	.word 0x4d57
    93f2:	48 44       	.word 0x4448
    93f4:	56 51       	.word 0x5156
    93f6:	4a 00       	.word 0x4a
    93f8:	54 48       	.word 0x4854
    93fa:	45 53       	.word 0x5345
    93fc:	45 58       	.word 0x5845
    93fe:	54 4b       	.word 0x4b54
    9400:	44 4c       	.word 0x4c44
    9402:	56 47       	.word 0x4756
    9404:	48 49       	.word 0x4948
    9406:	54 50       	.word 0x5054
    9408:	53 45       	.word 0x4553
    940a:	51 49       	.word 0x4951
    940c:	56 54       	.word 0x5456
    940e:	4d 45       	.word 0x454d
    9410:	48 44       	.word 0x4448
    9412:	4f 4e       	.word 0x4e4f
    9414:	53 56       	.word 0x5653
    9416:	59 4d       	.word 0x4d59
    9418:	45 46       	.word 0x4645
    941a:	42 00       	.word 0x42
    941c:	4f 54       	.word 0x544f
    941e:	48 45       	.word 0x4548
    9420:	52 52       	.word 0x5252
    9422:	49 42       	.word 0x4249
    9424:	4f 43       	.word 0x434f
    9426:	45 54       	.word 0x5445
    9428:	4e 52       	.word 0x524e
    942a:	4b 4a       	.word 0x4a4b
    942c:	42 4e       	.word 0x4e42
    942e:	4a 55       	.word 0x554a
    9430:	48 47       	.word 0x4748
    9432:	45 47       	.word 0x4745
    9434:	4a 56       	.word 0x564a
    9436:	57 4b       	.word 0x4b57
    9438:	45 4b       	.word 0x4b45
    943a:	44 56       	.word 0x5644
    943c:	52 50       	.word 0x5052
    943e:	4d 00       	.word 0x4d
    9440:	57 4f       	.word 0x4f57
    9442:	52 4c       	.word 0x4c52
    9444:	44 54       	.word 0x5444
    9446:	58 53       	.word 0x5358
    9448:	55 52       	.word 0x5255
    944a:	57 46       	.word 0x4657
    944c:	57 4f       	.word 0x4f57
    944e:	51 59       	.word 0x5951
    9450:	52 56       	.word 0x5652
    9452:	52 51       	.word 0x5152
    9454:	47 4e       	.word 0x4e47
    9456:	4a 59       	.word 0x594a
    9458:	42 4b       	.word 0x4b42
    945a:	4c 51       	.word 0x514c
    945c:	4f 48       	.word 0x484f
    945e:	58 44       	.word 0x4458
    9460:	45 49       	.word 0x4945
    9462:	51 00       	.word 0x51
    9464:	53 4d       	.word 0x4d53
    9466:	41 4c       	.word 0x4c41
    9468:	4c 49       	.word 0x494c
    946a:	56 52       	.word 0x5256
    946c:	58 53       	.word 0x5358
    946e:	55 58       	.word 0x5855
    9470:	44 43       	.word 0x4344
    9472:	4d 52       	.word 0x524d
    9474:	59 41       	.word 0x4159
    9476:	51 54       	.word 0x5451
    9478:	46 50       	.word 0x5046
    947a:	4a 56       	.word 0x564a
    947c:	50 48       	.word 0x4850
    947e:	46 4c       	.word 0x4c46
    9480:	58 51       	.word 0x5158
    9482:	4c 52       	.word 0x524c
    9484:	4f 42       	.word 0x424f
    9486:	48 00       	.word 0x48
    9488:	54 48       	.word 0x4854
    948a:	45 53       	.word 0x5345
    948c:	45 4b       	.word 0x4b45
    948e:	50 54       	.word 0x5450
    9490:	52 4c       	.word 0x4c52
    9492:	42 48       	.word 0x4842
    9494:	4b 56       	.word 0x564b
    9496:	55 4e       	.word 0x4e55
    9498:	44 51       	.word 0x5144
    949a:	47 4c       	.word 0x4c47
    949c:	45 4a       	.word 0x4a45
    949e:	53 58       	.word 0x5853
    94a0:	41 4d       	.word 0x4d41
    94a2:	53 56       	.word 0x5653
    94a4:	44 57       	.word 0x5744
    94a6:	41 4f       	.word 0x4f41
    94a8:	45 46       	.word 0x4645
    94aa:	4e 00       	.word 0x4e
    94ac:	57 52       	.word 0x5257
    94ae:	49 54       	.word 0x5449
    94b0:	45 56       	.word 0x5645
    94b2:	57 49       	.word 0x4957
    94b4:	58 59       	.word 0x5958
    94b6:	48 57       	.word 0x5748
    94b8:	4b 58       	.word 0x584b
    94ba:	42 47       	.word 0x4742
    94bc:	52 46       	.word 0x4652
    94be:	45 4c       	.word 0x4c45
    94c0:	59 49       	.word 0x4959
    94c2:	50 55       	.word 0x5550
    94c4:	41 44       	.word 0x4441
    94c6:	54 52       	.word 0x5254
    94c8:	4e 4c       	.word 0x4c4e
    94ca:	56 45       	.word 0x4556
    94cc:	41 51       	.word 0x5141
    94ce:	55 00       	.word 0x55
    94d0:	47 52       	.word 0x5247
    94d2:	45 41       	.word 0x4145
    94d4:	54 4c       	.word 0x4c54
    94d6:	4f 47       	.word 0x474f
    94d8:	4d 58       	.word 0x584d
    94da:	56 59       	.word 0x5956
    94dc:	43 4e       	.word 0x4e43
    94de:	52 57       	.word 0x5752
    94e0:	4b 48       	.word 0x484b
    94e2:	56 50       	.word 0x5056
    94e4:	45 42       	.word 0x4245
    94e6:	49 5a       	.word 0x5a49
    94e8:	41 50       	.word 0x5041
    94ea:	57 56       	.word 0x5657
    94ec:	46 57       	.word 0x5746
    94ee:	48 46       	.word 0x4648
    94f0:	53 54       	.word 0x5453
    94f2:	51 00       	.word 0x51
    94f4:	4f 54       	.word 0x544f
    94f6:	48 45       	.word 0x4548
    94f8:	52 46       	.word 0x4652
    94fa:	47 49       	.word 0x4947
    94fc:	4f 44       	.word 0x444f
    94fe:	48 42       	.word 0x4248
    9500:	54 50       	.word 0x5054
    9502:	58 53       	.word 0x5358
    9504:	49 43       	.word 0x4349
    9506:	47 45       	.word 0x4547
    9508:	4c 50       	.word 0x504c
    950a:	48 41       	.word 0x4148
    950c:	44 45       	.word 0x4544
    950e:	4a 49       	.word 0x494a
    9510:	5a 4e       	.word 0x4e5a
    9512:	41 50       	.word 0x5041
    9514:	4b 49       	.word 0x494b
    9516:	52 00       	.word 0x52

00009518 <.LC2>:
    9518:	00 20       	.word 0x2000

00009519 <.LC0>:
	...

00009520 <.LC1>:
    9520:	20 6f       	.word 0x6f20
    9522:	20 20       	.word 0x2020
    9524:	6f 20       	.word 0x206f
    9526:	20 6f       	.word 0x6f20
    9528:	20 20       	.word 0x2020
    952a:	6f 20       	.word 0x206f
    952c:	20 6f       	.word 0x6f20
    952e:	20 00       	.word 0x20
    9530:	00 20       	.word 0x2000

00009531 <.LC3>:
    9531:	00 00       	.word 0
    9533:	00 00       	.word 0
    9535:	00 00       	.word 0
    9537:	00 00       	.word 0
    9539:	00 00       	.word 0
    953b:	00 00       	.word 0
    953d:	00 00       	.word 0
    953f:	00 00       	.word 0
	...

00009542 <.LC0>:
    9542:	20 20       	.word 0x2020
    9544:	20 20       	.word 0x2020
    9546:	20 20       	.word 0x2020
    9548:	20 20       	.word 0x2020
    954a:	20 20       	.word 0x2020
    954c:	20 20       	.word 0x2020
    954e:	20 20       	.word 0x2020
    9550:	20 20       	.word 0x2020
    9552:	20 20       	.word 0x2020
    9554:	20 20       	.word 0x2020
    9556:	20 20       	.word 0x2020
    9558:	20 20       	.word 0x2020
    955a:	20 20       	.word 0x2020
    955c:	20 20       	.word 0x2020
    955e:	20 20       	.word 0x2020
    9560:	20 20       	.word 0x2020
    9562:	20 20       	.word 0x2020
    9564:	20 20       	.word 0x2020
    9566:	20 20       	.word 0x2020
    9568:	20 20       	.word 0x2020
    956a:	20 20       	.word 0x2020
    956c:	20 20       	.word 0x2020
    956e:	20 20       	.word 0x2020
    9570:	20 20       	.word 0x2020
    9572:	20 20       	.word 0x2020
    9574:	20 20       	.word 0x2020
    9576:	20 20       	.word 0x2020
    9578:	20 20       	.word 0x2020
    957a:	00 20       	.word 0x2000

0000957b <.LC1>:
    957b:	00 00       	.word 0
    957d:	00 00       	.word 0
    957f:	00 00       	.word 0
    9581:	00 00       	.word 0
    9583:	00 00       	.word 0
    9585:	00 00       	.word 0
    9587:	00 00       	.word 0
    9589:	00 00       	.word 0
	...

0000958c <.LC2>:
    958c:	7a 79       	.word 0x797a
    958e:	78 77       	.word 0x7778
    9590:	76 75       	.word 0x7576
    9592:	74 73       	.word 0x7374
    9594:	72 71       	.word 0x7172
    9596:	70 6f       	.word 0x6f70
    9598:	6e 6d       	.word 0x6d6e
    959a:	6c 6b       	.word 0x6b6c
    959c:	6a 69       	.word 0x696a
    959e:	68 67       	.word 0x6768
    95a0:	66 65       	.word 0x6566
    95a2:	64 63       	.word 0x6364
    95a4:	62 61       	.word 0x6162
    95a6:	39 38       	.word 0x3839
    95a8:	37 36       	.word 0x3637
    95aa:	35 34       	.word 0x3435
    95ac:	33 32       	.word 0x3233
    95ae:	31 30       	.word 0x3031
    95b0:	31 32       	.word 0x3231
    95b2:	33 34       	.word 0x3433
    95b4:	35 36       	.word 0x3635
    95b6:	37 38       	.word 0x3837
    95b8:	39 61       	.word 0x6139
    95ba:	62 63       	.word 0x6362
    95bc:	64 65       	.word 0x6564
    95be:	66 67       	.word 0x6766
    95c0:	68 69       	.word 0x6968
    95c2:	6a 6b       	.word 0x6b6a
    95c4:	6c 6d       	.word 0x6d6c
    95c6:	6e 6f       	.word 0x6f6e
    95c8:	70 71       	.word 0x7170
    95ca:	72 73       	.word 0x7372
    95cc:	74 75       	.word 0x7574
    95ce:	76 77       	.word 0x7776
    95d0:	78 79       	.word 0x7978
    95d2:	7a 00       	.word 0x7a
Disassembly of section .text:

000015d4 <_main>:
uint16_t counter;

_LCD lcd1;

void main(void) {
    15d4:	62 00 fa    	lnk       #0x62
    15d6:	88 1f 78    	mov.w     w8, [w15++]
    init_elecanisms();
    15d8:	34 0a 07    	rcall     0x2a42 <.LFE2> <_init_elecanisms> <.L0> <.LFB0> <.Ltext0>
    init_ajuart();
    15da:	61 07 07    	rcall     0x249e <_init_ajuart> <.L0> <.LFB0> <.LFE21> <.Letext0> <.Ltext0>
    // Setup rocker pins as inputs and set pull-up resistors
    toggleSwitchSetup();
    15dc:	6d 02 07    	rcall     0x1ab8 <_toggleSwitchSetup> <.LFB9> <.LFE8>

    i2c_init(1e3);
    15de:	80 3e 20    	mov.w     #0x3e8, w0
    15e0:	2f 05 07    	rcall     0x2040 <_i2c_init> <.LFB1> <.LFE0>
    lcd_init(&lcd1, 0x07, 'A'); //Setup LCD screen (type A i/o extender)
    15e2:	12 c4 b3    	mov.b     #0x41, w2
    15e4:	71 c0 b3    	mov.b     #0x7, w1
    15e6:	00 05 21    	mov.w     #0x1050, w0
    15e8:	4f 03 07    	rcall     0x1c88 <_lcd_init> <.LFB5> <.LFE4>
    lcd_clear(&lcd1);  // Clears _LCD objects from previous array
    15ea:	00 05 21    	mov.w     #0x1050, w0
    15ec:	e1 03 07    	rcall     0x1db0 <_lcd_clear> <.LFB8> <.LFE7>

    i2c2_init(157);                      // Initializes I2C on I2C2
    15ee:	d0 09 20    	mov.w     #0x9d, w0
    15f0:	67 06 07    	rcall     0x22c0 <_i2c2_init> <.LFB13> <.LFE12>
    I2C2ADD = MODULE_CODEWORD_ADDR>>1;   // Set the device address (7-bit register)
    15f2:	00 01 20    	mov.w     #0x10, w0
    15f4:	d0 10 88    	mov.w     w0, 0x21a
    I2C2MSK = 0;                         // Set mask to 0 (only this address matters)
    15f6:	1c 22 ef    	clr.w     0x21c
    _SI2C2IE = 1;                        // Enable i2c slave interrupt
    15f8:	9a 20 a8    	bset.b    0x9a, #0x1

    rand_val = read_analog(A0); // Set up the seed
    15fa:	50 16 80    	mov.w     0x2ca, w0
    15fc:	45 00 de    	lsr.w     w0, #0x5, w0
    15fe:	61 40 60    	and.b     w0, #0x1, w0
    1600:	00 80 fb    	ze        w0, w0
    1602:	4f 0a 07    	rcall     0x2aa2 <_read_analog> <.LFB1> <.LFE0>
    1604:	b0 40 88    	mov.w     w0, 0x816

    // Add more random noise
    uint8_t i, j;
    for (i=0; i<20; i++) {
    1606:	00 40 eb    	clr.b     w0
    1608:	00 4f 78    	mov.b     w0, [w14]
    160a:	18 00 37    	bra       0x163c <.L2>

0000160c <.L5>:
        for (j=0; j<read_analog(A0); j++) {
    160c:	00 40 eb    	clr.b     w0
    160e:	10 47 98    	mov.b     w0, [w14+1]
    1610:	0b 00 37    	bra       0x1628 <.L3>

00001612 <.L4>:
            rand_next();
    1612:	77 02 07    	rcall     0x1b02 <_rand_next> <.LFB10> <.LFE9>
            delay_by_nop(read_analog(A0));
    1614:	50 16 80    	mov.w     0x2ca, w0
    1616:	45 00 de    	lsr.w     w0, #0x5, w0
    1618:	61 40 60    	and.b     w0, #0x1, w0
    161a:	00 80 fb    	ze        w0, w0
    161c:	42 0a 07    	rcall     0x2aa2 <_read_analog> <.LFB1> <.LFE0>
    161e:	80 00 eb    	clr.w     w1
    1620:	fc 04 07    	rcall     0x201a <_delay_by_nop> <.L0> <.LFB0> <.LFE16> <.Letext0> <.Ltext0>
    1622:	1e 40 90    	mov.b     [w14+1], w0
    1624:	00 40 e8    	inc.b     w0, w0
    1626:	10 47 98    	mov.b     w0, [w14+1]

00001628 <.L3>:
    1628:	1e 40 90    	mov.b     [w14+1], w0
    162a:	00 84 fb    	ze        w0, w8
    162c:	50 16 80    	mov.w     0x2ca, w0
    162e:	45 00 de    	lsr.w     w0, #0x5, w0
    1630:	61 40 60    	and.b     w0, #0x1, w0
    1632:	00 80 fb    	ze        w0, w0
    1634:	36 0a 07    	rcall     0x2aa2 <_read_analog> <.LFB1> <.LFE0>
    1636:	80 0f 54    	sub.w     w8, w0, [w15]
    1638:	ec ff 39    	bra       NC, 0x1612 <.L4>
    163a:	1e 4f e8    	inc.b     [w14], [w14]

0000163c <.L2>:
    163c:	1e 40 78    	mov.b     [w14], w0
    163e:	f3 4f 50    	sub.b     w0, #0x13, [w15]
    1640:	e5 ff 36    	bra       LEU, 0x160c <.L5>
        }
    }

    // U1_putc((uint8_t)rand_val >> 8);
    // U1_putc((uint8_t)rand_val);
    // U1_putc('\r');
    // U1_putc('\n');
    // U1_flush_tx_buffer();

    // set codeword and set of letters
    char _codeSet[36];
    for(i=0; i < 36; i++) {
    1642:	00 40 eb    	clr.b     w0
    1644:	00 4f 78    	mov.b     w0, [w14]
    1646:	12 00 37    	bra       0x166c <.L6>

00001648 <.L7>:
        _codeSet[i] = letterSets[rand_val%15][i];
    1648:	9e 81 fb    	ze        [w14], w3
    164a:	b2 40 80    	mov.w     0x816, w2
    164c:	90 88 28    	mov.w     #0x8889, w0
    164e:	00 10 b8    	mul.uu    w2, w0, w0
    1650:	43 08 de    	lsr.w     w1, #0x3, w0
    1652:	6f 00 b9    	mul.su    w0, #0xf, w0
    1654:	00 00 78    	mov.w     w0, w0
    1656:	00 00 51    	sub.w     w2, w0, w0
    1658:	1e 81 fb    	ze        [w14], w2
    165a:	41 02 20    	mov.w     #0x24, w1
    165c:	01 80 b9    	mul.ss    w0, w1, w0
    165e:	00 00 78    	mov.w     w0, w0
    1660:	02 00 40    	add.w     w0, w2, w0
    1662:	c1 2f 29    	mov.w     #0x92fc, w1
    1664:	e1 40 78    	mov.b     [w1+w0], w1
    1666:	03 00 47    	add.w     w14, w3, w0
    1668:	21 40 98    	mov.b     w1, [w0+2]
    166a:	1e 4f e8    	inc.b     [w14], [w14]

0000166c <.L6>:
    166c:	30 c2 b3    	mov.b     #0x23, w0
    166e:	9e 40 78    	mov.b     [w14], w1
    1670:	80 cf 50    	sub.b     w1, w0, [w15]
    1672:	ea ff 36    	bra       LEU, 0x1648 <.L7>
    }
    codeSet = _codeSet;
    1674:	0e 80 e8    	inc2.w    w14, w0
    1676:	10 40 88    	mov.w     w0, 0x802

    char tmp[7] = " ";
    1678:	00 02 20    	mov.w     #0x20, w0
    167a:	01 00 20    	mov.w     #0x0, w1
    167c:	30 17 98    	mov.w     w0, [w14+38]
    167e:	41 17 98    	mov.w     w1, [w14+40]
    1680:	8e 00 78    	mov.w     w14, w1
    1682:	a1 02 b0    	add.w     #0x2a, w1
    1684:	00 00 09    	repeat    #0x0
    1686:	80 18 eb    	clr.w     [w1++]
    1688:	80 58 eb    	clr.b     [w1++]
    for (i=0; i<5; i++){
    168a:	00 40 eb    	clr.b     w0
    168c:	00 4f 78    	mov.b     w0, [w14]
    168e:	08 00 37    	bra       0x16a0 <.L8>

00001690 <.L9>:
        tmp[i] = codeSet[i];
    1690:	1e 80 fb    	ze        [w14], w0
    1692:	12 40 80    	mov.w     0x802, w2
    1694:	9e 80 fb    	ze        [w14], w1
    1696:	81 00 41    	add.w     w2, w1, w1
    1698:	91 40 78    	mov.b     [w1], w1
    169a:	00 00 47    	add.w     w14, w0, w0
    169c:	61 60 98    	mov.b     w1, [w0+38]
    169e:	1e 4f e8    	inc.b     [w14], [w14]

000016a0 <.L8>:
    16a0:	1e 40 78    	mov.b     [w14], w0
    16a2:	e4 4f 50    	sub.b     w0, #0x4, [w15]
    16a4:	f5 ff 36    	bra       LEU, 0x1690 <.L9>
    }
    codeword = tmp;
    16a6:	60 02 20    	mov.w     #0x26, w0
    16a8:	0e 00 40    	add.w     w0, w14, w0
    16aa:	70 40 88    	mov.w     w0, 0x80e

    // setup column sets of letters
    char _set0[7] = " ";
    16ac:	90 51 29    	mov.w     #0x9519, w0
    16ae:	90 40 78    	mov.b     [w0], w1
    16b0:	51 6f 98    	mov.b     w1, [w14+45]
    16b2:	90 40 90    	mov.b     [w0+1], w1
    16b4:	61 6f 98    	mov.b     w1, [w14+46]
    16b6:	8e 00 78    	mov.w     w14, w1
    16b8:	f1 02 b0    	add.w     #0x2f, w1
    16ba:	04 00 09    	repeat    #0x4
    16bc:	80 58 eb    	clr.b     [w1++]
    for (i=0; i<6; i++){
    16be:	00 40 eb    	clr.b     w0
    16c0:	00 4f 78    	mov.b     w0, [w14]
    16c2:	09 00 37    	bra       0x16d6 <.L10>

000016c4 <.L11>:
        _set0[i] = codeSet[i+5];
    16c4:	1e 80 fb    	ze        [w14], w0
    16c6:	12 40 80    	mov.w     0x802, w2
    16c8:	9e 80 fb    	ze        [w14], w1
    16ca:	e5 80 40    	add.w     w1, #0x5, w1
    16cc:	81 00 41    	add.w     w2, w1, w1
    16ce:	91 40 78    	mov.b     [w1], w1
    16d0:	00 00 47    	add.w     w14, w0, w0
    16d2:	51 68 98    	mov.b     w1, [w0+45]
    16d4:	1e 4f e8    	inc.b     [w14], [w14]

000016d6 <.L10>:
    16d6:	1e 40 78    	mov.b     [w14], w0
    16d8:	e5 4f 50    	sub.b     w0, #0x5, [w15]
    16da:	f4 ff 36    	bra       LEU, 0x16c4 <.L11>
    }
    set0 = _set0;
    16dc:	d0 02 20    	mov.w     #0x2d, w0
    16de:	0e 00 40    	add.w     w0, w14, w0
    16e0:	20 40 88    	mov.w     w0, 0x804

    char _set1[7] = " ";
    16e2:	00 02 20    	mov.w     #0x20, w0
    16e4:	01 00 20    	mov.w     #0x0, w1
    16e6:	20 1f 98    	mov.w     w0, [w14+52]
    16e8:	31 1f 98    	mov.w     w1, [w14+54]
    16ea:	8e 00 78    	mov.w     w14, w1
    16ec:	81 03 b0    	add.w     #0x38, w1
    16ee:	00 00 09    	repeat    #0x0
    16f0:	80 18 eb    	clr.w     [w1++]
    16f2:	80 58 eb    	clr.b     [w1++]
    for (i=0; i<6; i++){
    16f4:	00 40 eb    	clr.b     w0
    16f6:	00 4f 78    	mov.b     w0, [w14]
    16f8:	09 00 37    	bra       0x170c <.L12>

000016fa <.L13>:
        _set1[i] = codeSet[i+11];
    16fa:	1e 80 fb    	ze        [w14], w0
    16fc:	12 40 80    	mov.w     0x802, w2
    16fe:	9e 80 fb    	ze        [w14], w1
    1700:	eb 80 40    	add.w     w1, #0xb, w1
    1702:	81 00 41    	add.w     w2, w1, w1
    1704:	91 40 78    	mov.b     [w1], w1
    1706:	00 00 47    	add.w     w14, w0, w0
    1708:	41 70 98    	mov.b     w1, [w0+52]
    170a:	1e 4f e8    	inc.b     [w14], [w14]

0000170c <.L12>:
    170c:	1e 40 78    	mov.b     [w14], w0
    170e:	e5 4f 50    	sub.b     w0, #0x5, [w15]
    1710:	f4 ff 36    	bra       LEU, 0x16fa <.L13>
    }
    set1 = _set1;
    1712:	40 03 20    	mov.w     #0x34, w0
    1714:	0e 00 40    	add.w     w0, w14, w0
    1716:	30 40 88    	mov.w     w0, 0x806

    char _set2[7] = " ";
    1718:	90 51 29    	mov.w     #0x9519, w0
    171a:	90 40 78    	mov.b     [w0], w1
    171c:	31 7f 98    	mov.b     w1, [w14+59]
    171e:	90 40 90    	mov.b     [w0+1], w1
    1720:	41 7f 98    	mov.b     w1, [w14+60]
    1722:	8e 00 78    	mov.w     w14, w1
    1724:	d1 03 b0    	add.w     #0x3d, w1
    1726:	04 00 09    	repeat    #0x4
    1728:	80 58 eb    	clr.b     [w1++]
    for (i=0; i<6; i++){
    172a:	00 40 eb    	clr.b     w0
    172c:	00 4f 78    	mov.b     w0, [w14]
    172e:	09 00 37    	bra       0x1742 <.L14>

00001730 <.L15>:
        _set2[i] = codeSet[i+17];
    1730:	1e 80 fb    	ze        [w14], w0
    1732:	12 40 80    	mov.w     0x802, w2
    1734:	9e 80 fb    	ze        [w14], w1
    1736:	f1 80 40    	add.w     w1, #0x11, w1
    1738:	81 00 41    	add.w     w2, w1, w1
    173a:	91 40 78    	mov.b     [w1], w1
    173c:	00 00 47    	add.w     w14, w0, w0
    173e:	31 78 98    	mov.b     w1, [w0+59]
    1740:	1e 4f e8    	inc.b     [w14], [w14]

00001742 <.L14>:
    1742:	1e 40 78    	mov.b     [w14], w0
    1744:	e5 4f 50    	sub.b     w0, #0x5, [w15]
    1746:	f4 ff 36    	bra       LEU, 0x1730 <.L15>
    }
    set2 = _set2;
    1748:	b0 03 20    	mov.w     #0x3b, w0
    174a:	0e 00 40    	add.w     w0, w14, w0
    174c:	40 40 88    	mov.w     w0, 0x808

    char _set3[7] = " ";
    174e:	00 02 20    	mov.w     #0x20, w0
    1750:	01 00 20    	mov.w     #0x0, w1
    1752:	10 27 98    	mov.w     w0, [w14+66]
    1754:	21 27 98    	mov.w     w1, [w14+68]
    1756:	8e 00 78    	mov.w     w14, w1
    1758:	61 04 b0    	add.w     #0x46, w1
    175a:	00 00 09    	repeat    #0x0
    175c:	80 18 eb    	clr.w     [w1++]
    175e:	80 58 eb    	clr.b     [w1++]
    for (i=0; i<6; i++){
    1760:	00 40 eb    	clr.b     w0
    1762:	00 4f 78    	mov.b     w0, [w14]
    1764:	09 00 37    	bra       0x1778 <.L16>

00001766 <.L17>:
        _set3[i] = codeSet[i+23];
    1766:	1e 80 fb    	ze        [w14], w0
    1768:	12 40 80    	mov.w     0x802, w2
    176a:	9e 80 fb    	ze        [w14], w1
    176c:	f7 80 40    	add.w     w1, #0x17, w1
    176e:	81 00 41    	add.w     w2, w1, w1
    1770:	91 40 78    	mov.b     [w1], w1
    1772:	00 00 47    	add.w     w14, w0, w0
    1774:	21 c0 98    	mov.b     w1, [w0+66]
    1776:	1e 4f e8    	inc.b     [w14], [w14]

00001778 <.L16>:
    1778:	1e 40 78    	mov.b     [w14], w0
    177a:	e5 4f 50    	sub.b     w0, #0x5, [w15]
    177c:	f4 ff 36    	bra       LEU, 0x1766 <.L17>
    }
    set3 = _set3;
    177e:	20 04 20    	mov.w     #0x42, w0
    1780:	0e 00 40    	add.w     w0, w14, w0
    1782:	50 40 88    	mov.w     w0, 0x80a

    char _set4[7] = " ";
    1784:	90 51 29    	mov.w     #0x9519, w0
    1786:	90 40 78    	mov.b     [w0], w1
    1788:	11 cf 98    	mov.b     w1, [w14+73]
    178a:	90 40 90    	mov.b     [w0+1], w1
    178c:	21 cf 98    	mov.b     w1, [w14+74]
    178e:	8e 00 78    	mov.w     w14, w1
    1790:	b1 04 b0    	add.w     #0x4b, w1
    1792:	04 00 09    	repeat    #0x4
    1794:	80 58 eb    	clr.b     [w1++]
    for (i=0; i<6; i++){
    1796:	00 40 eb    	clr.b     w0
    1798:	00 4f 78    	mov.b     w0, [w14]
    179a:	09 00 37    	bra       0x17ae <.L18>

0000179c <.L19>:
        _set4[i] = codeSet[i+29];
    179c:	1e 80 fb    	ze        [w14], w0
    179e:	12 40 80    	mov.w     0x802, w2
    17a0:	9e 80 fb    	ze        [w14], w1
    17a2:	fd 80 40    	add.w     w1, #0x1d, w1
    17a4:	81 00 41    	add.w     w2, w1, w1
    17a6:	91 40 78    	mov.b     [w1], w1
    17a8:	00 00 47    	add.w     w14, w0, w0
    17aa:	11 c8 98    	mov.b     w1, [w0+73]
    17ac:	1e 4f e8    	inc.b     [w14], [w14]

000017ae <.L18>:
    17ae:	1e 40 78    	mov.b     [w14], w0
    17b0:	e5 4f 50    	sub.b     w0, #0x5, [w15]
    17b2:	f4 ff 36    	bra       LEU, 0x179c <.L19>
    }
    set4 = _set4;
    17b4:	90 04 20    	mov.w     #0x49, w0
    17b6:	0e 00 40    	add.w     w0, w14, w0
    17b8:	60 40 88    	mov.w     w0, 0x80c

    // initialize indices of each column
    i0 = rand_val%5;
    17ba:	b2 40 80    	mov.w     0x816, w2
    17bc:	d0 cc 2c    	mov.w     #0xcccd, w0
    17be:	00 10 b8    	mul.uu    w2, w0, w0
    17c0:	42 08 de    	lsr.w     w1, #0x2, w0
    17c2:	65 00 b9    	mul.su    w0, #0x5, w0
    17c4:	00 00 78    	mov.w     w0, w0
    17c6:	00 00 51    	sub.w     w2, w0, w0
    17c8:	00 40 78    	mov.b     w0, w0
    17ca:	10 e8 b7    	mov.b     WREG, 0x810
    rand_next();
    17cc:	9a 01 07    	rcall     0x1b02 <_rand_next> <.LFB10> <.LFE9>
    i1 = rand_val%5;
    17ce:	b2 40 80    	mov.w     0x816, w2
    17d0:	d0 cc 2c    	mov.w     #0xcccd, w0
    17d2:	00 10 b8    	mul.uu    w2, w0, w0
    17d4:	42 08 de    	lsr.w     w1, #0x2, w0
    17d6:	65 00 b9    	mul.su    w0, #0x5, w0
    17d8:	00 00 78    	mov.w     w0, w0
    17da:	00 00 51    	sub.w     w2, w0, w0
    17dc:	00 40 78    	mov.b     w0, w0
    17de:	11 e8 b7    	mov.b     WREG, 0x811
    rand_next();
    17e0:	90 01 07    	rcall     0x1b02 <_rand_next> <.LFB10> <.LFE9>
    i2 = rand_val%5;
    17e2:	b2 40 80    	mov.w     0x816, w2
    17e4:	d0 cc 2c    	mov.w     #0xcccd, w0
    17e6:	00 10 b8    	mul.uu    w2, w0, w0
    17e8:	42 08 de    	lsr.w     w1, #0x2, w0
    17ea:	65 00 b9    	mul.su    w0, #0x5, w0
    17ec:	00 00 78    	mov.w     w0, w0
    17ee:	00 00 51    	sub.w     w2, w0, w0
    17f0:	00 40 78    	mov.b     w0, w0
    17f2:	12 e8 b7    	mov.b     WREG, 0x812
    rand_next();
    17f4:	86 01 07    	rcall     0x1b02 <_rand_next> <.LFB10> <.LFE9>
    i3 = rand_val%5;
    17f6:	b2 40 80    	mov.w     0x816, w2
    17f8:	d0 cc 2c    	mov.w     #0xcccd, w0
    17fa:	00 10 b8    	mul.uu    w2, w0, w0
    17fc:	42 08 de    	lsr.w     w1, #0x2, w0
    17fe:	65 00 b9    	mul.su    w0, #0x5, w0
    1800:	00 00 78    	mov.w     w0, w0
    1802:	00 00 51    	sub.w     w2, w0, w0
    1804:	00 40 78    	mov.b     w0, w0
    1806:	13 e8 b7    	mov.b     WREG, 0x813
    rand_next();
    1808:	7c 01 07    	rcall     0x1b02 <_rand_next> <.LFB10> <.LFE9>
    i4 = rand_val%5;
    180a:	b2 40 80    	mov.w     0x816, w2
    180c:	d0 cc 2c    	mov.w     #0xcccd, w0
    180e:	00 10 b8    	mul.uu    w2, w0, w0
    1810:	42 08 de    	lsr.w     w1, #0x2, w0
    1812:	65 00 b9    	mul.su    w0, #0x5, w0
    1814:	00 00 78    	mov.w     w0, w0
    1816:	00 00 51    	sub.w     w2, w0, w0
    1818:	00 40 78    	mov.b     w0, w0
    181a:	14 e8 b7    	mov.b     WREG, 0x814

    char dispstring[17] = " o  o  o  o  o ";
    181c:	00 52 29    	mov.w     #0x9520, w0
    181e:	01 05 20    	mov.w     #0x50, w1
    1820:	81 00 47    	add.w     w14, w1, w1
    1822:	0f 00 09    	repeat    #0xf
    1824:	b0 58 78    	mov.b     [w0++], [w1++]
    1826:	00 01 b1    	sub.w     #0x10, w0
    1828:	00 40 eb    	clr.b     w0
    182a:	00 e7 98    	mov.b     w0, [w14+96]
    dispptr = dispstring;
    182c:	00 05 20    	mov.w     #0x50, w0
    182e:	0e 00 40    	add.w     w0, w14, w0
    1830:	00 40 88    	mov.w     w0, 0x800
    lcd_print2(&lcd1, dispptr, "");
    1832:	00 40 80    	mov.w     0x800, w0
    1834:	82 51 29    	mov.w     #0x9518, w2
    1836:	80 00 78    	mov.w     w0, w1
    1838:	00 05 21    	mov.w     #0x1050, w0
    183a:	17 03 07    	rcall     0x1e6a <_lcd_print2> <.LFB13> <.LFE12>

    // Timer 2 Setup
    T2CON = 0x0020;         // set Timer2 period to 10 ms for debounce
    183c:	00 02 20    	mov.w     #0x20, w0
    183e:	80 08 88    	mov.w     w0, 0x110
    PR2 = 0x2710;           // prescaler 16, match value 10000
    1840:	00 71 22    	mov.w     #0x2710, w0
    1842:	60 08 88    	mov.w     w0, 0x10c

    TMR2 = 0;               // set Timer2 to 0
    1844:	06 21 ef    	clr.w     0x106
    IFS0bits.T2IF = 0;      // lower T2 interrupt flag
    1846:	84 e0 a9    	bclr.b    0x84, #0x7
    IEC0bits.T2IE = 1;      // enable T2 interrupt
    1848:	94 e0 a8    	bset.b    0x94, #0x7
    T2CONbits.TON = 0;      // make sure T2 isn't on
    184a:	11 e1 a9    	bclr.b    0x111, #0x7

    state = setup;
    184c:	60 85 21    	mov.w     #0x1856, w0
    184e:	c0 40 88    	mov.w     w0, 0x818

00001850 <.L20>:

    while (1) {
        state();
    1850:	c0 40 80    	mov.w     0x818, w0
    1852:	00 00 01    	call      w0
    }
    1854:	fd ff 37    	bra       0x1850 <.L20>

00001856 <_setup>:
}

// STATE MACHINE FUNCTIONS /////////////////////////////////////////////////////

void setup(void) { // Waits for master module to start the game
    1856:	00 00 fa    	lnk       #0x0
    // State Setup
    if (state != last_state) {
    1858:	c1 40 80    	mov.w     0x818, w1
    185a:	d0 40 80    	mov.w     0x81a, w0
    185c:	80 8f 50    	sub.w     w1, w0, [w15]
    185e:	08 00 32    	bra       Z, 0x1870 <.L22>
        last_state = state;
    1860:	c0 40 80    	mov.w     0x818, w0
    1862:	d0 40 88    	mov.w     w0, 0x81a
        MODULE_LED_GREEN = ON; delay_by_nop(1);
    1864:	da 22 a8    	bset.b    0x2da, #0x1
    1866:	10 00 20    	mov.w     #0x1, w0
    1868:	01 00 20    	mov.w     #0x0, w1
    186a:	d7 03 07    	rcall     0x201a <_delay_by_nop> <.L0> <.LFB0> <.LFE16> <.Letext0> <.Ltext0>
        MODULE_LED_RED = ON;
    186c:	da 02 a8    	bset.b    0x2da, #0x0
        complete_flag = 0;
    186e:	21 68 ef    	clr.b     0x821

00001870 <.L22>:
        // setup state here
    }

    // Perform state tasks

    // Check for state transitions
    // if ((start_flag == 1) || (SW2 == 0)){
    //     state = run;
    // }

    if (start_flag == 1) {
    1870:	24 c8 bf    	mov.b     0x824, WREG
    1872:	e1 4f 50    	sub.b     w0, #0x1, [w15]
    1874:	02 00 3a    	bra       NZ, 0x187a <.L23>
        state = run;
    1876:	00 89 21    	mov.w     #0x1890, w0
    1878:	c0 40 88    	mov.w     w0, 0x818

0000187a <.L23>:
    }

    // State Cleanup
    if (state != last_state) {
    187a:	c1 40 80    	mov.w     0x818, w1
    187c:	d0 40 80    	mov.w     0x81a, w0
    187e:	80 8f 50    	sub.w     w1, w0, [w15]
    1880:	05 00 32    	bra       Z, 0x188c <.L21>
        // cleanup state here
        MODULE_LED_GREEN = OFF; delay_by_nop(1);
    1882:	da 22 a9    	bclr.b    0x2da, #0x1
    1884:	10 00 20    	mov.w     #0x1, w0
    1886:	01 00 20    	mov.w     #0x0, w1
    1888:	c8 03 07    	rcall     0x201a <_delay_by_nop> <.L0> <.LFB0> <.LFE16> <.Letext0> <.Ltext0>
        MODULE_LED_RED = ON;
    188a:	da 02 a8    	bset.b    0x2da, #0x0

0000188c <.L21>:
    }
}
    188c:	00 80 fa    	ulnk      
    188e:	00 00 06    	return    

00001890 <_run>:

void run(void) { // Plays the game
    1890:	00 00 fa    	lnk       #0x0
    // State Setup
    if (state != last_state) {
    1892:	c1 40 80    	mov.w     0x818, w1
    1894:	d0 40 80    	mov.w     0x81a, w0
    1896:	80 8f 50    	sub.w     w1, w0, [w15]
    1898:	07 00 32    	bra       Z, 0x18a8 <.L26>
        last_state = state;
    189a:	c0 40 80    	mov.w     0x818, w0
    189c:	d0 40 88    	mov.w     w0, 0x81a
        // setup state here
        LED1 = ON; delay_by_nop(1);
    189e:	dc e2 a8    	bset.b    0x2dc, #0x7
    18a0:	10 00 20    	mov.w     #0x1, w0
    18a2:	01 00 20    	mov.w     #0x0, w1
    18a4:	ba 03 07    	rcall     0x201a <_delay_by_nop> <.L0> <.LFB0> <.LFE16> <.Letext0> <.Ltext0>
        MODULE_LED_RED = ON;
    18a6:	da 02 a8    	bset.b    0x2da, #0x0

000018a8 <.L26>:
    }

    // Perform state tasks
    updateDisplay();
    18a8:	d7 00 07    	rcall     0x1a58 <_updateDisplay> <.LFB8> <.LFE5>
    if (read_analog(A5_AN) > 500) { //TODO: Add real submit button pin mapping
    18aa:	00 00 eb    	clr.w     w0
    18ac:	fa 08 07    	rcall     0x2aa2 <_read_analog> <.LFB1> <.LFE0>
    18ae:	41 1f 20    	mov.w     #0x1f4, w1
    18b0:	81 0f 50    	sub.w     w0, w1, [w15]
    18b2:	38 00 36    	bra       LEU, 0x1924 <.L27>
        if ((set0[i0] == codeword[0]) &&
    18b4:	21 40 80    	mov.w     0x804, w1
    18b6:	10 c8 bf    	mov.b     0x810, WREG
    18b8:	00 80 fb    	ze        w0, w0
    18ba:	00 80 40    	add.w     w1, w0, w0
    18bc:	90 40 78    	mov.b     [w0], w1
    18be:	70 40 80    	mov.w     0x80e, w0
    18c0:	10 40 78    	mov.b     [w0], w0
    18c2:	80 cf 50    	sub.b     w1, w0, [w15]
    18c4:	2b 00 3a    	bra       NZ, 0x191c <.L28>
            (set1[i1] == codeword[1]) &&
    18c6:	31 40 80    	mov.w     0x806, w1
    18c8:	11 c8 bf    	mov.b     0x811, WREG
    18ca:	00 80 fb    	ze        w0, w0
    18cc:	00 80 40    	add.w     w1, w0, w0
    18ce:	90 40 78    	mov.b     [w0], w1
    18d0:	70 40 80    	mov.w     0x80e, w0
    18d2:	00 00 e8    	inc.w     w0, w0
    18d4:	10 40 78    	mov.b     [w0], w0
    18d6:	80 cf 50    	sub.b     w1, w0, [w15]
    18d8:	21 00 3a    	bra       NZ, 0x191c <.L28>
            (set2[i2] == codeword[2]) &&
    18da:	41 40 80    	mov.w     0x808, w1
    18dc:	12 c8 bf    	mov.b     0x812, WREG
    18de:	00 80 fb    	ze        w0, w0
    18e0:	00 80 40    	add.w     w1, w0, w0
    18e2:	90 40 78    	mov.b     [w0], w1
    18e4:	70 40 80    	mov.w     0x80e, w0
    18e6:	00 80 e8    	inc2.w    w0, w0
    18e8:	10 40 78    	mov.b     [w0], w0
    18ea:	80 cf 50    	sub.b     w1, w0, [w15]
    18ec:	17 00 3a    	bra       NZ, 0x191c <.L28>
            (set3[i3] == codeword[3]) &&
    18ee:	51 40 80    	mov.w     0x80a, w1
    18f0:	13 c8 bf    	mov.b     0x813, WREG
    18f2:	00 80 fb    	ze        w0, w0
    18f4:	00 80 40    	add.w     w1, w0, w0
    18f6:	90 40 78    	mov.b     [w0], w1
    18f8:	70 40 80    	mov.w     0x80e, w0
    18fa:	63 00 40    	add.w     w0, #0x3, w0
    18fc:	10 40 78    	mov.b     [w0], w0
    18fe:	80 cf 50    	sub.b     w1, w0, [w15]
    1900:	0d 00 3a    	bra       NZ, 0x191c <.L28>
            (set4[i4] == codeword[4])) {
    1902:	61 40 80    	mov.w     0x80c, w1
    1904:	14 c8 bf    	mov.b     0x814, WREG
    1906:	00 80 fb    	ze        w0, w0
    1908:	00 80 40    	add.w     w1, w0, w0
    190a:	90 40 78    	mov.b     [w0], w1
    190c:	70 40 80    	mov.w     0x80e, w0
    190e:	64 00 40    	add.w     w0, #0x4, w0
    1910:	10 40 78    	mov.b     [w0], w0
    1912:	80 cf 50    	sub.b     w1, w0, [w15]
    1914:	03 00 3a    	bra       NZ, 0x191c <.L28>
                state = solved;
    1916:	00 96 21    	mov.w     #0x1960, w0
    1918:	c0 40 88    	mov.w     w0, 0x818
    191a:	04 00 37    	bra       0x1924 <.L27>

0000191c <.L28>:
        } else {
            num_strikes++;
    191c:	22 c8 bf    	mov.b     0x822, WREG
    191e:	00 40 e8    	inc.b     w0, w0
    1920:	22 e8 b7    	mov.b     WREG, 0x822
            LED3 = OFF;
    1922:	ec 22 a9    	bclr.b    0x2ec, #0x1

00001924 <.L27>:
        }
    }
    lcd_print2(&lcd1, dispptr, "");
    1924:	00 40 80    	mov.w     0x800, w0
    1926:	82 51 29    	mov.w     #0x9518, w2
    1928:	80 00 78    	mov.w     w0, w1
    192a:	00 05 21    	mov.w     #0x1050, w0
    192c:	9e 02 07    	rcall     0x1e6a <_lcd_print2> <.LFB13> <.LFE12>
    delay_by_nop(30000);
    192e:	00 53 27    	mov.w     #0x7530, w0
    1930:	01 00 20    	mov.w     #0x0, w1
    1932:	73 03 07    	rcall     0x201a <_delay_by_nop> <.L0> <.LFB0> <.LFE16> <.Letext0> <.Ltext0>

    // Check for state transitions
    if (win_flag == 1) {
    1934:	25 c8 bf    	mov.b     0x825, WREG
    1936:	e1 4f 50    	sub.b     w0, #0x1, [w15]
    1938:	03 00 3a    	bra       NZ, 0x1940 <.L29>
        state = end_win;
    193a:	e0 9a 21    	mov.w     #0x19ae, w0
    193c:	c0 40 88    	mov.w     w0, 0x818
    193e:	05 00 37    	bra       0x194a <.L30>

00001940 <.L29>:
    } else if (lose_flag == 1) {
    1940:	26 c8 bf    	mov.b     0x826, WREG
    1942:	e1 4f 50    	sub.b     w0, #0x1, [w15]
    1944:	02 00 3a    	bra       NZ, 0x194a <.L30>
        state = end_fail;
    1946:	40 a0 21    	mov.w     #0x1a04, w0
    1948:	c0 40 88    	mov.w     w0, 0x818

0000194a <.L30>:
    }

    // State Cleanup
    if (state != last_state) {
    194a:	c1 40 80    	mov.w     0x818, w1
    194c:	d0 40 80    	mov.w     0x81a, w0
    194e:	80 8f 50    	sub.w     w1, w0, [w15]
    1950:	05 00 32    	bra       Z, 0x195c <.L25>
        // cleanup state here
        LED1=OFF; delay_by_nop(1);
    1952:	dc e2 a9    	bclr.b    0x2dc, #0x7
    1954:	10 00 20    	mov.w     #0x1, w0
    1956:	01 00 20    	mov.w     #0x0, w1
    1958:	60 03 07    	rcall     0x201a <_delay_by_nop> <.L0> <.LFB0> <.LFE16> <.Letext0> <.Ltext0>
        MODULE_LED_RED = OFF;
    195a:	da 02 a9    	bclr.b    0x2da, #0x0

0000195c <.L25>:
    }
}
    195c:	00 80 fa    	ulnk      
    195e:	00 00 06    	return    

00001960 <_solved>:

void solved(void) { // The puzzle on this module is finished
    1960:	00 00 fa    	lnk       #0x0
    // State Setup
    if (state != last_state) {
    1962:	c1 40 80    	mov.w     0x818, w1
    1964:	d0 40 80    	mov.w     0x81a, w0
    1966:	80 8f 50    	sub.w     w1, w0, [w15]
    1968:	06 00 32    	bra       Z, 0x1976 <.L33>
        // setup state here
        last_state = state;
    196a:	c0 40 80    	mov.w     0x818, w0
    196c:	d0 40 88    	mov.w     w0, 0x81a
        LED3 = ON;
    196e:	ec 22 a8    	bset.b    0x2ec, #0x1
        complete_flag = 1;
    1970:	10 c0 b3    	mov.b     #0x1, w0
    1972:	21 e8 b7    	mov.b     WREG, 0x821
        MODULE_LED_GREEN = ON;
    1974:	da 22 a8    	bset.b    0x2da, #0x1

00001976 <.L33>:
    }

    // Perform state tasks
    lcd_print2(&lcd1, dispptr, "  --CORRECT--  ");
    1976:	00 40 80    	mov.w     0x800, w0
    1978:	12 53 29    	mov.w     #0x9531, w2
    197a:	80 00 78    	mov.w     w0, w1
    197c:	00 05 21    	mov.w     #0x1050, w0
    197e:	75 02 07    	rcall     0x1e6a <_lcd_print2> <.LFB13> <.LFE12>
    delay_by_nop(30000);
    1980:	00 53 27    	mov.w     #0x7530, w0
    1982:	01 00 20    	mov.w     #0x0, w1
    1984:	4a 03 07    	rcall     0x201a <_delay_by_nop> <.L0> <.LFB0> <.LFE16> <.Letext0> <.Ltext0>

    // Check for state transitions
    if (win_flag == 1) {
    1986:	25 c8 bf    	mov.b     0x825, WREG
    1988:	e1 4f 50    	sub.b     w0, #0x1, [w15]
    198a:	03 00 3a    	bra       NZ, 0x1992 <.L34>
        state = end_win;
    198c:	e0 9a 21    	mov.w     #0x19ae, w0
    198e:	c0 40 88    	mov.w     w0, 0x818
    1990:	05 00 37    	bra       0x199c <.L35>

00001992 <.L34>:
    } else if (lose_flag == 1) {
    1992:	26 c8 bf    	mov.b     0x826, WREG
    1994:	e1 4f 50    	sub.b     w0, #0x1, [w15]
    1996:	02 00 3a    	bra       NZ, 0x199c <.L35>
        state = end_fail;
    1998:	40 a0 21    	mov.w     #0x1a04, w0
    199a:	c0 40 88    	mov.w     w0, 0x818

0000199c <.L35>:
    }

    // State Cleanup
    if (state != last_state) {
    199c:	c1 40 80    	mov.w     0x818, w1
    199e:	d0 40 80    	mov.w     0x81a, w0
    19a0:	80 8f 50    	sub.w     w1, w0, [w15]
    19a2:	03 00 32    	bra       Z, 0x19aa <.L32>
        // cleanup state here
        LED3 = OFF;
    19a4:	ec 22 a9    	bclr.b    0x2ec, #0x1
        complete_flag = 0;
    19a6:	21 68 ef    	clr.b     0x821
        MODULE_LED_GREEN = OFF;
    19a8:	da 22 a9    	bclr.b    0x2da, #0x1

000019aa <.L32>:
    }
}
    19aa:	00 80 fa    	ulnk      
    19ac:	00 00 06    	return    

000019ae <_end_win>:

void end_win(void) { // The master module said the game was won
    19ae:	00 00 fa    	lnk       #0x0
    // State Setup
    if (state != last_state) {
    19b0:	c1 40 80    	mov.w     0x818, w1
    19b2:	d0 40 80    	mov.w     0x81a, w0
    19b4:	80 8f 50    	sub.w     w1, w0, [w15]
    19b6:	0a 00 32    	bra       Z, 0x19cc <.L38>
        last_state = state;
    19b8:	c0 40 80    	mov.w     0x818, w0
    19ba:	d0 40 88    	mov.w     w0, 0x81a
        MODULE_LED_GREEN = ON;
    19bc:	da 22 a8    	bset.b    0x2da, #0x1

        T1CON = 0x0030;         // set Timer1 period to 0.5s
    19be:	00 03 20    	mov.w     #0x30, w0
    19c0:	20 08 88    	mov.w     w0, 0x104
        PR1 = 0x7A11;
    19c2:	10 a1 27    	mov.w     #0x7a11, w0
    19c4:	10 08 88    	mov.w     w0, 0x102

        TMR1 = 0;               // set Timer1 count to 0
    19c6:	00 21 ef    	clr.w     0x100
        IFS0bits.T1IF = 0;      // lower Timer1 interrupt flag
    19c8:	84 60 a9    	bclr.b    0x84, #0x3
        T1CONbits.TON = 1;      // turn on Timer1
    19ca:	05 e1 a8    	bset.b    0x105, #0x7

000019cc <.L38>:
    }

    // Perform state tasks
    if (IFS0bits.T1IF == 1) {
    19cc:	20 04 80    	mov.w     0x84, w0
    19ce:	68 00 60    	and.w     w0, #0x8, w0
    19d0:	00 00 e0    	cp0.w     w0
    19d2:	10 00 32    	bra       Z, 0x19f4 <.L39>
        IFS0bits.T1IF = 0;      // lower Timer1 interrupt flag
    19d4:	84 60 a9    	bclr.b    0x84, #0x3
        MODULE_LED_GREEN = !MODULE_LED_GREEN;           // toggle LED
    19d6:	d0 16 80    	mov.w     0x2da, w0
    19d8:	62 00 60    	and.w     w0, #0x2, w0
    19da:	00 f0 a7    	btsc.w    w0, #0xf
    19dc:	00 00 ea    	neg.w     w0, w0
    19de:	00 00 e9    	dec.w     w0, w0
    19e0:	4f 00 de    	lsr.w     w0, #0xf, w0
    19e2:	00 40 78    	mov.b     w0, w0
    19e4:	00 80 fb    	ze        w0, w0
    19e6:	61 00 60    	and.w     w0, #0x1, w0
    19e8:	00 00 40    	add.w     w0, w0, w0
    19ea:	d2 16 80    	mov.w     0x2da, w2
    19ec:	d1 ff 2f    	mov.w     #0xfffd, w1
    19ee:	81 00 61    	and.w     w2, w1, w1
    19f0:	01 00 70    	ior.w     w0, w1, w0
    19f2:	d0 16 88    	mov.w     w0, 0x2da

000019f4 <.L39>:
    }

    // Check for state transitions

    // State Cleanup
    if (state != last_state) {
    19f4:	c1 40 80    	mov.w     0x818, w1
    19f6:	d0 40 80    	mov.w     0x81a, w0
    19f8:	80 8f 50    	sub.w     w1, w0, [w15]
    19fa:	02 00 32    	bra       Z, 0x1a00 <.L37>
        // cleanup state here
        MODULE_LED_GREEN = OFF;
    19fc:	da 22 a9    	bclr.b    0x2da, #0x1
        T1CONbits.TON = 0;      // turn off Timer1
    19fe:	05 e1 a9    	bclr.b    0x105, #0x7

00001a00 <.L37>:
    }
}
    1a00:	00 80 fa    	ulnk      
    1a02:	00 00 06    	return    

00001a04 <_end_fail>:

void end_fail(void) { // The master module said the game was lost
    1a04:	00 00 fa    	lnk       #0x0
    // State Setup
    if (state != last_state) {
    1a06:	c1 40 80    	mov.w     0x818, w1
    1a08:	d0 40 80    	mov.w     0x81a, w0
    1a0a:	80 8f 50    	sub.w     w1, w0, [w15]
    1a0c:	0a 00 32    	bra       Z, 0x1a22 <.L42>
        // setup state here
        last_state = state;
    1a0e:	c0 40 80    	mov.w     0x818, w0
    1a10:	d0 40 88    	mov.w     w0, 0x81a
        MODULE_LED_RED = ON;
    1a12:	da 02 a8    	bset.b    0x2da, #0x0

        T1CON = 0x0030;         // set Timer1 period to 0.5s
    1a14:	00 03 20    	mov.w     #0x30, w0
    1a16:	20 08 88    	mov.w     w0, 0x104
        PR1 = 0x7A11;
    1a18:	10 a1 27    	mov.w     #0x7a11, w0
    1a1a:	10 08 88    	mov.w     w0, 0x102

        TMR1 = 0;               // set Timer1 count to 0
    1a1c:	00 21 ef    	clr.w     0x100
        IFS0bits.T1IF = 0;      // lower Timer1 interrupt flag
    1a1e:	84 60 a9    	bclr.b    0x84, #0x3
        T1CONbits.TON = 1;      // turn on Timer1
    1a20:	05 e1 a8    	bset.b    0x105, #0x7

00001a22 <.L42>:
    }

    // Perform state tasks
    if (IFS0bits.T1IF == 1) {
    1a22:	20 04 80    	mov.w     0x84, w0
    1a24:	68 00 60    	and.w     w0, #0x8, w0
    1a26:	00 00 e0    	cp0.w     w0
    1a28:	0f 00 32    	bra       Z, 0x1a48 <.L43>
        IFS0bits.T1IF = 0;      // lower Timer1 interrupt flag
    1a2a:	84 60 a9    	bclr.b    0x84, #0x3
        MODULE_LED_RED = !MODULE_LED_RED;           // toggle LED
    1a2c:	d0 16 80    	mov.w     0x2da, w0
    1a2e:	61 00 60    	and.w     w0, #0x1, w0
    1a30:	00 f0 a7    	btsc.w    w0, #0xf
    1a32:	00 00 ea    	neg.w     w0, w0
    1a34:	00 00 e9    	dec.w     w0, w0
    1a36:	4f 00 de    	lsr.w     w0, #0xf, w0
    1a38:	00 40 78    	mov.b     w0, w0
    1a3a:	00 80 fb    	ze        w0, w0
    1a3c:	61 00 60    	and.w     w0, #0x1, w0
    1a3e:	d2 16 80    	mov.w     0x2da, w2
    1a40:	e1 ff 2f    	mov.w     #0xfffe, w1
    1a42:	81 00 61    	and.w     w2, w1, w1
    1a44:	01 00 70    	ior.w     w0, w1, w0
    1a46:	d0 16 88    	mov.w     w0, 0x2da

00001a48 <.L43>:
    }

    // Check for state transitions

    // State Cleanup
    if (state != last_state) {
    1a48:	c1 40 80    	mov.w     0x818, w1
    1a4a:	d0 40 80    	mov.w     0x81a, w0
    1a4c:	80 8f 50    	sub.w     w1, w0, [w15]
    1a4e:	02 00 32    	bra       Z, 0x1a54 <.L41>
        // cleanup state here
        MODULE_LED_RED = OFF;
    1a50:	da 02 a9    	bclr.b    0x2da, #0x0
        T1CONbits.TON = 0;      // turn off Timer1
    1a52:	05 e1 a9    	bclr.b    0x105, #0x7

00001a54 <.L41>:
    }
}
    1a54:	00 80 fa    	ulnk      
    1a56:	00 00 06    	return    

00001a58 <_updateDisplay>:

// ISRs ////////////////////////////////////////////////////////////////////////

void __attribute__((interrupt, auto_psv)) _CNInterrupt(void) {
    IFS1bits.CNIF = 0;      // lower INT3 interrupt flag
    TMR2 = 0;                 // reset debounce Timer2
    IFS0bits.T2IF = 0;        // lower Timer2 Interrupt flag
    T2CONbits.TON = 1;        // start Timer2
    LED1 = ON;
}

void __attribute__((interrupt, auto_psv)) _T2Interrupt(void) {
    IFS0bits.T2IF = 0;      // lower Timer2 interrupt flag
    T2CONbits.TON = 0;      // turn off timer
    LED1 = OFF;

    // Sample pins and increment/decrement index of character displayed
    if(!D0) {i0 = (i0+1)% LETTERS_PER_COLUMN;} else
    if(!D1) {i0 = (i0 - 1);
        if(i0 > 5) {i0 = LETTERS_PER_COLUMN - 1;}
    }

    if(!D12) {i1 = (i1+1)% LETTERS_PER_COLUMN;} else
    if(!D13) {i1 = (i1 - 1);}
    if(i1 > 5) {i1 += LETTERS_PER_COLUMN;}

    if(!D4) {i2 = (i2+1)% LETTERS_PER_COLUMN;} else
    if(!D5) {i2 = (i2 - 1);}
    if(i2 > 5) {i2 += LETTERS_PER_COLUMN;}

    if(!D6) {i3 = (i3+1)% LETTERS_PER_COLUMN;} else
    if(!D7) {i3 = (i3 - 1);}
    if(i3 > 5) {i3 += LETTERS_PER_COLUMN;}

    if(!D8) {i4 = (i4+1)% LETTERS_PER_COLUMN;} else
    if(!D9) {i4 = (i4 - 1);}
    if(i4 > 5) {i4 += LETTERS_PER_COLUMN;}

    updateDisplay();
}


// HELPER FUNCTIONS ////////////////////////////////////////////////////////////

void updateDisplay(void) {
    1a58:	00 00 fa    	lnk       #0x0
    dispptr[1] = set0[i0];
    1a5a:	00 40 80    	mov.w     0x800, w0
    1a5c:	00 00 e8    	inc.w     w0, w0
    1a5e:	22 40 80    	mov.w     0x804, w2
    1a60:	01 81 20    	mov.w     #0x810, w1
    1a62:	91 40 78    	mov.b     [w1], w1
    1a64:	81 80 fb    	ze        w1, w1
    1a66:	81 00 41    	add.w     w2, w1, w1
    1a68:	91 40 78    	mov.b     [w1], w1
    1a6a:	01 48 78    	mov.b     w1, [w0]
    dispptr[4] = set1[i1];
    1a6c:	00 40 80    	mov.w     0x800, w0
    1a6e:	64 00 40    	add.w     w0, #0x4, w0
    1a70:	32 40 80    	mov.w     0x806, w2
    1a72:	11 81 20    	mov.w     #0x811, w1
    1a74:	91 40 78    	mov.b     [w1], w1
    1a76:	81 80 fb    	ze        w1, w1
    1a78:	81 00 41    	add.w     w2, w1, w1
    1a7a:	91 40 78    	mov.b     [w1], w1
    1a7c:	01 48 78    	mov.b     w1, [w0]
    dispptr[7] = set2[i2];
    1a7e:	00 40 80    	mov.w     0x800, w0
    1a80:	67 00 40    	add.w     w0, #0x7, w0
    1a82:	42 40 80    	mov.w     0x808, w2
    1a84:	21 81 20    	mov.w     #0x812, w1
    1a86:	91 40 78    	mov.b     [w1], w1
    1a88:	81 80 fb    	ze        w1, w1
    1a8a:	81 00 41    	add.w     w2, w1, w1
    1a8c:	91 40 78    	mov.b     [w1], w1
    1a8e:	01 48 78    	mov.b     w1, [w0]
    dispptr[10] = set3[i3];
    1a90:	00 40 80    	mov.w     0x800, w0
    1a92:	6a 00 40    	add.w     w0, #0xa, w0
    1a94:	52 40 80    	mov.w     0x80a, w2
    1a96:	31 81 20    	mov.w     #0x813, w1
    1a98:	91 40 78    	mov.b     [w1], w1
    1a9a:	81 80 fb    	ze        w1, w1
    1a9c:	81 00 41    	add.w     w2, w1, w1
    1a9e:	91 40 78    	mov.b     [w1], w1
    1aa0:	01 48 78    	mov.b     w1, [w0]
    dispptr[13] = set4[i4];
    1aa2:	00 40 80    	mov.w     0x800, w0
    1aa4:	6d 00 40    	add.w     w0, #0xd, w0
    1aa6:	62 40 80    	mov.w     0x80c, w2
    1aa8:	41 81 20    	mov.w     #0x814, w1
    1aaa:	91 40 78    	mov.b     [w1], w1
    1aac:	81 80 fb    	ze        w1, w1
    1aae:	81 00 41    	add.w     w2, w1, w1
    1ab0:	91 40 78    	mov.b     [w1], w1
    1ab2:	01 48 78    	mov.b     w1, [w0]
}
    1ab4:	00 80 fa    	ulnk      
    1ab6:	00 00 06    	return    

00001ab8 <_toggleSwitchSetup>:

void toggleSwitchSetup(void) {
    1ab8:	00 00 fa    	lnk       #0x0
    // Initialize pins as inputs
    D0_DIR = 1; //D0 as input
    1aba:	d8 a2 a8    	bset.b    0x2d8, #0x5
    D1_DIR = 1; //D1 as input
    1abc:	d8 82 a8    	bset.b    0x2d8, #0x4

    D4_DIR = 1; //D4 as input
    1abe:	c9 e2 a8    	bset.b    0x2c9, #0x7
    D5_DIR = 1; //D5 as input
    1ac0:	e8 62 a8    	bset.b    0x2e8, #0x3
    D6_DIR = 1; //D6 as input
    1ac2:	d9 02 a8    	bset.b    0x2d9, #0x0
    D7_DIR = 1; //D7 as input
    1ac4:	d9 62 a8    	bset.b    0x2d9, #0x3
    D8_DIR = 1; //D8 as input
    1ac6:	d9 22 a8    	bset.b    0x2d9, #0x1
    D9_DIR = 1; //D9 as input
    1ac8:	d9 42 a8    	bset.b    0x2d9, #0x2
    D10_DIR = 0; // D10 and D11 are module LEDs
    1aca:	d8 02 a9    	bclr.b    0x2d8, #0x0
    D11_DIR = 0;
    1acc:	d8 22 a9    	bclr.b    0x2d8, #0x1
    D12_DIR = 1;//D12 as input
    1ace:	d8 42 a8    	bset.b    0x2d8, #0x2
    D13_DIR = 1;//D13 as input
    1ad0:	d8 62 a8    	bset.b    0x2d8, #0x3

    D0_PUE = 1; //D0 pullup enable
    1ad2:	6f c0 a8    	bset.b    0x6f, #0x6
    D1_PUE = 1; //D1 pullup enable
    1ad4:	6f a0 a8    	bset.b    0x6f, #0x5

    D4_PUE = 1; //D4 pullup enable
    1ad6:	6f 80 a8    	bset.b    0x6f, #0x4
    D5_PUE = 1; //D5 pullup enable
    1ad8:	76 e0 a8    	bset.b    0x76, #0x7
    D6_PUE = 1; //D6 pullup enable
    1ada:	74 a0 a8    	bset.b    0x74, #0x5
    D7_PUE = 1; //D7 pullup enable
    1adc:	75 00 a8    	bset.b    0x75, #0x0
    D8_PUE = 1; //D8 pullup enable
    1ade:	74 c0 a8    	bset.b    0x74, #0x6
    D9_PUE = 1; //D9 pullup enable
    1ae0:	74 e0 a8    	bset.b    0x74, #0x7
    D12_PUE = 1;//D12 pullup enable
    1ae2:	74 60 a8    	bset.b    0x74, #0x3
    D13_PUE = 1;//D13 pullup enable
    1ae4:	74 80 a8    	bset.b    0x74, #0x4

    D0_CNEN = 1; //D0 interrupt enable
    1ae6:	63 c0 a8    	bset.b    0x63, #0x6
    D1_CNEN = 1; //D1 interrupt enable
    1ae8:	63 a0 a8    	bset.b    0x63, #0x5

    D4_CNEN = 1; //D4 interrupt enable
    1aea:	63 80 a8    	bset.b    0x63, #0x4
    D5_CNEN = 1; //D5 interrupt enable
    1aec:	6a e0 a8    	bset.b    0x6a, #0x7
    D6_CNEN = 1; //D6 interrupt enable
    1aee:	68 a0 a8    	bset.b    0x68, #0x5
    D7_CNEN = 1; //D7 interrupt enable
    1af0:	69 00 a8    	bset.b    0x69, #0x0
    D8_CNEN = 1; //D8 interrupt enable
    1af2:	68 c0 a8    	bset.b    0x68, #0x6
    D9_CNEN = 1; //D9 interrupt enable
    1af4:	68 e0 a8    	bset.b    0x68, #0x7
    D12_CNEN = 1;//D12 interrupt enable
    1af6:	68 60 a8    	bset.b    0x68, #0x3
    D13_CNEN = 1;//D13 interrupt enable
    1af8:	68 80 a8    	bset.b    0x68, #0x4

    IFS1bits.CNIF = 0; // lower CN interrupt flag
    1afa:	86 60 a9    	bclr.b    0x86, #0x3
    IEC1bits.CNIE = 1; // Enable CN interrupt module
    1afc:	96 60 a8    	bset.b    0x96, #0x3
}
    1afe:	00 80 fa    	ulnk      
    1b00:	00 00 06    	return    

00001b02 <_rand_next>:

void rand_next(void) {
    1b02:	02 00 fa    	lnk       #0x2
    uint16_t val;

    // See "A List of Maximum Period NLFSRs" by Elena Dubrova, p. 7
    val = (rand_val ^ (rand_val >> 2) ^ (rand_val >> 13) ^ ((rand_val >> 2) & (rand_val >> 3))) & 1;
    1b04:	b0 40 80    	mov.w     0x816, w0
    1b06:	c2 00 de    	lsr.w     w0, #0x2, w1
    1b08:	b0 40 80    	mov.w     0x816, w0
    1b0a:	80 80 68    	xor.w     w1, w0, w1
    1b0c:	b0 40 80    	mov.w     0x816, w0
    1b0e:	4d 00 de    	lsr.w     w0, #0xd, w0
    1b10:	80 80 68    	xor.w     w1, w0, w1
    1b12:	b0 40 80    	mov.w     0x816, w0
    1b14:	42 01 de    	lsr.w     w0, #0x2, w2
    1b16:	b0 40 80    	mov.w     0x816, w0
    1b18:	43 00 de    	lsr.w     w0, #0x3, w0
    1b1a:	00 00 61    	and.w     w2, w0, w0
    1b1c:	00 80 68    	xor.w     w1, w0, w0
    1b1e:	61 0f 60    	and.w     w0, #0x1, [w14]
    rand_val = (rand_val >> 1) | (val << 15);
    1b20:	b0 40 80    	mov.w     0x816, w0
    1b22:	80 00 d1    	lsr.w     w0, w1
    1b24:	1e 00 78    	mov.w     [w14], w0
    1b26:	4f 00 dd    	sl.w      w0, #0xf, w0
    1b28:	01 00 70    	ior.w     w0, w1, w0
    1b2a:	b0 40 88    	mov.w     w0, 0x816
}
    1b2c:	00 80 fa    	ulnk      
    1b2e:	00 00 06    	return    

00001b30 <___lcd_i2c_write>:
#define DR_READ 0x0B

_LCD lcd[3];

void __lcd_i2c_write(_LCD *self, uint8_t ch) {
    1b30:	04 00 fa    	lnk       #0x4
    1b32:	00 0f 78    	mov.w     w0, [w14]
    1b34:	21 47 98    	mov.b     w1, [w14+2]
    i2c_start();
    1b36:	91 02 07    	rcall     0x205a <_i2c_start> <.LFB2> <.LFE1>
    send_i2c_byte(self->addr_write);
    1b38:	1e 00 78    	mov.w     [w14], w0
    1b3a:	10 40 78    	mov.b     [w0], w0
    1b3c:	00 80 fb    	ze        w0, w0
    1b3e:	dc 02 07    	rcall     0x20f8 <_send_i2c_byte> <.LFB5> <.LFE4>
    send_i2c_byte(ch);
    1b40:	2e 40 90    	mov.b     [w14+2], w0
    1b42:	00 80 fb    	ze        w0, w0
    1b44:	d9 02 07    	rcall     0x20f8 <_send_i2c_byte> <.LFB5> <.LFE4>
    reset_i2c_bus();
    1b46:	bd 02 07    	rcall     0x20c2 <_reset_i2c_bus> <.LFB4> <.LFE3>
}
    1b48:	00 80 fa    	ulnk      
    1b4a:	00 00 06    	return    

00001b4c <___lcd_enablePulse>:

// Pulse enable pin high and then low to shift in 4 bits of data
void __lcd_enablePulse(_LCD *self) {
    1b4c:	02 00 fa    	lnk       #0x2
    1b4e:	00 0f 78    	mov.w     w0, [w14]
    self->io_write_val ^= ENABLE_TOGGLE;
    1b50:	1e 00 78    	mov.w     [w14], w0
    1b52:	20 40 90    	mov.b     [w0+2], w0
    1b54:	80 40 78    	mov.b     w0, w1
    1b56:	01 24 a2    	btg.b     w1, #0x2
    1b58:	1e 00 78    	mov.w     [w14], w0
    1b5a:	21 40 98    	mov.b     w1, [w0+2]
    __lcd_i2c_write(self, self->io_write_val);
    1b5c:	1e 00 78    	mov.w     [w14], w0
    1b5e:	20 40 90    	mov.b     [w0+2], w0
    1b60:	80 40 78    	mov.b     w0, w1
    1b62:	1e 00 78    	mov.w     [w14], w0
    1b64:	e5 ff 07    	rcall     0x1b30 <___lcd_i2c_write> <.L0> <.LFB0> <.LFE10> <.Letext0> <.Ltext0>
    delay_by_nop(100);
    1b66:	40 06 20    	mov.w     #0x64, w0
    1b68:	01 00 20    	mov.w     #0x0, w1
    1b6a:	57 02 07    	rcall     0x201a <_delay_by_nop> <.L0> <.LFB0> <.LFE16> <.Letext0> <.Ltext0>
    self->io_write_val ^= ENABLE_TOGGLE;
    1b6c:	1e 00 78    	mov.w     [w14], w0
    1b6e:	20 40 90    	mov.b     [w0+2], w0
    1b70:	80 40 78    	mov.b     w0, w1
    1b72:	01 24 a2    	btg.b     w1, #0x2
    1b74:	1e 00 78    	mov.w     [w14], w0
    1b76:	21 40 98    	mov.b     w1, [w0+2]
    __lcd_i2c_write(self, self->io_write_val);
    1b78:	1e 00 78    	mov.w     [w14], w0
    1b7a:	20 40 90    	mov.b     [w0+2], w0
    1b7c:	80 40 78    	mov.b     w0, w1
    1b7e:	1e 00 78    	mov.w     [w14], w0
    1b80:	d7 ff 07    	rcall     0x1b30 <___lcd_i2c_write> <.L0> <.LFB0> <.LFE10> <.Letext0> <.Ltext0>
    // delay_by_nop(1000);
}
    1b82:	00 80 fa    	ulnk      
    1b84:	00 00 06    	return    

00001b86 <___lcd_send>:

/* Send 8 bits of data as one 4-bit nibble, shifting in, second 4-bit nibble, and
shifting in */
void __lcd_send(_LCD *self, uint8_t value, uint8_t command) {
    1b86:	06 00 fa    	lnk       #0x6
    1b88:	10 07 98    	mov.w     w0, [w14+2]
    1b8a:	41 47 98    	mov.b     w1, [w14+4]
    1b8c:	52 47 98    	mov.b     w2, [w14+5]
    uint8_t MS = value & 0x78;
    1b8e:	4e 40 90    	mov.b     [w14+4], w0
    1b90:	81 c7 b3    	mov.b     #0x78, w1
    1b92:	01 4f 60    	and.b     w0, w1, [w14]
    uint8_t LS = value << 4;
    1b94:	ce 40 90    	mov.b     [w14+4], w1
    1b96:	40 00 20    	mov.w     #0x4, w0
    1b98:	00 08 dd    	sl.w      w1, w0, w0
    1b9a:	10 47 98    	mov.b     w0, [w14+1]
    self->io_write_val = command | MS;
    1b9c:	5e 40 90    	mov.b     [w14+5], w0
    1b9e:	9e 40 70    	ior.b     w0, [w14], w1
    1ba0:	1e 00 90    	mov.w     [w14+2], w0
    1ba2:	21 40 98    	mov.b     w1, [w0+2]
    __lcd_i2c_write(self, self->io_write_val);
    1ba4:	1e 00 90    	mov.w     [w14+2], w0
    1ba6:	20 40 90    	mov.b     [w0+2], w0
    1ba8:	80 40 78    	mov.b     w0, w1
    1baa:	1e 00 90    	mov.w     [w14+2], w0
    1bac:	c1 ff 07    	rcall     0x1b30 <___lcd_i2c_write> <.L0> <.LFB0> <.LFE10> <.Letext0> <.Ltext0>
    __lcd_enablePulse(self);
    1bae:	1e 00 90    	mov.w     [w14+2], w0
    1bb0:	cd ff 07    	rcall     0x1b4c <___lcd_enablePulse> <.LFB1> <.LFE0>
    self->io_write_val= command | LS;
    1bb2:	de 40 90    	mov.b     [w14+5], w1
    1bb4:	1e 40 90    	mov.b     [w14+1], w0
    1bb6:	80 c0 70    	ior.b     w1, w0, w1
    1bb8:	1e 00 90    	mov.w     [w14+2], w0
    1bba:	21 40 98    	mov.b     w1, [w0+2]
    __lcd_i2c_write(self, self->io_write_val);
    1bbc:	1e 00 90    	mov.w     [w14+2], w0
    1bbe:	20 40 90    	mov.b     [w0+2], w0
    1bc0:	80 40 78    	mov.b     w0, w1
    1bc2:	1e 00 90    	mov.w     [w14+2], w0
    1bc4:	b5 ff 07    	rcall     0x1b30 <___lcd_i2c_write> <.L0> <.LFB0> <.LFE10> <.Letext0> <.Ltext0>
    __lcd_enablePulse(self);
    1bc6:	1e 00 90    	mov.w     [w14+2], w0
    1bc8:	c1 ff 07    	rcall     0x1b4c <___lcd_enablePulse> <.LFB1> <.LFE0>
}
    1bca:	00 80 fa    	ulnk      
    1bcc:	00 00 06    	return    

00001bce <___lcd_send8>:

void __lcd_send8(_LCD *self, uint8_t value, uint8_t command) {
    1bce:	04 00 fa    	lnk       #0x4
    1bd0:	00 0f 78    	mov.w     w0, [w14]
    1bd2:	21 47 98    	mov.b     w1, [w14+2]
    1bd4:	32 47 98    	mov.b     w2, [w14+3]
    value = value << 4;
    1bd6:	ae 40 90    	mov.b     [w14+2], w1
    1bd8:	40 00 20    	mov.w     #0x4, w0
    1bda:	00 08 dd    	sl.w      w1, w0, w0
    1bdc:	20 47 98    	mov.b     w0, [w14+2]
    self->io_write_val = command | value;
    1bde:	be 40 90    	mov.b     [w14+3], w1
    1be0:	2e 40 90    	mov.b     [w14+2], w0
    1be2:	80 c0 70    	ior.b     w1, w0, w1
    1be4:	1e 00 78    	mov.w     [w14], w0
    1be6:	21 40 98    	mov.b     w1, [w0+2]
    __lcd_i2c_write(self, self->io_write_val);
    1be8:	1e 00 78    	mov.w     [w14], w0
    1bea:	20 40 90    	mov.b     [w0+2], w0
    1bec:	80 40 78    	mov.b     w0, w1
    1bee:	1e 00 78    	mov.w     [w14], w0
    1bf0:	9f ff 07    	rcall     0x1b30 <___lcd_i2c_write> <.L0> <.LFB0> <.LFE10> <.Letext0> <.Ltext0>
    __lcd_enablePulse(self);
    1bf2:	1e 00 78    	mov.w     [w14], w0
    1bf4:	ab ff 07    	rcall     0x1b4c <___lcd_enablePulse> <.LFB1> <.LFE0>
}
    1bf6:	00 80 fa    	ulnk      
    1bf8:	00 00 06    	return    

00001bfa <_init_lcd>:

/* Some code from last year's Spaceteam project that sets up three LCD screens on
 one bus with corresponding IO extender types and hard-wired addresses */
void init_lcd(uint8_t initiator) {
    1bfa:	02 00 fa    	lnk       #0x2
    1bfc:	00 4f 78    	mov.b     w0, [w14]

    i2c_init(1e3);
    1bfe:	80 3e 20    	mov.w     #0x3e8, w0
    1c00:	1f 02 07    	rcall     0x2040 <_i2c_init> <.LFB1> <.LFE0>

    switch (initiator) {
    1c02:	1e 80 fb    	ze        [w14], w0
    1c04:	e1 0f 50    	sub.w     w0, #0x1, [w15]
    1c06:	17 00 32    	bra       Z, 0x1c36 <.L8>
    1c08:	e1 0f 50    	sub.w     w0, #0x1, [w15]
    1c0a:	03 00 3c    	bra       GT, 0x1c12 <.L11>
    1c0c:	00 00 e0    	cp0.w     w0
    1c0e:	06 00 32    	bra       Z, 0x1c1c <.L7>
    1c10:	39 00 37    	bra       0x1c84 <.L5>

00001c12 <.L11>:
    1c12:	e2 0f 50    	sub.w     w0, #0x2, [w15]
    1c14:	1d 00 32    	bra       Z, 0x1c50 <.L9>
    1c16:	e3 0f 50    	sub.w     w0, #0x3, [w15]
    1c18:	28 00 32    	bra       Z, 0x1c6a <.L10>
    1c1a:	34 00 37    	bra       0x1c84 <.L5>

00001c1c <.L7>:
        case 0: // Central
            lcd_init(&lcd[0], 0x05,'A');
    1c1c:	12 c4 b3    	mov.b     #0x41, w2
    1c1e:	51 c0 b3    	mov.b     #0x5, w1
    1c20:	00 04 21    	mov.w     #0x1040, w0
    1c22:	32 00 07    	rcall     0x1c88 <_lcd_init> <.LFB5> <.LFE4>
            lcd_init(&lcd[1], 0x07,'A');
    1c24:	12 c4 b3    	mov.b     #0x41, w2
    1c26:	71 c0 b3    	mov.b     #0x7, w1
    1c28:	50 04 21    	mov.w     #0x1045, w0
    1c2a:	2e 00 07    	rcall     0x1c88 <_lcd_init> <.LFB5> <.LFE4>
            lcd_init(&lcd[2], 0x06,'T');
    1c2c:	42 c5 b3    	mov.b     #0x54, w2
    1c2e:	61 c0 b3    	mov.b     #0x6, w1
    1c30:	a0 04 21    	mov.w     #0x104a, w0
    1c32:	2a 00 07    	rcall     0x1c88 <_lcd_init> <.LFB5> <.LFE4>
            break;
    1c34:	27 00 37    	bra       0x1c84 <.L5>

00001c36 <.L8>:
        case 1:
            lcd_init(&lcd[0], 0x07,'A');
    1c36:	12 c4 b3    	mov.b     #0x41, w2
    1c38:	71 c0 b3    	mov.b     #0x7, w1
    1c3a:	00 04 21    	mov.w     #0x1040, w0
    1c3c:	25 00 07    	rcall     0x1c88 <_lcd_init> <.LFB5> <.LFE4>
            lcd_init(&lcd[2], 0x06,'A');
    1c3e:	12 c4 b3    	mov.b     #0x41, w2
    1c40:	61 c0 b3    	mov.b     #0x6, w1
    1c42:	a0 04 21    	mov.w     #0x104a, w0
    1c44:	21 00 07    	rcall     0x1c88 <_lcd_init> <.LFB5> <.LFE4>
            lcd_init(&lcd[1], 0x05,'A');
    1c46:	12 c4 b3    	mov.b     #0x41, w2
    1c48:	51 c0 b3    	mov.b     #0x5, w1
    1c4a:	50 04 21    	mov.w     #0x1045, w0
    1c4c:	1d 00 07    	rcall     0x1c88 <_lcd_init> <.LFB5> <.LFE4>
            break;
    1c4e:	1a 00 37    	bra       0x1c84 <.L5>

00001c50 <.L9>:
        case 2:
            lcd_init(&lcd[0], 0x07,'T');
    1c50:	42 c5 b3    	mov.b     #0x54, w2
    1c52:	71 c0 b3    	mov.b     #0x7, w1
    1c54:	00 04 21    	mov.w     #0x1040, w0
    1c56:	18 00 07    	rcall     0x1c88 <_lcd_init> <.LFB5> <.LFE4>
            lcd_init(&lcd[1], 0x06,'A');
    1c58:	12 c4 b3    	mov.b     #0x41, w2
    1c5a:	61 c0 b3    	mov.b     #0x6, w1
    1c5c:	50 04 21    	mov.w     #0x1045, w0
    1c5e:	14 00 07    	rcall     0x1c88 <_lcd_init> <.LFB5> <.LFE4>
            lcd_init(&lcd[2], 0x05,'A');
    1c60:	12 c4 b3    	mov.b     #0x41, w2
    1c62:	51 c0 b3    	mov.b     #0x5, w1
    1c64:	a0 04 21    	mov.w     #0x104a, w0
    1c66:	10 00 07    	rcall     0x1c88 <_lcd_init> <.LFB5> <.LFE4>
            break;
    1c68:	0d 00 37    	bra       0x1c84 <.L5>

00001c6a <.L10>:
        case 3:
            lcd_init(&lcd[0], 0x07,'A');
    1c6a:	12 c4 b3    	mov.b     #0x41, w2
    1c6c:	71 c0 b3    	mov.b     #0x7, w1
    1c6e:	00 04 21    	mov.w     #0x1040, w0
    1c70:	0b 00 07    	rcall     0x1c88 <_lcd_init> <.LFB5> <.LFE4>
            lcd_init(&lcd[1], 0x06,'A');
    1c72:	12 c4 b3    	mov.b     #0x41, w2
    1c74:	61 c0 b3    	mov.b     #0x6, w1
    1c76:	50 04 21    	mov.w     #0x1045, w0
    1c78:	07 00 07    	rcall     0x1c88 <_lcd_init> <.LFB5> <.LFE4>
            lcd_init(&lcd[2], 0x05,'A');
    1c7a:	12 c4 b3    	mov.b     #0x41, w2
    1c7c:	51 c0 b3    	mov.b     #0x5, w1
    1c7e:	a0 04 21    	mov.w     #0x104a, w0
    1c80:	03 00 07    	rcall     0x1c88 <_lcd_init> <.LFB5> <.LFE4>
            break;
    1c82:	00 00 00    	nop       

00001c84 <.L5>:
    }
}
    1c84:	00 80 fa    	ulnk      
    1c86:	00 00 06    	return    

00001c88 <_lcd_init>:

// Initializes the LCD screen hardware as per pg. 46 of the datasheet
void lcd_init(_LCD *self, uint8_t addr, char vendor) {
    1c88:	04 00 fa    	lnk       #0x4
    1c8a:	00 0f 78    	mov.w     w0, [w14]
    1c8c:	21 47 98    	mov.b     w1, [w14+2]
    1c8e:	32 47 98    	mov.b     w2, [w14+3]
    switch(vendor){
    1c90:	3e 40 90    	mov.b     [w14+3], w0
    1c92:	00 00 fb    	se        w0, w0
    1c94:	11 04 20    	mov.w     #0x41, w1
    1c96:	81 0f 50    	sub.w     w0, w1, [w15]
    1c98:	10 00 32    	bra       Z, 0x1cba <.L14>
    1c9a:	41 05 20    	mov.w     #0x54, w1
    1c9c:	81 0f 50    	sub.w     w0, w1, [w15]
    1c9e:	1a 00 3a    	bra       NZ, 0x1cd4 <.L13>
        case 'T':// 0x40 == vendor prefix for PCF8574T
            self->addr_write = 0x40 + (addr << 1);
    1ca0:	2e 40 90    	mov.b     [w14+2], w0
    1ca2:	00 40 40    	add.b     w0, w0, w0
    1ca4:	02 c4 b3    	mov.b     #0x40, w2
    1ca6:	82 40 40    	add.b     w0, w2, w1
    1ca8:	1e 00 78    	mov.w     [w14], w0
    1caa:	01 48 78    	mov.b     w1, [w0]
            self->addr_read = 0x40 + (addr << 1)+1;
    1cac:	2e 40 90    	mov.b     [w14+2], w0
    1cae:	00 40 40    	add.b     w0, w0, w0
    1cb0:	12 c4 b3    	mov.b     #0x41, w2
    1cb2:	82 40 40    	add.b     w0, w2, w1
    1cb4:	1e 00 78    	mov.w     [w14], w0
    1cb6:	11 40 98    	mov.b     w1, [w0+1]
            break;
    1cb8:	0d 00 37    	bra       0x1cd4 <.L13>

00001cba <.L14>:
        case 'A':// 0x70 == vendor prefix PCF8574AT
            self->addr_write = 0x70 + (addr << 1);
    1cba:	2e 40 90    	mov.b     [w14+2], w0
    1cbc:	00 40 40    	add.b     w0, w0, w0
    1cbe:	02 c7 b3    	mov.b     #0x70, w2
    1cc0:	82 40 40    	add.b     w0, w2, w1
    1cc2:	1e 00 78    	mov.w     [w14], w0
    1cc4:	01 48 78    	mov.b     w1, [w0]
            self->addr_read = 0x70 + (addr << 1)+1;
    1cc6:	2e 40 90    	mov.b     [w14+2], w0
    1cc8:	00 40 40    	add.b     w0, w0, w0
    1cca:	12 c7 b3    	mov.b     #0x71, w2
    1ccc:	82 40 40    	add.b     w0, w2, w1
    1cce:	1e 00 78    	mov.w     [w14], w0
    1cd0:	11 40 98    	mov.b     w1, [w0+1]
            break;
    1cd2:	00 00 00    	nop       

00001cd4 <.L13>:
    }

    self->display_control = 0x00;
    1cd4:	1e 00 78    	mov.w     [w14], w0
    1cd6:	80 40 eb    	clr.b     w1
    1cd8:	31 40 98    	mov.b     w1, [w0+3]
    self->display_mode = 0x00;
    1cda:	1e 00 78    	mov.w     [w14], w0
    1cdc:	80 40 eb    	clr.b     w1
    1cde:	41 40 98    	mov.b     w1, [w0+4]

    self->io_write_val = 0x00;
    1ce0:	1e 00 78    	mov.w     [w14], w0
    1ce2:	80 40 eb    	clr.b     w1
    1ce4:	21 40 98    	mov.b     w1, [w0+2]

    __lcd_i2c_write(self, 0x00);
    1ce6:	80 40 eb    	clr.b     w1
    1ce8:	1e 00 78    	mov.w     [w14], w0
    1cea:	22 ff 07    	rcall     0x1b30 <___lcd_i2c_write> <.L0> <.LFB0> <.LFE10> <.Letext0> <.Ltext0>

    delay_by_nop(15000);
    1cec:	80 a9 23    	mov.w     #0x3a98, w0
    1cee:	01 00 20    	mov.w     #0x0, w1
    1cf0:	94 01 07    	rcall     0x201a <_delay_by_nop> <.L0> <.LFB0> <.LFE16> <.Letext0> <.Ltext0>

    // Some bullshit according to pg 46
    __lcd_send8(self, 0x03, INTERNAL_WRITE);
    1cf2:	82 c0 b3    	mov.b     #0x8, w2
    1cf4:	31 c0 b3    	mov.b     #0x3, w1
    1cf6:	1e 00 78    	mov.w     [w14], w0
    1cf8:	6a ff 07    	rcall     0x1bce <___lcd_send8> <.LFB3> <.LFE2>
    delay_by_nop(5000);
    1cfa:	80 38 21    	mov.w     #0x1388, w0
    1cfc:	01 00 20    	mov.w     #0x0, w1
    1cfe:	8d 01 07    	rcall     0x201a <_delay_by_nop> <.L0> <.LFB0> <.LFE16> <.Letext0> <.Ltext0>

    __lcd_send8(self, 0x03, INTERNAL_WRITE);//0b00110000
    1d00:	82 c0 b3    	mov.b     #0x8, w2
    1d02:	31 c0 b3    	mov.b     #0x3, w1
    1d04:	1e 00 78    	mov.w     [w14], w0
    1d06:	63 ff 07    	rcall     0x1bce <___lcd_send8> <.LFB3> <.LFE2>
    delay_by_nop(5000);
    1d08:	80 38 21    	mov.w     #0x1388, w0
    1d0a:	01 00 20    	mov.w     #0x0, w1
    1d0c:	86 01 07    	rcall     0x201a <_delay_by_nop> <.L0> <.LFB0> <.LFE16> <.Letext0> <.Ltext0>

    __lcd_send8(self, 0x03, INTERNAL_WRITE);//0b00110000
    1d0e:	82 c0 b3    	mov.b     #0x8, w2
    1d10:	31 c0 b3    	mov.b     #0x3, w1
    1d12:	1e 00 78    	mov.w     [w14], w0
    1d14:	5c ff 07    	rcall     0x1bce <___lcd_send8> <.LFB3> <.LFE2>
    delay_by_nop(5000);
    1d16:	80 38 21    	mov.w     #0x1388, w0
    1d18:	01 00 20    	mov.w     #0x0, w1
    1d1a:	7f 01 07    	rcall     0x201a <_delay_by_nop> <.L0> <.LFB0> <.LFE16> <.Letext0> <.Ltext0>

    // Put it in 4 bit mode
    __lcd_send8(self, 0x02, INTERNAL_WRITE);//0b00110000
    1d1c:	82 c0 b3    	mov.b     #0x8, w2
    1d1e:	21 c0 b3    	mov.b     #0x2, w1
    1d20:	1e 00 78    	mov.w     [w14], w0
    1d22:	55 ff 07    	rcall     0x1bce <___lcd_send8> <.LFB3> <.LFE2>
    delay_by_nop(5000);
    1d24:	80 38 21    	mov.w     #0x1388, w0
    1d26:	01 00 20    	mov.w     #0x0, w1
    1d28:	78 01 07    	rcall     0x201a <_delay_by_nop> <.L0> <.LFB0> <.LFE16> <.Letext0> <.Ltext0>

    __lcd_send(self, 0x28, INTERNAL_WRITE); // Set rows and direction
    1d2a:	82 c0 b3    	mov.b     #0x8, w2
    1d2c:	81 c2 b3    	mov.b     #0x28, w1
    1d2e:	1e 00 78    	mov.w     [w14], w0
    1d30:	2a ff 07    	rcall     0x1b86 <___lcd_send> <.LFB2> <.LFE1>
    delay_by_nop(50);
    1d32:	20 03 20    	mov.w     #0x32, w0
    1d34:	01 00 20    	mov.w     #0x0, w1
    1d36:	71 01 07    	rcall     0x201a <_delay_by_nop> <.L0> <.LFB0> <.LFE16> <.Letext0> <.Ltext0>

    __lcd_send(self, 0x80, INTERNAL_WRITE); // Display off, cursor off
    1d38:	82 c0 b3    	mov.b     #0x8, w2
    1d3a:	01 c8 b3    	mov.b     #0x80, w1
    1d3c:	1e 00 78    	mov.w     [w14], w0
    1d3e:	23 ff 07    	rcall     0x1b86 <___lcd_send> <.LFB2> <.LFE1>
    delay_by_nop(50);
    1d40:	20 03 20    	mov.w     #0x32, w0
    1d42:	01 00 20    	mov.w     #0x0, w1
    1d44:	6a 01 07    	rcall     0x201a <_delay_by_nop> <.L0> <.LFB0> <.LFE16> <.Letext0> <.Ltext0>

    __lcd_send(self, 0x01, INTERNAL_WRITE); // Go to home position
    1d46:	82 c0 b3    	mov.b     #0x8, w2
    1d48:	11 c0 b3    	mov.b     #0x1, w1
    1d4a:	1e 00 78    	mov.w     [w14], w0
    1d4c:	1c ff 07    	rcall     0x1b86 <___lcd_send> <.LFB2> <.LFE1>
    delay_by_nop(2000);
    1d4e:	00 7d 20    	mov.w     #0x7d0, w0
    1d50:	01 00 20    	mov.w     #0x0, w1
    1d52:	63 01 07    	rcall     0x201a <_delay_by_nop> <.L0> <.LFB0> <.LFE16> <.Letext0> <.Ltext0>

    __lcd_send(self, 0x06, INTERNAL_WRITE); // Set curson direction
    1d54:	82 c0 b3    	mov.b     #0x8, w2
    1d56:	61 c0 b3    	mov.b     #0x6, w1
    1d58:	1e 00 78    	mov.w     [w14], w0
    1d5a:	15 ff 07    	rcall     0x1b86 <___lcd_send> <.LFB2> <.LFE1>
    delay_by_nop(5000);
    1d5c:	80 38 21    	mov.w     #0x1388, w0
    1d5e:	01 00 20    	mov.w     #0x0, w1
    1d60:	5c 01 07    	rcall     0x201a <_delay_by_nop> <.L0> <.LFB0> <.LFE16> <.Letext0> <.Ltext0>

    __lcd_send(self, 0x0C, INTERNAL_WRITE); // Display on, cursor off
    1d62:	82 c0 b3    	mov.b     #0x8, w2
    1d64:	c1 c0 b3    	mov.b     #0xc, w1
    1d66:	1e 00 78    	mov.w     [w14], w0
    1d68:	0e ff 07    	rcall     0x1b86 <___lcd_send> <.LFB2> <.LFE1>
}
    1d6a:	00 80 fa    	ulnk      
    1d6c:	00 00 06    	return    

00001d6e <_lcd_stop>:

// Stops lcd I2C transfer
void lcd_stop(_LCD *self) {
    1d6e:	02 00 fa    	lnk       #0x2
    1d70:	00 0f 78    	mov.w     w0, [w14]
    reset_i2c_bus();
    1d72:	a7 01 07    	rcall     0x20c2 <_reset_i2c_bus> <.LFB4> <.LFE3>
}
    1d74:	00 80 fa    	ulnk      
    1d76:	00 00 06    	return    

00001d78 <_lcd_display>:

// Sends show display command to LCD
void lcd_display(_LCD *self, uint8_t on) {
    1d78:	04 00 fa    	lnk       #0x4
    1d7a:	00 0f 78    	mov.w     w0, [w14]
    1d7c:	21 47 98    	mov.b     w1, [w14+2]
    if (on) {
    1d7e:	2e 40 90    	mov.b     [w14+2], w0
    1d80:	00 04 e0    	cp0.b     w0
    1d82:	07 00 32    	bra       Z, 0x1d92 <.L18>
        self->display_control |= LCD_DISPLAYON;
    1d84:	1e 00 78    	mov.w     [w14], w0
    1d86:	30 40 90    	mov.b     [w0+3], w0
    1d88:	80 40 78    	mov.b     w0, w1
    1d8a:	01 24 a0    	bset.b    w1, #0x2
    1d8c:	1e 00 78    	mov.w     [w14], w0
    1d8e:	31 40 98    	mov.b     w1, [w0+3]
    1d90:	06 00 37    	bra       0x1d9e <.L19>

00001d92 <.L18>:
    } else {
        self->display_control &= ~LCD_DISPLAYON;
    1d92:	1e 00 78    	mov.w     [w14], w0
    1d94:	b0 40 90    	mov.b     [w0+3], w1
    1d96:	b0 cf b3    	mov.b     #0xfb, w0
    1d98:	80 c0 60    	and.b     w1, w0, w1
    1d9a:	1e 00 78    	mov.w     [w14], w0
    1d9c:	31 40 98    	mov.b     w1, [w0+3]

00001d9e <.L19>:
    }
    __lcd_send(self, self->display_control | LCD_DISPLAYCONTROL, INTERNAL_WRITE);
    1d9e:	1e 00 78    	mov.w     [w14], w0
    1da0:	30 40 90    	mov.b     [w0+3], w0
    1da2:	00 34 a0    	bset.b    w0, #0x3
    1da4:	82 c0 b3    	mov.b     #0x8, w2
    1da6:	80 40 78    	mov.b     w0, w1
    1da8:	1e 00 78    	mov.w     [w14], w0
    1daa:	ed fe 07    	rcall     0x1b86 <___lcd_send> <.LFB2> <.LFE1>
}
    1dac:	00 80 fa    	ulnk      
    1dae:	00 00 06    	return    

00001db0 <_lcd_clear>:

// Sends clear display command to LCD
void lcd_clear(_LCD *self) {
    1db0:	02 00 fa    	lnk       #0x2
    1db2:	00 0f 78    	mov.w     w0, [w14]
    __lcd_send(self, LCD_CLEARDISPLAY, INTERNAL_WRITE);
    1db4:	82 c0 b3    	mov.b     #0x8, w2
    1db6:	11 c0 b3    	mov.b     #0x1, w1
    1db8:	1e 00 78    	mov.w     [w14], w0
    1dba:	e5 fe 07    	rcall     0x1b86 <___lcd_send> <.LFB2> <.LFE1>
    delay_by_nop(2000);
    1dbc:	00 7d 20    	mov.w     #0x7d0, w0
    1dbe:	01 00 20    	mov.w     #0x0, w1
    1dc0:	2c 01 07    	rcall     0x201a <_delay_by_nop> <.L0> <.LFB0> <.LFE16> <.Letext0> <.Ltext0>
}
    1dc2:	00 80 fa    	ulnk      
    1dc4:	00 00 06    	return    

00001dc6 <_lcd_putc>:

// Sends single character to LCD display
void lcd_putc(_LCD *self, char c) {
    1dc6:	04 00 fa    	lnk       #0x4
    1dc8:	00 0f 78    	mov.w     w0, [w14]
    1dca:	21 47 98    	mov.b     w1, [w14+2]
    __lcd_send(self, c, DR_WRITE);
    1dcc:	2e 40 90    	mov.b     [w14+2], w0
    1dce:	92 c0 b3    	mov.b     #0x9, w2
    1dd0:	80 40 78    	mov.b     w0, w1
    1dd2:	1e 00 78    	mov.w     [w14], w0
    1dd4:	d8 fe 07    	rcall     0x1b86 <___lcd_send> <.LFB2> <.LFE1>
    // delay_by_nop(1000);
}
    1dd6:	00 80 fa    	ulnk      
    1dd8:	00 00 06    	return    

00001dda <_lcd_goto>:

// Sends commands to move LCD cursor to specified location
void lcd_goto(_LCD *self, uint8_t line, uint8_t col) { //x=col, y=row
    1dda:	06 00 fa    	lnk       #0x6
    1ddc:	10 07 98    	mov.w     w0, [w14+2]
    1dde:	41 47 98    	mov.b     w1, [w14+4]
    1de0:	52 47 98    	mov.b     w2, [w14+5]
    uint8_t address;
    switch(line) {
    1de2:	4e 40 90    	mov.b     [w14+4], w0
    1de4:	00 80 fb    	ze        w0, w0
    1de6:	e1 0f 50    	sub.w     w0, #0x1, [w15]
    1de8:	03 00 32    	bra       Z, 0x1df0 <.L24>
    1dea:	e2 0f 50    	sub.w     w0, #0x2, [w15]
    1dec:	04 00 32    	bra       Z, 0x1df6 <.L25>
    1dee:	06 00 37    	bra       0x1dfc <.L27>

00001df0 <.L24>:
        case 1:
            address = 0x00;
    1df0:	00 40 eb    	clr.b     w0
    1df2:	00 4f 78    	mov.b     w0, [w14]
            break;
    1df4:	06 00 37    	bra       0x1e02 <.L26>

00001df6 <.L25>:
        case 2:
            address = 0x40;
    1df6:	00 c4 b3    	mov.b     #0x40, w0
    1df8:	00 4f 78    	mov.b     w0, [w14]
            break;
    1dfa:	03 00 37    	bra       0x1e02 <.L26>

00001dfc <.L27>:
        default:
            address = 0x00;
    1dfc:	00 40 eb    	clr.b     w0
    1dfe:	00 4f 78    	mov.b     w0, [w14]
            break;
    1e00:	00 00 00    	nop       

00001e02 <.L26>:
    }

    address = address+col;
    1e02:	5e 40 90    	mov.b     [w14+5], w0
    1e04:	1e 4f 40    	add.b     w0, [w14], [w14]
    __lcd_send(self, LCD_SETDDRAMADDR | address, INTERNAL_WRITE);
    1e06:	1e 40 78    	mov.b     [w14], w0
    1e08:	00 74 a0    	bset.b    w0, #0x7
    1e0a:	82 c0 b3    	mov.b     #0x8, w2
    1e0c:	80 40 78    	mov.b     w0, w1
    1e0e:	1e 00 90    	mov.w     [w14+2], w0
    1e10:	ba fe 07    	rcall     0x1b86 <___lcd_send> <.LFB2> <.LFE1>
}
    1e12:	00 80 fa    	ulnk      
    1e14:	00 00 06    	return    

00001e16 <_lcd_cursor>:


void lcd_cursor(_LCD *self, uint8_t cur) {
    1e16:	04 00 fa    	lnk       #0x4
    1e18:	00 0f 78    	mov.w     w0, [w14]
    1e1a:	21 47 98    	mov.b     w1, [w14+2]
    switch(cur) {
    1e1c:	2e 40 90    	mov.b     [w14+2], w0
    1e1e:	00 80 fb    	ze        w0, w0
    1e20:	00 00 e0    	cp0.w     w0
    1e22:	03 00 32    	bra       Z, 0x1e2a <.L30>
    1e24:	e1 0f 50    	sub.w     w0, #0x1, [w15]
    1e26:	06 00 32    	bra       Z, 0x1e34 <.L31>
        case 0:
            __lcd_send(self, 0x0C, INTERNAL_WRITE);
            break;
        case 1:
            __lcd_send(self, 0x0E, INTERNAL_WRITE);
            break;
        default:
            break;
    1e28:	0a 00 37    	bra       0x1e3e <.L28>

00001e2a <.L30>:
    1e2a:	82 c0 b3    	mov.b     #0x8, w2
    1e2c:	c1 c0 b3    	mov.b     #0xc, w1
    1e2e:	1e 00 78    	mov.w     [w14], w0
    1e30:	aa fe 07    	rcall     0x1b86 <___lcd_send> <.LFB2> <.LFE1>
    1e32:	05 00 37    	bra       0x1e3e <.L28>

00001e34 <.L31>:
    1e34:	82 c0 b3    	mov.b     #0x8, w2
    1e36:	e1 c0 b3    	mov.b     #0xe, w1
    1e38:	1e 00 78    	mov.w     [w14], w0
    1e3a:	a5 fe 07    	rcall     0x1b86 <___lcd_send> <.LFB2> <.LFE1>
    1e3c:	00 00 00    	nop       

00001e3e <.L28>:
    }
}
    1e3e:	00 80 fa    	ulnk      
    1e40:	00 00 06    	return    

00001e42 <_lcd_print1>:

void lcd_print1(_LCD *self, char *str) {
    1e42:	04 00 fa    	lnk       #0x4
    1e44:	00 0f 78    	mov.w     w0, [w14]
    1e46:	11 07 98    	mov.w     w1, [w14+2]
    lcd_clear(self);
    1e48:	1e 00 78    	mov.w     [w14], w0
    1e4a:	b2 ff 07    	rcall     0x1db0 <_lcd_clear> <.LFB8> <.LFE7>
    while (*str) {
    1e4c:	08 00 37    	bra       0x1e5e <.L34>

00001e4e <.L35>:
        lcd_putc(self, *str);
    1e4e:	1e 00 90    	mov.w     [w14+2], w0
    1e50:	10 40 78    	mov.b     [w0], w0
    1e52:	80 40 78    	mov.b     w0, w1
    1e54:	1e 00 78    	mov.w     [w14], w0
    1e56:	b7 ff 07    	rcall     0x1dc6 <_lcd_putc> <.LFB9> <.LFE8>
        str++;
    1e58:	1e 00 90    	mov.w     [w14+2], w0
    1e5a:	00 00 e8    	inc.w     w0, w0
    1e5c:	10 07 98    	mov.w     w0, [w14+2]

00001e5e <.L34>:
    1e5e:	1e 00 90    	mov.w     [w14+2], w0
    1e60:	10 40 78    	mov.b     [w0], w0
    1e62:	00 04 e0    	cp0.b     w0
    1e64:	f4 ff 3a    	bra       NZ, 0x1e4e <.L35>
    }
}
    1e66:	00 80 fa    	ulnk      
    1e68:	00 00 06    	return    

00001e6a <_lcd_print2>:

void lcd_print2(_LCD *self, char* line1, char* line2){
    1e6a:	42 00 fa    	lnk       #0x42
    1e6c:	60 1f 98    	mov.w     w0, [w14+60]
    1e6e:	71 1f 98    	mov.w     w1, [w14+62]
    1e70:	02 27 98    	mov.w     w2, [w14+64]
    lcd_clear(self);
    1e72:	6e 18 90    	mov.w     [w14+60], w0
    1e74:	9d ff 07    	rcall     0x1db0 <_lcd_clear> <.LFB8> <.LFE7>
    char str[56] ="                                                        ";
    1e76:	20 54 29    	mov.w     #0x9542, w0
    1e78:	e4 00 47    	add.w     w14, #0x4, w1
    1e7a:	37 00 09    	repeat    #0x37
    1e7c:	b0 58 78    	mov.b     [w0++], [w1++]
    1e7e:	80 03 b1    	sub.w     #0x38, w0
    int i =0;
    1e80:	00 00 eb    	clr.w     w0
    1e82:	00 0f 78    	mov.w     w0, [w14]
    while (*line1){
    1e84:	09 00 37    	bra       0x1e98 <.L37>

00001e86 <.L38>:
        str[i]=*line1;
    1e86:	7e 18 90    	mov.w     [w14+62], w0
    1e88:	90 40 78    	mov.b     [w0], w1
    1e8a:	64 00 47    	add.w     w14, #0x4, w0
    1e8c:	1e 00 40    	add.w     w0, [w14], w0
    1e8e:	01 48 78    	mov.b     w1, [w0]
        i=i+1;
    1e90:	1e 0f e8    	inc.w     [w14], [w14]
        line1++;
    1e92:	7e 18 90    	mov.w     [w14+62], w0
    1e94:	00 00 e8    	inc.w     w0, w0
    1e96:	70 1f 98    	mov.w     w0, [w14+62]

00001e98 <.L37>:
    1e98:	7e 18 90    	mov.w     [w14+62], w0
    1e9a:	10 40 78    	mov.b     [w0], w0
    1e9c:	00 04 e0    	cp0.b     w0
    1e9e:	f3 ff 3a    	bra       NZ, 0x1e86 <.L38>
    }
    i =40;
    1ea0:	80 02 20    	mov.w     #0x28, w0
    1ea2:	00 0f 78    	mov.w     w0, [w14]
    while (*line2){
    1ea4:	09 00 37    	bra       0x1eb8 <.L39>

00001ea6 <.L40>:
        str[i]=*line2;
    1ea6:	0e 20 90    	mov.w     [w14+64], w0
    1ea8:	90 40 78    	mov.b     [w0], w1
    1eaa:	64 00 47    	add.w     w14, #0x4, w0
    1eac:	1e 00 40    	add.w     w0, [w14], w0
    1eae:	01 48 78    	mov.b     w1, [w0]
        i=i+1;
    1eb0:	1e 0f e8    	inc.w     [w14], [w14]
        line2++;
    1eb2:	0e 20 90    	mov.w     [w14+64], w0
    1eb4:	00 00 e8    	inc.w     w0, w0
    1eb6:	00 27 98    	mov.w     w0, [w14+64]

00001eb8 <.L39>:
    1eb8:	0e 20 90    	mov.w     [w14+64], w0
    1eba:	10 40 78    	mov.b     [w0], w0
    1ebc:	00 04 e0    	cp0.b     w0
    1ebe:	f3 ff 3a    	bra       NZ, 0x1ea6 <.L40>
    }
    char* strptr=str;
    1ec0:	64 00 47    	add.w     w14, #0x4, w0
    1ec2:	10 07 98    	mov.w     w0, [w14+2]
    lcd_print1(self,strptr);
    1ec4:	9e 00 90    	mov.w     [w14+2], w1
    1ec6:	6e 18 90    	mov.w     [w14+60], w0
    1ec8:	bc ff 07    	rcall     0x1e42 <_lcd_print1> <.LFB12> <.LFE11>
}
    1eca:	00 80 fa    	ulnk      
    1ecc:	00 00 06    	return    

00001ece <_lcd_print>:

void lcd_print(_LCD *self, char* message) {
    1ece:	30 00 fa    	lnk       #0x30
    1ed0:	60 17 98    	mov.w     w0, [w14+44]
    1ed2:	71 17 98    	mov.w     w1, [w14+46]
    char newstr1[17] = "                ";
    1ed4:	b0 57 29    	mov.w     #0x957b, w0
    1ed6:	ea 00 47    	add.w     w14, #0xa, w1
    1ed8:	10 00 09    	repeat    #0x10
    1eda:	b0 58 78    	mov.b     [w0++], [w1++]
    1edc:	10 01 b1    	sub.w     #0x11, w0
    char* newstrptr1= newstr1;
    1ede:	6a 0f 47    	add.w     w14, #0xa, [w14]
    char newstr2[17] = "                ";
    1ee0:	b0 57 29    	mov.w     #0x957b, w0
    1ee2:	fb 00 47    	add.w     w14, #0x1b, w1
    1ee4:	10 00 09    	repeat    #0x10
    1ee6:	b0 58 78    	mov.b     [w0++], [w1++]
    1ee8:	10 01 b1    	sub.w     #0x11, w0
    char* newstrptr2= newstr2;
    1eea:	7b 00 47    	add.w     w14, #0x1b, w0
    1eec:	10 07 98    	mov.w     w0, [w14+2]
    char* temp1 = newstrptr1;
    1eee:	9e 00 78    	mov.w     [w14], w1
    1ef0:	31 07 98    	mov.w     w1, [w14+6]
    char* temp2 = newstrptr2;
    1ef2:	9e 00 90    	mov.w     [w14+2], w1
    1ef4:	41 07 98    	mov.w     w1, [w14+8]
    uint8_t i=0;
    1ef6:	00 40 eb    	clr.b     w0
    1ef8:	40 47 98    	mov.b     w0, [w14+4]
    while (i <17){
    1efa:	0f 00 37    	bra       0x1f1a <.L42>

00001efc <.L44>:
        if (*message){
    1efc:	7e 10 90    	mov.w     [w14+46], w0
    1efe:	10 40 78    	mov.b     [w0], w0
    1f00:	00 04 e0    	cp0.b     w0
    1f02:	08 00 32    	bra       Z, 0x1f14 <.L43>
            *newstrptr1=*message;
    1f04:	7e 10 90    	mov.w     [w14+46], w0
    1f06:	90 40 78    	mov.b     [w0], w1
    1f08:	1e 00 78    	mov.w     [w14], w0
    1f0a:	01 48 78    	mov.b     w1, [w0]
            message++;
    1f0c:	7e 10 90    	mov.w     [w14+46], w0
    1f0e:	00 00 e8    	inc.w     w0, w0
    1f10:	70 17 98    	mov.w     w0, [w14+46]
            newstrptr1++;
    1f12:	1e 0f e8    	inc.w     [w14], [w14]

00001f14 <.L43>:
        }
        i++;
    1f14:	4e 40 90    	mov.b     [w14+4], w0
    1f16:	00 40 e8    	inc.b     w0, w0
    1f18:	40 47 98    	mov.b     w0, [w14+4]

00001f1a <.L42>:
    1f1a:	4e 40 90    	mov.b     [w14+4], w0
    1f1c:	f0 4f 50    	sub.b     w0, #0x10, [w15]
    1f1e:	ee ff 36    	bra       LEU, 0x1efc <.L44>
    }
    i=0;
    1f20:	00 40 eb    	clr.b     w0
    1f22:	40 47 98    	mov.b     w0, [w14+4]
    message--; //SKETCHY!
    1f24:	7e 10 90    	mov.w     [w14+46], w0
    1f26:	00 00 e9    	dec.w     w0, w0
    1f28:	70 17 98    	mov.w     w0, [w14+46]
    while (i <17){
    1f2a:	11 00 37    	bra       0x1f4e <.L45>

00001f2c <.L47>:
        if (*message){
    1f2c:	7e 10 90    	mov.w     [w14+46], w0
    1f2e:	10 40 78    	mov.b     [w0], w0
    1f30:	00 04 e0    	cp0.b     w0
    1f32:	0a 00 32    	bra       Z, 0x1f48 <.L46>
            *newstrptr2=*message;
    1f34:	7e 10 90    	mov.w     [w14+46], w0
    1f36:	90 40 78    	mov.b     [w0], w1
    1f38:	1e 00 90    	mov.w     [w14+2], w0
    1f3a:	01 48 78    	mov.b     w1, [w0]
            message++;
    1f3c:	7e 10 90    	mov.w     [w14+46], w0
    1f3e:	00 00 e8    	inc.w     w0, w0
    1f40:	70 17 98    	mov.w     w0, [w14+46]
            newstrptr2++;
    1f42:	1e 00 90    	mov.w     [w14+2], w0
    1f44:	00 00 e8    	inc.w     w0, w0
    1f46:	10 07 98    	mov.w     w0, [w14+2]

00001f48 <.L46>:
        }
        i++;
    1f48:	4e 40 90    	mov.b     [w14+4], w0
    1f4a:	00 40 e8    	inc.b     w0, w0
    1f4c:	40 47 98    	mov.b     w0, [w14+4]

00001f4e <.L45>:
    1f4e:	4e 40 90    	mov.b     [w14+4], w0
    1f50:	f0 4f 50    	sub.b     w0, #0x10, [w15]
    1f52:	ec ff 36    	bra       LEU, 0x1f2c <.L47>
    }
    lcd_print2(self, temp1, temp2);
    1f54:	4e 01 90    	mov.w     [w14+8], w2
    1f56:	be 00 90    	mov.w     [w14+6], w1
    1f58:	6e 10 90    	mov.w     [w14+44], w0
    1f5a:	87 ff 07    	rcall     0x1e6a <_lcd_print2> <.LFB13> <.LFE12>
}
    1f5c:	00 80 fa    	ulnk      
    1f5e:	00 00 06    	return    

00001f60 <_lcd_broadcast>:

void lcd_broadcast(char* message) {
    1f60:	04 00 fa    	lnk       #0x4
    1f62:	10 07 98    	mov.w     w0, [w14+2]
    uint8_t i;
    for (i = 0; i < 3; i++)
    1f64:	00 40 eb    	clr.b     w0
    1f66:	00 4f 78    	mov.b     w0, [w14]
    1f68:	08 00 37    	bra       0x1f7a <.L49>

00001f6a <.L50>:
        lcd_print(&lcd[i], message);
    1f6a:	1e 80 fb    	ze        [w14], w0
    1f6c:	65 00 b9    	mul.su    w0, #0x5, w0
    1f6e:	80 00 78    	mov.w     w0, w1
    1f70:	00 04 21    	mov.w     #0x1040, w0
    1f72:	00 80 40    	add.w     w1, w0, w0
    1f74:	9e 00 90    	mov.w     [w14+2], w1
    1f76:	ab ff 07    	rcall     0x1ece <_lcd_print> <.LFB14> <.LFE13>
    1f78:	1e 4f e8    	inc.b     [w14], [w14]

00001f7a <.L49>:
    1f7a:	1e 40 78    	mov.b     [w14], w0
    1f7c:	e2 4f 50    	sub.b     w0, #0x2, [w15]
    1f7e:	f5 ff 36    	bra       LEU, 0x1f6a <.L50>
}
    1f80:	00 80 fa    	ulnk      
    1f82:	00 00 06    	return    

00001f84 <_itoa>:

char * itoa (int value, char *result, int base) {
    1f84:	0e 00 fa    	lnk       #0xe
    1f86:	40 07 98    	mov.w     w0, [w14+8]
    1f88:	51 07 98    	mov.w     w1, [w14+10]
    1f8a:	62 07 98    	mov.w     w2, [w14+12]
    // check that the base if valid
    if (base < 2 || base > 36) { *result = '\0'; return result; }
    1f8c:	6e 00 90    	mov.w     [w14+12], w0
    1f8e:	e1 0f 50    	sub.w     w0, #0x1, [w15]
    1f90:	04 00 34    	bra       LE, 0x1f9a <.L52>
    1f92:	ee 00 90    	mov.w     [w14+12], w1
    1f94:	40 02 20    	mov.w     #0x24, w0
    1f96:	80 8f 50    	sub.w     w1, w0, [w15]
    1f98:	05 00 34    	bra       LE, 0x1fa4 <.L53>

00001f9a <.L52>:
    1f9a:	5e 00 90    	mov.w     [w14+10], w0
    1f9c:	80 40 eb    	clr.b     w1
    1f9e:	01 48 78    	mov.b     w1, [w0]
    1fa0:	5e 00 90    	mov.w     [w14+10], w0
    1fa2:	39 00 37    	bra       0x2016 <.L54>

00001fa4 <.L53>:

    char* ptr = result, *ptr1 = result, tmp_char;
    1fa4:	de 00 90    	mov.w     [w14+10], w1
    1fa6:	01 0f 78    	mov.w     w1, [w14]
    1fa8:	5e 01 90    	mov.w     [w14+10], w2
    1faa:	12 07 98    	mov.w     w2, [w14+2]

00001fac <.L55>:
    int tmp_value;

    do {
        tmp_value = value;
    1fac:	ce 00 90    	mov.w     [w14+8], w1
    1fae:	21 07 98    	mov.w     w1, [w14+4]
        value /= base;
    1fb0:	ce 00 90    	mov.w     [w14+8], w1
    1fb2:	6e 00 90    	mov.w     [w14+12], w0
    1fb4:	00 01 78    	mov.w     w0, w2
    1fb6:	11 00 09    	repeat    #0x11
    1fb8:	82 00 d8    	div.sw    w1, w2
    1fba:	40 07 98    	mov.w     w0, [w14+8]
        *ptr++ = "zyxwvutsrqponmlkjihgfedcba9876543210123456789abcdefghijklmnopqrstuvwxyz" [35 + (tmp_value - value * base)];
    1fbc:	ce 00 90    	mov.w     [w14+8], w1
    1fbe:	6e 00 90    	mov.w     [w14+12], w0
    1fc0:	00 88 b9    	mul.ss    w1, w0, w0
    1fc2:	00 00 78    	mov.w     w0, w0
    1fc4:	ae 00 90    	mov.w     [w14+4], w1
    1fc6:	00 80 50    	sub.w     w1, w0, w0
    1fc8:	30 02 b0    	add.w     #0x23, w0
    1fca:	c1 58 29    	mov.w     #0x958c, w1
    1fcc:	e1 40 78    	mov.b     [w1+w0], w1
    1fce:	1e 00 78    	mov.w     [w14], w0
    1fd0:	01 48 78    	mov.b     w1, [w0]
    1fd2:	1e 0f e8    	inc.w     [w14], [w14]
    } while ( value );
    1fd4:	4e 00 90    	mov.w     [w14+8], w0
    1fd6:	00 00 e0    	cp0.w     w0
    1fd8:	e9 ff 3a    	bra       NZ, 0x1fac <.L55>

    // Apply negative sign
    if (tmp_value < 0) *ptr++ = '-';
    1fda:	2e 00 90    	mov.w     [w14+4], w0
    1fdc:	00 00 e0    	cp0.w     w0
    1fde:	04 00 3d    	bra       GE, 0x1fe8 <.L56>
    1fe0:	1e 00 78    	mov.w     [w14], w0
    1fe2:	d1 c2 b3    	mov.b     #0x2d, w1
    1fe4:	01 48 78    	mov.b     w1, [w0]
    1fe6:	1e 0f e8    	inc.w     [w14], [w14]

00001fe8 <.L56>:
    *ptr-- = '\0';
    1fe8:	1e 00 78    	mov.w     [w14], w0
    1fea:	80 40 eb    	clr.b     w1
    1fec:	01 48 78    	mov.b     w1, [w0]
    1fee:	1e 0f e9    	dec.w     [w14], [w14]
    while (ptr1 < ptr) {
    1ff0:	0e 00 37    	bra       0x200e <.L57>

00001ff2 <.L58>:
        tmp_char = *ptr;
    1ff2:	1e 00 78    	mov.w     [w14], w0
    1ff4:	90 40 78    	mov.b     [w0], w1
    1ff6:	61 47 98    	mov.b     w1, [w14+6]
        *ptr--= *ptr1;
    1ff8:	1e 00 90    	mov.w     [w14+2], w0
    1ffa:	90 40 78    	mov.b     [w0], w1
    1ffc:	1e 00 78    	mov.w     [w14], w0
    1ffe:	01 48 78    	mov.b     w1, [w0]
    2000:	1e 0f e9    	dec.w     [w14], [w14]
        *ptr1++ = tmp_char;
    2002:	1e 00 90    	mov.w     [w14+2], w0
    2004:	6e 41 90    	mov.b     [w14+6], w2
    2006:	02 48 78    	mov.b     w2, [w0]
    2008:	1e 00 90    	mov.w     [w14+2], w0
    200a:	00 00 e8    	inc.w     w0, w0
    200c:	10 07 98    	mov.w     w0, [w14+2]

0000200e <.L57>:
    200e:	1e 00 90    	mov.w     [w14+2], w0
    2010:	9e 0f 50    	sub.w     w0, [w14], [w15]
    2012:	ef ff 39    	bra       NC, 0x1ff2 <.L58>
    }
    return result;
    2014:	5e 00 90    	mov.w     [w14+10], w0

00002016 <.L54>:
}
    2016:	00 80 fa    	ulnk      
    2018:	00 00 06    	return    

0000201a <_delay_by_nop>:
// From https://web.archive.org/web/20161223060411/http://www.engscope.com/pic24-tutorial/10-2-i2c-basic-functions/

#include "i2c_reg.h"

void delay_by_nop(uint32_t num_nops){    // 1 nop= 375ns
    201a:	08 00 fa    	lnk       #0x8
    201c:	20 07 98    	mov.w     w0, [w14+4]
    201e:	31 07 98    	mov.w     w1, [w14+6]
    uint32_t count = 0;
    2020:	60 00 b8    	mul.uu    w0, #0x0, w0
    2022:	00 8f be    	mov.d     w0, [w14]
    while (count < num_nops){
    2024:	05 00 37    	bra       0x2030 <.L2>

00002026 <.L3>:
        __asm__("nop");
    2026:	00 00 00    	nop       
        count +=1;
    2028:	12 00 20    	mov.w     #0x1, w2
    202a:	03 00 20    	mov.w     #0x0, w3
    202c:	1e 0f 41    	add.w     w2, [w14], [w14]
    202e:	5e 97 49    	addc.w    w3, [++w14], [w14--]

00002030 <.L2>:
    2030:	2e 00 90    	mov.w     [w14+4], w0
    2032:	be 00 90    	mov.w     [w14+6], w1
    2034:	1e 01 be    	mov.d     [w14], w2
    2036:	80 0f 51    	sub.w     w2, w0, [w15]
    2038:	81 8f 59    	subb.w    w3, w1, [w15]
    203a:	f5 ff 39    	bra       NC, 0x2026 <.L3>
    }
}
    203c:	00 80 fa    	ulnk      
    203e:	00 00 06    	return    

00002040 <_i2c_init>:

// initiates I2C3 module to baud rate BRG
void i2c_init(int BRG){      // I2CBRG = 157 for 16Mhz OSC with 100kHz I2C clock
    2040:	04 00 fa    	lnk       #0x4
    2042:	10 07 98    	mov.w     w0, [w14+2]
   int temp;
   I2C3BRG = BRG;           // Sets freq to 100kHz
    2044:	1e 00 90    	mov.w     [w14+2], w0
    2046:	a0 13 88    	mov.w     w0, 0x274
   I2C3CONbits.I2CEN = 0;	// Disable I2C Mode
    2048:	77 e2 a9    	bclr.b    0x277, #0x7
   I2C3CONbits.DISSLW = 1;	// Disable slew rate control
    204a:	77 22 a8    	bset.b    0x277, #0x1
   IFS5bits.MI2C3IF = 0;	 // Clear Interrupt
    204c:	8e a0 a9    	bclr.b    0x8e, #0x5
   I2C3CONbits.I2CEN = 1;	// Enable I2C Mode
    204e:	77 e2 a8    	bset.b    0x277, #0x7
   temp = I2C3RCV;	 // read buffer to clear buffer full
    2050:	80 13 80    	mov.w     0x270, w0
    2052:	00 0f 78    	mov.w     w0, [w14]
   reset_i2c_bus();	 // set bus to idle
    2054:	36 00 07    	rcall     0x20c2 <_reset_i2c_bus> <.LFB4> <.LFE3>
}
    2056:	00 80 fa    	ulnk      
    2058:	00 00 06    	return    

0000205a <_i2c_start>:

//function iniates a start condition on bus
void i2c_start(void){
    205a:	02 00 fa    	lnk       #0x2
   int x = 0;
    205c:	00 00 eb    	clr.w     w0
    205e:	00 0f 78    	mov.w     w0, [w14]
   I2C3CONbits.ACKDT = 0;	//Reset any previous Ack
    2060:	76 a2 a9    	bclr.b    0x276, #0x5
   delay_by_nop(10);
    2062:	a0 00 20    	mov.w     #0xa, w0
    2064:	01 00 20    	mov.w     #0x0, w1
    2066:	d9 ff 07    	rcall     0x201a <_delay_by_nop> <.L0> <.LFB0> <.LFE16> <.Letext0> <.Ltext0>
   I2C3CONbits.SEN = 1;	//Initiate Start condition
    2068:	76 02 a8    	bset.b    0x276, #0x0
   __asm__("nop");
    206a:	00 00 00    	nop       

   while (I2C3CONbits.SEN){    //the hardware will automatically clear Start Bit
    206c:	07 00 37    	bra       0x207c <.L6>

0000206e <.L8>:
      delay_by_nop(1);      //wait for automatic clear before proceding
    206e:	10 00 20    	mov.w     #0x1, w0
    2070:	01 00 20    	mov.w     #0x0, w1
    2072:	d3 ff 07    	rcall     0x201a <_delay_by_nop> <.L0> <.LFB0> <.LFE16> <.Letext0> <.Ltext0>
      x++;
    2074:	1e 0f e8    	inc.w     [w14], [w14]
      if (x > 20)
    2076:	1e 00 78    	mov.w     [w14], w0
    2078:	f4 0f 50    	sub.w     w0, #0x14, [w15]
    207a:	05 00 3c    	bra       GT, 0x2086 <.L9>

0000207c <.L6>:
    207c:	b0 13 80    	mov.w     0x276, w0
    207e:	61 00 60    	and.w     w0, #0x1, w0
    2080:	00 00 e0    	cp0.w     w0
    2082:	f5 ff 3a    	bra       NZ, 0x206e <.L8>
    2084:	01 00 37    	bra       0x2088 <.L7>

00002086 <.L9>:
      break;
    2086:	00 00 00    	nop       

00002088 <.L7>:
   }
   delay_by_nop(2);
    2088:	20 00 20    	mov.w     #0x2, w0
    208a:	01 00 20    	mov.w     #0x0, w1
    208c:	c6 ff 07    	rcall     0x201a <_delay_by_nop> <.L0> <.LFB0> <.LFE16> <.Letext0> <.Ltext0>
}
    208e:	00 80 fa    	ulnk      
    2090:	00 00 06    	return    

00002092 <_i2c_restart>:

void i2c_restart(void){
    2092:	02 00 fa    	lnk       #0x2
   int x = 0;
    2094:	00 00 eb    	clr.w     w0
    2096:	00 0f 78    	mov.w     w0, [w14]
   I2C3CONbits.RSEN = 1;	//Initiate restart condition
    2098:	76 22 a8    	bset.b    0x276, #0x1
   __asm__("nop");
    209a:	00 00 00    	nop       
   //the hardware will automatically clear restart bit
   //wait for automatic clear before proceding
   while (I2C3CONbits.RSEN){
    209c:	07 00 37    	bra       0x20ac <.L11>

0000209e <.L13>:
      delay_by_nop(1);
    209e:	10 00 20    	mov.w     #0x1, w0
    20a0:	01 00 20    	mov.w     #0x0, w1
    20a2:	bb ff 07    	rcall     0x201a <_delay_by_nop> <.L0> <.LFB0> <.LFE16> <.Letext0> <.Ltext0>
      x++;
    20a4:	1e 0f e8    	inc.w     [w14], [w14]
      if (x > 20)	break;
    20a6:	1e 00 78    	mov.w     [w14], w0
    20a8:	f4 0f 50    	sub.w     w0, #0x14, [w15]
    20aa:	05 00 3c    	bra       GT, 0x20b6 <.L14>

000020ac <.L11>:
    20ac:	b0 13 80    	mov.w     0x276, w0
    20ae:	62 00 60    	and.w     w0, #0x2, w0
    20b0:	00 00 e0    	cp0.w     w0
    20b2:	f5 ff 3a    	bra       NZ, 0x209e <.L13>
    20b4:	01 00 37    	bra       0x20b8 <.L12>

000020b6 <.L14>:
    20b6:	00 00 00    	nop       

000020b8 <.L12>:
   }
   delay_by_nop(2);
    20b8:	20 00 20    	mov.w     #0x2, w0
    20ba:	01 00 20    	mov.w     #0x0, w1
    20bc:	ae ff 07    	rcall     0x201a <_delay_by_nop> <.L0> <.LFB0> <.LFE16> <.Letext0> <.Ltext0>
}
    20be:	00 80 fa    	ulnk      
    20c0:	00 00 06    	return    

000020c2 <_reset_i2c_bus>:


//Resets the I2C bus to Idle
void reset_i2c_bus(void){
    20c2:	02 00 fa    	lnk       #0x2
   int x = 0;
    20c4:	00 00 eb    	clr.w     w0
    20c6:	00 0f 78    	mov.w     w0, [w14]
   I2C3CONbits.PEN = 1;     //initiate stop bit
    20c8:	76 42 a8    	bset.b    0x276, #0x2
   while (I2C3CONbits.PEN) {     //wait for hardware clear of stop bit
    20ca:	07 00 37    	bra       0x20da <.L16>

000020cc <.L18>:
      // delay_by_nop(1);
      delay_by_nop(1);
    20cc:	10 00 20    	mov.w     #0x1, w0
    20ce:	01 00 20    	mov.w     #0x0, w1
    20d0:	a4 ff 07    	rcall     0x201a <_delay_by_nop> <.L0> <.LFB0> <.LFE16> <.Letext0> <.Ltext0>
      x ++;
    20d2:	1e 0f e8    	inc.w     [w14], [w14]
      if (x > 20) break;
    20d4:	1e 00 78    	mov.w     [w14], w0
    20d6:	f4 0f 50    	sub.w     w0, #0x14, [w15]
    20d8:	05 00 3c    	bra       GT, 0x20e4 <.L19>

000020da <.L16>:
    20da:	b0 13 80    	mov.w     0x276, w0
    20dc:	64 00 60    	and.w     w0, #0x4, w0
    20de:	00 00 e0    	cp0.w     w0
    20e0:	f5 ff 3a    	bra       NZ, 0x20cc <.L18>
    20e2:	01 00 37    	bra       0x20e6 <.L17>

000020e4 <.L19>:
    20e4:	00 00 00    	nop       

000020e6 <.L17>:
   }

   I2C3CONbits.RCEN = 0;
    20e6:	76 62 a9    	bclr.b    0x276, #0x3
   IFS5bits.MI2C3IF = 0; // Clear Interrupt
    20e8:	8e a0 a9    	bclr.b    0x8e, #0x5
   I2C3STATbits.IWCOL = 0;
    20ea:	78 e2 a9    	bclr.b    0x278, #0x7
   I2C3STATbits.BCL = 0;
    20ec:	79 42 a9    	bclr.b    0x279, #0x2
   // delay_by_nop(10);
   delay_by_nop(20);
    20ee:	40 01 20    	mov.w     #0x14, w0
    20f0:	01 00 20    	mov.w     #0x0, w1
    20f2:	93 ff 07    	rcall     0x201a <_delay_by_nop> <.L0> <.LFB0> <.LFE16> <.Letext0> <.Ltext0>
}
    20f4:	00 80 fa    	ulnk      
    20f6:	00 00 06    	return    

000020f8 <_send_i2c_byte>:


//basic I2C byte send
char send_i2c_byte(int data){
    20f8:	04 00 fa    	lnk       #0x4
    20fa:	10 07 98    	mov.w     w0, [w14+2]
   int i;
   while (I2C3STATbits.TBF) { }
    20fc:	00 00 00    	nop       

000020fe <.L21>:
    20fe:	c0 13 80    	mov.w     0x278, w0
    2100:	61 00 60    	and.w     w0, #0x1, w0
    2102:	00 00 e0    	cp0.w     w0
    2104:	fc ff 3a    	bra       NZ, 0x20fe <.L21>
   IFS5bits.MI2C3IF = 0; // Clear Interrupt
    2106:	8e a0 a9    	bclr.b    0x8e, #0x5
   I2C3TRN = data; // load the outgoing data byte
    2108:	1e 00 90    	mov.w     [w14+2], w0
    210a:	90 13 88    	mov.w     w0, 0x272

   for (i=0; i<500; i++){           // wait for transmission
    210c:	00 00 eb    	clr.w     w0
    210e:	00 0f 78    	mov.w     w0, [w14]
    2110:	09 00 37    	bra       0x2124 <.L22>

00002112 <.L25>:
      if (!I2C3STATbits.TRSTAT) break; // if master transmit not in progress break
    2112:	c1 13 80    	mov.w     0x278, w1
    2114:	00 00 24    	mov.w     #0x4000, w0
    2116:	00 80 60    	and.w     w1, w0, w0
    2118:	00 00 e0    	cp0.w     w0
    211a:	09 00 32    	bra       Z, 0x212e <.L29>
      delay_by_nop(1); }
    211c:	10 00 20    	mov.w     #0x1, w0
    211e:	01 00 20    	mov.w     #0x0, w1
    2120:	7c ff 07    	rcall     0x201a <_delay_by_nop> <.L0> <.LFB0> <.LFE16> <.Letext0> <.Ltext0>
    2122:	1e 0f e8    	inc.w     [w14], [w14]

00002124 <.L22>:
    2124:	30 1f 20    	mov.w     #0x1f3, w0
    2126:	9e 00 78    	mov.w     [w14], w1
    2128:	80 8f 50    	sub.w     w1, w0, [w15]
    212a:	f3 ff 34    	bra       LE, 0x2112 <.L25>
    212c:	01 00 37    	bra       0x2130 <.L24>

0000212e <.L29>:
    212e:	00 00 00    	nop       

00002130 <.L24>:

    if (i == 500) {     // if i got to 500, then there was an issue`
    2130:	40 1f 20    	mov.w     #0x1f4, w0
    2132:	9e 00 78    	mov.w     [w14], w1
    2134:	80 8f 50    	sub.w     w1, w0, [w15]
    2136:	02 00 3a    	bra       NZ, 0x213c <.L26>
        return(1); }    // return 1 to indicate failure
    2138:	10 c0 b3    	mov.b     #0x1, w0
    213a:	0c 00 37    	bra       0x2154 <.L27>

0000213c <.L26>:

   if (I2C3STATbits.ACKSTAT == 1){   // Check for NO_ACK from slave,
    213c:	c1 13 80    	mov.w     0x278, w1
    213e:	00 00 28    	mov.w     #0x8000, w0
    2140:	00 80 60    	and.w     w1, w0, w0
    2142:	00 00 e0    	cp0.w     w0
    2144:	03 00 32    	bra       Z, 0x214c <.L28>
      reset_i2c_bus();
    2146:	bd ff 07    	rcall     0x20c2 <_reset_i2c_bus> <.LFB4> <.LFE3>
      return(1); }            // abort if not found
    2148:	10 c0 b3    	mov.b     #0x1, w0
    214a:	04 00 37    	bra       0x2154 <.L27>

0000214c <.L28>:

   delay_by_nop(2);
    214c:	20 00 20    	mov.w     #0x2, w0
    214e:	01 00 20    	mov.w     #0x0, w1
    2150:	64 ff 07    	rcall     0x201a <_delay_by_nop> <.L0> <.LFB0> <.LFE16> <.Letext0> <.Ltext0>
   return(0);
    2152:	00 40 eb    	clr.b     w0

00002154 <.L27>:
}
    2154:	00 80 fa    	ulnk      
    2156:	00 00 06    	return    

00002158 <_i2c_read>:


//function reads data, returns the read data, no ack
// helper function
char i2c_read(void){
    2158:	04 00 fa    	lnk       #0x4
   int i = 0;
    215a:	00 00 eb    	clr.w     w0
    215c:	00 0f 78    	mov.w     w0, [w14]
   char data = 0;
    215e:	00 40 eb    	clr.b     w0
    2160:	20 47 98    	mov.b     w0, [w14+2]
   I2C3CONbits.RCEN = 1;            //set I2C module to receive
    2162:	76 62 a8    	bset.b    0x276, #0x3

   while (!I2C3STATbits.RBF) {           //if no response, break
    2164:	05 00 37    	bra       0x2170 <.L31>

00002166 <.L33>:
      i ++;
    2166:	1e 0f e8    	inc.w     [w14], [w14]
      if (i > 2000) break;  }
    2168:	00 7d 20    	mov.w     #0x7d0, w0
    216a:	9e 00 78    	mov.w     [w14], w1
    216c:	80 8f 50    	sub.w     w1, w0, [w15]
    216e:	05 00 3c    	bra       GT, 0x217a <.L34>

00002170 <.L31>:
    2170:	c0 13 80    	mov.w     0x278, w0
    2172:	62 00 60    	and.w     w0, #0x2, w0
    2174:	00 00 e0    	cp0.w     w0
    2176:	f7 ff 32    	bra       Z, 0x2166 <.L33>
    2178:	01 00 37    	bra       0x217c <.L32>

0000217a <.L34>:
    217a:	00 00 00    	nop       

0000217c <.L32>:

   data = I2C3RCV;       //get data from I2C3RCV register
    217c:	80 13 80    	mov.w     0x270, w0
    217e:	20 47 98    	mov.b     w0, [w14+2]
   return data;
    2180:	2e 40 90    	mov.b     [w14+2], w0
}
    2182:	00 80 fa    	ulnk      
    2184:	00 00 06    	return    

00002186 <_i2c_read_ack>:


//function reads data, returns the read data, with ack
char i2c_read_ack(void){	//does not reset bus!!!
    2186:	04 00 fa    	lnk       #0x4
   int i = 0;
    2188:	00 00 eb    	clr.w     w0
    218a:	00 0f 78    	mov.w     w0, [w14]
   char data = 0;
    218c:	00 40 eb    	clr.b     w0
    218e:	20 47 98    	mov.b     w0, [w14+2]
   I2C3CONbits.RCEN = 1;            //set I2C module to receive
    2190:	76 62 a8    	bset.b    0x276, #0x3

   while (!I2C3STATbits.RBF) {       //if no response, break
    2192:	05 00 37    	bra       0x219e <.L36>

00002194 <.L38>:
      i++;
    2194:	1e 0f e8    	inc.w     [w14], [w14]
      if (i > 2000) break;}
    2196:	00 7d 20    	mov.w     #0x7d0, w0
    2198:	9e 00 78    	mov.w     [w14], w1
    219a:	80 8f 50    	sub.w     w1, w0, [w15]
    219c:	05 00 3c    	bra       GT, 0x21a8 <.L39>

0000219e <.L36>:
    219e:	c0 13 80    	mov.w     0x278, w0
    21a0:	62 00 60    	and.w     w0, #0x2, w0
    21a2:	00 00 e0    	cp0.w     w0
    21a4:	f7 ff 32    	bra       Z, 0x2194 <.L38>
    21a6:	01 00 37    	bra       0x21aa <.L37>

000021a8 <.L39>:
    21a8:	00 00 00    	nop       

000021aa <.L37>:

   data = I2C3RCV;               //get data from I2C3RCV register
    21aa:	80 13 80    	mov.w     0x270, w0
    21ac:	20 47 98    	mov.b     w0, [w14+2]
   I2C3CONbits.ACKEN = 1;        //start ACK generation
    21ae:	76 82 a8    	bset.b    0x276, #0x4
   delay_by_nop(10);             //wait before exiting
    21b0:	a0 00 20    	mov.w     #0xa, w0
    21b2:	01 00 20    	mov.w     #0x0, w1
    21b4:	32 ff 07    	rcall     0x201a <_delay_by_nop> <.L0> <.LFB0> <.LFE16> <.Letext0> <.Ltext0>
   return data;
    21b6:	2e 40 90    	mov.b     [w14+2], w0
}
    21b8:	00 80 fa    	ulnk      
    21ba:	00 00 06    	return    

000021bc <_i2c_read_nack>:

char i2c_read_nack(void){	//does not reset bus!!!
    21bc:	04 00 fa    	lnk       #0x4
   int i = 0;
    21be:	00 00 eb    	clr.w     w0
    21c0:	00 0f 78    	mov.w     w0, [w14]
   char data = 0;
    21c2:	00 40 eb    	clr.b     w0
    21c4:	20 47 98    	mov.b     w0, [w14+2]
   I2C3CONbits.RCEN = 1;            //set I2C module to receive
    21c6:	76 62 a8    	bset.b    0x276, #0x3

   while (!I2C3STATbits.RBF) {       //if no response, break
    21c8:	05 00 37    	bra       0x21d4 <.L41>

000021ca <.L43>:
      i++;
    21ca:	1e 0f e8    	inc.w     [w14], [w14]
      if (i > 2000) break;}
    21cc:	00 7d 20    	mov.w     #0x7d0, w0
    21ce:	9e 00 78    	mov.w     [w14], w1
    21d0:	80 8f 50    	sub.w     w1, w0, [w15]
    21d2:	05 00 3c    	bra       GT, 0x21de <.L44>

000021d4 <.L41>:
    21d4:	c0 13 80    	mov.w     0x278, w0
    21d6:	62 00 60    	and.w     w0, #0x2, w0
    21d8:	00 00 e0    	cp0.w     w0
    21da:	f7 ff 32    	bra       Z, 0x21ca <.L43>
    21dc:	01 00 37    	bra       0x21e0 <.L42>

000021de <.L44>:
    21de:	00 00 00    	nop       

000021e0 <.L42>:

   data = I2C3RCV;               //get data from I2C3RCV register
    21e0:	80 13 80    	mov.w     0x270, w0
    21e2:	20 47 98    	mov.b     w0, [w14+2]
   I2C3CONbits.ACKDT = 1;        // set mastrer to nack instead of ack
    21e4:	76 a2 a8    	bset.b    0x276, #0x5
   I2C3CONbits.ACKEN = 1;        //start ack generation
    21e6:	76 82 a8    	bset.b    0x276, #0x4
   delay_by_nop(10);             //wait before exiting
    21e8:	a0 00 20    	mov.w     #0xa, w0
    21ea:	01 00 20    	mov.w     #0x0, w1
    21ec:	16 ff 07    	rcall     0x201a <_delay_by_nop> <.L0> <.LFB0> <.LFE16> <.Letext0> <.Ltext0>
   return data;
    21ee:	2e 40 90    	mov.b     [w14+2], w0
}
    21f0:	00 80 fa    	ulnk      
    21f2:	00 00 06    	return    

000021f4 <_I2Cwrite>:

// function puts together I2C protocol for random write
void I2Cwrite(char addr, char subaddr, char value){
    21f4:	04 00 fa    	lnk       #0x4
    21f6:	00 4f 78    	mov.b     w0, [w14]
    21f8:	11 47 98    	mov.b     w1, [w14+1]
    21fa:	22 47 98    	mov.b     w2, [w14+2]
   i2c_start();
    21fc:	2e ff 07    	rcall     0x205a <_i2c_start> <.LFB2> <.LFE1>
   send_i2c_byte(addr & 0xfffe); // set /W bit, turns least sig, bit to 0
    21fe:	1e 00 fb    	se        [w14], w0
    2200:	80 00 78    	mov.w     w0, w1
    2202:	e0 ff 2f    	mov.w     #0xfffe, w0
    2204:	00 80 60    	and.w     w1, w0, w0
    2206:	78 ff 07    	rcall     0x20f8 <_send_i2c_byte> <.LFB5> <.LFE4>
   send_i2c_byte(subaddr);
    2208:	1e 40 90    	mov.b     [w14+1], w0
    220a:	00 00 fb    	se        w0, w0
    220c:	75 ff 07    	rcall     0x20f8 <_send_i2c_byte> <.LFB5> <.LFE4>
   send_i2c_byte(value);
    220e:	2e 40 90    	mov.b     [w14+2], w0
    2210:	00 00 fb    	se        w0, w0
    2212:	72 ff 07    	rcall     0x20f8 <_send_i2c_byte> <.LFB5> <.LFE4>
   reset_i2c_bus();
    2214:	56 ff 07    	rcall     0x20c2 <_reset_i2c_bus> <.LFB4> <.LFE3>
}
    2216:	00 80 fa    	ulnk      
    2218:	00 00 06    	return    

0000221a <_I2Cread>:

// function puts together I2C protocol for random read
char I2Cread(char addr, char subaddr){
    221a:	04 00 fa    	lnk       #0x4
    221c:	20 47 98    	mov.b     w0, [w14+2]
    221e:	31 47 98    	mov.b     w1, [w14+3]
   char temp;
   i2c_start();
    2220:	1c ff 07    	rcall     0x205a <_i2c_start> <.LFB2> <.LFE1>
   send_i2c_byte(addr);
    2222:	2e 40 90    	mov.b     [w14+2], w0
    2224:	00 00 fb    	se        w0, w0
    2226:	68 ff 07    	rcall     0x20f8 <_send_i2c_byte> <.LFB5> <.LFE4>
   send_i2c_byte(subaddr);
    2228:	3e 40 90    	mov.b     [w14+3], w0
    222a:	00 00 fb    	se        w0, w0
    222c:	65 ff 07    	rcall     0x20f8 <_send_i2c_byte> <.LFB5> <.LFE4>
   delay_by_nop(10);
    222e:	a0 00 20    	mov.w     #0xa, w0
    2230:	01 00 20    	mov.w     #0x0, w1
    2232:	f3 fe 07    	rcall     0x201a <_delay_by_nop> <.L0> <.LFB0> <.LFE16> <.Letext0> <.Ltext0>
   i2c_restart();
    2234:	2e ff 07    	rcall     0x2092 <_i2c_restart> <.LFB3> <.LFE2>

   send_i2c_byte(addr | 0x01); // set R bit, turn least sig. bit to 1
    2236:	2e 40 90    	mov.b     [w14+2], w0
    2238:	00 04 a0    	bset.b    w0, #0x0
    223a:	00 00 fb    	se        w0, w0
    223c:	5d ff 07    	rcall     0x20f8 <_send_i2c_byte> <.LFB5> <.LFE4>
   temp = i2c_read();
    223e:	8c ff 07    	rcall     0x2158 <_i2c_read> <.LFB6> <.LFE5>
    2240:	00 4f 78    	mov.b     w0, [w14]

   reset_i2c_bus();
    2242:	3f ff 07    	rcall     0x20c2 <_reset_i2c_bus> <.LFB4> <.LFE3>
   return temp;
    2244:	1e 40 78    	mov.b     [w14], w0
}
    2246:	00 80 fa    	ulnk      
    2248:	00 00 06    	return    

0000224a <_I2Cpoll>:

// function checks if device at addr is on bus
// 1 means it is there, 0 means it is not there
unsigned char I2Cpoll(char addr){
    224a:	04 00 fa    	lnk       #0x4
    224c:	20 47 98    	mov.b     w0, [w14+2]
    unsigned char temp = 0;
    224e:	00 40 eb    	clr.b     w0
    2250:	00 4f 78    	mov.b     w0, [w14]
    i2c_start();
    2252:	03 ff 07    	rcall     0x205a <_i2c_start> <.LFB2> <.LFE1>
    temp = send_i2c_byte((addr) & (0xfffe)); // set /W bit
    2254:	2e 40 90    	mov.b     [w14+2], w0
    2256:	00 00 fb    	se        w0, w0
    2258:	80 00 78    	mov.w     w0, w1
    225a:	e0 ff 2f    	mov.w     #0xfffe, w0
    225c:	00 80 60    	and.w     w1, w0, w0
    225e:	4c ff 07    	rcall     0x20f8 <_send_i2c_byte> <.LFB5> <.LFE4>
    2260:	00 4f 78    	mov.b     w0, [w14]
    reset_i2c_bus();
    2262:	2f ff 07    	rcall     0x20c2 <_reset_i2c_bus> <.LFB4> <.LFE3>
    if (temp == 0) {
    2264:	1e 40 78    	mov.b     [w14], w0
    2266:	00 04 e0    	cp0.b     w0
    2268:	02 00 3a    	bra       NZ, 0x226e <.L48>
        return 1; // We found it, no error
    226a:	10 c0 b3    	mov.b     #0x1, w0
    226c:	01 00 37    	bra       0x2270 <.L49>

0000226e <.L48>:
    } else return 0;
    226e:	00 40 eb    	clr.b     w0

00002270 <.L49>:
}
    2270:	00 80 fa    	ulnk      
    2272:	00 00 06    	return    

00002274 <_I2Cwritearray>:

// function writes a byte array over i2c
unsigned char I2Cwritearray(char addr, char dat[], uint8_t len) {
    2274:	08 00 fa    	lnk       #0x8
    2276:	20 47 98    	mov.b     w0, [w14+2]
    2278:	21 07 98    	mov.w     w1, [w14+4]
    227a:	62 47 98    	mov.b     w2, [w14+6]
  unsigned char err = 0;
    227c:	00 40 eb    	clr.b     w0
    227e:	00 4f 78    	mov.b     w0, [w14]
  i2c_start();
    2280:	ec fe 07    	rcall     0x205a <_i2c_start> <.LFB2> <.LFE1>
  err = send_i2c_byte(addr & (0xfffe)); // takes 7 bit address and adds /W bit
    2282:	2e 40 90    	mov.b     [w14+2], w0
    2284:	00 00 fb    	se        w0, w0
    2286:	80 00 78    	mov.w     w0, w1
    2288:	e0 ff 2f    	mov.w     #0xfffe, w0
    228a:	00 80 60    	and.w     w1, w0, w0
    228c:	35 ff 07    	rcall     0x20f8 <_send_i2c_byte> <.LFB5> <.LFE4>
    228e:	00 4f 78    	mov.b     w0, [w14]
  uint8_t j;
  for (j = 0; j < len; j++) { // keep sending data bytes til we're done unless it misses an ack
    2290:	00 40 eb    	clr.b     w0
    2292:	10 47 98    	mov.b     w0, [w14+1]
    2294:	0d 00 37    	bra       0x22b0 <.L51>

00002296 <.L52>:
    err |= send_i2c_byte(dat[j]);
    2296:	1e 40 90    	mov.b     [w14+1], w0
    2298:	00 80 fb    	ze        w0, w0
    229a:	ae 00 90    	mov.w     [w14+4], w1
    229c:	00 80 40    	add.w     w1, w0, w0
    229e:	10 40 78    	mov.b     [w0], w0
    22a0:	00 00 fb    	se        w0, w0
    22a2:	2a ff 07    	rcall     0x20f8 <_send_i2c_byte> <.LFB5> <.LFE4>
    22a4:	9e 40 78    	mov.b     [w14], w1
    22a6:	01 40 70    	ior.b     w0, w1, w0
    22a8:	00 4f 78    	mov.b     w0, [w14]
    22aa:	1e 40 90    	mov.b     [w14+1], w0
    22ac:	00 40 e8    	inc.b     w0, w0
    22ae:	10 47 98    	mov.b     w0, [w14+1]

000022b0 <.L51>:
    22b0:	9e 40 90    	mov.b     [w14+1], w1
    22b2:	6e 40 90    	mov.b     [w14+6], w0
    22b4:	80 cf 50    	sub.b     w1, w0, [w15]
    22b6:	ef ff 39    	bra       NC, 0x2296 <.L52>
  }
  reset_i2c_bus();
    22b8:	04 ff 07    	rcall     0x20c2 <_reset_i2c_bus> <.LFB4> <.LFE3>
  return err;
    22ba:	1e 40 78    	mov.b     [w14], w0
}
    22bc:	00 80 fa    	ulnk      
    22be:	00 00 06    	return    

000022c0 <_i2c2_init>:

////////////////////////////////////////////////////////////////////////////////
// I2C2 ////////////////////////////////////////////////////////////////////////
////////////////////////////////////////////////////////////////////////////////

// initiates I2C3 module to baud rate BRG
void i2c2_init(int BRG){      // I2CBRG = 157 for 16Mhz OSC with 100kHz I2C clock
    22c0:	04 00 fa    	lnk       #0x4
    22c2:	10 07 98    	mov.w     w0, [w14+2]
   int temp;
   I2C2BRG = BRG;           // Sets freq to 100kHz
    22c4:	1e 00 90    	mov.w     [w14+2], w0
    22c6:	a0 10 88    	mov.w     w0, 0x214
   I2C2CONbits.I2CEN = 0;	// Disable I2C Mode
    22c8:	17 e2 a9    	bclr.b    0x217, #0x7
   I2C2CONbits.DISSLW = 1;	// Disable slew rate control
    22ca:	17 22 a8    	bset.b    0x217, #0x1
   IFS3bits.MI2C2IF = 0;	 // Clear Interrupt
    22cc:	8a 40 a9    	bclr.b    0x8a, #0x2
   I2C2CONbits.I2CEN = 1;	// Enable I2C Mode
    22ce:	17 e2 a8    	bset.b    0x217, #0x7
   temp = I2C2RCV;	 // read buffer to clear buffer full
    22d0:	80 10 80    	mov.w     0x210, w0
    22d2:	00 0f 78    	mov.w     w0, [w14]
   reset_i2c_bus();	 // set bus to idle
    22d4:	f6 fe 07    	rcall     0x20c2 <_reset_i2c_bus> <.LFB4> <.LFE3>
}
    22d6:	00 80 fa    	ulnk      
    22d8:	00 00 06    	return    

000022da <_i2c2_start>:

//function iniates a start condition on bus
void i2c2_start(void){
    22da:	02 00 fa    	lnk       #0x2
   int x = 0;
    22dc:	00 00 eb    	clr.w     w0
    22de:	00 0f 78    	mov.w     w0, [w14]
   I2C2CONbits.ACKDT = 0;	//Reset any previous Ack
    22e0:	16 a2 a9    	bclr.b    0x216, #0x5
   delay_by_nop(10);
    22e2:	a0 00 20    	mov.w     #0xa, w0
    22e4:	01 00 20    	mov.w     #0x0, w1
    22e6:	99 fe 07    	rcall     0x201a <_delay_by_nop> <.L0> <.LFB0> <.LFE16> <.Letext0> <.Ltext0>
   I2C2CONbits.SEN = 1;	//Initiate Start condition
    22e8:	16 02 a8    	bset.b    0x216, #0x0
   __asm__("nop");
    22ea:	00 00 00    	nop       

   while (I2C2CONbits.SEN){    //the hardware will automatically clear Start Bit
    22ec:	07 00 37    	bra       0x22fc <.L55>

000022ee <.L57>:
      delay_by_nop(1);      //wait for automatic clear before proceding
    22ee:	10 00 20    	mov.w     #0x1, w0
    22f0:	01 00 20    	mov.w     #0x0, w1
    22f2:	93 fe 07    	rcall     0x201a <_delay_by_nop> <.L0> <.LFB0> <.LFE16> <.Letext0> <.Ltext0>
      x++;
    22f4:	1e 0f e8    	inc.w     [w14], [w14]
      if (x > 20)
    22f6:	1e 00 78    	mov.w     [w14], w0
    22f8:	f4 0f 50    	sub.w     w0, #0x14, [w15]
    22fa:	05 00 3c    	bra       GT, 0x2306 <.L58>

000022fc <.L55>:
    22fc:	b0 10 80    	mov.w     0x216, w0
    22fe:	61 00 60    	and.w     w0, #0x1, w0
    2300:	00 00 e0    	cp0.w     w0
    2302:	f5 ff 3a    	bra       NZ, 0x22ee <.L57>
    2304:	01 00 37    	bra       0x2308 <.L56>

00002306 <.L58>:
      break;
    2306:	00 00 00    	nop       

00002308 <.L56>:
   }
   delay_by_nop(2);
    2308:	20 00 20    	mov.w     #0x2, w0
    230a:	01 00 20    	mov.w     #0x0, w1
    230c:	86 fe 07    	rcall     0x201a <_delay_by_nop> <.L0> <.LFB0> <.LFE16> <.Letext0> <.Ltext0>
}
    230e:	00 80 fa    	ulnk      
    2310:	00 00 06    	return    

00002312 <_i2c2_restart>:

void i2c2_restart(void){
    2312:	02 00 fa    	lnk       #0x2
   int x = 0;
    2314:	00 00 eb    	clr.w     w0
    2316:	00 0f 78    	mov.w     w0, [w14]
   I2C2CONbits.RSEN = 1;	//Initiate restart condition
    2318:	16 22 a8    	bset.b    0x216, #0x1
   __asm__("nop");
    231a:	00 00 00    	nop       
   //the hardware will automatically clear restart bit
   //wait for automatic clear before proceding
   while (I2C2CONbits.RSEN){
    231c:	07 00 37    	bra       0x232c <.L60>

0000231e <.L62>:
      delay_by_nop(1);
    231e:	10 00 20    	mov.w     #0x1, w0
    2320:	01 00 20    	mov.w     #0x0, w1
    2322:	7b fe 07    	rcall     0x201a <_delay_by_nop> <.L0> <.LFB0> <.LFE16> <.Letext0> <.Ltext0>
      x++;
    2324:	1e 0f e8    	inc.w     [w14], [w14]
      if (x > 20)	break;
    2326:	1e 00 78    	mov.w     [w14], w0
    2328:	f4 0f 50    	sub.w     w0, #0x14, [w15]
    232a:	05 00 3c    	bra       GT, 0x2336 <.L63>

0000232c <.L60>:
    232c:	b0 10 80    	mov.w     0x216, w0
    232e:	62 00 60    	and.w     w0, #0x2, w0
    2330:	00 00 e0    	cp0.w     w0
    2332:	f5 ff 3a    	bra       NZ, 0x231e <.L62>
    2334:	01 00 37    	bra       0x2338 <.L61>

00002336 <.L63>:
    2336:	00 00 00    	nop       

00002338 <.L61>:
   }
   delay_by_nop(2);
    2338:	20 00 20    	mov.w     #0x2, w0
    233a:	01 00 20    	mov.w     #0x0, w1
    233c:	6e fe 07    	rcall     0x201a <_delay_by_nop> <.L0> <.LFB0> <.LFE16> <.Letext0> <.Ltext0>
}
    233e:	00 80 fa    	ulnk      
    2340:	00 00 06    	return    

00002342 <_reset_i2c2_bus>:


//Resets the I2C bus to Idle
void reset_i2c2_bus(void){
    2342:	02 00 fa    	lnk       #0x2
   int x = 0;
    2344:	00 00 eb    	clr.w     w0
    2346:	00 0f 78    	mov.w     w0, [w14]
   I2C2CONbits.PEN = 1;     //initiate stop bit
    2348:	16 42 a8    	bset.b    0x216, #0x2
   while (I2C2CONbits.PEN) {     //wait for hardware clear of stop bit
    234a:	07 00 37    	bra       0x235a <.L65>

0000234c <.L67>:
      // delay_by_nop(1);
      delay_by_nop(1);
    234c:	10 00 20    	mov.w     #0x1, w0
    234e:	01 00 20    	mov.w     #0x0, w1
    2350:	64 fe 07    	rcall     0x201a <_delay_by_nop> <.L0> <.LFB0> <.LFE16> <.Letext0> <.Ltext0>
      x ++;
    2352:	1e 0f e8    	inc.w     [w14], [w14]
      if (x > 20) break;
    2354:	1e 00 78    	mov.w     [w14], w0
    2356:	f4 0f 50    	sub.w     w0, #0x14, [w15]
    2358:	05 00 3c    	bra       GT, 0x2364 <.L68>

0000235a <.L65>:
    235a:	b0 10 80    	mov.w     0x216, w0
    235c:	64 00 60    	and.w     w0, #0x4, w0
    235e:	00 00 e0    	cp0.w     w0
    2360:	f5 ff 3a    	bra       NZ, 0x234c <.L67>
    2362:	01 00 37    	bra       0x2366 <.L66>

00002364 <.L68>:
    2364:	00 00 00    	nop       

00002366 <.L66>:
   }

   I2C2CONbits.RCEN = 0;
    2366:	16 62 a9    	bclr.b    0x216, #0x3
   IFS3bits.MI2C2IF = 0; // Clear Interrupt
    2368:	8a 40 a9    	bclr.b    0x8a, #0x2
   I2C2STATbits.IWCOL = 0;
    236a:	18 e2 a9    	bclr.b    0x218, #0x7
   I2C2STATbits.BCL = 0;
    236c:	19 42 a9    	bclr.b    0x219, #0x2
   // delay_by_nop(10);
   delay_by_nop(20);
    236e:	40 01 20    	mov.w     #0x14, w0
    2370:	01 00 20    	mov.w     #0x0, w1
    2372:	53 fe 07    	rcall     0x201a <_delay_by_nop> <.L0> <.LFB0> <.LFE16> <.Letext0> <.Ltext0>
}
    2374:	00 80 fa    	ulnk      
    2376:	00 00 06    	return    

00002378 <_send_i2c2_byte>:


//basic I2C byte send
char send_i2c2_byte(int data){
    2378:	04 00 fa    	lnk       #0x4
    237a:	10 07 98    	mov.w     w0, [w14+2]
   int i;
   while (I2C2STATbits.TBF) { }
    237c:	00 00 00    	nop       

0000237e <.L70>:
    237e:	c0 10 80    	mov.w     0x218, w0
    2380:	61 00 60    	and.w     w0, #0x1, w0
    2382:	00 00 e0    	cp0.w     w0
    2384:	fc ff 3a    	bra       NZ, 0x237e <.L70>
   IFS3bits.MI2C2IF = 0; // Clear Interrupt
    2386:	8a 40 a9    	bclr.b    0x8a, #0x2
   I2C2TRN = data; // load the outgoing data byte
    2388:	1e 00 90    	mov.w     [w14+2], w0
    238a:	90 10 88    	mov.w     w0, 0x212

   for (i=0; i<500; i++){           // wait for transmission
    238c:	00 00 eb    	clr.w     w0
    238e:	00 0f 78    	mov.w     w0, [w14]
    2390:	09 00 37    	bra       0x23a4 <.L71>

00002392 <.L74>:
      if (!I2C2STATbits.TRSTAT) break; // if master transmit not in progress break
    2392:	c1 10 80    	mov.w     0x218, w1
    2394:	00 00 24    	mov.w     #0x4000, w0
    2396:	00 80 60    	and.w     w1, w0, w0
    2398:	00 00 e0    	cp0.w     w0
    239a:	09 00 32    	bra       Z, 0x23ae <.L78>
      delay_by_nop(1); }
    239c:	10 00 20    	mov.w     #0x1, w0
    239e:	01 00 20    	mov.w     #0x0, w1
    23a0:	3c fe 07    	rcall     0x201a <_delay_by_nop> <.L0> <.LFB0> <.LFE16> <.Letext0> <.Ltext0>
    23a2:	1e 0f e8    	inc.w     [w14], [w14]

000023a4 <.L71>:
    23a4:	30 1f 20    	mov.w     #0x1f3, w0
    23a6:	9e 00 78    	mov.w     [w14], w1
    23a8:	80 8f 50    	sub.w     w1, w0, [w15]
    23aa:	f3 ff 34    	bra       LE, 0x2392 <.L74>
    23ac:	01 00 37    	bra       0x23b0 <.L73>

000023ae <.L78>:
    23ae:	00 00 00    	nop       

000023b0 <.L73>:

    if (i == 500) {     // if i got to 500, then there was an issue`
    23b0:	40 1f 20    	mov.w     #0x1f4, w0
    23b2:	9e 00 78    	mov.w     [w14], w1
    23b4:	80 8f 50    	sub.w     w1, w0, [w15]
    23b6:	02 00 3a    	bra       NZ, 0x23bc <.L75>
        return(1); }    // return 1 to indicate failure
    23b8:	10 c0 b3    	mov.b     #0x1, w0
    23ba:	0c 00 37    	bra       0x23d4 <.L76>

000023bc <.L75>:

   if (I2C2STATbits.ACKSTAT == 1){   // Check for NO_ACK from slave,
    23bc:	c1 10 80    	mov.w     0x218, w1
    23be:	00 00 28    	mov.w     #0x8000, w0
    23c0:	00 80 60    	and.w     w1, w0, w0
    23c2:	00 00 e0    	cp0.w     w0
    23c4:	03 00 32    	bra       Z, 0x23cc <.L77>
      reset_i2c2_bus();
    23c6:	bd ff 07    	rcall     0x2342 <_reset_i2c2_bus> <.LFB16> <.LFE15>
      return(1); }            // abort if not found
    23c8:	10 c0 b3    	mov.b     #0x1, w0
    23ca:	04 00 37    	bra       0x23d4 <.L76>

000023cc <.L77>:

   delay_by_nop(2);
    23cc:	20 00 20    	mov.w     #0x2, w0
    23ce:	01 00 20    	mov.w     #0x0, w1
    23d0:	24 fe 07    	rcall     0x201a <_delay_by_nop> <.L0> <.LFB0> <.LFE16> <.Letext0> <.Ltext0>
   return(0);
    23d2:	00 40 eb    	clr.b     w0

000023d4 <.L76>:
}
    23d4:	00 80 fa    	ulnk      
    23d6:	00 00 06    	return    

000023d8 <_i2c2_read>:


//function reads data, returns the read data, no ack
// helper function
char i2c2_read(void){
    23d8:	04 00 fa    	lnk       #0x4
   int i = 0;
    23da:	00 00 eb    	clr.w     w0
    23dc:	00 0f 78    	mov.w     w0, [w14]
   char data = 0;
    23de:	00 40 eb    	clr.b     w0
    23e0:	20 47 98    	mov.b     w0, [w14+2]
   I2C2CONbits.RCEN = 1;            //set I2C module to receive
    23e2:	16 62 a8    	bset.b    0x216, #0x3

   while (!I2C2STATbits.RBF) {           //if no response, break
    23e4:	05 00 37    	bra       0x23f0 <.L80>

000023e6 <.L82>:
      i ++;
    23e6:	1e 0f e8    	inc.w     [w14], [w14]
      if (i > 2000) break;  }
    23e8:	00 7d 20    	mov.w     #0x7d0, w0
    23ea:	9e 00 78    	mov.w     [w14], w1
    23ec:	80 8f 50    	sub.w     w1, w0, [w15]
    23ee:	05 00 3c    	bra       GT, 0x23fa <.L83>

000023f0 <.L80>:
    23f0:	c0 10 80    	mov.w     0x218, w0
    23f2:	62 00 60    	and.w     w0, #0x2, w0
    23f4:	00 00 e0    	cp0.w     w0
    23f6:	f7 ff 32    	bra       Z, 0x23e6 <.L82>
    23f8:	01 00 37    	bra       0x23fc <.L81>

000023fa <.L83>:
    23fa:	00 00 00    	nop       

000023fc <.L81>:

   data = I2C2RCV;       //get data from I2C2RCV register
    23fc:	80 10 80    	mov.w     0x210, w0
    23fe:	20 47 98    	mov.b     w0, [w14+2]
   return data;
    2400:	2e 40 90    	mov.b     [w14+2], w0
}
    2402:	00 80 fa    	ulnk      
    2404:	00 00 06    	return    

00002406 <_i2c2_read_ack>:


//function reads data, returns the read data, with ack
char i2c2_read_ack(void){	//does not reset bus!!!
    2406:	04 00 fa    	lnk       #0x4
   int i = 0;
    2408:	00 00 eb    	clr.w     w0
    240a:	00 0f 78    	mov.w     w0, [w14]
   char data = 0;
    240c:	00 40 eb    	clr.b     w0
    240e:	20 47 98    	mov.b     w0, [w14+2]
   I2C2CONbits.RCEN = 1;            //set I2C module to receive
    2410:	16 62 a8    	bset.b    0x216, #0x3

   while (!I2C2STATbits.RBF) {       //if no response, break
    2412:	05 00 37    	bra       0x241e <.L85>

00002414 <.L87>:
      i++;
    2414:	1e 0f e8    	inc.w     [w14], [w14]
      if (i > 2000) break;}
    2416:	00 7d 20    	mov.w     #0x7d0, w0
    2418:	9e 00 78    	mov.w     [w14], w1
    241a:	80 8f 50    	sub.w     w1, w0, [w15]
    241c:	05 00 3c    	bra       GT, 0x2428 <.L88>

0000241e <.L85>:
    241e:	c0 10 80    	mov.w     0x218, w0
    2420:	62 00 60    	and.w     w0, #0x2, w0
    2422:	00 00 e0    	cp0.w     w0
    2424:	f7 ff 32    	bra       Z, 0x2414 <.L87>
    2426:	01 00 37    	bra       0x242a <.L86>

00002428 <.L88>:
    2428:	00 00 00    	nop       

0000242a <.L86>:

   data = I2C2RCV;               //get data from I2C2RCV register
    242a:	80 10 80    	mov.w     0x210, w0
    242c:	20 47 98    	mov.b     w0, [w14+2]
   I2C2CONbits.ACKEN = 1;        //start ACK generation
    242e:	16 82 a8    	bset.b    0x216, #0x4
   delay_by_nop(10);             //wait before exiting
    2430:	a0 00 20    	mov.w     #0xa, w0
    2432:	01 00 20    	mov.w     #0x0, w1
    2434:	f2 fd 07    	rcall     0x201a <_delay_by_nop> <.L0> <.LFB0> <.LFE16> <.Letext0> <.Ltext0>
   return data;
    2436:	2e 40 90    	mov.b     [w14+2], w0
}
    2438:	00 80 fa    	ulnk      
    243a:	00 00 06    	return    

0000243c <_i2c2_read_nack>:

char i2c2_read_nack(void){	//does not reset bus!!!
    243c:	04 00 fa    	lnk       #0x4
   int i = 0;
    243e:	00 00 eb    	clr.w     w0
    2440:	00 0f 78    	mov.w     w0, [w14]
   char data = 0;
    2442:	00 40 eb    	clr.b     w0
    2444:	20 47 98    	mov.b     w0, [w14+2]
   I2C2CONbits.RCEN = 1;            //set I2C module to receive
    2446:	16 62 a8    	bset.b    0x216, #0x3

   while (!I2C2STATbits.RBF) {       //if no response, break
    2448:	05 00 37    	bra       0x2454 <.L90>

0000244a <.L92>:
      i++;
    244a:	1e 0f e8    	inc.w     [w14], [w14]
      if (i > 2000) break;}
    244c:	00 7d 20    	mov.w     #0x7d0, w0
    244e:	9e 00 78    	mov.w     [w14], w1
    2450:	80 8f 50    	sub.w     w1, w0, [w15]
    2452:	05 00 3c    	bra       GT, 0x245e <.L93>

00002454 <.L90>:
    2454:	c0 10 80    	mov.w     0x218, w0
    2456:	62 00 60    	and.w     w0, #0x2, w0
    2458:	00 00 e0    	cp0.w     w0
    245a:	f7 ff 32    	bra       Z, 0x244a <.L92>
    245c:	01 00 37    	bra       0x2460 <.L91>

0000245e <.L93>:
    245e:	00 00 00    	nop       

00002460 <.L91>:

   data = I2C2RCV;               //get data from I2C2RCV register
    2460:	80 10 80    	mov.w     0x210, w0
    2462:	20 47 98    	mov.b     w0, [w14+2]
   I2C2CONbits.ACKDT = 1;        // set mastrer to nack instead of ack
    2464:	16 a2 a8    	bset.b    0x216, #0x5
   I2C2CONbits.ACKEN = 1;        //start ack generation
    2466:	16 82 a8    	bset.b    0x216, #0x4
   delay_by_nop(10);             //wait before exiting
    2468:	a0 00 20    	mov.w     #0xa, w0
    246a:	01 00 20    	mov.w     #0x0, w1
    246c:	d6 fd 07    	rcall     0x201a <_delay_by_nop> <.L0> <.LFB0> <.LFE16> <.Letext0> <.Ltext0>
   return data;
    246e:	2e 40 90    	mov.b     [w14+2], w0
}
    2470:	00 80 fa    	ulnk      
    2472:	00 00 06    	return    

00002474 <_I2C2poll>:

// function checks if device at addr i bus
// 1 means it is not there, 0 means it is not there
unsigned char I2C2poll(char addr){
    2474:	04 00 fa    	lnk       #0x4
    2476:	20 47 98    	mov.b     w0, [w14+2]
   unsigned char temp = 0;
    2478:	00 40 eb    	clr.b     w0
    247a:	00 4f 78    	mov.b     w0, [w14]
   i2c2_start();
    247c:	2e ff 07    	rcall     0x22da <_i2c2_start> <.LFB14> <.LFE13>
   temp = send_i2c2_byte((addr) & (0xfffe)); // set /W bit
    247e:	2e 40 90    	mov.b     [w14+2], w0
    2480:	00 00 fb    	se        w0, w0
    2482:	80 00 78    	mov.w     w0, w1
    2484:	e0 ff 2f    	mov.w     #0xfffe, w0
    2486:	00 80 60    	and.w     w1, w0, w0
    2488:	77 ff 07    	rcall     0x2378 <_send_i2c2_byte> <.LFB17> <.LFE16>
    248a:	00 4f 78    	mov.b     w0, [w14]
   reset_i2c2_bus();
    248c:	5a ff 07    	rcall     0x2342 <_reset_i2c2_bus> <.LFB16> <.LFE15>
   if (temp == 0) {
    248e:	1e 40 78    	mov.b     [w14], w0
    2490:	00 04 e0    	cp0.b     w0
    2492:	02 00 3a    	bra       NZ, 0x2498 <.L95>
       return 1; // We found it, no error
    2494:	10 c0 b3    	mov.b     #0x1, w0
    2496:	01 00 37    	bra       0x249a <.L96>

00002498 <.L95>:
   } else return 0;
    2498:	00 40 eb    	clr.b     w0

0000249a <.L96>:
}
    249a:	00 80 fa    	ulnk      
    249c:	00 00 06    	return    

0000249e <_init_ajuart>:
uint8_t U1TXbuffer[U1_TX_BUFFER_LENGTH];
uint8_t U1RXbuffer[U1_RX_BUFFER_LENGTH];
uint16_t U1_tx_threshold;

void init_ajuart(void) {
    249e:	04 00 fa    	lnk       #0x4
    uint8_t *RPOR, *RPINR;

    // Configure audio jack UART pins and connect them to UART1
    AJ_TX_DIR = OUT; AJ_TX = 1;
    24a0:	f0 c2 a9    	bclr.b    0x2f0, #0x6
    24a2:	f2 c2 a8    	bset.b    0x2f2, #0x6
    AJ_RX_DIR = IN;
    24a4:	f0 e2 a8    	bset.b    0x2f0, #0x7

    RPOR = (uint8_t *)&RPOR0;
    24a6:	00 6c 20    	mov.w     #0x6c0, w0
    24a8:	00 0f 78    	mov.w     w0, [w14]
    RPINR = (uint8_t *)&RPINR0;
    24aa:	00 68 20    	mov.w     #0x680, w0
    24ac:	10 07 98    	mov.w     w0, [w14+2]

    __builtin_write_OSCCONL(OSCCON & 0xBF);
    24ae:	11 3a 80    	mov.w     0x742, w1
    24b0:	f0 0b 20    	mov.w     #0xbf, w0
    24b2:	00 81 60    	and.w     w1, w0, w2
    24b4:	60 04 20    	mov.w     #0x46, w0
    24b6:	71 05 20    	mov.w     #0x57, w1
    24b8:	23 74 20    	mov.w     #0x742, w3
    24ba:	80 49 78    	mov.b     w0, [w3]
    24bc:	81 49 78    	mov.b     w1, [w3]
    24be:	82 49 78    	mov.b     w2, [w3]
    RPINR[U1RX_RP] = AJ_RX_RP;
    24c0:	1e 00 90    	mov.w     [w14+2], w0
    24c2:	40 02 b0    	add.w     #0x24, w0
    24c4:	a1 c1 b3    	mov.b     #0x1a, w1
    24c6:	01 48 78    	mov.b     w1, [w0]
    RPOR[AJ_TX_RP] = U1TX_RP;
    24c8:	9e 00 78    	mov.w     [w14], w1
    24ca:	75 80 40    	add.w     w1, #0x15, w0
    24cc:	31 c0 b3    	mov.b     #0x3, w1
    24ce:	01 48 78    	mov.b     w1, [w0]
    __builtin_write_OSCCONL(OSCCON | 0x40);
    24d0:	10 3a 80    	mov.w     0x742, w0
    24d2:	00 01 78    	mov.w     w0, w2
    24d4:	02 60 a0    	bset.w    w2, #0x6
    24d6:	60 04 20    	mov.w     #0x46, w0
    24d8:	71 05 20    	mov.w     #0x57, w1
    24da:	23 74 20    	mov.w     #0x742, w3
    24dc:	80 49 78    	mov.b     w0, [w3]
    24de:	81 49 78    	mov.b     w1, [w3]
    24e0:	82 49 78    	mov.b     w2, [w3]

    U1MODE = 0x0008;                // configure UART1 for transmission at
    24e2:	80 00 20    	mov.w     #0x8, w0
    24e4:	00 11 88    	mov.w     w0, 0x220
    U1BRG = 0x0022;                 //   115,200 baud, no parity, 1 stop bit
    24e6:	20 02 20    	mov.w     #0x22, w0
    24e8:	40 11 88    	mov.w     w0, 0x228

    U1_tx_buffer.data = U1TXbuffer;
    24ea:	00 84 20    	mov.w     #0x840, w0
    24ec:	60 41 88    	mov.w     w0, 0x82c
    U1_tx_buffer.length = U1_TX_BUFFER_LENGTH;
    24ee:	00 40 20    	mov.w     #0x400, w0
    24f0:	70 41 88    	mov.w     w0, 0x82e
    U1_tx_buffer.head = 0;
    24f2:	00 00 eb    	clr.w     w0
    24f4:	80 41 88    	mov.w     w0, 0x830
    U1_tx_buffer.tail = 0;
    24f6:	00 00 eb    	clr.w     w0
    24f8:	90 41 88    	mov.w     w0, 0x832
    U1_tx_buffer.count = 0;
    24fa:	00 00 eb    	clr.w     w0
    24fc:	a0 41 88    	mov.w     w0, 0x834
    U1_tx_threshold = 3 * U1_TX_BUFFER_LENGTH / 4;
    24fe:	00 30 20    	mov.w     #0x300, w0
    2500:	50 41 88    	mov.w     w0, 0x82a

    U1_rx_buffer.data = U1RXbuffer;
    2502:	00 c4 20    	mov.w     #0xc40, w0
    2504:	b0 41 88    	mov.w     w0, 0x836
    U1_rx_buffer.length = U1_RX_BUFFER_LENGTH;
    2506:	00 40 20    	mov.w     #0x400, w0
    2508:	c0 41 88    	mov.w     w0, 0x838
    U1_rx_buffer.head = 0;
    250a:	00 00 eb    	clr.w     w0
    250c:	d0 41 88    	mov.w     w0, 0x83a
    U1_rx_buffer.tail = 0;
    250e:	00 00 eb    	clr.w     w0
    2510:	e0 41 88    	mov.w     w0, 0x83c
    U1_rx_buffer.count = 0;
    2512:	00 00 eb    	clr.w     w0
    2514:	f0 41 88    	mov.w     w0, 0x83e

    U1STAbits.UTXISEL1 = 0;         // set UART1 UTXISEL<1:0> = 01, TX interrupt
    2516:	23 e2 a9    	bclr.b    0x223, #0x7
    U1STAbits.UTXISEL0 = 1;         //   when all transmit operations are done
    2518:	23 a2 a8    	bset.b    0x223, #0x5

    IFS0bits.U1TXIF = 0;            // lower UART1 TX interrupt flag
    251a:	85 80 a9    	bclr.b    0x85, #0x4
    IEC0bits.U1TXIE = 1;            // enable UART1 TX interrupt
    251c:	95 80 a8    	bset.b    0x95, #0x4

    IFS0bits.U1RXIF = 0;            // lower UART1 RX interrupt flag
    251e:	85 60 a9    	bclr.b    0x85, #0x3
    IEC0bits.U1RXIE = 1;            // enable UART1 RX interrupt
    2520:	95 60 a8    	bset.b    0x95, #0x3

    U1MODEbits.UARTEN = 1;          // enable UART1 module
    2522:	21 e2 a8    	bset.b    0x221, #0x7
    U1STAbits.UTXEN = 1;            // enable UART1 data transmission
    2524:	23 42 a8    	bset.b    0x223, #0x2
}
    2526:	00 80 fa    	ulnk      
    2528:	00 00 06    	return    

0000252a <_U1_in_waiting>:

void __attribute__((interrupt, auto_psv)) _U1TXInterrupt(void) {
    uint8_t ch;

    IFS0bits.U1TXIF = 0;            // lower UART1 TX interrupt flag

    if (U1_tx_buffer.count == 0)    // if nothing left in UART1 TX buffer, 
        U1STAbits.UTXEN = 0;        //   disable data transmission

    while ((U1STAbits.UTXBF == 0) && (U1_tx_buffer.count != 0)) {
        disable_interrupts();
        ch = U1_tx_buffer.data[U1_tx_buffer.head];
        U1_tx_buffer.head++;
        if (U1_tx_buffer.head == U1_tx_buffer.length)
            U1_tx_buffer.head = 0;
        U1_tx_buffer.count--;
        enable_interrupts();
        U1TXREG = (uint16_t)ch;
    }
}

void __attribute__((interrupt, auto_psv)) _U1RXInterrupt(void) {
    IFS0bits.U1RXIF = 0;            // lower UART1 RX interrupt flag

    while ((U1STAbits.URXDA == 1) && (U1_rx_buffer.count != U1_rx_buffer.length)) {
        disable_interrupts();
        U1_rx_buffer.data[U1_rx_buffer.tail] = (uint8_t)U1RXREG;
        U1_rx_buffer.tail++;
        if (U1_rx_buffer.tail == U1_rx_buffer.length)
            U1_rx_buffer.tail = 0;
        U1_rx_buffer.count++;
        enable_interrupts();
    }
}

uint16_t U1_in_waiting(void) {
    252a:	00 00 fa    	lnk       #0x0
    return U1_rx_buffer.count;
    252c:	f0 41 80    	mov.w     0x83e, w0
}
    252e:	00 80 fa    	ulnk      
    2530:	00 00 06    	return    

00002532 <_U1_flush_tx_buffer>:

void U1_flush_tx_buffer(void) {
    2532:	00 00 fa    	lnk       #0x0
    if (U1STAbits.UTXEN == 0)       // if UART1 transmission is disabled,
    2534:	11 11 80    	mov.w     0x222, w1
    2536:	00 40 20    	mov.w     #0x400, w0
    2538:	00 80 60    	and.w     w1, w0, w0
    253a:	00 00 e0    	cp0.w     w0
    253c:	01 00 3a    	bra       NZ, 0x2540 <.L15>
        U1STAbits.UTXEN = 1;        //   enable it
    253e:	23 42 a8    	bset.b    0x223, #0x2

00002540 <.L15>:
}
    2540:	00 80 fa    	ulnk      
    2542:	00 00 06    	return    

00002544 <_U1_putc>:

void U1_putc(uint8_t ch) {
    2544:	02 00 fa    	lnk       #0x2
    2546:	00 4f 78    	mov.b     w0, [w14]
    // Wait until UART1 TX buffer is not full
    while (U1_tx_buffer.count == U1_tx_buffer.length) {}
    2548:	00 00 00    	nop       

0000254a <.L18>:
    254a:	a1 41 80    	mov.w     0x834, w1
    254c:	70 41 80    	mov.w     0x82e, w0
    254e:	80 8f 50    	sub.w     w1, w0, [w15]
    2550:	fc ff 32    	bra       Z, 0x254a <.L18>

    disable_interrupts();
    2552:	ff 3f fc    	disi      #0x3fff
    U1_tx_buffer.data[U1_tx_buffer.tail] = ch;
    2554:	61 41 80    	mov.w     0x82c, w1
    2556:	90 41 80    	mov.w     0x832, w0
    2558:	00 80 40    	add.w     w1, w0, w0
    255a:	1e 48 78    	mov.b     [w14], [w0]
    U1_tx_buffer.tail++;
    255c:	90 41 80    	mov.w     0x832, w0
    255e:	00 00 e8    	inc.w     w0, w0
    2560:	90 41 88    	mov.w     w0, 0x832
    if (U1_tx_buffer.tail == U1_tx_buffer.length)
    2562:	91 41 80    	mov.w     0x832, w1
    2564:	70 41 80    	mov.w     0x82e, w0
    2566:	80 8f 50    	sub.w     w1, w0, [w15]
    2568:	02 00 3a    	bra       NZ, 0x256e <.L19>
        U1_tx_buffer.tail = 0;
    256a:	00 00 eb    	clr.w     w0
    256c:	90 41 88    	mov.w     w0, 0x832

0000256e <.L19>:
    U1_tx_buffer.count++;
    256e:	a0 41 80    	mov.w     0x834, w0
    2570:	00 00 e8    	inc.w     w0, w0
    2572:	a0 41 88    	mov.w     w0, 0x834
    enable_interrupts();
    2574:	52 20 ef    	clr.w     0x52

    // If UART1 TX buffer is full enough, enable data transmission
    if (U1_tx_buffer.count >= U1_tx_threshold)
    2576:	a1 41 80    	mov.w     0x834, w1
    2578:	50 41 80    	mov.w     0x82a, w0
    257a:	80 8f 50    	sub.w     w1, w0, [w15]
    257c:	01 00 39    	bra       NC, 0x2580 <.L17>
        U1STAbits.UTXEN = 1;
    257e:	23 42 a8    	bset.b    0x223, #0x2

00002580 <.L17>:
}
    2580:	00 80 fa    	ulnk      
    2582:	00 00 06    	return    

00002584 <_U1_getc>:

uint8_t U1_getc(void) {
    2584:	02 00 fa    	lnk       #0x2
    uint8_t ch;

    // Wait until UART1 RX buffer is not empty
    while (U1_rx_buffer.count == 0) {}
    2586:	00 00 00    	nop       

00002588 <.L22>:
    2588:	f0 41 80    	mov.w     0x83e, w0
    258a:	00 00 e0    	cp0.w     w0
    258c:	fd ff 32    	bra       Z, 0x2588 <.L22>

    disable_interrupts();
    258e:	ff 3f fc    	disi      #0x3fff
    ch = U1_rx_buffer.data[U1_rx_buffer.head];
    2590:	b1 41 80    	mov.w     0x836, w1
    2592:	d0 41 80    	mov.w     0x83a, w0
    2594:	00 80 40    	add.w     w1, w0, w0
    2596:	10 4f 78    	mov.b     [w0], [w14]
    U1_rx_buffer.head++;
    2598:	d0 41 80    	mov.w     0x83a, w0
    259a:	00 00 e8    	inc.w     w0, w0
    259c:	d0 41 88    	mov.w     w0, 0x83a
    if (U1_rx_buffer.head == U1_rx_buffer.length)
    259e:	d1 41 80    	mov.w     0x83a, w1
    25a0:	c0 41 80    	mov.w     0x838, w0
    25a2:	80 8f 50    	sub.w     w1, w0, [w15]
    25a4:	02 00 3a    	bra       NZ, 0x25aa <.L23>
        U1_rx_buffer.head = 0;
    25a6:	00 00 eb    	clr.w     w0
    25a8:	d0 41 88    	mov.w     w0, 0x83a

000025aa <.L23>:
    U1_rx_buffer.count--;
    25aa:	f0 41 80    	mov.w     0x83e, w0
    25ac:	00 00 e9    	dec.w     w0, w0
    25ae:	f0 41 88    	mov.w     w0, 0x83e
    enable_interrupts();
    25b0:	52 20 ef    	clr.w     0x52

    return ch;
    25b2:	1e 40 78    	mov.b     [w14], w0
}
    25b4:	00 80 fa    	ulnk      
    25b6:	00 00 06    	return    

000025b8 <_U1_puts>:

void U1_puts(uint8_t *str) {
    25b8:	02 00 fa    	lnk       #0x2
    25ba:	00 0f 78    	mov.w     w0, [w14]
    while (*str)
    25bc:	04 00 37    	bra       0x25c6 <.L25>

000025be <.L26>:
        U1_putc(*str++);
    25be:	1e 00 78    	mov.w     [w14], w0
    25c0:	10 40 78    	mov.b     [w0], w0
    25c2:	1e 0f e8    	inc.w     [w14], [w14]
    25c4:	bf ff 07    	rcall     0x2544 <_U1_putc> <.LFB5> <.LFE4>

000025c6 <.L25>:
    25c6:	1e 00 78    	mov.w     [w14], w0
    25c8:	10 40 78    	mov.b     [w0], w0
    25ca:	00 04 e0    	cp0.b     w0
    25cc:	f8 ff 3a    	bra       NZ, 0x25be <.L26>
    U1_flush_tx_buffer();
    25ce:	b1 ff 07    	rcall     0x2532 <_U1_flush_tx_buffer> <.LFB4> <.LFE3>
}
    25d0:	00 80 fa    	ulnk      
    25d2:	00 00 06    	return    

000025d4 <_U1_gets>:

void U1_gets(uint8_t *str, uint16_t len) {
    25d4:	04 00 fa    	lnk       #0x4
    25d6:	00 0f 78    	mov.w     w0, [w14]
    25d8:	11 07 98    	mov.w     w1, [w14+2]
    if (len == 0)
    25da:	1e 00 90    	mov.w     [w14+2], w0
    25dc:	00 00 e0    	cp0.w     w0
    25de:	1a 00 32    	bra       Z, 0x2614 <.L32>
        return;

    if (len == 1) {
    25e0:	1e 00 90    	mov.w     [w14+2], w0
    25e2:	e1 0f 50    	sub.w     w0, #0x1, [w15]
    25e4:	04 00 3a    	bra       NZ, 0x25ee <.L30>
        *str = '\0';
    25e6:	1e 00 78    	mov.w     [w14], w0
    25e8:	80 40 eb    	clr.b     w1
    25ea:	01 48 78    	mov.b     w1, [w0]
        return;
    25ec:	14 00 37    	bra       0x2616 <.L27>

000025ee <.L30>:
    }

    while (1) {
        *str = U1_getc();
    25ee:	ca ff 07    	rcall     0x2584 <_U1_getc> <.LFB6> <.LFE5>
    25f0:	9e 00 78    	mov.w     [w14], w1
    25f2:	80 48 78    	mov.b     w0, [w1]
        if ((*str == '\r') || (len == 1))
    25f4:	1e 00 78    	mov.w     [w14], w0
    25f6:	10 40 78    	mov.b     [w0], w0
    25f8:	ed 4f 50    	sub.b     w0, #0xd, [w15]
    25fa:	08 00 32    	bra       Z, 0x260c <.L31>
    25fc:	1e 00 90    	mov.w     [w14+2], w0
    25fe:	e1 0f 50    	sub.w     w0, #0x1, [w15]
    2600:	05 00 32    	bra       Z, 0x260c <.L31>
            break;
        str++;
    2602:	1e 0f e8    	inc.w     [w14], [w14]
        len--;
    2604:	1e 00 90    	mov.w     [w14+2], w0
    2606:	00 00 e9    	dec.w     w0, w0
    2608:	10 07 98    	mov.w     w0, [w14+2]
    }
    260a:	f1 ff 37    	bra       0x25ee <.L30>

0000260c <.L31>:
    *str = '\0';
    260c:	1e 00 78    	mov.w     [w14], w0
    260e:	80 40 eb    	clr.b     w1
    2610:	01 48 78    	mov.b     w1, [w0]
    2612:	01 00 37    	bra       0x2616 <.L27>

00002614 <.L32>:
    2614:	00 00 00    	nop       

00002616 <.L27>:
}
    2616:	00 80 fa    	ulnk      
    2618:	00 00 06    	return    

0000261a <_U1_gets_term>:

void U1_gets_term(uint8_t *str, uint16_t len) {
    261a:	08 00 fa    	lnk       #0x8
    261c:	20 07 98    	mov.w     w0, [w14+4]
    261e:	31 07 98    	mov.w     w1, [w14+6]
    uint8_t *start;
    uint16_t left;

    if (len == 0)
    2620:	3e 00 90    	mov.w     [w14+6], w0
    2622:	00 00 e0    	cp0.w     w0
    2624:	6f 00 32    	bra       Z, 0x2704 <.L46>
        return;

    if (len == 1) {
    2626:	3e 00 90    	mov.w     [w14+6], w0
    2628:	e1 0f 50    	sub.w     w0, #0x1, [w15]
    262a:	04 00 3a    	bra       NZ, 0x2634 <.L36>
        *str = '\0';
    262c:	2e 00 90    	mov.w     [w14+4], w0
    262e:	80 40 eb    	clr.b     w1
    2630:	01 48 78    	mov.b     w1, [w0]
        return;
    2632:	69 00 37    	bra       0x2706 <.L33>

00002634 <.L36>:
    }

    U1_putc(0x1B);                          // save current cursor position
    2634:	b0 c1 b3    	mov.b     #0x1b, w0
    2636:	86 ff 07    	rcall     0x2544 <_U1_putc> <.LFB5> <.LFE4>
    U1_putc('7');
    2638:	70 c3 b3    	mov.b     #0x37, w0
    263a:	84 ff 07    	rcall     0x2544 <_U1_putc> <.LFB5> <.LFE4>
    U1_flush_tx_buffer();
    263c:	7a ff 07    	rcall     0x2532 <_U1_flush_tx_buffer> <.LFB4> <.LFE3>
    start = str;
    263e:	ae 00 90    	mov.w     [w14+4], w1
    2640:	11 07 98    	mov.w     w1, [w14+2]
    left = len;
    2642:	be 00 90    	mov.w     [w14+6], w1
    2644:	01 0f 78    	mov.w     w1, [w14]
    2646:	03 00 37    	bra       0x264e <.L45>

00002648 <.L47>:
    while (1) {
        *str = U1_getc();                   // get a character
        if (*str == '\r')                   // if character is return,
            break;                          //   end the loop
        if (*str == 0x1B) {                 // if character is escape,
            U1_putc(0x1B);                  //   restore cursor position,
            U1_putc('8');
            U1_putc(0x1B);                  //   clear to end of line, and
            U1_putc('[');
            U1_putc('K');
            U1_flush_tx_buffer();
            str = start;                    //   start over at the beginning
            left = len;
            continue;
        }
        if ((*str == '\b') ||               // if character is backspace
            (*str == 0x7F)) {               //   or delete, 
            if (str > start) {              //   and we are not at the start, 
                U1_putc('\b');              //   erase the last character and
                U1_putc(' ');
                U1_putc('\b');
                U1_flush_tx_buffer();
                str--;                      //   back up the pointer,
                left++;
            } else {                        //   otherwise
                U1_putc('\a');              //   send alert/bell character
                U1_flush_tx_buffer();
            }
            continue;
        }
        if (left == 1) {                    // if string buffer is full,
            U1_putc('\a');                  //   send alert/bell character
            U1_flush_tx_buffer();
            continue;
        }
        if ((*str >= 32) && (*str < 127)) { // if character is printable,
            U1_putc(*str);                  //   echo the received character
            U1_flush_tx_buffer();
            str++;                          //   and advance the pointer
            left--;
        }
    }
    2648:	00 00 00    	nop       
    264a:	01 00 37    	bra       0x264e <.L45>

0000264c <.L48>:
    264c:	00 00 00    	nop       

0000264e <.L45>:
    264e:	9a ff 07    	rcall     0x2584 <_U1_getc> <.LFB6> <.LFE5>
    2650:	ae 00 90    	mov.w     [w14+4], w1
    2652:	80 48 78    	mov.b     w0, [w1]
    2654:	2e 00 90    	mov.w     [w14+4], w0
    2656:	10 40 78    	mov.b     [w0], w0
    2658:	ed 4f 50    	sub.b     w0, #0xd, [w15]
    265a:	09 00 3a    	bra       NZ, 0x266e <.L37>
    *str = '\0';                            // terminarte the string with null
    265c:	2e 00 90    	mov.w     [w14+4], w0
    265e:	80 40 eb    	clr.b     w1
    2660:	01 48 78    	mov.b     w1, [w0]
    U1_putc('\n');                          // send newline and
    2662:	a0 c0 b3    	mov.b     #0xa, w0
    2664:	6f ff 07    	rcall     0x2544 <_U1_putc> <.LFB5> <.LFE4>
    U1_putc('\r');                          //   carriage return
    2666:	d0 c0 b3    	mov.b     #0xd, w0
    2668:	6d ff 07    	rcall     0x2544 <_U1_putc> <.LFB5> <.LFE4>
    U1_flush_tx_buffer();
    266a:	63 ff 07    	rcall     0x2532 <_U1_flush_tx_buffer> <.LFB4> <.LFE3>
    266c:	4c 00 37    	bra       0x2706 <.L33>

0000266e <.L37>:
    266e:	2e 00 90    	mov.w     [w14+4], w0
    2670:	10 40 78    	mov.b     [w0], w0
    2672:	fb 4f 50    	sub.b     w0, #0x1b, [w15]
    2674:	10 00 3a    	bra       NZ, 0x2696 <.L38>
    2676:	b0 c1 b3    	mov.b     #0x1b, w0
    2678:	65 ff 07    	rcall     0x2544 <_U1_putc> <.LFB5> <.LFE4>
    267a:	80 c3 b3    	mov.b     #0x38, w0
    267c:	63 ff 07    	rcall     0x2544 <_U1_putc> <.LFB5> <.LFE4>
    267e:	b0 c1 b3    	mov.b     #0x1b, w0
    2680:	61 ff 07    	rcall     0x2544 <_U1_putc> <.LFB5> <.LFE4>
    2682:	b0 c5 b3    	mov.b     #0x5b, w0
    2684:	5f ff 07    	rcall     0x2544 <_U1_putc> <.LFB5> <.LFE4>
    2686:	b0 c4 b3    	mov.b     #0x4b, w0
    2688:	5d ff 07    	rcall     0x2544 <_U1_putc> <.LFB5> <.LFE4>
    268a:	53 ff 07    	rcall     0x2532 <_U1_flush_tx_buffer> <.LFB4> <.LFE3>
    268c:	9e 00 90    	mov.w     [w14+2], w1
    268e:	21 07 98    	mov.w     w1, [w14+4]
    2690:	be 00 90    	mov.w     [w14+6], w1
    2692:	01 0f 78    	mov.w     w1, [w14]
    2694:	36 00 37    	bra       0x2702 <.L39>

00002696 <.L38>:
    2696:	2e 00 90    	mov.w     [w14+4], w0
    2698:	10 40 78    	mov.b     [w0], w0
    269a:	e8 4f 50    	sub.b     w0, #0x8, [w15]
    269c:	05 00 32    	bra       Z, 0x26a8 <.L40>
    269e:	2e 00 90    	mov.w     [w14+4], w0
    26a0:	90 40 78    	mov.b     [w0], w1
    26a2:	f0 c7 b3    	mov.b     #0x7f, w0
    26a4:	80 cf 50    	sub.b     w1, w0, [w15]
    26a6:	14 00 3a    	bra       NZ, 0x26d0 <.L41>

000026a8 <.L40>:
    26a8:	ae 00 90    	mov.w     [w14+4], w1
    26aa:	1e 00 90    	mov.w     [w14+2], w0
    26ac:	80 8f 50    	sub.w     w1, w0, [w15]
    26ae:	0c 00 36    	bra       LEU, 0x26c8 <.L42>
    26b0:	80 c0 b3    	mov.b     #0x8, w0
    26b2:	48 ff 07    	rcall     0x2544 <_U1_putc> <.LFB5> <.LFE4>
    26b4:	00 c2 b3    	mov.b     #0x20, w0
    26b6:	46 ff 07    	rcall     0x2544 <_U1_putc> <.LFB5> <.LFE4>
    26b8:	80 c0 b3    	mov.b     #0x8, w0
    26ba:	44 ff 07    	rcall     0x2544 <_U1_putc> <.LFB5> <.LFE4>
    26bc:	3a ff 07    	rcall     0x2532 <_U1_flush_tx_buffer> <.LFB4> <.LFE3>
    26be:	2e 00 90    	mov.w     [w14+4], w0
    26c0:	00 00 e9    	dec.w     w0, w0
    26c2:	20 07 98    	mov.w     w0, [w14+4]
    26c4:	1e 0f e8    	inc.w     [w14], [w14]
    26c6:	03 00 37    	bra       0x26ce <.L43>

000026c8 <.L42>:
    26c8:	70 c0 b3    	mov.b     #0x7, w0
    26ca:	3c ff 07    	rcall     0x2544 <_U1_putc> <.LFB5> <.LFE4>
    26cc:	32 ff 07    	rcall     0x2532 <_U1_flush_tx_buffer> <.LFB4> <.LFE3>

000026ce <.L43>:
    26ce:	19 00 37    	bra       0x2702 <.L39>

000026d0 <.L41>:
    26d0:	1e 00 78    	mov.w     [w14], w0
    26d2:	e1 0f 50    	sub.w     w0, #0x1, [w15]
    26d4:	04 00 3a    	bra       NZ, 0x26de <.L44>
    26d6:	70 c0 b3    	mov.b     #0x7, w0
    26d8:	35 ff 07    	rcall     0x2544 <_U1_putc> <.LFB5> <.LFE4>
    26da:	2b ff 07    	rcall     0x2532 <_U1_flush_tx_buffer> <.LFB4> <.LFE3>
    26dc:	12 00 37    	bra       0x2702 <.L39>

000026de <.L44>:
    26de:	2e 00 90    	mov.w     [w14+4], w0
    26e0:	10 40 78    	mov.b     [w0], w0
    26e2:	ff 4f 50    	sub.b     w0, #0x1f, [w15]
    26e4:	b1 ff 36    	bra       LEU, 0x2648 <.L47>
    26e6:	2e 00 90    	mov.w     [w14+4], w0
    26e8:	90 40 78    	mov.b     [w0], w1
    26ea:	e0 c7 b3    	mov.b     #0x7e, w0
    26ec:	80 cf 50    	sub.b     w1, w0, [w15]
    26ee:	ae ff 3e    	bra       GTU, 0x264c <.L48>
    26f0:	2e 00 90    	mov.w     [w14+4], w0
    26f2:	10 40 78    	mov.b     [w0], w0
    26f4:	27 ff 07    	rcall     0x2544 <_U1_putc> <.LFB5> <.LFE4>
    26f6:	1d ff 07    	rcall     0x2532 <_U1_flush_tx_buffer> <.LFB4> <.LFE3>
    26f8:	2e 00 90    	mov.w     [w14+4], w0
    26fa:	00 00 e8    	inc.w     w0, w0
    26fc:	20 07 98    	mov.w     w0, [w14+4]
    26fe:	1e 0f e9    	dec.w     [w14], [w14]
    2700:	a6 ff 37    	bra       0x264e <.L45>

00002702 <.L39>:
    2702:	a5 ff 37    	bra       0x264e <.L45>

00002704 <.L46>:
    2704:	00 00 00    	nop       

00002706 <.L33>:
}
    2706:	00 80 fa    	ulnk      
    2708:	00 00 06    	return    

0000270a <_write>:

int16_t write(int16_t handle, void *buffer, uint16_t len) {
    270a:	08 00 fa    	lnk       #0x8
    270c:	10 07 98    	mov.w     w0, [w14+2]
    270e:	21 07 98    	mov.w     w1, [w14+4]
    2710:	32 07 98    	mov.w     w2, [w14+6]
    int16_t i;

    switch (handle) {
    2712:	1e 00 90    	mov.w     [w14+2], w0
    2714:	60 00 40    	add.w     w0, #0x0, w0
    2716:	e2 0f 50    	sub.w     w0, #0x2, [w15]
    2718:	10 00 3e    	bra       GTU, 0x273a <.L55>
        case 0:
        case 1:
        case 2:
            for (i = 0; i < len; i++)
    271a:	00 00 eb    	clr.w     w0
    271c:	00 0f 78    	mov.w     w0, [w14]
    271e:	07 00 37    	bra       0x272e <.L52>

00002720 <.L53>:
                U1_putc(*(uint8_t *)buffer++);
    2720:	2e 00 90    	mov.w     [w14+4], w0
    2722:	10 40 78    	mov.b     [w0], w0
    2724:	ae 00 90    	mov.w     [w14+4], w1
    2726:	81 00 e8    	inc.w     w1, w1
    2728:	21 07 98    	mov.w     w1, [w14+4]
    272a:	0c ff 07    	rcall     0x2544 <_U1_putc> <.LFB5> <.LFE4>
    272c:	1e 0f e8    	inc.w     [w14], [w14]

0000272e <.L52>:
    272e:	9e 00 78    	mov.w     [w14], w1
    2730:	3e 00 90    	mov.w     [w14+6], w0
    2732:	80 8f 50    	sub.w     w1, w0, [w15]
    2734:	f5 ff 39    	bra       NC, 0x2720 <.L53>
            U1_flush_tx_buffer();
    2736:	fd fe 07    	rcall     0x2532 <_U1_flush_tx_buffer> <.LFB4> <.LFE3>
            break;
    2738:	01 00 37    	bra       0x273c <.L54>

0000273a <.L55>:
        default:
            break;
    273a:	00 00 00    	nop       

0000273c <.L54>:
    }
    return len;
    273c:	3e 00 90    	mov.w     [w14+6], w0
}
    273e:	00 80 fa    	ulnk      
    2740:	00 00 06    	return    
Disassembly of section .isr.text:

00002742 <__CNInterrupt>:
    2742:	32 00 f8    	push      0x32
    2744:	34 00 f8    	push      0x34
    2746:	88 1f 78    	mov.w     w8, [w15++]
    2748:	18 00 20    	mov.w     #0x1, w8
    274a:	a8 01 88    	mov.w     w8, 0x34
    274c:	08 20 20    	mov.w     #0x200, w8
    274e:	98 01 88    	mov.w     w8, 0x32
    2750:	4f 04 78    	mov.w     [--w15], w8
    2752:	00 00 fa    	lnk       #0x0
    2754:	86 60 a9    	bclr.b    0x86, #0x3
    2756:	06 21 ef    	clr.w     0x106
    2758:	84 e0 a9    	bclr.b    0x84, #0x7
    275a:	11 e1 a8    	bset.b    0x111, #0x7
    275c:	dc e2 a8    	bset.b    0x2dc, #0x7
    275e:	00 80 fa    	ulnk      
    2760:	34 00 f9    	pop       0x34
    2762:	32 00 f9    	pop       0x32
    2764:	00 40 06    	retfie    

00002766 <__T2Interrupt>:
    2766:	36 00 f8    	push      0x36
    2768:	80 9f be    	mov.d     w0, [w15++]
    276a:	82 9f be    	mov.d     w2, [w15++]
    276c:	84 9f be    	mov.d     w4, [w15++]
    276e:	86 9f be    	mov.d     w6, [w15++]
    2770:	32 00 f8    	push      0x32
    2772:	34 00 f8    	push      0x34
    2774:	10 00 20    	mov.w     #0x1, w0
    2776:	a0 01 88    	mov.w     w0, 0x34
    2778:	00 20 20    	mov.w     #0x200, w0
    277a:	90 01 88    	mov.w     w0, 0x32
    277c:	00 00 fa    	lnk       #0x0
    277e:	84 e0 a9    	bclr.b    0x84, #0x7
    2780:	11 e1 a9    	bclr.b    0x111, #0x7
    2782:	dc e2 a9    	bclr.b    0x2dc, #0x7
    2784:	d1 16 80    	mov.w     0x2da, w1
    2786:	00 02 20    	mov.w     #0x20, w0
    2788:	00 80 60    	and.w     w1, w0, w0
    278a:	00 00 e0    	cp0.w     w0
    278c:	0b 00 3a    	bra       NZ, 0x27a4 <.L47>
    278e:	10 c8 bf    	mov.b     0x810, WREG
    2790:	00 80 fb    	ze        w0, w0
    2792:	80 00 e8    	inc.w     w0, w1
    2794:	60 00 20    	mov.w     #0x6, w0
    2796:	00 01 78    	mov.w     w0, w2
    2798:	11 00 09    	repeat    #0x11
    279a:	82 00 d8    	div.sw    w1, w2
    279c:	80 00 fd    	exch      w0, w1
    279e:	00 40 78    	mov.b     w0, w0
    27a0:	10 e8 b7    	mov.b     WREG, 0x810
    27a2:	0c 00 37    	bra       0x27bc <.L48>

000027a4 <.L47>:
    27a4:	d0 16 80    	mov.w     0x2da, w0
    27a6:	70 00 60    	and.w     w0, #0x10, w0
    27a8:	00 00 e0    	cp0.w     w0
    27aa:	08 00 3a    	bra       NZ, 0x27bc <.L48>
    27ac:	10 c8 bf    	mov.b     0x810, WREG
    27ae:	00 40 e9    	dec.b     w0, w0
    27b0:	10 e8 b7    	mov.b     WREG, 0x810
    27b2:	10 c8 bf    	mov.b     0x810, WREG
    27b4:	e5 4f 50    	sub.b     w0, #0x5, [w15]
    27b6:	02 00 36    	bra       LEU, 0x27bc <.L48>
    27b8:	50 c0 b3    	mov.b     #0x5, w0
    27ba:	10 e8 b7    	mov.b     WREG, 0x810

000027bc <.L48>:
    27bc:	d0 16 80    	mov.w     0x2da, w0
    27be:	64 00 60    	and.w     w0, #0x4, w0
    27c0:	00 00 e0    	cp0.w     w0
    27c2:	0b 00 3a    	bra       NZ, 0x27da <.L49>
    27c4:	11 c8 bf    	mov.b     0x811, WREG
    27c6:	00 80 fb    	ze        w0, w0
    27c8:	80 00 e8    	inc.w     w0, w1
    27ca:	60 00 20    	mov.w     #0x6, w0
    27cc:	00 01 78    	mov.w     w0, w2
    27ce:	11 00 09    	repeat    #0x11
    27d0:	82 00 d8    	div.sw    w1, w2
    27d2:	80 00 fd    	exch      w0, w1
    27d4:	00 40 78    	mov.b     w0, w0
    27d6:	11 e8 b7    	mov.b     WREG, 0x811
    27d8:	07 00 37    	bra       0x27e8 <.L50>

000027da <.L49>:
    27da:	d0 16 80    	mov.w     0x2da, w0
    27dc:	68 00 60    	and.w     w0, #0x8, w0
    27de:	00 00 e0    	cp0.w     w0
    27e0:	03 00 3a    	bra       NZ, 0x27e8 <.L50>
    27e2:	11 c8 bf    	mov.b     0x811, WREG
    27e4:	00 40 e9    	dec.b     w0, w0
    27e6:	11 e8 b7    	mov.b     WREG, 0x811

000027e8 <.L50>:
    27e8:	11 c8 bf    	mov.b     0x811, WREG
    27ea:	e5 4f 50    	sub.b     w0, #0x5, [w15]
    27ec:	03 00 36    	bra       LEU, 0x27f4 <.L51>
    27ee:	11 c8 bf    	mov.b     0x811, WREG
    27f0:	66 40 40    	add.b     w0, #0x6, w0
    27f2:	11 e8 b7    	mov.b     WREG, 0x811

000027f4 <.L51>:
    27f4:	51 16 80    	mov.w     0x2ca, w1
    27f6:	00 00 28    	mov.w     #0x8000, w0
    27f8:	00 80 60    	and.w     w1, w0, w0
    27fa:	00 00 e0    	cp0.w     w0
    27fc:	0b 00 3a    	bra       NZ, 0x2814 <.L52>
    27fe:	12 c8 bf    	mov.b     0x812, WREG
    2800:	00 80 fb    	ze        w0, w0
    2802:	80 00 e8    	inc.w     w0, w1
    2804:	60 00 20    	mov.w     #0x6, w0
    2806:	00 01 78    	mov.w     w0, w2
    2808:	11 00 09    	repeat    #0x11
    280a:	82 00 d8    	div.sw    w1, w2
    280c:	80 00 fd    	exch      w0, w1
    280e:	00 40 78    	mov.b     w0, w0
    2810:	12 e8 b7    	mov.b     WREG, 0x812
    2812:	07 00 37    	bra       0x2822 <.L53>

00002814 <.L52>:
    2814:	50 17 80    	mov.w     0x2ea, w0
    2816:	68 00 60    	and.w     w0, #0x8, w0
    2818:	00 00 e0    	cp0.w     w0
    281a:	03 00 3a    	bra       NZ, 0x2822 <.L53>
    281c:	12 c8 bf    	mov.b     0x812, WREG
    281e:	00 40 e9    	dec.b     w0, w0
    2820:	12 e8 b7    	mov.b     WREG, 0x812

00002822 <.L53>:
    2822:	12 c8 bf    	mov.b     0x812, WREG
    2824:	e5 4f 50    	sub.b     w0, #0x5, [w15]
    2826:	03 00 36    	bra       LEU, 0x282e <.L54>
    2828:	12 c8 bf    	mov.b     0x812, WREG
    282a:	66 40 40    	add.b     w0, #0x6, w0
    282c:	12 e8 b7    	mov.b     WREG, 0x812

0000282e <.L54>:
    282e:	d1 16 80    	mov.w     0x2da, w1
    2830:	00 10 20    	mov.w     #0x100, w0
    2832:	00 80 60    	and.w     w1, w0, w0
    2834:	00 00 e0    	cp0.w     w0
    2836:	0b 00 3a    	bra       NZ, 0x284e <.L55>
    2838:	13 c8 bf    	mov.b     0x813, WREG
    283a:	00 80 fb    	ze        w0, w0
    283c:	80 00 e8    	inc.w     w0, w1
    283e:	60 00 20    	mov.w     #0x6, w0
    2840:	00 01 78    	mov.w     w0, w2
    2842:	11 00 09    	repeat    #0x11
    2844:	82 00 d8    	div.sw    w1, w2
    2846:	80 00 fd    	exch      w0, w1
    2848:	00 40 78    	mov.b     w0, w0
    284a:	13 e8 b7    	mov.b     WREG, 0x813
    284c:	08 00 37    	bra       0x285e <.L56>

0000284e <.L55>:
    284e:	d1 16 80    	mov.w     0x2da, w1
    2850:	00 80 20    	mov.w     #0x800, w0
    2852:	00 80 60    	and.w     w1, w0, w0
    2854:	00 00 e0    	cp0.w     w0
    2856:	03 00 3a    	bra       NZ, 0x285e <.L56>
    2858:	13 c8 bf    	mov.b     0x813, WREG
    285a:	00 40 e9    	dec.b     w0, w0
    285c:	13 e8 b7    	mov.b     WREG, 0x813

0000285e <.L56>:
    285e:	13 c8 bf    	mov.b     0x813, WREG
    2860:	e5 4f 50    	sub.b     w0, #0x5, [w15]
    2862:	03 00 36    	bra       LEU, 0x286a <.L57>
    2864:	13 c8 bf    	mov.b     0x813, WREG
    2866:	66 40 40    	add.b     w0, #0x6, w0
    2868:	13 e8 b7    	mov.b     WREG, 0x813

0000286a <.L57>:
    286a:	d1 16 80    	mov.w     0x2da, w1
    286c:	00 20 20    	mov.w     #0x200, w0
    286e:	00 80 60    	and.w     w1, w0, w0
    2870:	00 00 e0    	cp0.w     w0
    2872:	0b 00 3a    	bra       NZ, 0x288a <.L58>
    2874:	14 c8 bf    	mov.b     0x814, WREG
    2876:	00 80 fb    	ze        w0, w0
    2878:	80 00 e8    	inc.w     w0, w1
    287a:	60 00 20    	mov.w     #0x6, w0
    287c:	00 01 78    	mov.w     w0, w2
    287e:	11 00 09    	repeat    #0x11
    2880:	82 00 d8    	div.sw    w1, w2
    2882:	80 00 fd    	exch      w0, w1
    2884:	00 40 78    	mov.b     w0, w0
    2886:	14 e8 b7    	mov.b     WREG, 0x814
    2888:	08 00 37    	bra       0x289a <.L59>

0000288a <.L58>:
    288a:	d1 16 80    	mov.w     0x2da, w1
    288c:	00 40 20    	mov.w     #0x400, w0
    288e:	00 80 60    	and.w     w1, w0, w0
    2890:	00 00 e0    	cp0.w     w0
    2892:	03 00 3a    	bra       NZ, 0x289a <.L59>
    2894:	14 c8 bf    	mov.b     0x814, WREG
    2896:	00 40 e9    	dec.b     w0, w0
    2898:	14 e8 b7    	mov.b     WREG, 0x814

0000289a <.L59>:
    289a:	14 c8 bf    	mov.b     0x814, WREG
    289c:	e5 4f 50    	sub.b     w0, #0x5, [w15]
    289e:	03 00 36    	bra       LEU, 0x28a6 <.L60>
    28a0:	14 c8 bf    	mov.b     0x814, WREG
    28a2:	66 40 40    	add.b     w0, #0x6, w0
    28a4:	14 e8 b7    	mov.b     WREG, 0x814

000028a6 <.L60>:
    28a6:	d8 f8 07    	rcall     0x1a58 <_updateDisplay> <.LFB8> <.LFE5>
    28a8:	00 80 fa    	ulnk      
    28aa:	34 00 f9    	pop       0x34
    28ac:	32 00 f9    	pop       0x32
    28ae:	4f 03 be    	mov.d     [--w15], w6
    28b0:	4f 02 be    	mov.d     [--w15], w4
    28b2:	4f 01 be    	mov.d     [--w15], w2
    28b4:	4f 00 be    	mov.d     [--w15], w0
    28b6:	36 00 f9    	pop       0x36
    28b8:	00 40 06    	retfie    

000028ba <__SI2C2Interrupt>:
    28ba:	80 9f be    	mov.d     w0, [w15++]
    28bc:	32 00 f8    	push      0x32
    28be:	34 00 f8    	push      0x34
    28c0:	10 00 20    	mov.w     #0x1, w0
    28c2:	a0 01 88    	mov.w     w0, 0x34
    28c4:	00 20 20    	mov.w     #0x200, w0
    28c6:	90 01 88    	mov.w     w0, 0x32
    28c8:	02 00 fa    	lnk       #0x2
    28ca:	8a 20 a9    	bclr.b    0x8a, #0x1
    28cc:	40 41 80    	mov.w     0x828, w0
    28ce:	e1 0f 50    	sub.w     w0, #0x1, [w15]
    28d0:	23 00 32    	bra       Z, 0x2918 <.L4>
    28d2:	e1 0f 50    	sub.w     w0, #0x1, [w15]
    28d4:	03 00 39    	bra       NC, 0x28dc <.L3>
    28d6:	e2 0f 50    	sub.w     w0, #0x2, [w15]
    28d8:	50 00 32    	bra       Z, 0x297a <.L5>
    28da:	51 00 37    	bra       0x297e <.L18>

000028dc <.L3>:
    28dc:	80 10 80    	mov.w     0x210, w0
    28de:	00 4f 78    	mov.b     w0, [w14]
    28e0:	c0 10 80    	mov.w     0x218, w0
    28e2:	64 00 60    	and.w     w0, #0x4, w0
    28e4:	00 00 e0    	cp0.w     w0
    28e6:	15 00 32    	bra       Z, 0x2912 <.L6>
    28e8:	21 c8 bf    	mov.b     0x821, WREG
    28ea:	00 80 fb    	ze        w0, w0
    28ec:	47 00 dd    	sl.w      w0, #0x7, w0
    28ee:	80 40 78    	mov.b     w0, w1
    28f0:	22 c8 bf    	mov.b     0x822, WREG
    28f2:	00 80 fb    	ze        w0, w0
    28f4:	67 00 60    	and.w     w0, #0x7, w0
    28f6:	44 00 dd    	sl.w      w0, #0x4, w0
    28f8:	00 40 78    	mov.b     w0, w0
    28fa:	80 c0 70    	ior.b     w1, w0, w1
    28fc:	23 c8 bf    	mov.b     0x823, WREG
    28fe:	6f 40 60    	and.b     w0, #0xf, w0
    2900:	00 c0 70    	ior.b     w1, w0, w0
    2902:	1e e8 b7    	mov.b     WREG, 0x81e
    2904:	1e c8 bf    	mov.b     0x81e, WREG
    2906:	00 80 fb    	ze        w0, w0
    2908:	90 10 88    	mov.w     w0, 0x212
    290a:	17 82 a8    	bset.b    0x217, #0x4
    290c:	20 00 20    	mov.w     #0x2, w0
    290e:	40 41 88    	mov.w     w0, 0x828
    2910:	37 00 37    	bra       0x2980 <.L1>

00002912 <.L6>:
    2912:	10 00 20    	mov.w     #0x1, w0
    2914:	40 41 88    	mov.w     w0, 0x828
    2916:	34 00 37    	bra       0x2980 <.L1>

00002918 <.L4>:
    2918:	80 10 80    	mov.w     0x210, w0
    291a:	00 40 78    	mov.b     w0, w0
    291c:	1f e8 b7    	mov.b     WREG, 0x81f
    291e:	1f c8 bf    	mov.b     0x81f, WREG
    2920:	00 80 fb    	ze        w0, w0
    2922:	45 00 de    	lsr.w     w0, #0x5, w0
    2924:	00 40 78    	mov.b     w0, w0
    2926:	00 80 fb    	ze        w0, w0
    2928:	e4 0f 50    	sub.w     w0, #0x4, [w15]
    292a:	0f 00 32    	bra       Z, 0x294a <.L12>
    292c:	e4 0f 50    	sub.w     w0, #0x4, [w15]
    292e:	05 00 3c    	bra       GT, 0x293a <.L16>
    2930:	e1 0f 50    	sub.w     w0, #0x1, [w15]
    2932:	16 00 32    	bra       Z, 0x2960 <.L10>
    2934:	e2 0f 50    	sub.w     w0, #0x2, [w15]
    2936:	17 00 32    	bra       Z, 0x2966 <.L11>
    2938:	19 00 37    	bra       0x296c <.L9>

0000293a <.L16>:
    293a:	e7 0f 50    	sub.w     w0, #0x7, [w15]
    293c:	0a 00 32    	bra       Z, 0x2952 <.L14>
    293e:	11 10 20    	mov.w     #0x101, w1
    2940:	81 0f 50    	sub.w     w0, w1, [w15]
    2942:	18 00 32    	bra       Z, 0x2974 <.L19>
    2944:	e6 0f 50    	sub.w     w0, #0x6, [w15]
    2946:	09 00 32    	bra       Z, 0x295a <.L13>
    2948:	11 00 37    	bra       0x296c <.L9>

0000294a <.L12>:
    294a:	1f c8 bf    	mov.b     0x81f, WREG
    294c:	7f 40 60    	and.b     w0, #0x1f, w0
    294e:	20 e8 b7    	mov.b     WREG, 0x820
    2950:	12 00 37    	bra       0x2976 <.L17>

00002952 <.L14>:
    2952:	1f c8 bf    	mov.b     0x81f, WREG
    2954:	7f 40 60    	and.b     w0, #0x1f, w0
    2956:	22 e8 b7    	mov.b     WREG, 0x822
    2958:	0e 00 37    	bra       0x2976 <.L17>

0000295a <.L13>:
    295a:	10 c0 b3    	mov.b     #0x1, w0
    295c:	24 e8 b7    	mov.b     WREG, 0x824
    295e:	0b 00 37    	bra       0x2976 <.L17>

00002960 <.L10>:
    2960:	10 c0 b3    	mov.b     #0x1, w0
    2962:	25 e8 b7    	mov.b     WREG, 0x825
    2964:	08 00 37    	bra       0x2976 <.L17>

00002966 <.L11>:
    2966:	10 c0 b3    	mov.b     #0x1, w0
    2968:	26 e8 b7    	mov.b     WREG, 0x826
    296a:	05 00 37    	bra       0x2976 <.L17>

0000296c <.L9>:
    296c:	23 c8 bf    	mov.b     0x823, WREG
    296e:	00 40 e8    	inc.b     w0, w0
    2970:	23 e8 b7    	mov.b     WREG, 0x823
    2972:	01 00 37    	bra       0x2976 <.L17>

00002974 <.L19>:
    2974:	00 00 00    	nop       

00002976 <.L17>:
    2976:	28 28 ef    	clr.w     0x828
    2978:	03 00 37    	bra       0x2980 <.L1>

0000297a <.L5>:
    297a:	28 28 ef    	clr.w     0x828
    297c:	01 00 37    	bra       0x2980 <.L1>

0000297e <.L18>:
    297e:	28 28 ef    	clr.w     0x828

00002980 <.L1>:
    2980:	00 80 fa    	ulnk      
    2982:	34 00 f9    	pop       0x34
    2984:	32 00 f9    	pop       0x32
    2986:	4f 00 be    	mov.d     [--w15], w0
    2988:	00 40 06    	retfie    

0000298a <__U1TXInterrupt>:
    298a:	80 9f be    	mov.d     w0, [w15++]
    298c:	32 00 f8    	push      0x32
    298e:	34 00 f8    	push      0x34
    2990:	10 00 20    	mov.w     #0x1, w0
    2992:	a0 01 88    	mov.w     w0, 0x34
    2994:	00 20 20    	mov.w     #0x200, w0
    2996:	90 01 88    	mov.w     w0, 0x32
    2998:	02 00 fa    	lnk       #0x2
    299a:	85 80 a9    	bclr.b    0x85, #0x4
    299c:	a0 41 80    	mov.w     0x834, w0
    299e:	00 00 e0    	cp0.w     w0
    29a0:	17 00 3a    	bra       NZ, 0x29d0 <.L8>
    29a2:	23 42 a9    	bclr.b    0x223, #0x2
    29a4:	16 00 37    	bra       0x29d2 <.L4>

000029a6 <.L7>:
    29a6:	ff 3f fc    	disi      #0x3fff
    29a8:	61 41 80    	mov.w     0x82c, w1
    29aa:	80 41 80    	mov.w     0x830, w0
    29ac:	00 80 40    	add.w     w1, w0, w0
    29ae:	10 4f 78    	mov.b     [w0], [w14]
    29b0:	80 41 80    	mov.w     0x830, w0
    29b2:	00 00 e8    	inc.w     w0, w0
    29b4:	80 41 88    	mov.w     w0, 0x830
    29b6:	81 41 80    	mov.w     0x830, w1
    29b8:	70 41 80    	mov.w     0x82e, w0
    29ba:	80 8f 50    	sub.w     w1, w0, [w15]
    29bc:	02 00 3a    	bra       NZ, 0x29c2 <.L5>
    29be:	00 00 eb    	clr.w     w0
    29c0:	80 41 88    	mov.w     w0, 0x830

000029c2 <.L5>:
    29c2:	a0 41 80    	mov.w     0x834, w0
    29c4:	00 00 e9    	dec.w     w0, w0
    29c6:	a0 41 88    	mov.w     w0, 0x834
    29c8:	52 20 ef    	clr.w     0x52
    29ca:	1e 80 fb    	ze        [w14], w0
    29cc:	20 11 88    	mov.w     w0, 0x224
    29ce:	01 00 37    	bra       0x29d2 <.L4>

000029d0 <.L8>:
    29d0:	00 00 00    	nop       

000029d2 <.L4>:
    29d2:	11 11 80    	mov.w     0x222, w1
    29d4:	00 20 20    	mov.w     #0x200, w0
    29d6:	00 80 60    	and.w     w1, w0, w0
    29d8:	00 00 e0    	cp0.w     w0
    29da:	03 00 3a    	bra       NZ, 0x29e2 <.L2>
    29dc:	a0 41 80    	mov.w     0x834, w0
    29de:	00 00 e0    	cp0.w     w0
    29e0:	e2 ff 3a    	bra       NZ, 0x29a6 <.L7>

000029e2 <.L2>:
    29e2:	00 80 fa    	ulnk      
    29e4:	34 00 f9    	pop       0x34
    29e6:	32 00 f9    	pop       0x32
    29e8:	4f 00 be    	mov.d     [--w15], w0
    29ea:	00 40 06    	retfie    

000029ec <__U1RXInterrupt>:
    29ec:	80 9f be    	mov.d     w0, [w15++]
    29ee:	32 00 f8    	push      0x32
    29f0:	34 00 f8    	push      0x34
    29f2:	10 00 20    	mov.w     #0x1, w0
    29f4:	a0 01 88    	mov.w     w0, 0x34
    29f6:	00 20 20    	mov.w     #0x200, w0
    29f8:	90 01 88    	mov.w     w0, 0x32
    29fa:	00 00 fa    	lnk       #0x0
    29fc:	85 60 a9    	bclr.b    0x85, #0x3
    29fe:	14 00 37    	bra       0x2a28 <.L10>

00002a00 <.L13>:
    2a00:	ff 3f fc    	disi      #0x3fff
    2a02:	b1 41 80    	mov.w     0x836, w1
    2a04:	e0 41 80    	mov.w     0x83c, w0
    2a06:	00 80 40    	add.w     w1, w0, w0
    2a08:	31 11 80    	mov.w     0x226, w1
    2a0a:	81 40 78    	mov.b     w1, w1
    2a0c:	01 48 78    	mov.b     w1, [w0]
    2a0e:	e0 41 80    	mov.w     0x83c, w0
    2a10:	00 00 e8    	inc.w     w0, w0
    2a12:	e0 41 88    	mov.w     w0, 0x83c
    2a14:	e1 41 80    	mov.w     0x83c, w1
    2a16:	c0 41 80    	mov.w     0x838, w0
    2a18:	80 8f 50    	sub.w     w1, w0, [w15]
    2a1a:	02 00 3a    	bra       NZ, 0x2a20 <.L11>
    2a1c:	00 00 eb    	clr.w     w0
    2a1e:	e0 41 88    	mov.w     w0, 0x83c

00002a20 <.L11>:
    2a20:	f0 41 80    	mov.w     0x83e, w0
    2a22:	00 00 e8    	inc.w     w0, w0
    2a24:	f0 41 88    	mov.w     w0, 0x83e
    2a26:	52 20 ef    	clr.w     0x52

00002a28 <.L10>:
    2a28:	10 11 80    	mov.w     0x222, w0
    2a2a:	61 00 60    	and.w     w0, #0x1, w0
    2a2c:	00 00 e0    	cp0.w     w0
    2a2e:	04 00 32    	bra       Z, 0x2a38 <.L9>
    2a30:	f1 41 80    	mov.w     0x83e, w1
    2a32:	c0 41 80    	mov.w     0x838, w0
    2a34:	80 8f 50    	sub.w     w1, w0, [w15]
    2a36:	e4 ff 3a    	bra       NZ, 0x2a00 <.L13>

00002a38 <.L9>:
    2a38:	00 80 fa    	ulnk      
    2a3a:	34 00 f9    	pop       0x34
    2a3c:	32 00 f9    	pop       0x32
    2a3e:	4f 00 be    	mov.d     [--w15], w0
    2a40:	00 40 06    	retfie    
Disassembly of section .text:

00002a42 <_init_elecanisms>:
            U1_rx_buffer.tail = 0;
        U1_rx_buffer.count++;
        enable_interrupts();
    }
}
    2a42:	00 00 fa    	lnk       #0x0
    2a44:	00 10 20    	mov.w     #0x100, w0
    2a46:	20 3a 88    	mov.w     w0, 0x744
    2a48:	d8 a2 a8    	bset.b    0x2d8, #0x5
    2a4a:	d8 82 a8    	bset.b    0x2d8, #0x4
    2a4c:	e8 82 a8    	bset.b    0x2e8, #0x4
    2a4e:	e8 a2 a8    	bset.b    0x2e8, #0x5
    2a50:	c9 e2 a8    	bset.b    0x2c9, #0x7
    2a52:	e8 62 a8    	bset.b    0x2e8, #0x3
    2a54:	d9 02 a8    	bset.b    0x2d9, #0x0
    2a56:	d9 62 a8    	bset.b    0x2d9, #0x3
    2a58:	d9 22 a8    	bset.b    0x2d9, #0x1
    2a5a:	d9 42 a8    	bset.b    0x2d9, #0x2
    2a5c:	d8 02 a8    	bset.b    0x2d8, #0x0
    2a5e:	d8 22 a8    	bset.b    0x2d8, #0x1
    2a60:	d8 42 a8    	bset.b    0x2d8, #0x2
    2a62:	d8 62 a8    	bset.b    0x2d8, #0x3
    2a64:	c8 a2 a8    	bset.b    0x2c8, #0x5
    2a66:	c8 82 a8    	bset.b    0x2c8, #0x4
    2a68:	c8 62 a8    	bset.b    0x2c8, #0x3
    2a6a:	c8 42 a8    	bset.b    0x2c8, #0x2
    2a6c:	c8 22 a8    	bset.b    0x2c8, #0x1
    2a6e:	c8 02 a8    	bset.b    0x2c8, #0x0
    2a70:	f0 03 20    	mov.w     #0x3f, w0
    2a72:	10 27 88    	mov.w     w0, 0x4e2
    2a74:	e4 24 ef    	clr.w     0x4e4
    2a76:	e6 24 ef    	clr.w     0x4e6
    2a78:	ea 24 ef    	clr.w     0x4ea
    2a7a:	ec 24 ef    	clr.w     0x4ec
    2a7c:	00 0e 20    	mov.w     #0xe0, w0
    2a7e:	00 19 88    	mov.w     w0, 0x320
    2a80:	22 23 ef    	clr.w     0x322
    2a82:	00 c4 20    	mov.w     #0xc40, w0
    2a84:	20 19 88    	mov.w     w0, 0x324
    2a86:	50 00 20    	mov.w     #0x5, w0
    2a88:	40 19 88    	mov.w     w0, 0x328
    2a8a:	21 e3 a8    	bset.b    0x321, #0x7
    2a8c:	d8 e2 a9    	bclr.b    0x2d8, #0x7
    2a8e:	dc e2 a9    	bclr.b    0x2dc, #0x7
    2a90:	e8 02 a9    	bclr.b    0x2e8, #0x0
    2a92:	ec 02 a9    	bclr.b    0x2ec, #0x0
    2a94:	e8 22 a9    	bclr.b    0x2e8, #0x1
    2a96:	ec 22 a9    	bclr.b    0x2ec, #0x1
    2a98:	d1 e2 a8    	bset.b    0x2d1, #0x7
    2a9a:	d1 82 a8    	bset.b    0x2d1, #0x4
    2a9c:	c9 82 a8    	bset.b    0x2c9, #0x4
    2a9e:	00 80 fa    	ulnk      
    2aa0:	00 00 06    	return    

00002aa2 <_read_analog>:
    2aa2:	02 00 fa    	lnk       #0x2
    2aa4:	00 0f 78    	mov.w     w0, [w14]
    2aa6:	9e 00 78    	mov.w     [w14], w1
    2aa8:	41 19 88    	mov.w     w1, 0x328
    2aaa:	20 23 a8    	bset.b    0x320, #0x1
    2aac:	00 00 00    	nop       

00002aae <.L3>:
    2aae:	00 19 80    	mov.w     0x320, w0
    2ab0:	61 00 60    	and.w     w0, #0x1, w0
    2ab2:	00 00 e0    	cp0.w     w0
    2ab4:	fc ff 32    	bra       Z, 0x2aae <.L3>
    2ab6:	00 18 80    	mov.w     0x300, w0
    2ab8:	00 80 fa    	ulnk      
    2aba:	00 00 06    	return    

00002abc <_parity>:

#include "common.h"

uint8_t parity(uint16_t v)
{
    2abc:	02 00 fa    	lnk       #0x2
    2abe:	00 0f 78    	mov.w     w0, [w14]
    v ^= v >> 8;
    2ac0:	1e 00 78    	mov.w     [w14], w0
    2ac2:	48 00 de    	lsr.w     w0, #0x8, w0
    2ac4:	1e 0f 68    	xor.w     w0, [w14], [w14]
    v ^= v >> 4;
    2ac6:	1e 00 78    	mov.w     [w14], w0
    2ac8:	44 00 de    	lsr.w     w0, #0x4, w0
    2aca:	1e 0f 68    	xor.w     w0, [w14], [w14]
    v ^= v >> 2;
    2acc:	1e 00 78    	mov.w     [w14], w0
    2ace:	42 00 de    	lsr.w     w0, #0x2, w0
    2ad0:	1e 0f 68    	xor.w     w0, [w14], [w14]
    v ^= v >> 1;
    2ad2:	1e 00 78    	mov.w     [w14], w0
    2ad4:	00 00 d1    	lsr.w     w0, w0
    2ad6:	1e 0f 68    	xor.w     w0, [w14], [w14]
    return v & 1;
    2ad8:	1e 00 78    	mov.w     [w14], w0
    2ada:	00 40 78    	mov.b     w0, w0
    2adc:	61 40 60    	and.b     w0, #0x1, w0
}
    2ade:	00 80 fa    	ulnk      
    2ae0:	00 00 06    	return    
Disassembly of section .dinit:

00002ae2 <.dinit>:
    2ae2:	50 10 00    	nop       
    2ae4:	06 00 00    	nop       
    2ae6:	80 00 00    	nop       
    2ae8:	00 08 00    	nop       
    2aea:	1e 00 00    	nop       
    2aec:	80 00 00    	nop       
    2aee:	40 10 00    	nop       
    2af0:	10 00 00    	nop       
    2af2:	80 00 00    	nop       
    2af4:	1e 08 00    	nop       
    2af6:	0c 00 00    	nop       
    2af8:	80 00 00    	nop       
    2afa:	2c 08 00    	nop       
    2afc:	14 08 00    	nop       
    2afe:	80 00 00    	nop       
    2b00:	2a 08 00    	nop       
    2b02:	02 00 00    	nop       
    2b04:	80 00 00    	nop       
    2b06:	00 00 00    	nop       
Disassembly of section .isr:

00002b08 <__DefaultInterrupt>:
    2b08:	00 40 da    	break     
    2b0a:	00 00 fe    	reset     
