
codeword.elf:     file format elf32-pic30

Disassembly of section .aivt._AltADC1Interrupt:

0000012e <.aivt._AltADC1Interrupt>:
 12e:	24 2b 00    	nop       
Disassembly of section .aivt._AltAddressError:

00000108 <.aivt._AltAddressError>:
 108:	24 2b 00    	nop       
Disassembly of section .aivt._AltCNInterrupt:

0000013a <.aivt._AltCNInterrupt>:
 13a:	24 2b 00    	nop       
Disassembly of section .aivt._AltCRCInterrupt:

0000019a <.aivt._AltCRCInterrupt>:
 19a:	24 2b 00    	nop       
Disassembly of section .aivt._AltCTMUInterrupt:

000001ae <.aivt._AltCTMUInterrupt>:
 1ae:	24 2b 00    	nop       
Disassembly of section .aivt._AltCompInterrupt:

00000138 <.aivt._AltCompInterrupt>:
 138:	24 2b 00    	nop       
Disassembly of section .aivt._AltIC1Interrupt:

00000116 <.aivt._AltIC1Interrupt>:
 116:	24 2b 00    	nop       
Disassembly of section .aivt._AltIC2Interrupt:

0000011e <.aivt._AltIC2Interrupt>:
 11e:	24 2b 00    	nop       
Disassembly of section .aivt._AltIC3Interrupt:

0000015e <.aivt._AltIC3Interrupt>:
 15e:	24 2b 00    	nop       
Disassembly of section .aivt._AltIC4Interrupt:

00000160 <.aivt._AltIC4Interrupt>:
 160:	24 2b 00    	nop       
Disassembly of section .aivt._AltIC5Interrupt:

00000162 <.aivt._AltIC5Interrupt>:
 162:	24 2b 00    	nop       
Disassembly of section .aivt._AltIC6Interrupt:

00000164 <.aivt._AltIC6Interrupt>:
 164:	24 2b 00    	nop       
Disassembly of section .aivt._AltIC7Interrupt:

00000140 <.aivt._AltIC7Interrupt>:
 140:	24 2b 00    	nop       
Disassembly of section .aivt._AltIC8Interrupt:

00000142 <.aivt._AltIC8Interrupt>:
 142:	24 2b 00    	nop       
Disassembly of section .aivt._AltIC9Interrupt:

000001ce <.aivt._AltIC9Interrupt>:
 1ce:	24 2b 00    	nop       
Disassembly of section .aivt._AltINT0Interrupt:

00000114 <.aivt._AltINT0Interrupt>:
 114:	24 2b 00    	nop       
Disassembly of section .aivt._AltINT1Interrupt:

0000013c <.aivt._AltINT1Interrupt>:
 13c:	24 2b 00    	nop       
Disassembly of section .aivt._AltINT2Interrupt:

0000014e <.aivt._AltINT2Interrupt>:
 14e:	24 2b 00    	nop       
Disassembly of section .aivt._AltINT3Interrupt:

0000017e <.aivt._AltINT3Interrupt>:
 17e:	24 2b 00    	nop       
Disassembly of section .aivt._AltINT4Interrupt:

00000180 <.aivt._AltINT4Interrupt>:
 180:	24 2b 00    	nop       
Disassembly of section .aivt._AltInterrupt14:

00000130 <.aivt._AltInterrupt14>:
 130:	24 2b 00    	nop       
Disassembly of section .aivt._AltInterrupt15:

00000132 <.aivt._AltInterrupt15>:
 132:	24 2b 00    	nop       
Disassembly of section .aivt._AltInterrupt21:

0000013e <.aivt._AltInterrupt21>:
 13e:	24 2b 00    	nop       
Disassembly of section .aivt._AltInterrupt24:

00000144 <.aivt._AltInterrupt24>:
 144:	24 2b 00    	nop       
Disassembly of section .aivt._AltInterrupt34:

00000158 <.aivt._AltInterrupt34>:
 158:	24 2b 00    	nop       
Disassembly of section .aivt._AltInterrupt35:

0000015a <.aivt._AltInterrupt35>:
 15a:	24 2b 00    	nop       
Disassembly of section .aivt._AltInterrupt36:

0000015c <.aivt._AltInterrupt36>:
 15c:	24 2b 00    	nop       
Disassembly of section .aivt._AltInterrupt4:

0000011c <.aivt._AltInterrupt4>:
 11c:	24 2b 00    	nop       
Disassembly of section .aivt._AltInterrupt46:

00000170 <.aivt._AltInterrupt46>:
 170:	24 2b 00    	nop       
Disassembly of section .aivt._AltInterrupt47:

00000172 <.aivt._AltInterrupt47>:
 172:	24 2b 00    	nop       
Disassembly of section .aivt._AltInterrupt48:

00000174 <.aivt._AltInterrupt48>:
 174:	24 2b 00    	nop       
Disassembly of section .aivt._AltInterrupt51:

0000017a <.aivt._AltInterrupt51>:
 17a:	24 2b 00    	nop       
Disassembly of section .aivt._AltInterrupt52:

0000017c <.aivt._AltInterrupt52>:
 17c:	24 2b 00    	nop       
Disassembly of section .aivt._AltInterrupt55:

00000182 <.aivt._AltInterrupt55>:
 182:	24 2b 00    	nop       
Disassembly of section .aivt._AltInterrupt56:

00000184 <.aivt._AltInterrupt56>:
 184:	24 2b 00    	nop       
Disassembly of section .aivt._AltInterrupt57:

00000186 <.aivt._AltInterrupt57>:
 186:	24 2b 00    	nop       
Disassembly of section .aivt._AltInterrupt58:

00000188 <.aivt._AltInterrupt58>:
 188:	24 2b 00    	nop       
Disassembly of section .aivt._AltInterrupt59:

0000018a <.aivt._AltInterrupt59>:
 18a:	24 2b 00    	nop       
Disassembly of section .aivt._AltInterrupt60:

0000018c <.aivt._AltInterrupt60>:
 18c:	24 2b 00    	nop       
Disassembly of section .aivt._AltInterrupt61:

0000018e <.aivt._AltInterrupt61>:
 18e:	24 2b 00    	nop       
Disassembly of section .aivt._AltInterrupt63:

00000192 <.aivt._AltInterrupt63>:
 192:	24 2b 00    	nop       
Disassembly of section .aivt._AltInterrupt64:

00000194 <.aivt._AltInterrupt64>:
 194:	24 2b 00    	nop       
Disassembly of section .aivt._AltInterrupt68:

0000019c <.aivt._AltInterrupt68>:
 19c:	24 2b 00    	nop       
Disassembly of section .aivt._AltInterrupt69:

0000019e <.aivt._AltInterrupt69>:
 19e:	24 2b 00    	nop       
Disassembly of section .aivt._AltInterrupt70:

000001a0 <.aivt._AltInterrupt70>:
 1a0:	24 2b 00    	nop       
Disassembly of section .aivt._AltInterrupt71:

000001a2 <.aivt._AltInterrupt71>:
 1a2:	24 2b 00    	nop       
Disassembly of section .aivt._AltInterrupt73:

000001a6 <.aivt._AltInterrupt73>:
 1a6:	24 2b 00    	nop       
Disassembly of section .aivt._AltInterrupt74:

000001a8 <.aivt._AltInterrupt74>:
 1a8:	24 2b 00    	nop       
Disassembly of section .aivt._AltInterrupt75:

000001aa <.aivt._AltInterrupt75>:
 1aa:	24 2b 00    	nop       
Disassembly of section .aivt._AltInterrupt76:

000001ac <.aivt._AltInterrupt76>:
 1ac:	24 2b 00    	nop       
Disassembly of section .aivt._AltInterrupt78:

000001b0 <.aivt._AltInterrupt78>:
 1b0:	24 2b 00    	nop       
Disassembly of section .aivt._AltInterrupt79:

000001b2 <.aivt._AltInterrupt79>:
 1b2:	24 2b 00    	nop       
Disassembly of section .aivt._AltInterrupt80:

000001b4 <.aivt._AltInterrupt80>:
 1b4:	24 2b 00    	nop       
Disassembly of section .aivt._AltLVDInterrupt:

000001a4 <.aivt._AltLVDInterrupt>:
 1a4:	24 2b 00    	nop       
Disassembly of section .aivt._AltMI2C1Interrupt:

00000136 <.aivt._AltMI2C1Interrupt>:
 136:	24 2b 00    	nop       
Disassembly of section .aivt._AltMI2C2Interrupt:

00000178 <.aivt._AltMI2C2Interrupt>:
 178:	24 2b 00    	nop       
Disassembly of section .aivt._AltMI2C3Interrupt:

000001be <.aivt._AltMI2C3Interrupt>:
 1be:	24 2b 00    	nop       
Disassembly of section .aivt._AltMathError:

0000010c <.aivt._AltMathError>:
 10c:	24 2b 00    	nop       
Disassembly of section .aivt._AltOC1Interrupt:

00000118 <.aivt._AltOC1Interrupt>:
 118:	24 2b 00    	nop       
Disassembly of section .aivt._AltOC2Interrupt:

00000120 <.aivt._AltOC2Interrupt>:
 120:	24 2b 00    	nop       
Disassembly of section .aivt._AltOC3Interrupt:

00000146 <.aivt._AltOC3Interrupt>:
 146:	24 2b 00    	nop       
Disassembly of section .aivt._AltOC4Interrupt:

00000148 <.aivt._AltOC4Interrupt>:
 148:	24 2b 00    	nop       
Disassembly of section .aivt._AltOC5Interrupt:

00000166 <.aivt._AltOC5Interrupt>:
 166:	24 2b 00    	nop       
Disassembly of section .aivt._AltOC6Interrupt:

00000168 <.aivt._AltOC6Interrupt>:
 168:	24 2b 00    	nop       
Disassembly of section .aivt._AltOC7Interrupt:

0000016a <.aivt._AltOC7Interrupt>:
 16a:	24 2b 00    	nop       
Disassembly of section .aivt._AltOC8Interrupt:

0000016c <.aivt._AltOC8Interrupt>:
 16c:	24 2b 00    	nop       
Disassembly of section .aivt._AltOC9Interrupt:

000001cc <.aivt._AltOC9Interrupt>:
 1cc:	24 2b 00    	nop       
Disassembly of section .aivt._AltOscillatorFail:

00000106 <.aivt._AltOscillatorFail>:
 106:	24 2b 00    	nop       
Disassembly of section .aivt._AltPMPInterrupt:

0000016e <.aivt._AltPMPInterrupt>:
 16e:	24 2b 00    	nop       
Disassembly of section .aivt._AltRTCCInterrupt:

00000190 <.aivt._AltRTCCInterrupt>:
 190:	24 2b 00    	nop       
Disassembly of section .aivt._AltReservedTrap0:

00000104 <.aivt._AltReservedTrap0>:
 104:	24 2b 00    	nop       
Disassembly of section .aivt._AltReservedTrap5:

0000010e <.aivt._AltReservedTrap5>:
 10e:	24 2b 00    	nop       
Disassembly of section .aivt._AltReservedTrap6:

00000110 <.aivt._AltReservedTrap6>:
 110:	24 2b 00    	nop       
Disassembly of section .aivt._AltReservedTrap7:

00000112 <.aivt._AltReservedTrap7>:
 112:	24 2b 00    	nop       
Disassembly of section .aivt._AltSI2C1Interrupt:

00000134 <.aivt._AltSI2C1Interrupt>:
 134:	24 2b 00    	nop       
Disassembly of section .aivt._AltSI2C2Interrupt:

00000176 <.aivt._AltSI2C2Interrupt>:
 176:	24 2b 00    	nop       
Disassembly of section .aivt._AltSI2C3Interrupt:

000001bc <.aivt._AltSI2C3Interrupt>:
 1bc:	24 2b 00    	nop       
Disassembly of section .aivt._AltSPI1ErrInterrupt:

00000126 <.aivt._AltSPI1ErrInterrupt>:
 126:	24 2b 00    	nop       
Disassembly of section .aivt._AltSPI1Interrupt:

00000128 <.aivt._AltSPI1Interrupt>:
 128:	24 2b 00    	nop       
Disassembly of section .aivt._AltSPI2ErrInterrupt:

00000154 <.aivt._AltSPI2ErrInterrupt>:
 154:	24 2b 00    	nop       
Disassembly of section .aivt._AltSPI2Interrupt:

00000156 <.aivt._AltSPI2Interrupt>:
 156:	24 2b 00    	nop       
Disassembly of section .aivt._AltSPI3ErrInterrupt:

000001c8 <.aivt._AltSPI3ErrInterrupt>:
 1c8:	24 2b 00    	nop       
Disassembly of section .aivt._AltSPI3Interrupt:

000001ca <.aivt._AltSPI3Interrupt>:
 1ca:	24 2b 00    	nop       
Disassembly of section .aivt._AltStackError:

0000010a <.aivt._AltStackError>:
 10a:	24 2b 00    	nop       
Disassembly of section .aivt._AltT1Interrupt:

0000011a <.aivt._AltT1Interrupt>:
 11a:	24 2b 00    	nop       
Disassembly of section .aivt._AltT2Interrupt:

00000122 <.aivt._AltT2Interrupt>:
 122:	24 2b 00    	nop       
Disassembly of section .aivt._AltT3Interrupt:

00000124 <.aivt._AltT3Interrupt>:
 124:	24 2b 00    	nop       
Disassembly of section .aivt._AltT4Interrupt:

0000014a <.aivt._AltT4Interrupt>:
 14a:	24 2b 00    	nop       
Disassembly of section .aivt._AltT5Interrupt:

0000014c <.aivt._AltT5Interrupt>:
 14c:	24 2b 00    	nop       
Disassembly of section .aivt._AltU1ErrInterrupt:

00000196 <.aivt._AltU1ErrInterrupt>:
 196:	24 2b 00    	nop       
Disassembly of section .aivt._AltU1RXInterrupt:

0000012a <.aivt._AltU1RXInterrupt>:
 12a:	24 2b 00    	nop       
Disassembly of section .aivt._AltU1TXInterrupt:

0000012c <.aivt._AltU1TXInterrupt>:
 12c:	24 2b 00    	nop       
Disassembly of section .aivt._AltU2ErrInterrupt:

00000198 <.aivt._AltU2ErrInterrupt>:
 198:	24 2b 00    	nop       
Disassembly of section .aivt._AltU2RXInterrupt:

00000150 <.aivt._AltU2RXInterrupt>:
 150:	24 2b 00    	nop       
Disassembly of section .aivt._AltU2TXInterrupt:

00000152 <.aivt._AltU2TXInterrupt>:
 152:	24 2b 00    	nop       
Disassembly of section .aivt._AltU3ErrInterrupt:

000001b6 <.aivt._AltU3ErrInterrupt>:
 1b6:	24 2b 00    	nop       
Disassembly of section .aivt._AltU3RXInterrupt:

000001b8 <.aivt._AltU3RXInterrupt>:
 1b8:	24 2b 00    	nop       
Disassembly of section .aivt._AltU3TXInterrupt:

000001ba <.aivt._AltU3TXInterrupt>:
 1ba:	24 2b 00    	nop       
Disassembly of section .aivt._AltU4ErrInterrupt:

000001c2 <.aivt._AltU4ErrInterrupt>:
 1c2:	24 2b 00    	nop       
Disassembly of section .aivt._AltU4RXInterrupt:

000001c4 <.aivt._AltU4RXInterrupt>:
 1c4:	24 2b 00    	nop       
Disassembly of section .aivt._AltU4TXInterrupt:

000001c6 <.aivt._AltU4TXInterrupt>:
 1c6:	24 2b 00    	nop       
Disassembly of section .aivt._AltUSB1Interrupt:

000001c0 <.aivt._AltUSB1Interrupt>:
 1c0:	24 2b 00    	nop       
Disassembly of section .reset:

00000000 <.reset>:
   0:	10 11 04    	goto      0x1110 <__reset>
   2:	00 00 00 
Disassembly of section .text:

00001110 <__reset>:
    1110:	6f 05 21    	mov.w     #0x1056, w15
    1112:	0e ff 27    	mov.w     #0x7ff0, w14
    1114:	0e 01 88    	mov.w     w14, 0x20
    1116:	00 00 00    	nop       
    1118:	00 00 20    	mov.w     #0x0, w0
    111a:	00 00 e0    	cp0.w     w0
    111c:	02 00 32    	bra       Z, 0x1122 <CORCON_RESET>
    111e:	00 01 20    	mov.w     #0x10, w0
    1120:	20 02 88    	mov.w     w0, 0x44

00001122 <CORCON_RESET>:
    1122:	14 00 07    	rcall     0x114c <__psv_init>
    1124:	81 00 07    	rcall     0x1228 <__crt_start_mode> <__crt_start_mode_normal>
    1126:	00 00 e0    	cp0.w     w0
    1128:	03 00 3a    	bra       NZ, 0x1130 <L11>
    112a:	e0 af 22    	mov.w     #0x2afe, w0
    112c:	01 00 20    	mov.w     #0x0, w1
    112e:	02 00 37    	bra       0x1134 <L21>

00001130 <L11>:
    1130:	00 00 20    	mov.w     #0x0, w0
    1132:	01 00 20    	mov.w     #0x0, w1

00001134 <L21>:
    1134:	81 0f 70    	ior.w     w0, w1, [w15]
    1136:	01 00 32    	bra       Z, 0x113a <L12>
    1138:	14 00 07    	rcall     0x1162 <__data_init> <__data_init_da>

0000113a <L12>:
    113a:	00 00 20    	mov.w     #0x0, w0
    113c:	00 00 e0    	cp0.w     w0
    113e:	02 00 32    	bra       Z, 0x1144 <L13>
    1140:	00 00 02    	call      0x0 <__DEFAULT_VECTOR-0x110c>
    1142:	00 00 00 

00001144 <L13>:
    1144:	d4 15 02    	call      0x15d4 <_main>
    1146:	00 00 00 
    1148:	00 40 da    	break     
    114a:	00 00 fe    	reset     

0000114c <__psv_init>:
    114c:	44 40 a9    	bclr.b    0x44, #0x2
    114e:	a0 3a 20    	mov.w     #0x3aa, w0
    1150:	00 00 e0    	cp0.w     w0
    1152:	03 00 32    	bra       Z, 0x115a <L14>
    1154:	00 20 20    	mov.w     #0x200, w0
    1156:	90 01 88    	mov.w     w0, 0x32
    1158:	44 40 a8    	bset.b    0x44, #0x2

0000115a <L14>:
    115a:	00 00 06    	return    

0000115c <__long_indirect_call>:
    115c:	8a 1f 78    	mov.w     w10, [w15++]
    115e:	8b 1f 78    	mov.w     w11, [w15++]
    1160:	00 00 06    	return    

00001162 <__data_init>:
    1162:	a1 02 88    	mov.w     w1, 0x54
    1164:	80 04 78    	mov.w     w0, w9
    1166:	00 00 eb    	clr.w     w0
    1168:	1f 00 37    	bra       0x11a8 <L41>

0000116a <L11>:
    116a:	e2 84 44    	add.w     w9, #0x2, w9
    116c:	54 a0 b4    	addc.w    0x54
    116e:	99 05 ba    	tblrdl.w  [w9], w11
    1170:	e2 84 44    	add.w     w9, #0x2, w9
    1172:	54 a0 b4    	addc.w    0x54
    1174:	99 06 ba    	tblrdl.w  [w9], w13
    1176:	e2 84 44    	add.w     w9, #0x2, w9
    1178:	54 a0 b4    	addc.w    0x54
    117a:	00 06 eb    	clr.w     w12
    117c:	47 6f de    	lsr.w     w13, #0x7, w14
    117e:	fd 07 b2    	and.w     #0x7f, w13
    1180:	ae 01 88    	mov.w     w14, 0x34
    1182:	63 6c e1    	cp.b      w13, #0x3
    1184:	03 00 3a    	bra       NZ, 0x118c <L21>
    1186:	ea ff 07    	rcall     0x115c <__long_indirect_call>
    1188:	00 00 eb    	clr.w     w0
    118a:	0e 00 37    	bra       0x11a8 <L41>

0000118c <L21>:
    118c:	60 6c e1    	cp.b      w13, #0x0
    118e:	08 00 3a    	bra       NZ, 0x11a0 <L22>

00001190 <L91>:
    1190:	00 4d eb    	clr.b     [w10]
    1192:	0a 05 e8    	inc.w     w10, w10
    1194:	02 00 39    	bra       NC, 0x119a <L81>
    1196:	34 20 ec    	inc.w     0x34
    1198:	0a f0 a0    	bset.w    w10, #0xf

0000119a <L81>:
    119a:	8b 05 e9    	dec.w     w11, w11
    119c:	f9 ff 3e    	bra       GTU, 0x1190 <L91>
    119e:	04 00 37    	bra       0x11a8 <L41>

000011a0 <L22>:
    11a0:	61 68 e1    	cp.w      w13, #0x1
    11a2:	01 00 32    	bra       Z, 0x11a6 <L31>
    11a4:	00 86 eb    	setm.w    w12

000011a6 <L31>:
    11a6:	0b 00 07    	rcall     0x11be <L13> <__memcpyd3extended>

000011a8 <L41>:
    11a8:	19 c7 ba    	tblrdh.b  [w9], w14
    11aa:	19 05 ba    	tblrdl.w  [w9], w10
    11ac:	0e 04 e0    	cp0.b     w14
    11ae:	03 00 3a    	bra       NZ, 0x11b6 <L12>
    11b0:	0a 00 e0    	cp0.w     w10
    11b2:	db ff 3a    	bra       NZ, 0x116a <L11>
    11b4:	00 00 06    	return    

000011b6 <L12>:
    11b6:	fe 07 b2    	and.w     #0x7f, w14
    11b8:	ae 02 88    	mov.w     w14, 0x54
    11ba:	8a 04 78    	mov.w     w10, w9
    11bc:	f5 ff 37    	bra       0x11a8 <L41>

000011be <L13>:
    11be:	0c d0 a3    	btst.c    w12, #0xd
    11c0:	e2 0f 4d    	addc.w    w10, #0x2, [w15]
    11c2:	1c 00 39    	bra       NC, 0x11fc <L23>
    11c4:	89 02 78    	mov.w     w9, w5
    11c6:	35 4d ba    	tblrdl.b  [w5++], [w10]
    11c8:	0a 05 e8    	inc.w     w10, w10
    11ca:	02 00 39    	bra       NC, 0x11d0 <L32>
    11cc:	34 20 ec    	inc.w     0x34
    11ce:	0a f0 a0    	bset.w    w10, #0xf

000011d0 <L32>:
    11d0:	8b 05 e9    	dec.w     w11, w11
    11d2:	0f 00 32    	bra       Z, 0x11f2 <L42>
    11d4:	25 4d ba    	tblrdl.b  [w5--], [w10]
    11d6:	0a 05 e8    	inc.w     w10, w10
    11d8:	02 00 39    	bra       NC, 0x11de <L33>
    11da:	34 20 ec    	inc.w     0x34
    11dc:	0a f0 a0    	bset.w    w10, #0xf

000011de <L33>:
    11de:	8b 05 e9    	dec.w     w11, w11
    11e0:	08 00 32    	bra       Z, 0x11f2 <L42>
    11e2:	0c 00 e0    	cp0.w     w12
    11e4:	06 00 32    	bra       Z, 0x11f2 <L42>
    11e6:	15 cd ba    	tblrdh.b  [w5], [w10]
    11e8:	0a 05 e8    	inc.w     w10, w10
    11ea:	02 00 39    	bra       NC, 0x11f0 <L34>
    11ec:	34 20 ec    	inc.w     0x34
    11ee:	0a f0 a0    	bset.w    w10, #0xf

000011f0 <L34>:
    11f0:	8b 05 e9    	dec.w     w11, w11

000011f2 <L42>:
    11f2:	89 84 e8    	inc2.w    w9, w9
    11f4:	54 a0 b4    	addc.w    0x54
    11f6:	0b 00 e0    	cp0.w     w11
    11f8:	e2 ff 3a    	bra       NZ, 0x11be <L13> <__memcpyd3extended>
    11fa:	00 00 06    	return    

000011fc <L23>:
    11fc:	99 02 ba    	tblrdl.w  [w9], w5
    11fe:	05 5d 78    	mov.b     w5, [w10++]
    1200:	8b 05 e9    	dec.w     w11, w11
    1202:	f7 ff 32    	bra       Z, 0x11f2 <L42>
    1204:	c8 2a de    	lsr.w     w5, #0x8, w5
    1206:	05 5d 78    	mov.b     w5, [w10++]
    1208:	8b 05 e9    	dec.w     w11, w11
    120a:	f3 ff 32    	bra       Z, 0x11f2 <L42>
    120c:	0c 00 e0    	cp0.w     w12
    120e:	f1 ff 32    	bra       Z, 0x11f2 <L42>
    1210:	19 dd ba    	tblrdh.b  [w9], [w10++]
    1212:	ee ff 37    	bra       0x11f0 <L34>

00001214 <.handle>:
    1214:	72 18 04    	goto      0x1872 <_setup>
    1216:	00 00 00 
    1218:	ac 18 04    	goto      0x18ac <_run>
    121a:	00 00 00 
    121c:	7c 19 04    	goto      0x197c <_solved>
    121e:	00 00 00 
    1220:	ca 19 04    	goto      0x19ca <_end_win>
    1222:	00 00 00 
    1224:	20 1a 04    	goto      0x1a20 <_end_fail>
    1226:	00 00 00 

00001228 <__crt_start_mode>:
    1228:	00 00 05    	retlw.w   #0x0, w0
Disassembly of section .application_ivt:

00001000 <__DEFAULT_VECTOR-0x10c>:
    1000:	10 11 04    	goto      0x1110 <__reset>
    1002:	00 00 00 
    1004:	24 2b 04    	goto      0x2b24 <__DefaultInterrupt>
    1006:	00 00 00 
    1008:	24 2b 04    	goto      0x2b24 <__DefaultInterrupt>
    100a:	00 00 00 
    100c:	24 2b 04    	goto      0x2b24 <__DefaultInterrupt>
    100e:	00 00 00 
    1010:	24 2b 04    	goto      0x2b24 <__DefaultInterrupt>
    1012:	00 00 00 
    1014:	24 2b 04    	goto      0x2b24 <__DefaultInterrupt>
    1016:	00 00 00 
    1018:	24 2b 04    	goto      0x2b24 <__DefaultInterrupt>
    101a:	00 00 00 
    101c:	24 2b 04    	goto      0x2b24 <__DefaultInterrupt>
    101e:	00 00 00 
    1020:	24 2b 04    	goto      0x2b24 <__DefaultInterrupt>
    1022:	00 00 00 
    1024:	24 2b 04    	goto      0x2b24 <__DefaultInterrupt>
    1026:	00 00 00 
    1028:	24 2b 04    	goto      0x2b24 <__DefaultInterrupt>
    102a:	00 00 00 
    102c:	24 2b 04    	goto      0x2b24 <__DefaultInterrupt>
    102e:	00 00 00 
    1030:	82 27 04    	goto      0x2782 <__T2Interrupt>
    1032:	00 00 00 
    1034:	24 2b 04    	goto      0x2b24 <__DefaultInterrupt>
    1036:	00 00 00 
    1038:	24 2b 04    	goto      0x2b24 <__DefaultInterrupt>
    103a:	00 00 00 
    103c:	24 2b 04    	goto      0x2b24 <__DefaultInterrupt>
    103e:	00 00 00 
    1040:	08 2a 04    	goto      0x2a08 <__U1RXInterrupt>
    1042:	00 00 00 
    1044:	a6 29 04    	goto      0x29a6 <__U1TXInterrupt>
    1046:	00 00 00 
    1048:	24 2b 04    	goto      0x2b24 <__DefaultInterrupt>
    104a:	00 00 00 
    104c:	24 2b 04    	goto      0x2b24 <__DefaultInterrupt>
    104e:	00 00 00 
    1050:	24 2b 04    	goto      0x2b24 <__DefaultInterrupt>
    1052:	00 00 00 
    1054:	24 2b 04    	goto      0x2b24 <__DefaultInterrupt>
    1056:	00 00 00 
    1058:	5e 27 04    	goto      0x275e <__CNInterrupt>
    105a:	00 00 00 
    105c:	24 2b 04    	goto      0x2b24 <__DefaultInterrupt>
    105e:	00 00 00 
    1060:	24 2b 04    	goto      0x2b24 <__DefaultInterrupt>
    1062:	00 00 00 
    1064:	24 2b 04    	goto      0x2b24 <__DefaultInterrupt>
    1066:	00 00 00 
    1068:	24 2b 04    	goto      0x2b24 <__DefaultInterrupt>
    106a:	00 00 00 
    106c:	24 2b 04    	goto      0x2b24 <__DefaultInterrupt>
    106e:	00 00 00 
    1070:	24 2b 04    	goto      0x2b24 <__DefaultInterrupt>
    1072:	00 00 00 
    1074:	24 2b 04    	goto      0x2b24 <__DefaultInterrupt>
    1076:	00 00 00 
    1078:	24 2b 04    	goto      0x2b24 <__DefaultInterrupt>
    107a:	00 00 00 
    107c:	24 2b 04    	goto      0x2b24 <__DefaultInterrupt>
    107e:	00 00 00 
    1080:	24 2b 04    	goto      0x2b24 <__DefaultInterrupt>
    1082:	00 00 00 
    1084:	24 2b 04    	goto      0x2b24 <__DefaultInterrupt>
    1086:	00 00 00 
    1088:	24 2b 04    	goto      0x2b24 <__DefaultInterrupt>
    108a:	00 00 00 
    108c:	24 2b 04    	goto      0x2b24 <__DefaultInterrupt>
    108e:	00 00 00 
    1090:	24 2b 04    	goto      0x2b24 <__DefaultInterrupt>
    1092:	00 00 00 
    1094:	24 2b 04    	goto      0x2b24 <__DefaultInterrupt>
    1096:	00 00 00 
    1098:	24 2b 04    	goto      0x2b24 <__DefaultInterrupt>
    109a:	00 00 00 
    109c:	24 2b 04    	goto      0x2b24 <__DefaultInterrupt>
    109e:	00 00 00 
    10a0:	24 2b 04    	goto      0x2b24 <__DefaultInterrupt>
    10a2:	00 00 00 
    10a4:	24 2b 04    	goto      0x2b24 <__DefaultInterrupt>
    10a6:	00 00 00 
    10a8:	24 2b 04    	goto      0x2b24 <__DefaultInterrupt>
    10aa:	00 00 00 
    10ac:	24 2b 04    	goto      0x2b24 <__DefaultInterrupt>
    10ae:	00 00 00 
    10b0:	d6 28 04    	goto      0x28d6 <__SI2C2Interrupt>
    10b2:	00 00 00 
    10b4:	24 2b 04    	goto      0x2b24 <__DefaultInterrupt>
    10b6:	00 00 00 
    10b8:	24 2b 04    	goto      0x2b24 <__DefaultInterrupt>
    10ba:	00 00 00 
    10bc:	24 2b 04    	goto      0x2b24 <__DefaultInterrupt>
    10be:	00 00 00 
    10c0:	24 2b 04    	goto      0x2b24 <__DefaultInterrupt>
    10c2:	00 00 00 
    10c4:	24 2b 04    	goto      0x2b24 <__DefaultInterrupt>
    10c6:	00 00 00 
    10c8:	24 2b 04    	goto      0x2b24 <__DefaultInterrupt>
    10ca:	00 00 00 
    10cc:	24 2b 04    	goto      0x2b24 <__DefaultInterrupt>
    10ce:	00 00 00 
    10d0:	24 2b 04    	goto      0x2b24 <__DefaultInterrupt>
    10d2:	00 00 00 
    10d4:	24 2b 04    	goto      0x2b24 <__DefaultInterrupt>
    10d6:	00 00 00 
    10d8:	24 2b 04    	goto      0x2b24 <__DefaultInterrupt>
    10da:	00 00 00 
    10dc:	24 2b 04    	goto      0x2b24 <__DefaultInterrupt>
    10de:	00 00 00 
    10e0:	24 2b 04    	goto      0x2b24 <__DefaultInterrupt>
    10e2:	00 00 00 
    10e4:	24 2b 04    	goto      0x2b24 <__DefaultInterrupt>
    10e6:	00 00 00 
    10e8:	24 2b 04    	goto      0x2b24 <__DefaultInterrupt>
    10ea:	00 00 00 
    10ec:	24 2b 04    	goto      0x2b24 <__DefaultInterrupt>
    10ee:	00 00 00 
    10f0:	24 2b 04    	goto      0x2b24 <__DefaultInterrupt>
    10f2:	00 00 00 
    10f4:	24 2b 04    	goto      0x2b24 <__DefaultInterrupt>
    10f6:	00 00 00 
    10f8:	24 2b 04    	goto      0x2b24 <__DefaultInterrupt>
    10fa:	00 00 00 
    10fc:	24 2b 04    	goto      0x2b24 <__DefaultInterrupt>
    10fe:	00 00 00 
    1100:	24 2b 04    	goto      0x2b24 <__DefaultInterrupt>
    1102:	00 00 00 
    1104:	24 2b 04    	goto      0x2b24 <__DefaultInterrupt>
    1106:	00 00 00 
    1108:	24 2b 04    	goto      0x2b24 <__DefaultInterrupt>
    110a:	00 00 00 

0000110c <__DEFAULT_VECTOR>:
    110c:	24 2b 04    	goto      0x2b24 <__DefaultInterrupt>
    110e:	00 00 00 
Disassembly of section .ivt:

00000004 <.ivt>:
   4:	04 10 00    	nop       
   6:	08 10 00    	nop       
   8:	0c 10 00    	nop       
   a:	10 10 00    	nop       
   c:	14 10 00    	nop       
   e:	0c 11 00    	nop       
  10:	0c 11 00    	nop       
  12:	0c 11 00    	nop       
  14:	18 10 00    	nop       
  16:	1c 10 00    	nop       
  18:	20 10 00    	nop       
  1a:	24 10 00    	nop       
  1c:	0c 11 00    	nop       
  1e:	28 10 00    	nop       
  20:	2c 10 00    	nop       
  22:	30 10 00    	nop       
  24:	34 10 00    	nop       
  26:	38 10 00    	nop       
  28:	3c 10 00    	nop       
  2a:	40 10 00    	nop       
  2c:	44 10 00    	nop       
  2e:	48 10 00    	nop       
  30:	0c 11 00    	nop       
  32:	0c 11 00    	nop       
  34:	4c 10 00    	nop       
  36:	50 10 00    	nop       
  38:	54 10 00    	nop       
  3a:	58 10 00    	nop       
  3c:	5c 10 00    	nop       
  3e:	0c 11 00    	nop       
  40:	60 10 00    	nop       
  42:	64 10 00    	nop       
  44:	0c 11 00    	nop       
  46:	68 10 00    	nop       
  48:	6c 10 00    	nop       
  4a:	70 10 00    	nop       
  4c:	74 10 00    	nop       
  4e:	78 10 00    	nop       
  50:	7c 10 00    	nop       
  52:	80 10 00    	nop       
  54:	84 10 00    	nop       
  56:	88 10 00    	nop       
  58:	0c 11 00    	nop       
  5a:	0c 11 00    	nop       
  5c:	0c 11 00    	nop       
  5e:	8c 10 00    	nop       
  60:	90 10 00    	nop       
  62:	94 10 00    	nop       
  64:	98 10 00    	nop       
  66:	9c 10 00    	nop       
  68:	a0 10 00    	nop       
  6a:	a4 10 00    	nop       
  6c:	a8 10 00    	nop       
  6e:	ac 10 00    	nop       
  70:	0c 11 00    	nop       
  72:	0c 11 00    	nop       
  74:	0c 11 00    	nop       
  76:	b0 10 00    	nop       
  78:	b4 10 00    	nop       
  7a:	0c 11 00    	nop       
  7c:	0c 11 00    	nop       
  7e:	b8 10 00    	nop       
  80:	bc 10 00    	nop       
  82:	0c 11 00    	nop       
  84:	0c 11 00    	nop       
  86:	0c 11 00    	nop       
  88:	0c 11 00    	nop       
  8a:	0c 11 00    	nop       
  8c:	0c 11 00    	nop       
  8e:	0c 11 00    	nop       
  90:	c0 10 00    	nop       
  92:	0c 11 00    	nop       
  94:	0c 11 00    	nop       
  96:	c4 10 00    	nop       
  98:	c8 10 00    	nop       
  9a:	cc 10 00    	nop       
  9c:	0c 11 00    	nop       
  9e:	0c 11 00    	nop       
  a0:	0c 11 00    	nop       
  a2:	0c 11 00    	nop       
  a4:	d0 10 00    	nop       
  a6:	0c 11 00    	nop       
  a8:	0c 11 00    	nop       
  aa:	0c 11 00    	nop       
  ac:	0c 11 00    	nop       
  ae:	d4 10 00    	nop       
  b0:	0c 11 00    	nop       
  b2:	0c 11 00    	nop       
  b4:	0c 11 00    	nop       
  b6:	d8 10 00    	nop       
  b8:	dc 10 00    	nop       
  ba:	e0 10 00    	nop       
  bc:	e4 10 00    	nop       
  be:	e8 10 00    	nop       
  c0:	ec 10 00    	nop       
  c2:	f0 10 00    	nop       
  c4:	f4 10 00    	nop       
  c6:	f8 10 00    	nop       
  c8:	fc 10 00    	nop       
  ca:	00 11 00    	nop       
  cc:	04 11 00    	nop       
  ce:	08 11 00    	nop       
  d0:	0c 11 00    	nop       
  d2:	0c 11 00    	nop       
  d4:	0c 11 00    	nop       
  d6:	0c 11 00    	nop       
  d8:	0c 11 00    	nop       
  da:	0c 11 00    	nop       
  dc:	0c 11 00    	nop       
  de:	0c 11 00    	nop       
  e0:	0c 11 00    	nop       
  e2:	0c 11 00    	nop       
  e4:	0c 11 00    	nop       
  e6:	0c 11 00    	nop       
  e8:	0c 11 00    	nop       
  ea:	0c 11 00    	nop       
  ec:	0c 11 00    	nop       
  ee:	0c 11 00    	nop       
  f0:	0c 11 00    	nop       
  f2:	0c 11 00    	nop       
  f4:	0c 11 00    	nop       
  f6:	0c 11 00    	nop       
  f8:	0c 11 00    	nop       
  fa:	0c 11 00    	nop       
  fc:	0c 11 00    	nop       
  fe:	0c 11 00    	nop       
Disassembly of section .const:

0000922a <.LC2-0x2ee>:
    922a:	61 62       	.word 0x6261
    922c:	6f 75       	.word 0x756f
    922e:	74 00       	.word 0x74
    9230:	65 76       	.word 0x7665
    9232:	65 72       	.word 0x7265
    9234:	79 00       	.word 0x79
    9236:	6c 61       	.word 0x616c
    9238:	72 67       	.word 0x6772
    923a:	65 00       	.word 0x65
    923c:	70 6c       	.word 0x6c70
    923e:	61 6e       	.word 0x6e61
    9240:	74 00       	.word 0x74
    9242:	73 70       	.word 0x7073
    9244:	65 6c       	.word 0x6c65
    9246:	6c 00       	.word 0x6c
    9248:	74 68       	.word 0x6874
    924a:	65 73       	.word 0x7365
    924c:	65 00       	.word 0x65
    924e:	77 68       	.word 0x6877
    9250:	65 72       	.word 0x7265
    9252:	65 00       	.word 0x65
    9254:	61 66       	.word 0x6661
    9256:	74 65       	.word 0x6574
    9258:	72 00       	.word 0x72
    925a:	66 69       	.word 0x6966
    925c:	72 73       	.word 0x7372
    925e:	74 00       	.word 0x74
    9260:	6c 65       	.word 0x656c
    9262:	61 72       	.word 0x7261
    9264:	6e 00       	.word 0x6e
    9266:	70 6f       	.word 0x6f70
    9268:	69 6e       	.word 0x6e69
    926a:	74 00       	.word 0x74
    926c:	73 74       	.word 0x7473
    926e:	69 6c       	.word 0x6c69
    9270:	6c 00       	.word 0x6c
    9272:	74 68       	.word 0x6874
    9274:	69 6e       	.word 0x6e69
    9276:	67 00       	.word 0x67
    9278:	77 68       	.word 0x6877
    927a:	69 63       	.word 0x6369
    927c:	68 00       	.word 0x68
    927e:	61 67       	.word 0x6761
    9280:	61 69       	.word 0x6961
    9282:	6e 00       	.word 0x6e
    9284:	66 6f       	.word 0x6f66
    9286:	75 6e       	.word 0x6e75
    9288:	64 00       	.word 0x64
    928a:	6e 65       	.word 0x656e
    928c:	76 65       	.word 0x6576
    928e:	72 00       	.word 0x72
    9290:	72 69       	.word 0x6972
    9292:	67 68       	.word 0x6867
    9294:	74 00       	.word 0x74
    9296:	73 74       	.word 0x7473
    9298:	75 64       	.word 0x6475
    929a:	79 00       	.word 0x79
    929c:	74 68       	.word 0x6874
    929e:	69 6e       	.word 0x6e69
    92a0:	6b 00       	.word 0x6b
    92a2:	77 6f       	.word 0x6f77
    92a4:	72 6c       	.word 0x6c72
    92a6:	64 00       	.word 0x64
    92a8:	62 65       	.word 0x6562
    92aa:	6c 6f       	.word 0x6f6c
    92ac:	77 00       	.word 0x77
    92ae:	67 72       	.word 0x7267
    92b0:	65 61       	.word 0x6165
    92b2:	74 00       	.word 0x74
    92b4:	6f 74       	.word 0x746f
    92b6:	68 65       	.word 0x6568
    92b8:	72 00       	.word 0x72
    92ba:	73 6d       	.word 0x6d73
    92bc:	61 6c       	.word 0x6c61
    92be:	6c 00       	.word 0x6c
    92c0:	74 68       	.word 0x6874
    92c2:	65 69       	.word 0x6965
    92c4:	72 00       	.word 0x72
    92c6:	74 68       	.word 0x6874
    92c8:	72 65       	.word 0x6572
    92ca:	65 00       	.word 0x65
    92cc:	77 6f       	.word 0x6f77
    92ce:	75 6c       	.word 0x6c75
    92d0:	64 00       	.word 0x64
    92d2:	63 6f       	.word 0x6f63
    92d4:	75 6c       	.word 0x6c75
    92d6:	64 00       	.word 0x64
    92d8:	68 6f       	.word 0x6f68
    92da:	75 73       	.word 0x7375
    92dc:	65 00       	.word 0x65
    92de:	70 6c       	.word 0x6c70
    92e0:	61 63       	.word 0x6361
    92e2:	65 00       	.word 0x65
    92e4:	73 6f       	.word 0x6f73
    92e6:	75 6e       	.word 0x6e75
    92e8:	64 00       	.word 0x64
    92ea:	74 68       	.word 0x6874
    92ec:	65 72       	.word 0x7265
    92ee:	65 00       	.word 0x65
    92f0:	77 61       	.word 0x6177
    92f2:	74 65       	.word 0x6574
    92f4:	72 00       	.word 0x72
    92f6:	77 72       	.word 0x7277
    92f8:	69 74       	.word 0x7469
    92fa:	65 00       	.word 0x65
    92fc:	57 52       	.word 0x5257
    92fe:	49 54       	.word 0x5449
    9300:	45 47       	.word 0x4745
    9302:	59 51       	.word 0x5159
    9304:	57 56       	.word 0x5657
    9306:	4d 52       	.word 0x524d
    9308:	54 45       	.word 0x4554
    930a:	50 49       	.word 0x4950
    930c:	58 5a       	.word 0x5a58
    930e:	46 4d       	.word 0x4d46
    9310:	49 4a       	.word 0x4a49
    9312:	59 4a       	.word 0x4a59
    9314:	54 46       	.word 0x4654
    9316:	50 42       	.word 0x4250
    9318:	41 4d       	.word 0x4d41
    931a:	45 51       	.word 0x5145
    931c:	50 47       	.word 0x4750
    931e:	58 00       	.word 0x58
    9320:	53 54       	.word 0x5453
    9322:	49 4c       	.word 0x4c49
    9324:	4c 53       	.word 0x534c
    9326:	47 43       	.word 0x4347
    9328:	42 57       	.word 0x5742
    932a:	54 52       	.word 0x5254
    932c:	54 56       	.word 0x5654
    932e:	5a 53       	.word 0x535a
    9330:	4a 56       	.word 0x564a
    9332:	49 44       	.word 0x4449
    9334:	52 46       	.word 0x4652
    9336:	50 4c       	.word 0x4c50
    9338:	4a 4f       	.word 0x4f4a
    933a:	4b 55       	.word 0x554b
    933c:	53 49       	.word 0x4953
    933e:	4a 4c       	.word 0x4c4a
    9340:	41 46       	.word 0x4641
    9342:	5a 00       	.word 0x5a
    9344:	45 56       	.word 0x5645
    9346:	45 52       	.word 0x5245
    9348:	59 4b       	.word 0x4b59
    934a:	45 58       	.word 0x5845
    934c:	4d 59       	.word 0x594d
    934e:	5a 4d       	.word 0x4d5a
    9350:	53 43       	.word 0x4353
    9352:	54 56       	.word 0x5654
    9354:	50 41       	.word 0x4150
    9356:	47 4e       	.word 0x4e47
    9358:	44 45       	.word 0x4544
    935a:	46 44       	.word 0x4446
    935c:	48 45       	.word 0x4548
    935e:	52 51       	.word 0x5152
    9360:	4a 48       	.word 0x484a
    9362:	4d 57       	.word 0x574d
    9364:	4e 59       	.word 0x594e
    9366:	58 00       	.word 0x58
    9368:	57 4f       	.word 0x4f57
    936a:	52 4c       	.word 0x4c52
    936c:	44 47       	.word 0x4744
    936e:	57 51       	.word 0x5157
    9370:	41 50       	.word 0x5041
    9372:	4e 57       	.word 0x574e
    9374:	45 4f       	.word 0x4f45
    9376:	4b 4d       	.word 0x4d4b
    9378:	51 51       	.word 0x5151
    937a:	57 52       	.word 0x5257
    937c:	5a 59       	.word 0x595a
    937e:	4a 50       	.word 0x504a
    9380:	44 4c       	.word 0x4c44
    9382:	4a 42       	.word 0x424a
    9384:	49 4e       	.word 0x4e49
    9386:	53 49       	.word 0x4953
    9388:	43 44       	.word 0x4443
    938a:	48 00       	.word 0x48
    938c:	57 52       	.word 0x5257
    938e:	49 54       	.word 0x5449
    9390:	45 47       	.word 0x4745
    9392:	57 4a       	.word 0x4a57
    9394:	58 44       	.word 0x4458
    9396:	4c 5a       	.word 0x5a4c
    9398:	50 4c       	.word 0x4c50
    939a:	58 49       	.word 0x4958
    939c:	52 4a       	.word 0x4a52
    939e:	54 43       	.word 0x4354
    93a0:	49 46       	.word 0x4649
    93a2:	53 54       	.word 0x5453
    93a4:	46 48       	.word 0x4846
    93a6:	42 49       	.word 0x4942
    93a8:	4f 53       	.word 0x534f
    93aa:	51 58       	.word 0x5851
    93ac:	55 4a       	.word 0x4a55
    93ae:	45 00       	.word 0x45
    93b0:	46 4f       	.word 0x4f46
    93b2:	55 4e       	.word 0x4e55
    93b4:	44 5a       	.word 0x5a44
    93b6:	49 4a       	.word 0x4a49
    93b8:	43 45       	.word 0x4543
    93ba:	46 4f       	.word 0x4f46
    93bc:	47 4d       	.word 0x4d47
    93be:	51 59       	.word 0x5951
    93c0:	4e 51       	.word 0x514e
    93c2:	42 56       	.word 0x5642
    93c4:	45 55       	.word 0x5545
    93c6:	4a 5a       	.word 0x5a4a
    93c8:	4e 4f       	.word 0x4f4e
    93ca:	55 57       	.word 0x5755
    93cc:	4a 51       	.word 0x514a
    93ce:	47 4c       	.word 0x4c47
    93d0:	49 44       	.word 0x4449
    93d2:	50 00       	.word 0x50
    93d4:	43 4f       	.word 0x4f43
    93d6:	55 4c       	.word 0x4c55
    93d8:	44 44       	.word 0x4444
    93da:	58 43       	.word 0x4358
    93dc:	55 4a       	.word 0x4a55
    93de:	54 4f       	.word 0x4f54
    93e0:	5a 55       	.word 0x555a
    93e2:	50 51       	.word 0x5150
    93e4:	59 4d       	.word 0x4d59
    93e6:	4b 58       	.word 0x584b
    93e8:	56 55       	.word 0x5556
    93ea:	53 4c       	.word 0x4c53
    93ec:	4b 52       	.word 0x524b
    93ee:	51 56       	.word 0x5651
    93f0:	57 4d       	.word 0x4d57
    93f2:	48 44       	.word 0x4448
    93f4:	56 51       	.word 0x5156
    93f6:	4a 00       	.word 0x4a
    93f8:	54 48       	.word 0x4854
    93fa:	45 53       	.word 0x5345
    93fc:	45 58       	.word 0x5845
    93fe:	54 4b       	.word 0x4b54
    9400:	44 4c       	.word 0x4c44
    9402:	56 47       	.word 0x4756
    9404:	48 49       	.word 0x4948
    9406:	54 50       	.word 0x5054
    9408:	53 45       	.word 0x4553
    940a:	51 49       	.word 0x4951
    940c:	56 54       	.word 0x5456
    940e:	4d 45       	.word 0x454d
    9410:	48 44       	.word 0x4448
    9412:	4f 4e       	.word 0x4e4f
    9414:	53 56       	.word 0x5653
    9416:	59 4d       	.word 0x4d59
    9418:	45 46       	.word 0x4645
    941a:	42 00       	.word 0x42
    941c:	4f 54       	.word 0x544f
    941e:	48 45       	.word 0x4548
    9420:	52 52       	.word 0x5252
    9422:	49 42       	.word 0x4249
    9424:	4f 43       	.word 0x434f
    9426:	45 54       	.word 0x5445
    9428:	4e 52       	.word 0x524e
    942a:	4b 4a       	.word 0x4a4b
    942c:	42 4e       	.word 0x4e42
    942e:	4a 55       	.word 0x554a
    9430:	48 47       	.word 0x4748
    9432:	45 47       	.word 0x4745
    9434:	4a 56       	.word 0x564a
    9436:	57 4b       	.word 0x4b57
    9438:	45 4b       	.word 0x4b45
    943a:	44 56       	.word 0x5644
    943c:	52 50       	.word 0x5052
    943e:	4d 00       	.word 0x4d
    9440:	57 4f       	.word 0x4f57
    9442:	52 4c       	.word 0x4c52
    9444:	44 54       	.word 0x5444
    9446:	58 53       	.word 0x5358
    9448:	55 52       	.word 0x5255
    944a:	57 46       	.word 0x4657
    944c:	57 4f       	.word 0x4f57
    944e:	51 59       	.word 0x5951
    9450:	52 56       	.word 0x5652
    9452:	52 51       	.word 0x5152
    9454:	47 4e       	.word 0x4e47
    9456:	4a 59       	.word 0x594a
    9458:	42 4b       	.word 0x4b42
    945a:	4c 51       	.word 0x514c
    945c:	4f 48       	.word 0x484f
    945e:	58 44       	.word 0x4458
    9460:	45 49       	.word 0x4945
    9462:	51 00       	.word 0x51
    9464:	53 4d       	.word 0x4d53
    9466:	41 4c       	.word 0x4c41
    9468:	4c 49       	.word 0x494c
    946a:	56 52       	.word 0x5256
    946c:	58 53       	.word 0x5358
    946e:	55 58       	.word 0x5855
    9470:	44 43       	.word 0x4344
    9472:	4d 52       	.word 0x524d
    9474:	59 41       	.word 0x4159
    9476:	51 54       	.word 0x5451
    9478:	46 50       	.word 0x5046
    947a:	4a 56       	.word 0x564a
    947c:	50 48       	.word 0x4850
    947e:	46 4c       	.word 0x4c46
    9480:	58 51       	.word 0x5158
    9482:	4c 52       	.word 0x524c
    9484:	4f 42       	.word 0x424f
    9486:	48 00       	.word 0x48
    9488:	54 48       	.word 0x4854
    948a:	45 53       	.word 0x5345
    948c:	45 4b       	.word 0x4b45
    948e:	50 54       	.word 0x5450
    9490:	52 4c       	.word 0x4c52
    9492:	42 48       	.word 0x4842
    9494:	4b 56       	.word 0x564b
    9496:	55 4e       	.word 0x4e55
    9498:	44 51       	.word 0x5144
    949a:	47 4c       	.word 0x4c47
    949c:	45 4a       	.word 0x4a45
    949e:	53 58       	.word 0x5853
    94a0:	41 4d       	.word 0x4d41
    94a2:	53 56       	.word 0x5653
    94a4:	44 57       	.word 0x5744
    94a6:	41 4f       	.word 0x4f41
    94a8:	45 46       	.word 0x4645
    94aa:	4e 00       	.word 0x4e
    94ac:	57 52       	.word 0x5257
    94ae:	49 54       	.word 0x5449
    94b0:	45 56       	.word 0x5645
    94b2:	57 49       	.word 0x4957
    94b4:	58 59       	.word 0x5958
    94b6:	48 57       	.word 0x5748
    94b8:	4b 58       	.word 0x584b
    94ba:	42 47       	.word 0x4742
    94bc:	52 46       	.word 0x4652
    94be:	45 4c       	.word 0x4c45
    94c0:	59 49       	.word 0x4959
    94c2:	50 55       	.word 0x5550
    94c4:	41 44       	.word 0x4441
    94c6:	54 52       	.word 0x5254
    94c8:	4e 4c       	.word 0x4c4e
    94ca:	56 45       	.word 0x4556
    94cc:	41 51       	.word 0x5141
    94ce:	55 00       	.word 0x55
    94d0:	47 52       	.word 0x5247
    94d2:	45 41       	.word 0x4145
    94d4:	54 4c       	.word 0x4c54
    94d6:	4f 47       	.word 0x474f
    94d8:	4d 58       	.word 0x584d
    94da:	56 59       	.word 0x5956
    94dc:	43 4e       	.word 0x4e43
    94de:	52 57       	.word 0x5752
    94e0:	4b 48       	.word 0x484b
    94e2:	56 50       	.word 0x5056
    94e4:	45 42       	.word 0x4245
    94e6:	49 5a       	.word 0x5a49
    94e8:	41 50       	.word 0x5041
    94ea:	57 56       	.word 0x5657
    94ec:	46 57       	.word 0x5746
    94ee:	48 46       	.word 0x4648
    94f0:	53 54       	.word 0x5453
    94f2:	51 00       	.word 0x51
    94f4:	4f 54       	.word 0x544f
    94f6:	48 45       	.word 0x4548
    94f8:	52 46       	.word 0x4652
    94fa:	47 49       	.word 0x4947
    94fc:	4f 44       	.word 0x444f
    94fe:	48 42       	.word 0x4248
    9500:	54 50       	.word 0x5054
    9502:	58 53       	.word 0x5358
    9504:	49 43       	.word 0x4349
    9506:	47 45       	.word 0x4547
    9508:	4c 50       	.word 0x504c
    950a:	48 41       	.word 0x4148
    950c:	44 45       	.word 0x4544
    950e:	4a 49       	.word 0x494a
    9510:	5a 4e       	.word 0x4e5a
    9512:	41 50       	.word 0x5041
    9514:	4b 49       	.word 0x494b
    9516:	52 00       	.word 0x52

00009518 <.LC2>:
    9518:	00 20       	.word 0x2000

00009519 <.LC0>:
	...

00009520 <.LC1>:
    9520:	20 6f       	.word 0x6f20
    9522:	20 20       	.word 0x2020
    9524:	6f 20       	.word 0x206f
    9526:	20 6f       	.word 0x6f20
    9528:	20 20       	.word 0x2020
    952a:	6f 20       	.word 0x206f
    952c:	20 6f       	.word 0x6f20
    952e:	20 00       	.word 0x20
    9530:	00 20       	.word 0x2000

00009531 <.LC3>:
    9531:	00 00       	.word 0
    9533:	00 00       	.word 0
    9535:	00 00       	.word 0
    9537:	00 00       	.word 0
    9539:	00 00       	.word 0
    953b:	00 00       	.word 0
    953d:	00 00       	.word 0
    953f:	00 00       	.word 0
	...

00009542 <.LC0>:
    9542:	20 20       	.word 0x2020
    9544:	20 20       	.word 0x2020
    9546:	20 20       	.word 0x2020
    9548:	20 20       	.word 0x2020
    954a:	20 20       	.word 0x2020
    954c:	20 20       	.word 0x2020
    954e:	20 20       	.word 0x2020
    9550:	20 20       	.word 0x2020
    9552:	20 20       	.word 0x2020
    9554:	20 20       	.word 0x2020
    9556:	20 20       	.word 0x2020
    9558:	20 20       	.word 0x2020
    955a:	20 20       	.word 0x2020
    955c:	20 20       	.word 0x2020
    955e:	20 20       	.word 0x2020
    9560:	20 20       	.word 0x2020
    9562:	20 20       	.word 0x2020
    9564:	20 20       	.word 0x2020
    9566:	20 20       	.word 0x2020
    9568:	20 20       	.word 0x2020
    956a:	20 20       	.word 0x2020
    956c:	20 20       	.word 0x2020
    956e:	20 20       	.word 0x2020
    9570:	20 20       	.word 0x2020
    9572:	20 20       	.word 0x2020
    9574:	20 20       	.word 0x2020
    9576:	20 20       	.word 0x2020
    9578:	20 20       	.word 0x2020
    957a:	00 20       	.word 0x2000

0000957b <.LC1>:
    957b:	00 00       	.word 0
    957d:	00 00       	.word 0
    957f:	00 00       	.word 0
    9581:	00 00       	.word 0
    9583:	00 00       	.word 0
    9585:	00 00       	.word 0
    9587:	00 00       	.word 0
    9589:	00 00       	.word 0
	...

0000958c <.LC2>:
    958c:	7a 79       	.word 0x797a
    958e:	78 77       	.word 0x7778
    9590:	76 75       	.word 0x7576
    9592:	74 73       	.word 0x7374
    9594:	72 71       	.word 0x7172
    9596:	70 6f       	.word 0x6f70
    9598:	6e 6d       	.word 0x6d6e
    959a:	6c 6b       	.word 0x6b6c
    959c:	6a 69       	.word 0x696a
    959e:	68 67       	.word 0x6768
    95a0:	66 65       	.word 0x6566
    95a2:	64 63       	.word 0x6364
    95a4:	62 61       	.word 0x6162
    95a6:	39 38       	.word 0x3839
    95a8:	37 36       	.word 0x3637
    95aa:	35 34       	.word 0x3435
    95ac:	33 32       	.word 0x3233
    95ae:	31 30       	.word 0x3031
    95b0:	31 32       	.word 0x3231
    95b2:	33 34       	.word 0x3433
    95b4:	35 36       	.word 0x3635
    95b6:	37 38       	.word 0x3837
    95b8:	39 61       	.word 0x6139
    95ba:	62 63       	.word 0x6362
    95bc:	64 65       	.word 0x6564
    95be:	66 67       	.word 0x6766
    95c0:	68 69       	.word 0x6968
    95c2:	6a 6b       	.word 0x6b6a
    95c4:	6c 6d       	.word 0x6d6c
    95c6:	6e 6f       	.word 0x6f6e
    95c8:	70 71       	.word 0x7170
    95ca:	72 73       	.word 0x7372
    95cc:	74 75       	.word 0x7574
    95ce:	76 77       	.word 0x7776
    95d0:	78 79       	.word 0x7978
    95d2:	7a 00       	.word 0x7a
Disassembly of section .text:

000015d4 <_main>:
uint16_t counter;

_LCD lcd1;

void main(void) {
    15d4:	62 00 fa    	lnk       #0x62
    15d6:	88 1f 78    	mov.w     w8, [w15++]
    init_elecanisms();
    15d8:	42 0a 07    	rcall     0x2a5e <.LFE2> <_init_elecanisms> <.L0> <.LFB0> <.Ltext0>
    init_ajuart();
    15da:	6f 07 07    	rcall     0x24ba <_init_ajuart> <.L0> <.LFB0> <.LFE21> <.Letext0> <.Ltext0>
    // Setup rocker pins as inputs and set pull-up resistors
    toggleSwitchSetup();
    15dc:	7b 02 07    	rcall     0x1ad4 <_toggleSwitchSetup> <.LFB9> <.LFE8>

    i2c_init(1e3);
    15de:	80 3e 20    	mov.w     #0x3e8, w0
    15e0:	3d 05 07    	rcall     0x205c <_i2c_init> <.LFB1> <.LFE0>
    lcd_init(&lcd1, 0x06, 'A'); //Setup LCD screen (type A i/o extender)
    15e2:	12 c4 b3    	mov.b     #0x41, w2
    15e4:	61 c0 b3    	mov.b     #0x6, w1
    15e6:	00 05 21    	mov.w     #0x1050, w0
    15e8:	5d 03 07    	rcall     0x1ca4 <_lcd_init> <.LFB5> <.LFE4>
    lcd_clear(&lcd1);  // Clears _LCD objects from previous array
    15ea:	00 05 21    	mov.w     #0x1050, w0
    15ec:	ef 03 07    	rcall     0x1dcc <_lcd_clear> <.LFB8> <.LFE7>

    i2c2_init(157);                      // Initializes I2C on I2C2
    15ee:	d0 09 20    	mov.w     #0x9d, w0
    15f0:	75 06 07    	rcall     0x22dc <_i2c2_init> <.LFB13> <.LFE12>
    I2C2ADD = MODULE_CODEWORD_ADDR>>1;   // Set the device address (7-bit register)
    15f2:	00 01 20    	mov.w     #0x10, w0
    15f4:	d0 10 88    	mov.w     w0, 0x21a
    I2C2MSK = 0;                         // Set mask to 0 (only this address matters)
    15f6:	1c 22 ef    	clr.w     0x21c
    _SI2C2IE = 1;                        // Enable i2c slave interrupt
    15f8:	9a 20 a8    	bset.b    0x9a, #0x1

    rand_val = read_analog(A0); // Set up the seed
    15fa:	50 16 80    	mov.w     0x2ca, w0
    15fc:	45 00 de    	lsr.w     w0, #0x5, w0
    15fe:	61 40 60    	and.b     w0, #0x1, w0
    1600:	00 80 fb    	ze        w0, w0
    1602:	5d 0a 07    	rcall     0x2abe <_read_analog> <.LFB1> <.LFE0>
    1604:	b0 40 88    	mov.w     w0, 0x816

    // Add more random noise
    uint8_t i, j;
    for (i=0; i<20; i++) {
    1606:	00 40 eb    	clr.b     w0
    1608:	00 4f 78    	mov.b     w0, [w14]
    160a:	18 00 37    	bra       0x163c <.L2>

0000160c <.L5>:
        for (j=0; j<read_analog(A0); j++) {
    160c:	00 40 eb    	clr.b     w0
    160e:	10 47 98    	mov.b     w0, [w14+1]
    1610:	0b 00 37    	bra       0x1628 <.L3>

00001612 <.L4>:
            rand_next();
    1612:	85 02 07    	rcall     0x1b1e <_rand_next> <.LFB10> <.LFE9>
            delay_by_nop(read_analog(A0));
    1614:	50 16 80    	mov.w     0x2ca, w0
    1616:	45 00 de    	lsr.w     w0, #0x5, w0
    1618:	61 40 60    	and.b     w0, #0x1, w0
    161a:	00 80 fb    	ze        w0, w0
    161c:	50 0a 07    	rcall     0x2abe <_read_analog> <.LFB1> <.LFE0>
    161e:	80 00 eb    	clr.w     w1
    1620:	0a 05 07    	rcall     0x2036 <_delay_by_nop> <.L0> <.LFB0> <.LFE16> <.Letext0> <.Ltext0>
    1622:	1e 40 90    	mov.b     [w14+1], w0
    1624:	00 40 e8    	inc.b     w0, w0
    1626:	10 47 98    	mov.b     w0, [w14+1]

00001628 <.L3>:
    1628:	1e 40 90    	mov.b     [w14+1], w0
    162a:	00 84 fb    	ze        w0, w8
    162c:	50 16 80    	mov.w     0x2ca, w0
    162e:	45 00 de    	lsr.w     w0, #0x5, w0
    1630:	61 40 60    	and.b     w0, #0x1, w0
    1632:	00 80 fb    	ze        w0, w0
    1634:	44 0a 07    	rcall     0x2abe <_read_analog> <.LFB1> <.LFE0>
    1636:	80 0f 54    	sub.w     w8, w0, [w15]
    1638:	ec ff 39    	bra       NC, 0x1612 <.L4>
    163a:	1e 4f e8    	inc.b     [w14], [w14]

0000163c <.L2>:
    163c:	1e 40 78    	mov.b     [w14], w0
    163e:	f3 4f 50    	sub.b     w0, #0x13, [w15]
    1640:	e5 ff 36    	bra       LEU, 0x160c <.L5>
        }
    }

    U1_putc((uint8_t)rand_val >> 8);
    1642:	b0 40 80    	mov.w     0x816, w0
    1644:	00 40 78    	mov.b     w0, w0
    1646:	00 80 fb    	ze        w0, w0
    1648:	48 80 de    	asr.w     w0, #0x8, w0
    164a:	00 40 78    	mov.b     w0, w0
    164c:	89 07 07    	rcall     0x2560 <_U1_putc> <.LFB5> <.LFE4>
    U1_putc((uint8_t)rand_val);
    164e:	b0 40 80    	mov.w     0x816, w0
    1650:	00 40 78    	mov.b     w0, w0
    1652:	86 07 07    	rcall     0x2560 <_U1_putc> <.LFB5> <.LFE4>
    U1_putc('\r');
    1654:	d0 c0 b3    	mov.b     #0xd, w0
    1656:	84 07 07    	rcall     0x2560 <_U1_putc> <.LFB5> <.LFE4>
    U1_putc('\n');
    1658:	a0 c0 b3    	mov.b     #0xa, w0
    165a:	82 07 07    	rcall     0x2560 <_U1_putc> <.LFB5> <.LFE4>
    U1_flush_tx_buffer();
    165c:	78 07 07    	rcall     0x254e <_U1_flush_tx_buffer> <.LFB4> <.LFE3>

    // set codeword and set of letters
    char _codeSet[36];
    for(i=0; i < 36; i++) {
    165e:	00 40 eb    	clr.b     w0
    1660:	00 4f 78    	mov.b     w0, [w14]
    1662:	12 00 37    	bra       0x1688 <.L6>

00001664 <.L7>:
        _codeSet[i] = letterSets[rand_val%15][i];
    1664:	9e 81 fb    	ze        [w14], w3
    1666:	b2 40 80    	mov.w     0x816, w2
    1668:	90 88 28    	mov.w     #0x8889, w0
    166a:	00 10 b8    	mul.uu    w2, w0, w0
    166c:	43 08 de    	lsr.w     w1, #0x3, w0
    166e:	6f 00 b9    	mul.su    w0, #0xf, w0
    1670:	00 00 78    	mov.w     w0, w0
    1672:	00 00 51    	sub.w     w2, w0, w0
    1674:	1e 81 fb    	ze        [w14], w2
    1676:	41 02 20    	mov.w     #0x24, w1
    1678:	01 80 b9    	mul.ss    w0, w1, w0
    167a:	00 00 78    	mov.w     w0, w0
    167c:	02 00 40    	add.w     w0, w2, w0
    167e:	c1 2f 29    	mov.w     #0x92fc, w1
    1680:	e1 40 78    	mov.b     [w1+w0], w1
    1682:	03 00 47    	add.w     w14, w3, w0
    1684:	21 40 98    	mov.b     w1, [w0+2]
    1686:	1e 4f e8    	inc.b     [w14], [w14]

00001688 <.L6>:
    1688:	30 c2 b3    	mov.b     #0x23, w0
    168a:	9e 40 78    	mov.b     [w14], w1
    168c:	80 cf 50    	sub.b     w1, w0, [w15]
    168e:	ea ff 36    	bra       LEU, 0x1664 <.L7>
    }
    codeSet = _codeSet;
    1690:	0e 80 e8    	inc2.w    w14, w0
    1692:	10 40 88    	mov.w     w0, 0x802

    char tmp[7] = " ";
    1694:	00 02 20    	mov.w     #0x20, w0
    1696:	01 00 20    	mov.w     #0x0, w1
    1698:	30 17 98    	mov.w     w0, [w14+38]
    169a:	41 17 98    	mov.w     w1, [w14+40]
    169c:	8e 00 78    	mov.w     w14, w1
    169e:	a1 02 b0    	add.w     #0x2a, w1
    16a0:	00 00 09    	repeat    #0x0
    16a2:	80 18 eb    	clr.w     [w1++]
    16a4:	80 58 eb    	clr.b     [w1++]
    for (i=0; i<5; i++){
    16a6:	00 40 eb    	clr.b     w0
    16a8:	00 4f 78    	mov.b     w0, [w14]
    16aa:	08 00 37    	bra       0x16bc <.L8>

000016ac <.L9>:
        tmp[i] = codeSet[i];
    16ac:	1e 80 fb    	ze        [w14], w0
    16ae:	12 40 80    	mov.w     0x802, w2
    16b0:	9e 80 fb    	ze        [w14], w1
    16b2:	81 00 41    	add.w     w2, w1, w1
    16b4:	91 40 78    	mov.b     [w1], w1
    16b6:	00 00 47    	add.w     w14, w0, w0
    16b8:	61 60 98    	mov.b     w1, [w0+38]
    16ba:	1e 4f e8    	inc.b     [w14], [w14]

000016bc <.L8>:
    16bc:	1e 40 78    	mov.b     [w14], w0
    16be:	e4 4f 50    	sub.b     w0, #0x4, [w15]
    16c0:	f5 ff 36    	bra       LEU, 0x16ac <.L9>
    }
    codeword = tmp;
    16c2:	60 02 20    	mov.w     #0x26, w0
    16c4:	0e 00 40    	add.w     w0, w14, w0
    16c6:	70 40 88    	mov.w     w0, 0x80e

    // setup column sets of letters
    char _set0[7] = " ";
    16c8:	90 51 29    	mov.w     #0x9519, w0
    16ca:	90 40 78    	mov.b     [w0], w1
    16cc:	51 6f 98    	mov.b     w1, [w14+45]
    16ce:	90 40 90    	mov.b     [w0+1], w1
    16d0:	61 6f 98    	mov.b     w1, [w14+46]
    16d2:	8e 00 78    	mov.w     w14, w1
    16d4:	f1 02 b0    	add.w     #0x2f, w1
    16d6:	04 00 09    	repeat    #0x4
    16d8:	80 58 eb    	clr.b     [w1++]
    for (i=0; i<6; i++){
    16da:	00 40 eb    	clr.b     w0
    16dc:	00 4f 78    	mov.b     w0, [w14]
    16de:	09 00 37    	bra       0x16f2 <.L10>

000016e0 <.L11>:
        _set0[i] = codeSet[i+5];
    16e0:	1e 80 fb    	ze        [w14], w0
    16e2:	12 40 80    	mov.w     0x802, w2
    16e4:	9e 80 fb    	ze        [w14], w1
    16e6:	e5 80 40    	add.w     w1, #0x5, w1
    16e8:	81 00 41    	add.w     w2, w1, w1
    16ea:	91 40 78    	mov.b     [w1], w1
    16ec:	00 00 47    	add.w     w14, w0, w0
    16ee:	51 68 98    	mov.b     w1, [w0+45]
    16f0:	1e 4f e8    	inc.b     [w14], [w14]

000016f2 <.L10>:
    16f2:	1e 40 78    	mov.b     [w14], w0
    16f4:	e5 4f 50    	sub.b     w0, #0x5, [w15]
    16f6:	f4 ff 36    	bra       LEU, 0x16e0 <.L11>
    }
    set0 = _set0;
    16f8:	d0 02 20    	mov.w     #0x2d, w0
    16fa:	0e 00 40    	add.w     w0, w14, w0
    16fc:	20 40 88    	mov.w     w0, 0x804

    char _set1[7] = " ";
    16fe:	00 02 20    	mov.w     #0x20, w0
    1700:	01 00 20    	mov.w     #0x0, w1
    1702:	20 1f 98    	mov.w     w0, [w14+52]
    1704:	31 1f 98    	mov.w     w1, [w14+54]
    1706:	8e 00 78    	mov.w     w14, w1
    1708:	81 03 b0    	add.w     #0x38, w1
    170a:	00 00 09    	repeat    #0x0
    170c:	80 18 eb    	clr.w     [w1++]
    170e:	80 58 eb    	clr.b     [w1++]
    for (i=0; i<6; i++){
    1710:	00 40 eb    	clr.b     w0
    1712:	00 4f 78    	mov.b     w0, [w14]
    1714:	09 00 37    	bra       0x1728 <.L12>

00001716 <.L13>:
        _set1[i] = codeSet[i+11];
    1716:	1e 80 fb    	ze        [w14], w0
    1718:	12 40 80    	mov.w     0x802, w2
    171a:	9e 80 fb    	ze        [w14], w1
    171c:	eb 80 40    	add.w     w1, #0xb, w1
    171e:	81 00 41    	add.w     w2, w1, w1
    1720:	91 40 78    	mov.b     [w1], w1
    1722:	00 00 47    	add.w     w14, w0, w0
    1724:	41 70 98    	mov.b     w1, [w0+52]
    1726:	1e 4f e8    	inc.b     [w14], [w14]

00001728 <.L12>:
    1728:	1e 40 78    	mov.b     [w14], w0
    172a:	e5 4f 50    	sub.b     w0, #0x5, [w15]
    172c:	f4 ff 36    	bra       LEU, 0x1716 <.L13>
    }
    set1 = _set1;
    172e:	40 03 20    	mov.w     #0x34, w0
    1730:	0e 00 40    	add.w     w0, w14, w0
    1732:	30 40 88    	mov.w     w0, 0x806

    char _set2[7] = " ";
    1734:	90 51 29    	mov.w     #0x9519, w0
    1736:	90 40 78    	mov.b     [w0], w1
    1738:	31 7f 98    	mov.b     w1, [w14+59]
    173a:	90 40 90    	mov.b     [w0+1], w1
    173c:	41 7f 98    	mov.b     w1, [w14+60]
    173e:	8e 00 78    	mov.w     w14, w1
    1740:	d1 03 b0    	add.w     #0x3d, w1
    1742:	04 00 09    	repeat    #0x4
    1744:	80 58 eb    	clr.b     [w1++]
    for (i=0; i<6; i++){
    1746:	00 40 eb    	clr.b     w0
    1748:	00 4f 78    	mov.b     w0, [w14]
    174a:	09 00 37    	bra       0x175e <.L14>

0000174c <.L15>:
        _set2[i] = codeSet[i+17];
    174c:	1e 80 fb    	ze        [w14], w0
    174e:	12 40 80    	mov.w     0x802, w2
    1750:	9e 80 fb    	ze        [w14], w1
    1752:	f1 80 40    	add.w     w1, #0x11, w1
    1754:	81 00 41    	add.w     w2, w1, w1
    1756:	91 40 78    	mov.b     [w1], w1
    1758:	00 00 47    	add.w     w14, w0, w0
    175a:	31 78 98    	mov.b     w1, [w0+59]
    175c:	1e 4f e8    	inc.b     [w14], [w14]

0000175e <.L14>:
    175e:	1e 40 78    	mov.b     [w14], w0
    1760:	e5 4f 50    	sub.b     w0, #0x5, [w15]
    1762:	f4 ff 36    	bra       LEU, 0x174c <.L15>
    }
    set2 = _set2;
    1764:	b0 03 20    	mov.w     #0x3b, w0
    1766:	0e 00 40    	add.w     w0, w14, w0
    1768:	40 40 88    	mov.w     w0, 0x808

    char _set3[7] = " ";
    176a:	00 02 20    	mov.w     #0x20, w0
    176c:	01 00 20    	mov.w     #0x0, w1
    176e:	10 27 98    	mov.w     w0, [w14+66]
    1770:	21 27 98    	mov.w     w1, [w14+68]
    1772:	8e 00 78    	mov.w     w14, w1
    1774:	61 04 b0    	add.w     #0x46, w1
    1776:	00 00 09    	repeat    #0x0
    1778:	80 18 eb    	clr.w     [w1++]
    177a:	80 58 eb    	clr.b     [w1++]
    for (i=0; i<6; i++){
    177c:	00 40 eb    	clr.b     w0
    177e:	00 4f 78    	mov.b     w0, [w14]
    1780:	09 00 37    	bra       0x1794 <.L16>

00001782 <.L17>:
        _set3[i] = codeSet[i+23];
    1782:	1e 80 fb    	ze        [w14], w0
    1784:	12 40 80    	mov.w     0x802, w2
    1786:	9e 80 fb    	ze        [w14], w1
    1788:	f7 80 40    	add.w     w1, #0x17, w1
    178a:	81 00 41    	add.w     w2, w1, w1
    178c:	91 40 78    	mov.b     [w1], w1
    178e:	00 00 47    	add.w     w14, w0, w0
    1790:	21 c0 98    	mov.b     w1, [w0+66]
    1792:	1e 4f e8    	inc.b     [w14], [w14]

00001794 <.L16>:
    1794:	1e 40 78    	mov.b     [w14], w0
    1796:	e5 4f 50    	sub.b     w0, #0x5, [w15]
    1798:	f4 ff 36    	bra       LEU, 0x1782 <.L17>
    }
    set3 = _set3;
    179a:	20 04 20    	mov.w     #0x42, w0
    179c:	0e 00 40    	add.w     w0, w14, w0
    179e:	50 40 88    	mov.w     w0, 0x80a

    char _set4[7] = " ";
    17a0:	90 51 29    	mov.w     #0x9519, w0
    17a2:	90 40 78    	mov.b     [w0], w1
    17a4:	11 cf 98    	mov.b     w1, [w14+73]
    17a6:	90 40 90    	mov.b     [w0+1], w1
    17a8:	21 cf 98    	mov.b     w1, [w14+74]
    17aa:	8e 00 78    	mov.w     w14, w1
    17ac:	b1 04 b0    	add.w     #0x4b, w1
    17ae:	04 00 09    	repeat    #0x4
    17b0:	80 58 eb    	clr.b     [w1++]
    for (i=0; i<6; i++){
    17b2:	00 40 eb    	clr.b     w0
    17b4:	00 4f 78    	mov.b     w0, [w14]
    17b6:	09 00 37    	bra       0x17ca <.L18>

000017b8 <.L19>:
        _set4[i] = codeSet[i+29];
    17b8:	1e 80 fb    	ze        [w14], w0
    17ba:	12 40 80    	mov.w     0x802, w2
    17bc:	9e 80 fb    	ze        [w14], w1
    17be:	fd 80 40    	add.w     w1, #0x1d, w1
    17c0:	81 00 41    	add.w     w2, w1, w1
    17c2:	91 40 78    	mov.b     [w1], w1
    17c4:	00 00 47    	add.w     w14, w0, w0
    17c6:	11 c8 98    	mov.b     w1, [w0+73]
    17c8:	1e 4f e8    	inc.b     [w14], [w14]

000017ca <.L18>:
    17ca:	1e 40 78    	mov.b     [w14], w0
    17cc:	e5 4f 50    	sub.b     w0, #0x5, [w15]
    17ce:	f4 ff 36    	bra       LEU, 0x17b8 <.L19>
    }
    set4 = _set4;
    17d0:	90 04 20    	mov.w     #0x49, w0
    17d2:	0e 00 40    	add.w     w0, w14, w0
    17d4:	60 40 88    	mov.w     w0, 0x80c

    // initialize indices of each column
    i0 = rand_val%5;
    17d6:	b2 40 80    	mov.w     0x816, w2
    17d8:	d0 cc 2c    	mov.w     #0xcccd, w0
    17da:	00 10 b8    	mul.uu    w2, w0, w0
    17dc:	42 08 de    	lsr.w     w1, #0x2, w0
    17de:	65 00 b9    	mul.su    w0, #0x5, w0
    17e0:	00 00 78    	mov.w     w0, w0
    17e2:	00 00 51    	sub.w     w2, w0, w0
    17e4:	00 40 78    	mov.b     w0, w0
    17e6:	10 e8 b7    	mov.b     WREG, 0x810
    rand_next();
    17e8:	9a 01 07    	rcall     0x1b1e <_rand_next> <.LFB10> <.LFE9>
    i1 = rand_val%5;
    17ea:	b2 40 80    	mov.w     0x816, w2
    17ec:	d0 cc 2c    	mov.w     #0xcccd, w0
    17ee:	00 10 b8    	mul.uu    w2, w0, w0
    17f0:	42 08 de    	lsr.w     w1, #0x2, w0
    17f2:	65 00 b9    	mul.su    w0, #0x5, w0
    17f4:	00 00 78    	mov.w     w0, w0
    17f6:	00 00 51    	sub.w     w2, w0, w0
    17f8:	00 40 78    	mov.b     w0, w0
    17fa:	11 e8 b7    	mov.b     WREG, 0x811
    rand_next();
    17fc:	90 01 07    	rcall     0x1b1e <_rand_next> <.LFB10> <.LFE9>
    i2 = rand_val%5;
    17fe:	b2 40 80    	mov.w     0x816, w2
    1800:	d0 cc 2c    	mov.w     #0xcccd, w0
    1802:	00 10 b8    	mul.uu    w2, w0, w0
    1804:	42 08 de    	lsr.w     w1, #0x2, w0
    1806:	65 00 b9    	mul.su    w0, #0x5, w0
    1808:	00 00 78    	mov.w     w0, w0
    180a:	00 00 51    	sub.w     w2, w0, w0
    180c:	00 40 78    	mov.b     w0, w0
    180e:	12 e8 b7    	mov.b     WREG, 0x812
    rand_next();
    1810:	86 01 07    	rcall     0x1b1e <_rand_next> <.LFB10> <.LFE9>
    i3 = rand_val%5;
    1812:	b2 40 80    	mov.w     0x816, w2
    1814:	d0 cc 2c    	mov.w     #0xcccd, w0
    1816:	00 10 b8    	mul.uu    w2, w0, w0
    1818:	42 08 de    	lsr.w     w1, #0x2, w0
    181a:	65 00 b9    	mul.su    w0, #0x5, w0
    181c:	00 00 78    	mov.w     w0, w0
    181e:	00 00 51    	sub.w     w2, w0, w0
    1820:	00 40 78    	mov.b     w0, w0
    1822:	13 e8 b7    	mov.b     WREG, 0x813
    rand_next();
    1824:	7c 01 07    	rcall     0x1b1e <_rand_next> <.LFB10> <.LFE9>
    i4 = rand_val%5;
    1826:	b2 40 80    	mov.w     0x816, w2
    1828:	d0 cc 2c    	mov.w     #0xcccd, w0
    182a:	00 10 b8    	mul.uu    w2, w0, w0
    182c:	42 08 de    	lsr.w     w1, #0x2, w0
    182e:	65 00 b9    	mul.su    w0, #0x5, w0
    1830:	00 00 78    	mov.w     w0, w0
    1832:	00 00 51    	sub.w     w2, w0, w0
    1834:	00 40 78    	mov.b     w0, w0
    1836:	14 e8 b7    	mov.b     WREG, 0x814

    char dispstring[17] = " o  o  o  o  o ";
    1838:	00 52 29    	mov.w     #0x9520, w0
    183a:	01 05 20    	mov.w     #0x50, w1
    183c:	81 00 47    	add.w     w14, w1, w1
    183e:	0f 00 09    	repeat    #0xf
    1840:	b0 58 78    	mov.b     [w0++], [w1++]
    1842:	00 01 b1    	sub.w     #0x10, w0
    1844:	00 40 eb    	clr.b     w0
    1846:	00 e7 98    	mov.b     w0, [w14+96]
    dispptr = dispstring;
    1848:	00 05 20    	mov.w     #0x50, w0
    184a:	0e 00 40    	add.w     w0, w14, w0
    184c:	00 40 88    	mov.w     w0, 0x800
    lcd_print2(&lcd1, dispptr, "");
    184e:	00 40 80    	mov.w     0x800, w0
    1850:	82 51 29    	mov.w     #0x9518, w2
    1852:	80 00 78    	mov.w     w0, w1
    1854:	00 05 21    	mov.w     #0x1050, w0
    1856:	17 03 07    	rcall     0x1e86 <_lcd_print2> <.LFB13> <.LFE12>

    // Timer 2 Setup
    T2CON = 0x0020;         // set Timer2 period to 10 ms for debounce
    1858:	00 02 20    	mov.w     #0x20, w0
    185a:	80 08 88    	mov.w     w0, 0x110
    PR2 = 0x2710;           // prescaler 16, match value 10000
    185c:	00 71 22    	mov.w     #0x2710, w0
    185e:	60 08 88    	mov.w     w0, 0x10c

    TMR2 = 0;               // set Timer2 to 0
    1860:	06 21 ef    	clr.w     0x106
    IFS0bits.T2IF = 0;      // lower T2 interrupt flag
    1862:	84 e0 a9    	bclr.b    0x84, #0x7
    IEC0bits.T2IE = 1;      // enable T2 interrupt
    1864:	94 e0 a8    	bset.b    0x94, #0x7
    T2CONbits.TON = 0;      // make sure T2 isn't on
    1866:	11 e1 a9    	bclr.b    0x111, #0x7

    state = setup;
    1868:	20 87 21    	mov.w     #0x1872, w0
    186a:	c0 40 88    	mov.w     w0, 0x818

0000186c <.L20>:

    while (1) {
        state();
    186c:	c0 40 80    	mov.w     0x818, w0
    186e:	00 00 01    	call      w0
    }
    1870:	fd ff 37    	bra       0x186c <.L20>

00001872 <_setup>:
}

// STATE MACHINE FUNCTIONS /////////////////////////////////////////////////////

void setup(void) { // Waits for master module to start the game
    1872:	00 00 fa    	lnk       #0x0
    // State Setup
    if (state != last_state) {
    1874:	c1 40 80    	mov.w     0x818, w1
    1876:	d0 40 80    	mov.w     0x81a, w0
    1878:	80 8f 50    	sub.w     w1, w0, [w15]
    187a:	08 00 32    	bra       Z, 0x188c <.L22>
        last_state = state;
    187c:	c0 40 80    	mov.w     0x818, w0
    187e:	d0 40 88    	mov.w     w0, 0x81a
        MODULE_LED_GREEN = ON; delay_by_nop(1);
    1880:	da 22 a8    	bset.b    0x2da, #0x1
    1882:	10 00 20    	mov.w     #0x1, w0
    1884:	01 00 20    	mov.w     #0x0, w1
    1886:	d7 03 07    	rcall     0x2036 <_delay_by_nop> <.L0> <.LFB0> <.LFE16> <.Letext0> <.Ltext0>
        MODULE_LED_RED = ON;
    1888:	da 02 a8    	bset.b    0x2da, #0x0
        complete_flag = 0;
    188a:	21 68 ef    	clr.b     0x821

0000188c <.L22>:
        // setup state here
    }

    // Perform state tasks

    // Check for state transitions
    // if ((start_flag == 1) || (SW2 == 0)){
    //     state = run;
    // }

    if (start_flag == 1) {
    188c:	24 c8 bf    	mov.b     0x824, WREG
    188e:	e1 4f 50    	sub.b     w0, #0x1, [w15]
    1890:	02 00 3a    	bra       NZ, 0x1896 <.L23>
        state = run;
    1892:	c0 8a 21    	mov.w     #0x18ac, w0
    1894:	c0 40 88    	mov.w     w0, 0x818

00001896 <.L23>:
    }

    // State Cleanup
    if (state != last_state) {
    1896:	c1 40 80    	mov.w     0x818, w1
    1898:	d0 40 80    	mov.w     0x81a, w0
    189a:	80 8f 50    	sub.w     w1, w0, [w15]
    189c:	05 00 32    	bra       Z, 0x18a8 <.L21>
        // cleanup state here
        MODULE_LED_GREEN = OFF; delay_by_nop(1);
    189e:	da 22 a9    	bclr.b    0x2da, #0x1
    18a0:	10 00 20    	mov.w     #0x1, w0
    18a2:	01 00 20    	mov.w     #0x0, w1
    18a4:	c8 03 07    	rcall     0x2036 <_delay_by_nop> <.L0> <.LFB0> <.LFE16> <.Letext0> <.Ltext0>
        MODULE_LED_RED = ON;
    18a6:	da 02 a8    	bset.b    0x2da, #0x0

000018a8 <.L21>:
    }
}
    18a8:	00 80 fa    	ulnk      
    18aa:	00 00 06    	return    

000018ac <_run>:

void run(void) { // Plays the game
    18ac:	00 00 fa    	lnk       #0x0
    // State Setup
    if (state != last_state) {
    18ae:	c1 40 80    	mov.w     0x818, w1
    18b0:	d0 40 80    	mov.w     0x81a, w0
    18b2:	80 8f 50    	sub.w     w1, w0, [w15]
    18b4:	07 00 32    	bra       Z, 0x18c4 <.L26>
        last_state = state;
    18b6:	c0 40 80    	mov.w     0x818, w0
    18b8:	d0 40 88    	mov.w     w0, 0x81a
        // setup state here
        LED1 = ON; delay_by_nop(1);
    18ba:	dc e2 a8    	bset.b    0x2dc, #0x7
    18bc:	10 00 20    	mov.w     #0x1, w0
    18be:	01 00 20    	mov.w     #0x0, w1
    18c0:	ba 03 07    	rcall     0x2036 <_delay_by_nop> <.L0> <.LFB0> <.LFE16> <.Letext0> <.Ltext0>
        MODULE_LED_RED = ON;
    18c2:	da 02 a8    	bset.b    0x2da, #0x0

000018c4 <.L26>:
    }

    // Perform state tasks
    updateDisplay();
    18c4:	d7 00 07    	rcall     0x1a74 <_updateDisplay> <.LFB8> <.LFE5>
    if (SW1 == 0) { //TODO: Add real submit button pin mapping
    18c6:	91 16 80    	mov.w     0x2d2, w1
    18c8:	00 00 28    	mov.w     #0x8000, w0
    18ca:	00 80 60    	and.w     w1, w0, w0
    18cc:	00 00 e0    	cp0.w     w0
    18ce:	38 00 3a    	bra       NZ, 0x1940 <.L27>
        if ((set0[i0] == codeword[0]) &&
    18d0:	21 40 80    	mov.w     0x804, w1
    18d2:	10 c8 bf    	mov.b     0x810, WREG
    18d4:	00 80 fb    	ze        w0, w0
    18d6:	00 80 40    	add.w     w1, w0, w0
    18d8:	90 40 78    	mov.b     [w0], w1
    18da:	70 40 80    	mov.w     0x80e, w0
    18dc:	10 40 78    	mov.b     [w0], w0
    18de:	80 cf 50    	sub.b     w1, w0, [w15]
    18e0:	2b 00 3a    	bra       NZ, 0x1938 <.L28>
            (set1[i1] == codeword[1]) &&
    18e2:	31 40 80    	mov.w     0x806, w1
    18e4:	11 c8 bf    	mov.b     0x811, WREG
    18e6:	00 80 fb    	ze        w0, w0
    18e8:	00 80 40    	add.w     w1, w0, w0
    18ea:	90 40 78    	mov.b     [w0], w1
    18ec:	70 40 80    	mov.w     0x80e, w0
    18ee:	00 00 e8    	inc.w     w0, w0
    18f0:	10 40 78    	mov.b     [w0], w0
    18f2:	80 cf 50    	sub.b     w1, w0, [w15]
    18f4:	21 00 3a    	bra       NZ, 0x1938 <.L28>
            (set2[i2] == codeword[2]) &&
    18f6:	41 40 80    	mov.w     0x808, w1
    18f8:	12 c8 bf    	mov.b     0x812, WREG
    18fa:	00 80 fb    	ze        w0, w0
    18fc:	00 80 40    	add.w     w1, w0, w0
    18fe:	90 40 78    	mov.b     [w0], w1
    1900:	70 40 80    	mov.w     0x80e, w0
    1902:	00 80 e8    	inc2.w    w0, w0
    1904:	10 40 78    	mov.b     [w0], w0
    1906:	80 cf 50    	sub.b     w1, w0, [w15]
    1908:	17 00 3a    	bra       NZ, 0x1938 <.L28>
            (set3[i3] == codeword[3]) &&
    190a:	51 40 80    	mov.w     0x80a, w1
    190c:	13 c8 bf    	mov.b     0x813, WREG
    190e:	00 80 fb    	ze        w0, w0
    1910:	00 80 40    	add.w     w1, w0, w0
    1912:	90 40 78    	mov.b     [w0], w1
    1914:	70 40 80    	mov.w     0x80e, w0
    1916:	63 00 40    	add.w     w0, #0x3, w0
    1918:	10 40 78    	mov.b     [w0], w0
    191a:	80 cf 50    	sub.b     w1, w0, [w15]
    191c:	0d 00 3a    	bra       NZ, 0x1938 <.L28>
            (set4[i4] == codeword[4])) {
    191e:	61 40 80    	mov.w     0x80c, w1
    1920:	14 c8 bf    	mov.b     0x814, WREG
    1922:	00 80 fb    	ze        w0, w0
    1924:	00 80 40    	add.w     w1, w0, w0
    1926:	90 40 78    	mov.b     [w0], w1
    1928:	70 40 80    	mov.w     0x80e, w0
    192a:	64 00 40    	add.w     w0, #0x4, w0
    192c:	10 40 78    	mov.b     [w0], w0
    192e:	80 cf 50    	sub.b     w1, w0, [w15]
    1930:	03 00 3a    	bra       NZ, 0x1938 <.L28>
                state = solved;
    1932:	c0 97 21    	mov.w     #0x197c, w0
    1934:	c0 40 88    	mov.w     w0, 0x818
    1936:	04 00 37    	bra       0x1940 <.L27>

00001938 <.L28>:
        } else {
            num_strikes++;
    1938:	22 c8 bf    	mov.b     0x822, WREG
    193a:	00 40 e8    	inc.b     w0, w0
    193c:	22 e8 b7    	mov.b     WREG, 0x822
            LED3 = OFF;
    193e:	ec 22 a9    	bclr.b    0x2ec, #0x1

00001940 <.L27>:
        }
    }
    lcd_print2(&lcd1, dispptr, "");
    1940:	00 40 80    	mov.w     0x800, w0
    1942:	82 51 29    	mov.w     #0x9518, w2
    1944:	80 00 78    	mov.w     w0, w1
    1946:	00 05 21    	mov.w     #0x1050, w0
    1948:	9e 02 07    	rcall     0x1e86 <_lcd_print2> <.LFB13> <.LFE12>
    delay_by_nop(30000);
    194a:	00 53 27    	mov.w     #0x7530, w0
    194c:	01 00 20    	mov.w     #0x0, w1
    194e:	73 03 07    	rcall     0x2036 <_delay_by_nop> <.L0> <.LFB0> <.LFE16> <.Letext0> <.Ltext0>

    // Check for state transitions
    if (win_flag == 1) {
    1950:	25 c8 bf    	mov.b     0x825, WREG
    1952:	e1 4f 50    	sub.b     w0, #0x1, [w15]
    1954:	03 00 3a    	bra       NZ, 0x195c <.L29>
        state = end_win;
    1956:	a0 9c 21    	mov.w     #0x19ca, w0
    1958:	c0 40 88    	mov.w     w0, 0x818
    195a:	05 00 37    	bra       0x1966 <.L30>

0000195c <.L29>:
    } else if (lose_flag == 1) {
    195c:	26 c8 bf    	mov.b     0x826, WREG
    195e:	e1 4f 50    	sub.b     w0, #0x1, [w15]
    1960:	02 00 3a    	bra       NZ, 0x1966 <.L30>
        state = end_fail;
    1962:	00 a2 21    	mov.w     #0x1a20, w0
    1964:	c0 40 88    	mov.w     w0, 0x818

00001966 <.L30>:
    }

    // State Cleanup
    if (state != last_state) {
    1966:	c1 40 80    	mov.w     0x818, w1
    1968:	d0 40 80    	mov.w     0x81a, w0
    196a:	80 8f 50    	sub.w     w1, w0, [w15]
    196c:	05 00 32    	bra       Z, 0x1978 <.L25>
        // cleanup state here
        LED1=OFF; delay_by_nop(1);
    196e:	dc e2 a9    	bclr.b    0x2dc, #0x7
    1970:	10 00 20    	mov.w     #0x1, w0
    1972:	01 00 20    	mov.w     #0x0, w1
    1974:	60 03 07    	rcall     0x2036 <_delay_by_nop> <.L0> <.LFB0> <.LFE16> <.Letext0> <.Ltext0>
        MODULE_LED_RED = OFF;
    1976:	da 02 a9    	bclr.b    0x2da, #0x0

00001978 <.L25>:
    }
}
    1978:	00 80 fa    	ulnk      
    197a:	00 00 06    	return    

0000197c <_solved>:

void solved(void) { // The puzzle on this module is finished
    197c:	00 00 fa    	lnk       #0x0
    // State Setup
    if (state != last_state) {
    197e:	c1 40 80    	mov.w     0x818, w1
    1980:	d0 40 80    	mov.w     0x81a, w0
    1982:	80 8f 50    	sub.w     w1, w0, [w15]
    1984:	06 00 32    	bra       Z, 0x1992 <.L33>
        // setup state here
        last_state = state;
    1986:	c0 40 80    	mov.w     0x818, w0
    1988:	d0 40 88    	mov.w     w0, 0x81a
        LED3 = ON;
    198a:	ec 22 a8    	bset.b    0x2ec, #0x1
        complete_flag = 1;
    198c:	10 c0 b3    	mov.b     #0x1, w0
    198e:	21 e8 b7    	mov.b     WREG, 0x821
        MODULE_LED_GREEN = ON;
    1990:	da 22 a8    	bset.b    0x2da, #0x1

00001992 <.L33>:
    }

    // Perform state tasks
    lcd_print2(&lcd1, dispptr, "  --CORRECT--  ");
    1992:	00 40 80    	mov.w     0x800, w0
    1994:	12 53 29    	mov.w     #0x9531, w2
    1996:	80 00 78    	mov.w     w0, w1
    1998:	00 05 21    	mov.w     #0x1050, w0
    199a:	75 02 07    	rcall     0x1e86 <_lcd_print2> <.LFB13> <.LFE12>
    delay_by_nop(30000);
    199c:	00 53 27    	mov.w     #0x7530, w0
    199e:	01 00 20    	mov.w     #0x0, w1
    19a0:	4a 03 07    	rcall     0x2036 <_delay_by_nop> <.L0> <.LFB0> <.LFE16> <.Letext0> <.Ltext0>

    // Check for state transitions
    if (win_flag == 1) {
    19a2:	25 c8 bf    	mov.b     0x825, WREG
    19a4:	e1 4f 50    	sub.b     w0, #0x1, [w15]
    19a6:	03 00 3a    	bra       NZ, 0x19ae <.L34>
        state = end_win;
    19a8:	a0 9c 21    	mov.w     #0x19ca, w0
    19aa:	c0 40 88    	mov.w     w0, 0x818
    19ac:	05 00 37    	bra       0x19b8 <.L35>

000019ae <.L34>:
    } else if (lose_flag == 1) {
    19ae:	26 c8 bf    	mov.b     0x826, WREG
    19b0:	e1 4f 50    	sub.b     w0, #0x1, [w15]
    19b2:	02 00 3a    	bra       NZ, 0x19b8 <.L35>
        state = end_fail;
    19b4:	00 a2 21    	mov.w     #0x1a20, w0
    19b6:	c0 40 88    	mov.w     w0, 0x818

000019b8 <.L35>:
    }

    // State Cleanup
    if (state != last_state) {
    19b8:	c1 40 80    	mov.w     0x818, w1
    19ba:	d0 40 80    	mov.w     0x81a, w0
    19bc:	80 8f 50    	sub.w     w1, w0, [w15]
    19be:	03 00 32    	bra       Z, 0x19c6 <.L32>
        // cleanup state here
        LED3 = OFF;
    19c0:	ec 22 a9    	bclr.b    0x2ec, #0x1
        complete_flag = 0;
    19c2:	21 68 ef    	clr.b     0x821
        MODULE_LED_GREEN = OFF;
    19c4:	da 22 a9    	bclr.b    0x2da, #0x1

000019c6 <.L32>:
    }
}
    19c6:	00 80 fa    	ulnk      
    19c8:	00 00 06    	return    

000019ca <_end_win>:

void end_win(void) { // The master module said the game was won
    19ca:	00 00 fa    	lnk       #0x0
    // State Setup
    if (state != last_state) {
    19cc:	c1 40 80    	mov.w     0x818, w1
    19ce:	d0 40 80    	mov.w     0x81a, w0
    19d0:	80 8f 50    	sub.w     w1, w0, [w15]
    19d2:	0a 00 32    	bra       Z, 0x19e8 <.L38>
        last_state = state;
    19d4:	c0 40 80    	mov.w     0x818, w0
    19d6:	d0 40 88    	mov.w     w0, 0x81a
        MODULE_LED_GREEN = ON;
    19d8:	da 22 a8    	bset.b    0x2da, #0x1

        T1CON = 0x0030;         // set Timer1 period to 0.5s
    19da:	00 03 20    	mov.w     #0x30, w0
    19dc:	20 08 88    	mov.w     w0, 0x104
        PR1 = 0x7A11;
    19de:	10 a1 27    	mov.w     #0x7a11, w0
    19e0:	10 08 88    	mov.w     w0, 0x102

        TMR1 = 0;               // set Timer1 count to 0
    19e2:	00 21 ef    	clr.w     0x100
        IFS0bits.T1IF = 0;      // lower Timer1 interrupt flag
    19e4:	84 60 a9    	bclr.b    0x84, #0x3
        T1CONbits.TON = 1;      // turn on Timer1
    19e6:	05 e1 a8    	bset.b    0x105, #0x7

000019e8 <.L38>:
    }

    // Perform state tasks
    if (IFS0bits.T1IF == 1) {
    19e8:	20 04 80    	mov.w     0x84, w0
    19ea:	68 00 60    	and.w     w0, #0x8, w0
    19ec:	00 00 e0    	cp0.w     w0
    19ee:	10 00 32    	bra       Z, 0x1a10 <.L39>
        IFS0bits.T1IF = 0;      // lower Timer1 interrupt flag
    19f0:	84 60 a9    	bclr.b    0x84, #0x3
        MODULE_LED_GREEN = !MODULE_LED_GREEN;           // toggle LED
    19f2:	d0 16 80    	mov.w     0x2da, w0
    19f4:	62 00 60    	and.w     w0, #0x2, w0
    19f6:	00 f0 a7    	btsc.w    w0, #0xf
    19f8:	00 00 ea    	neg.w     w0, w0
    19fa:	00 00 e9    	dec.w     w0, w0
    19fc:	4f 00 de    	lsr.w     w0, #0xf, w0
    19fe:	00 40 78    	mov.b     w0, w0
    1a00:	00 80 fb    	ze        w0, w0
    1a02:	61 00 60    	and.w     w0, #0x1, w0
    1a04:	00 00 40    	add.w     w0, w0, w0
    1a06:	d2 16 80    	mov.w     0x2da, w2
    1a08:	d1 ff 2f    	mov.w     #0xfffd, w1
    1a0a:	81 00 61    	and.w     w2, w1, w1
    1a0c:	01 00 70    	ior.w     w0, w1, w0
    1a0e:	d0 16 88    	mov.w     w0, 0x2da

00001a10 <.L39>:
    }

    // Check for state transitions

    // State Cleanup
    if (state != last_state) {
    1a10:	c1 40 80    	mov.w     0x818, w1
    1a12:	d0 40 80    	mov.w     0x81a, w0
    1a14:	80 8f 50    	sub.w     w1, w0, [w15]
    1a16:	02 00 32    	bra       Z, 0x1a1c <.L37>
        // cleanup state here
        MODULE_LED_GREEN = OFF;
    1a18:	da 22 a9    	bclr.b    0x2da, #0x1
        T1CONbits.TON = 0;      // turn off Timer1
    1a1a:	05 e1 a9    	bclr.b    0x105, #0x7

00001a1c <.L37>:
    }
}
    1a1c:	00 80 fa    	ulnk      
    1a1e:	00 00 06    	return    

00001a20 <_end_fail>:

void end_fail(void) { // The master module said the game was lost
    1a20:	00 00 fa    	lnk       #0x0
    // State Setup
    if (state != last_state) {
    1a22:	c1 40 80    	mov.w     0x818, w1
    1a24:	d0 40 80    	mov.w     0x81a, w0
    1a26:	80 8f 50    	sub.w     w1, w0, [w15]
    1a28:	0a 00 32    	bra       Z, 0x1a3e <.L42>
        // setup state here
        last_state = state;
    1a2a:	c0 40 80    	mov.w     0x818, w0
    1a2c:	d0 40 88    	mov.w     w0, 0x81a
        MODULE_LED_RED = ON;
    1a2e:	da 02 a8    	bset.b    0x2da, #0x0

        T1CON = 0x0030;         // set Timer1 period to 0.5s
    1a30:	00 03 20    	mov.w     #0x30, w0
    1a32:	20 08 88    	mov.w     w0, 0x104
        PR1 = 0x7A11;
    1a34:	10 a1 27    	mov.w     #0x7a11, w0
    1a36:	10 08 88    	mov.w     w0, 0x102

        TMR1 = 0;               // set Timer1 count to 0
    1a38:	00 21 ef    	clr.w     0x100
        IFS0bits.T1IF = 0;      // lower Timer1 interrupt flag
    1a3a:	84 60 a9    	bclr.b    0x84, #0x3
        T1CONbits.TON = 1;      // turn on Timer1
    1a3c:	05 e1 a8    	bset.b    0x105, #0x7

00001a3e <.L42>:
    }

    // Perform state tasks
    if (IFS0bits.T1IF == 1) {
    1a3e:	20 04 80    	mov.w     0x84, w0
    1a40:	68 00 60    	and.w     w0, #0x8, w0
    1a42:	00 00 e0    	cp0.w     w0
    1a44:	0f 00 32    	bra       Z, 0x1a64 <.L43>
        IFS0bits.T1IF = 0;      // lower Timer1 interrupt flag
    1a46:	84 60 a9    	bclr.b    0x84, #0x3
        MODULE_LED_RED = !MODULE_LED_RED;           // toggle LED
    1a48:	d0 16 80    	mov.w     0x2da, w0
    1a4a:	61 00 60    	and.w     w0, #0x1, w0
    1a4c:	00 f0 a7    	btsc.w    w0, #0xf
    1a4e:	00 00 ea    	neg.w     w0, w0
    1a50:	00 00 e9    	dec.w     w0, w0
    1a52:	4f 00 de    	lsr.w     w0, #0xf, w0
    1a54:	00 40 78    	mov.b     w0, w0
    1a56:	00 80 fb    	ze        w0, w0
    1a58:	61 00 60    	and.w     w0, #0x1, w0
    1a5a:	d2 16 80    	mov.w     0x2da, w2
    1a5c:	e1 ff 2f    	mov.w     #0xfffe, w1
    1a5e:	81 00 61    	and.w     w2, w1, w1
    1a60:	01 00 70    	ior.w     w0, w1, w0
    1a62:	d0 16 88    	mov.w     w0, 0x2da

00001a64 <.L43>:
    }

    // Check for state transitions

    // State Cleanup
    if (state != last_state) {
    1a64:	c1 40 80    	mov.w     0x818, w1
    1a66:	d0 40 80    	mov.w     0x81a, w0
    1a68:	80 8f 50    	sub.w     w1, w0, [w15]
    1a6a:	02 00 32    	bra       Z, 0x1a70 <.L41>
        // cleanup state here
        MODULE_LED_RED = OFF;
    1a6c:	da 02 a9    	bclr.b    0x2da, #0x0
        T1CONbits.TON = 0;      // turn off Timer1
    1a6e:	05 e1 a9    	bclr.b    0x105, #0x7

00001a70 <.L41>:
    }
}
    1a70:	00 80 fa    	ulnk      
    1a72:	00 00 06    	return    

00001a74 <_updateDisplay>:

// ISRs ////////////////////////////////////////////////////////////////////////

void __attribute__((interrupt, auto_psv)) _CNInterrupt(void) {
    IFS1bits.CNIF = 0;      // lower INT3 interrupt flag
    TMR2 = 0;                 // reset debounce Timer2
    IFS0bits.T2IF = 0;        // lower Timer2 Interrupt flag
    T2CONbits.TON = 1;        // start Timer2
    LED1 = ON;
}

void __attribute__((interrupt, auto_psv)) _T2Interrupt(void) {
    IFS0bits.T2IF = 0;      // lower Timer2 interrupt flag
    T2CONbits.TON = 0;      // turn off timer
    LED1 = OFF;

    // Sample pins and increment/decrement index of character displayed
    if(!D0) {i0 = (i0+1)% LETTERS_PER_COLUMN;} else
    if(!D1) {i0 = (i0 - 1);
        if(i0 > 5) {i0 = LETTERS_PER_COLUMN - 1;}
    }

    if(!D12) {i1 = (i1+1)% LETTERS_PER_COLUMN;} else
    if(!D13) {i1 = (i1 - 1);}
    if(i1 > 5) {i1 += LETTERS_PER_COLUMN;}

    if(!D4) {i2 = (i2+1)% LETTERS_PER_COLUMN;} else
    if(!D5) {i2 = (i2 - 1);}
    if(i2 > 5) {i2 += LETTERS_PER_COLUMN;}

    if(!D6) {i3 = (i3+1)% LETTERS_PER_COLUMN;} else
    if(!D7) {i3 = (i3 - 1);}
    if(i3 > 5) {i3 += LETTERS_PER_COLUMN;}

    if(!D8) {i4 = (i4+1)% LETTERS_PER_COLUMN;} else
    if(!D9) {i4 = (i4 - 1);}
    if(i4 > 5) {i4 += LETTERS_PER_COLUMN;}

    updateDisplay();
}


// HELPER FUNCTIONS ////////////////////////////////////////////////////////////

void updateDisplay(void) {
    1a74:	00 00 fa    	lnk       #0x0
    dispptr[1] = set0[i0];
    1a76:	00 40 80    	mov.w     0x800, w0
    1a78:	00 00 e8    	inc.w     w0, w0
    1a7a:	22 40 80    	mov.w     0x804, w2
    1a7c:	01 81 20    	mov.w     #0x810, w1
    1a7e:	91 40 78    	mov.b     [w1], w1
    1a80:	81 80 fb    	ze        w1, w1
    1a82:	81 00 41    	add.w     w2, w1, w1
    1a84:	91 40 78    	mov.b     [w1], w1
    1a86:	01 48 78    	mov.b     w1, [w0]
    dispptr[4] = set1[i1];
    1a88:	00 40 80    	mov.w     0x800, w0
    1a8a:	64 00 40    	add.w     w0, #0x4, w0
    1a8c:	32 40 80    	mov.w     0x806, w2
    1a8e:	11 81 20    	mov.w     #0x811, w1
    1a90:	91 40 78    	mov.b     [w1], w1
    1a92:	81 80 fb    	ze        w1, w1
    1a94:	81 00 41    	add.w     w2, w1, w1
    1a96:	91 40 78    	mov.b     [w1], w1
    1a98:	01 48 78    	mov.b     w1, [w0]
    dispptr[7] = set2[i2];
    1a9a:	00 40 80    	mov.w     0x800, w0
    1a9c:	67 00 40    	add.w     w0, #0x7, w0
    1a9e:	42 40 80    	mov.w     0x808, w2
    1aa0:	21 81 20    	mov.w     #0x812, w1
    1aa2:	91 40 78    	mov.b     [w1], w1
    1aa4:	81 80 fb    	ze        w1, w1
    1aa6:	81 00 41    	add.w     w2, w1, w1
    1aa8:	91 40 78    	mov.b     [w1], w1
    1aaa:	01 48 78    	mov.b     w1, [w0]
    dispptr[10] = set3[i3];
    1aac:	00 40 80    	mov.w     0x800, w0
    1aae:	6a 00 40    	add.w     w0, #0xa, w0
    1ab0:	52 40 80    	mov.w     0x80a, w2
    1ab2:	31 81 20    	mov.w     #0x813, w1
    1ab4:	91 40 78    	mov.b     [w1], w1
    1ab6:	81 80 fb    	ze        w1, w1
    1ab8:	81 00 41    	add.w     w2, w1, w1
    1aba:	91 40 78    	mov.b     [w1], w1
    1abc:	01 48 78    	mov.b     w1, [w0]
    dispptr[13] = set4[i4];
    1abe:	00 40 80    	mov.w     0x800, w0
    1ac0:	6d 00 40    	add.w     w0, #0xd, w0
    1ac2:	62 40 80    	mov.w     0x80c, w2
    1ac4:	41 81 20    	mov.w     #0x814, w1
    1ac6:	91 40 78    	mov.b     [w1], w1
    1ac8:	81 80 fb    	ze        w1, w1
    1aca:	81 00 41    	add.w     w2, w1, w1
    1acc:	91 40 78    	mov.b     [w1], w1
    1ace:	01 48 78    	mov.b     w1, [w0]
}
    1ad0:	00 80 fa    	ulnk      
    1ad2:	00 00 06    	return    

00001ad4 <_toggleSwitchSetup>:

void toggleSwitchSetup(void) {
    1ad4:	00 00 fa    	lnk       #0x0
    // Initialize pins as inputs
    D0_DIR = 1; //D0 as input
    1ad6:	d8 a2 a8    	bset.b    0x2d8, #0x5
    D1_DIR = 1; //D1 as input
    1ad8:	d8 82 a8    	bset.b    0x2d8, #0x4

    D4_DIR = 1; //D4 as input
    1ada:	c9 e2 a8    	bset.b    0x2c9, #0x7
    D5_DIR = 1; //D5 as input
    1adc:	e8 62 a8    	bset.b    0x2e8, #0x3
    D6_DIR = 1; //D6 as input
    1ade:	d9 02 a8    	bset.b    0x2d9, #0x0
    D7_DIR = 1; //D7 as input
    1ae0:	d9 62 a8    	bset.b    0x2d9, #0x3
    D8_DIR = 1; //D8 as input
    1ae2:	d9 22 a8    	bset.b    0x2d9, #0x1
    D9_DIR = 1; //D9 as input
    1ae4:	d9 42 a8    	bset.b    0x2d9, #0x2
    D10_DIR = 0; // D10 and D11 are module LEDs
    1ae6:	d8 02 a9    	bclr.b    0x2d8, #0x0
    D11_DIR = 0;
    1ae8:	d8 22 a9    	bclr.b    0x2d8, #0x1
    D12_DIR = 1;//D12 as input
    1aea:	d8 42 a8    	bset.b    0x2d8, #0x2
    D13_DIR = 1;//D13 as input
    1aec:	d8 62 a8    	bset.b    0x2d8, #0x3

    D0_PUE = 1; //D0 pullup enable
    1aee:	6f c0 a8    	bset.b    0x6f, #0x6
    D1_PUE = 1; //D1 pullup enable
    1af0:	6f a0 a8    	bset.b    0x6f, #0x5

    D4_PUE = 1; //D4 pullup enable
    1af2:	6f 80 a8    	bset.b    0x6f, #0x4
    D5_PUE = 1; //D5 pullup enable
    1af4:	76 e0 a8    	bset.b    0x76, #0x7
    D6_PUE = 1; //D6 pullup enable
    1af6:	74 a0 a8    	bset.b    0x74, #0x5
    D7_PUE = 1; //D7 pullup enable
    1af8:	75 00 a8    	bset.b    0x75, #0x0
    D8_PUE = 1; //D8 pullup enable
    1afa:	74 c0 a8    	bset.b    0x74, #0x6
    D9_PUE = 1; //D9 pullup enable
    1afc:	74 e0 a8    	bset.b    0x74, #0x7
    D12_PUE = 1;//D12 pullup enable
    1afe:	74 60 a8    	bset.b    0x74, #0x3
    D13_PUE = 1;//D13 pullup enable
    1b00:	74 80 a8    	bset.b    0x74, #0x4

    D0_CNEN = 1; //D0 interrupt enable
    1b02:	63 c0 a8    	bset.b    0x63, #0x6
    D1_CNEN = 1; //D1 interrupt enable
    1b04:	63 a0 a8    	bset.b    0x63, #0x5

    D4_CNEN = 1; //D4 interrupt enable
    1b06:	63 80 a8    	bset.b    0x63, #0x4
    D5_CNEN = 1; //D5 interrupt enable
    1b08:	6a e0 a8    	bset.b    0x6a, #0x7
    D6_CNEN = 1; //D6 interrupt enable
    1b0a:	68 a0 a8    	bset.b    0x68, #0x5
    D7_CNEN = 1; //D7 interrupt enable
    1b0c:	69 00 a8    	bset.b    0x69, #0x0
    D8_CNEN = 1; //D8 interrupt enable
    1b0e:	68 c0 a8    	bset.b    0x68, #0x6
    D9_CNEN = 1; //D9 interrupt enable
    1b10:	68 e0 a8    	bset.b    0x68, #0x7
    D12_CNEN = 1;//D12 interrupt enable
    1b12:	68 60 a8    	bset.b    0x68, #0x3
    D13_CNEN = 1;//D13 interrupt enable
    1b14:	68 80 a8    	bset.b    0x68, #0x4

    IFS1bits.CNIF = 0; // lower CN interrupt flag
    1b16:	86 60 a9    	bclr.b    0x86, #0x3
    IEC1bits.CNIE = 1; // Enable CN interrupt module
    1b18:	96 60 a8    	bset.b    0x96, #0x3
}
    1b1a:	00 80 fa    	ulnk      
    1b1c:	00 00 06    	return    

00001b1e <_rand_next>:

void rand_next(void) {
    1b1e:	02 00 fa    	lnk       #0x2
    uint16_t val;

    // See "A List of Maximum Period NLFSRs" by Elena Dubrova, p. 7
    val = (rand_val ^ (rand_val >> 2) ^ (rand_val >> 13) ^ ((rand_val >> 2) & (rand_val >> 3))) & 1;
    1b20:	b0 40 80    	mov.w     0x816, w0
    1b22:	c2 00 de    	lsr.w     w0, #0x2, w1
    1b24:	b0 40 80    	mov.w     0x816, w0
    1b26:	80 80 68    	xor.w     w1, w0, w1
    1b28:	b0 40 80    	mov.w     0x816, w0
    1b2a:	4d 00 de    	lsr.w     w0, #0xd, w0
    1b2c:	80 80 68    	xor.w     w1, w0, w1
    1b2e:	b0 40 80    	mov.w     0x816, w0
    1b30:	42 01 de    	lsr.w     w0, #0x2, w2
    1b32:	b0 40 80    	mov.w     0x816, w0
    1b34:	43 00 de    	lsr.w     w0, #0x3, w0
    1b36:	00 00 61    	and.w     w2, w0, w0
    1b38:	00 80 68    	xor.w     w1, w0, w0
    1b3a:	61 0f 60    	and.w     w0, #0x1, [w14]
    rand_val = (rand_val >> 1) | (val << 15);
    1b3c:	b0 40 80    	mov.w     0x816, w0
    1b3e:	80 00 d1    	lsr.w     w0, w1
    1b40:	1e 00 78    	mov.w     [w14], w0
    1b42:	4f 00 dd    	sl.w      w0, #0xf, w0
    1b44:	01 00 70    	ior.w     w0, w1, w0
    1b46:	b0 40 88    	mov.w     w0, 0x816
}
    1b48:	00 80 fa    	ulnk      
    1b4a:	00 00 06    	return    

00001b4c <___lcd_i2c_write>:
#define DR_READ 0x0B

_LCD lcd[3];

void __lcd_i2c_write(_LCD *self, uint8_t ch) {
    1b4c:	04 00 fa    	lnk       #0x4
    1b4e:	00 0f 78    	mov.w     w0, [w14]
    1b50:	21 47 98    	mov.b     w1, [w14+2]
    i2c_start();
    1b52:	91 02 07    	rcall     0x2076 <_i2c_start> <.LFB2> <.LFE1>
    send_i2c_byte(self->addr_write);
    1b54:	1e 00 78    	mov.w     [w14], w0
    1b56:	10 40 78    	mov.b     [w0], w0
    1b58:	00 80 fb    	ze        w0, w0
    1b5a:	dc 02 07    	rcall     0x2114 <_send_i2c_byte> <.LFB5> <.LFE4>
    send_i2c_byte(ch);
    1b5c:	2e 40 90    	mov.b     [w14+2], w0
    1b5e:	00 80 fb    	ze        w0, w0
    1b60:	d9 02 07    	rcall     0x2114 <_send_i2c_byte> <.LFB5> <.LFE4>
    reset_i2c_bus();
    1b62:	bd 02 07    	rcall     0x20de <_reset_i2c_bus> <.LFB4> <.LFE3>
}
    1b64:	00 80 fa    	ulnk      
    1b66:	00 00 06    	return    

00001b68 <___lcd_enablePulse>:

// Pulse enable pin high and then low to shift in 4 bits of data
void __lcd_enablePulse(_LCD *self) {
    1b68:	02 00 fa    	lnk       #0x2
    1b6a:	00 0f 78    	mov.w     w0, [w14]
    self->io_write_val ^= ENABLE_TOGGLE;
    1b6c:	1e 00 78    	mov.w     [w14], w0
    1b6e:	20 40 90    	mov.b     [w0+2], w0
    1b70:	80 40 78    	mov.b     w0, w1
    1b72:	01 24 a2    	btg.b     w1, #0x2
    1b74:	1e 00 78    	mov.w     [w14], w0
    1b76:	21 40 98    	mov.b     w1, [w0+2]
    __lcd_i2c_write(self, self->io_write_val);
    1b78:	1e 00 78    	mov.w     [w14], w0
    1b7a:	20 40 90    	mov.b     [w0+2], w0
    1b7c:	80 40 78    	mov.b     w0, w1
    1b7e:	1e 00 78    	mov.w     [w14], w0
    1b80:	e5 ff 07    	rcall     0x1b4c <___lcd_i2c_write> <.L0> <.LFB0> <.LFE10> <.Letext0> <.Ltext0>
    delay_by_nop(100);
    1b82:	40 06 20    	mov.w     #0x64, w0
    1b84:	01 00 20    	mov.w     #0x0, w1
    1b86:	57 02 07    	rcall     0x2036 <_delay_by_nop> <.L0> <.LFB0> <.LFE16> <.Letext0> <.Ltext0>
    self->io_write_val ^= ENABLE_TOGGLE;
    1b88:	1e 00 78    	mov.w     [w14], w0
    1b8a:	20 40 90    	mov.b     [w0+2], w0
    1b8c:	80 40 78    	mov.b     w0, w1
    1b8e:	01 24 a2    	btg.b     w1, #0x2
    1b90:	1e 00 78    	mov.w     [w14], w0
    1b92:	21 40 98    	mov.b     w1, [w0+2]
    __lcd_i2c_write(self, self->io_write_val);
    1b94:	1e 00 78    	mov.w     [w14], w0
    1b96:	20 40 90    	mov.b     [w0+2], w0
    1b98:	80 40 78    	mov.b     w0, w1
    1b9a:	1e 00 78    	mov.w     [w14], w0
    1b9c:	d7 ff 07    	rcall     0x1b4c <___lcd_i2c_write> <.L0> <.LFB0> <.LFE10> <.Letext0> <.Ltext0>
    // delay_by_nop(1000);
}
    1b9e:	00 80 fa    	ulnk      
    1ba0:	00 00 06    	return    

00001ba2 <___lcd_send>:

/* Send 8 bits of data as one 4-bit nibble, shifting in, second 4-bit nibble, and
shifting in */
void __lcd_send(_LCD *self, uint8_t value, uint8_t command) {
    1ba2:	06 00 fa    	lnk       #0x6
    1ba4:	10 07 98    	mov.w     w0, [w14+2]
    1ba6:	41 47 98    	mov.b     w1, [w14+4]
    1ba8:	52 47 98    	mov.b     w2, [w14+5]
    uint8_t MS = value & 0x78;
    1baa:	4e 40 90    	mov.b     [w14+4], w0
    1bac:	81 c7 b3    	mov.b     #0x78, w1
    1bae:	01 4f 60    	and.b     w0, w1, [w14]
    uint8_t LS = value << 4;
    1bb0:	ce 40 90    	mov.b     [w14+4], w1
    1bb2:	40 00 20    	mov.w     #0x4, w0
    1bb4:	00 08 dd    	sl.w      w1, w0, w0
    1bb6:	10 47 98    	mov.b     w0, [w14+1]
    self->io_write_val = command | MS;
    1bb8:	5e 40 90    	mov.b     [w14+5], w0
    1bba:	9e 40 70    	ior.b     w0, [w14], w1
    1bbc:	1e 00 90    	mov.w     [w14+2], w0
    1bbe:	21 40 98    	mov.b     w1, [w0+2]
    __lcd_i2c_write(self, self->io_write_val);
    1bc0:	1e 00 90    	mov.w     [w14+2], w0
    1bc2:	20 40 90    	mov.b     [w0+2], w0
    1bc4:	80 40 78    	mov.b     w0, w1
    1bc6:	1e 00 90    	mov.w     [w14+2], w0
    1bc8:	c1 ff 07    	rcall     0x1b4c <___lcd_i2c_write> <.L0> <.LFB0> <.LFE10> <.Letext0> <.Ltext0>
    __lcd_enablePulse(self);
    1bca:	1e 00 90    	mov.w     [w14+2], w0
    1bcc:	cd ff 07    	rcall     0x1b68 <___lcd_enablePulse> <.LFB1> <.LFE0>
    self->io_write_val= command | LS;
    1bce:	de 40 90    	mov.b     [w14+5], w1
    1bd0:	1e 40 90    	mov.b     [w14+1], w0
    1bd2:	80 c0 70    	ior.b     w1, w0, w1
    1bd4:	1e 00 90    	mov.w     [w14+2], w0
    1bd6:	21 40 98    	mov.b     w1, [w0+2]
    __lcd_i2c_write(self, self->io_write_val);
    1bd8:	1e 00 90    	mov.w     [w14+2], w0
    1bda:	20 40 90    	mov.b     [w0+2], w0
    1bdc:	80 40 78    	mov.b     w0, w1
    1bde:	1e 00 90    	mov.w     [w14+2], w0
    1be0:	b5 ff 07    	rcall     0x1b4c <___lcd_i2c_write> <.L0> <.LFB0> <.LFE10> <.Letext0> <.Ltext0>
    __lcd_enablePulse(self);
    1be2:	1e 00 90    	mov.w     [w14+2], w0
    1be4:	c1 ff 07    	rcall     0x1b68 <___lcd_enablePulse> <.LFB1> <.LFE0>
}
    1be6:	00 80 fa    	ulnk      
    1be8:	00 00 06    	return    

00001bea <___lcd_send8>:

void __lcd_send8(_LCD *self, uint8_t value, uint8_t command) {
    1bea:	04 00 fa    	lnk       #0x4
    1bec:	00 0f 78    	mov.w     w0, [w14]
    1bee:	21 47 98    	mov.b     w1, [w14+2]
    1bf0:	32 47 98    	mov.b     w2, [w14+3]
    value = value << 4;
    1bf2:	ae 40 90    	mov.b     [w14+2], w1
    1bf4:	40 00 20    	mov.w     #0x4, w0
    1bf6:	00 08 dd    	sl.w      w1, w0, w0
    1bf8:	20 47 98    	mov.b     w0, [w14+2]
    self->io_write_val = command | value;
    1bfa:	be 40 90    	mov.b     [w14+3], w1
    1bfc:	2e 40 90    	mov.b     [w14+2], w0
    1bfe:	80 c0 70    	ior.b     w1, w0, w1
    1c00:	1e 00 78    	mov.w     [w14], w0
    1c02:	21 40 98    	mov.b     w1, [w0+2]
    __lcd_i2c_write(self, self->io_write_val);
    1c04:	1e 00 78    	mov.w     [w14], w0
    1c06:	20 40 90    	mov.b     [w0+2], w0
    1c08:	80 40 78    	mov.b     w0, w1
    1c0a:	1e 00 78    	mov.w     [w14], w0
    1c0c:	9f ff 07    	rcall     0x1b4c <___lcd_i2c_write> <.L0> <.LFB0> <.LFE10> <.Letext0> <.Ltext0>
    __lcd_enablePulse(self);
    1c0e:	1e 00 78    	mov.w     [w14], w0
    1c10:	ab ff 07    	rcall     0x1b68 <___lcd_enablePulse> <.LFB1> <.LFE0>
}
    1c12:	00 80 fa    	ulnk      
    1c14:	00 00 06    	return    

00001c16 <_init_lcd>:

/* Some code from last year's Spaceteam project that sets up three LCD screens on
 one bus with corresponding IO extender types and hard-wired addresses */
void init_lcd(uint8_t initiator) {
    1c16:	02 00 fa    	lnk       #0x2
    1c18:	00 4f 78    	mov.b     w0, [w14]

    i2c_init(1e3);
    1c1a:	80 3e 20    	mov.w     #0x3e8, w0
    1c1c:	1f 02 07    	rcall     0x205c <_i2c_init> <.LFB1> <.LFE0>

    switch (initiator) {
    1c1e:	1e 80 fb    	ze        [w14], w0
    1c20:	e1 0f 50    	sub.w     w0, #0x1, [w15]
    1c22:	17 00 32    	bra       Z, 0x1c52 <.L8>
    1c24:	e1 0f 50    	sub.w     w0, #0x1, [w15]
    1c26:	03 00 3c    	bra       GT, 0x1c2e <.L11>
    1c28:	00 00 e0    	cp0.w     w0
    1c2a:	06 00 32    	bra       Z, 0x1c38 <.L7>
    1c2c:	39 00 37    	bra       0x1ca0 <.L5>

00001c2e <.L11>:
    1c2e:	e2 0f 50    	sub.w     w0, #0x2, [w15]
    1c30:	1d 00 32    	bra       Z, 0x1c6c <.L9>
    1c32:	e3 0f 50    	sub.w     w0, #0x3, [w15]
    1c34:	28 00 32    	bra       Z, 0x1c86 <.L10>
    1c36:	34 00 37    	bra       0x1ca0 <.L5>

00001c38 <.L7>:
        case 0: // Central
            lcd_init(&lcd[0], 0x05,'A');
    1c38:	12 c4 b3    	mov.b     #0x41, w2
    1c3a:	51 c0 b3    	mov.b     #0x5, w1
    1c3c:	00 04 21    	mov.w     #0x1040, w0
    1c3e:	32 00 07    	rcall     0x1ca4 <_lcd_init> <.LFB5> <.LFE4>
            lcd_init(&lcd[1], 0x07,'A');
    1c40:	12 c4 b3    	mov.b     #0x41, w2
    1c42:	71 c0 b3    	mov.b     #0x7, w1
    1c44:	50 04 21    	mov.w     #0x1045, w0
    1c46:	2e 00 07    	rcall     0x1ca4 <_lcd_init> <.LFB5> <.LFE4>
            lcd_init(&lcd[2], 0x06,'T');
    1c48:	42 c5 b3    	mov.b     #0x54, w2
    1c4a:	61 c0 b3    	mov.b     #0x6, w1
    1c4c:	a0 04 21    	mov.w     #0x104a, w0
    1c4e:	2a 00 07    	rcall     0x1ca4 <_lcd_init> <.LFB5> <.LFE4>
            break;
    1c50:	27 00 37    	bra       0x1ca0 <.L5>

00001c52 <.L8>:
        case 1:
            lcd_init(&lcd[0], 0x07,'A');
    1c52:	12 c4 b3    	mov.b     #0x41, w2
    1c54:	71 c0 b3    	mov.b     #0x7, w1
    1c56:	00 04 21    	mov.w     #0x1040, w0
    1c58:	25 00 07    	rcall     0x1ca4 <_lcd_init> <.LFB5> <.LFE4>
            lcd_init(&lcd[2], 0x06,'A');
    1c5a:	12 c4 b3    	mov.b     #0x41, w2
    1c5c:	61 c0 b3    	mov.b     #0x6, w1
    1c5e:	a0 04 21    	mov.w     #0x104a, w0
    1c60:	21 00 07    	rcall     0x1ca4 <_lcd_init> <.LFB5> <.LFE4>
            lcd_init(&lcd[1], 0x05,'A');
    1c62:	12 c4 b3    	mov.b     #0x41, w2
    1c64:	51 c0 b3    	mov.b     #0x5, w1
    1c66:	50 04 21    	mov.w     #0x1045, w0
    1c68:	1d 00 07    	rcall     0x1ca4 <_lcd_init> <.LFB5> <.LFE4>
            break;
    1c6a:	1a 00 37    	bra       0x1ca0 <.L5>

00001c6c <.L9>:
        case 2:
            lcd_init(&lcd[0], 0x07,'T');
    1c6c:	42 c5 b3    	mov.b     #0x54, w2
    1c6e:	71 c0 b3    	mov.b     #0x7, w1
    1c70:	00 04 21    	mov.w     #0x1040, w0
    1c72:	18 00 07    	rcall     0x1ca4 <_lcd_init> <.LFB5> <.LFE4>
            lcd_init(&lcd[1], 0x06,'A');
    1c74:	12 c4 b3    	mov.b     #0x41, w2
    1c76:	61 c0 b3    	mov.b     #0x6, w1
    1c78:	50 04 21    	mov.w     #0x1045, w0
    1c7a:	14 00 07    	rcall     0x1ca4 <_lcd_init> <.LFB5> <.LFE4>
            lcd_init(&lcd[2], 0x05,'A');
    1c7c:	12 c4 b3    	mov.b     #0x41, w2
    1c7e:	51 c0 b3    	mov.b     #0x5, w1
    1c80:	a0 04 21    	mov.w     #0x104a, w0
    1c82:	10 00 07    	rcall     0x1ca4 <_lcd_init> <.LFB5> <.LFE4>
            break;
    1c84:	0d 00 37    	bra       0x1ca0 <.L5>

00001c86 <.L10>:
        case 3:
            lcd_init(&lcd[0], 0x07,'A');
    1c86:	12 c4 b3    	mov.b     #0x41, w2
    1c88:	71 c0 b3    	mov.b     #0x7, w1
    1c8a:	00 04 21    	mov.w     #0x1040, w0
    1c8c:	0b 00 07    	rcall     0x1ca4 <_lcd_init> <.LFB5> <.LFE4>
            lcd_init(&lcd[1], 0x06,'A');
    1c8e:	12 c4 b3    	mov.b     #0x41, w2
    1c90:	61 c0 b3    	mov.b     #0x6, w1
    1c92:	50 04 21    	mov.w     #0x1045, w0
    1c94:	07 00 07    	rcall     0x1ca4 <_lcd_init> <.LFB5> <.LFE4>
            lcd_init(&lcd[2], 0x05,'A');
    1c96:	12 c4 b3    	mov.b     #0x41, w2
    1c98:	51 c0 b3    	mov.b     #0x5, w1
    1c9a:	a0 04 21    	mov.w     #0x104a, w0
    1c9c:	03 00 07    	rcall     0x1ca4 <_lcd_init> <.LFB5> <.LFE4>
            break;
    1c9e:	00 00 00    	nop       

00001ca0 <.L5>:
    }
}
    1ca0:	00 80 fa    	ulnk      
    1ca2:	00 00 06    	return    

00001ca4 <_lcd_init>:

// Initializes the LCD screen hardware as per pg. 46 of the datasheet
void lcd_init(_LCD *self, uint8_t addr, char vendor) {
    1ca4:	04 00 fa    	lnk       #0x4
    1ca6:	00 0f 78    	mov.w     w0, [w14]
    1ca8:	21 47 98    	mov.b     w1, [w14+2]
    1caa:	32 47 98    	mov.b     w2, [w14+3]
    switch(vendor){
    1cac:	3e 40 90    	mov.b     [w14+3], w0
    1cae:	00 00 fb    	se        w0, w0
    1cb0:	11 04 20    	mov.w     #0x41, w1
    1cb2:	81 0f 50    	sub.w     w0, w1, [w15]
    1cb4:	10 00 32    	bra       Z, 0x1cd6 <.L14>
    1cb6:	41 05 20    	mov.w     #0x54, w1
    1cb8:	81 0f 50    	sub.w     w0, w1, [w15]
    1cba:	1a 00 3a    	bra       NZ, 0x1cf0 <.L13>
        case 'T':// 0x40 == vendor prefix for PCF8574T
            self->addr_write = 0x40 + (addr << 1);
    1cbc:	2e 40 90    	mov.b     [w14+2], w0
    1cbe:	00 40 40    	add.b     w0, w0, w0
    1cc0:	02 c4 b3    	mov.b     #0x40, w2
    1cc2:	82 40 40    	add.b     w0, w2, w1
    1cc4:	1e 00 78    	mov.w     [w14], w0
    1cc6:	01 48 78    	mov.b     w1, [w0]
            self->addr_read = 0x40 + (addr << 1)+1;
    1cc8:	2e 40 90    	mov.b     [w14+2], w0
    1cca:	00 40 40    	add.b     w0, w0, w0
    1ccc:	12 c4 b3    	mov.b     #0x41, w2
    1cce:	82 40 40    	add.b     w0, w2, w1
    1cd0:	1e 00 78    	mov.w     [w14], w0
    1cd2:	11 40 98    	mov.b     w1, [w0+1]
            break;
    1cd4:	0d 00 37    	bra       0x1cf0 <.L13>

00001cd6 <.L14>:
        case 'A':// 0x70 == vendor prefix PCF8574AT
            self->addr_write = 0x70 + (addr << 1);
    1cd6:	2e 40 90    	mov.b     [w14+2], w0
    1cd8:	00 40 40    	add.b     w0, w0, w0
    1cda:	02 c7 b3    	mov.b     #0x70, w2
    1cdc:	82 40 40    	add.b     w0, w2, w1
    1cde:	1e 00 78    	mov.w     [w14], w0
    1ce0:	01 48 78    	mov.b     w1, [w0]
            self->addr_read = 0x70 + (addr << 1)+1;
    1ce2:	2e 40 90    	mov.b     [w14+2], w0
    1ce4:	00 40 40    	add.b     w0, w0, w0
    1ce6:	12 c7 b3    	mov.b     #0x71, w2
    1ce8:	82 40 40    	add.b     w0, w2, w1
    1cea:	1e 00 78    	mov.w     [w14], w0
    1cec:	11 40 98    	mov.b     w1, [w0+1]
            break;
    1cee:	00 00 00    	nop       

00001cf0 <.L13>:
    }

    self->display_control = 0x00;
    1cf0:	1e 00 78    	mov.w     [w14], w0
    1cf2:	80 40 eb    	clr.b     w1
    1cf4:	31 40 98    	mov.b     w1, [w0+3]
    self->display_mode = 0x00;
    1cf6:	1e 00 78    	mov.w     [w14], w0
    1cf8:	80 40 eb    	clr.b     w1
    1cfa:	41 40 98    	mov.b     w1, [w0+4]

    self->io_write_val = 0x00;
    1cfc:	1e 00 78    	mov.w     [w14], w0
    1cfe:	80 40 eb    	clr.b     w1
    1d00:	21 40 98    	mov.b     w1, [w0+2]

    __lcd_i2c_write(self, 0x00);
    1d02:	80 40 eb    	clr.b     w1
    1d04:	1e 00 78    	mov.w     [w14], w0
    1d06:	22 ff 07    	rcall     0x1b4c <___lcd_i2c_write> <.L0> <.LFB0> <.LFE10> <.Letext0> <.Ltext0>

    delay_by_nop(15000);
    1d08:	80 a9 23    	mov.w     #0x3a98, w0
    1d0a:	01 00 20    	mov.w     #0x0, w1
    1d0c:	94 01 07    	rcall     0x2036 <_delay_by_nop> <.L0> <.LFB0> <.LFE16> <.Letext0> <.Ltext0>

    // Some bullshit according to pg 46
    __lcd_send8(self, 0x03, INTERNAL_WRITE);
    1d0e:	82 c0 b3    	mov.b     #0x8, w2
    1d10:	31 c0 b3    	mov.b     #0x3, w1
    1d12:	1e 00 78    	mov.w     [w14], w0
    1d14:	6a ff 07    	rcall     0x1bea <___lcd_send8> <.LFB3> <.LFE2>
    delay_by_nop(5000);
    1d16:	80 38 21    	mov.w     #0x1388, w0
    1d18:	01 00 20    	mov.w     #0x0, w1
    1d1a:	8d 01 07    	rcall     0x2036 <_delay_by_nop> <.L0> <.LFB0> <.LFE16> <.Letext0> <.Ltext0>

    __lcd_send8(self, 0x03, INTERNAL_WRITE);//0b00110000
    1d1c:	82 c0 b3    	mov.b     #0x8, w2
    1d1e:	31 c0 b3    	mov.b     #0x3, w1
    1d20:	1e 00 78    	mov.w     [w14], w0
    1d22:	63 ff 07    	rcall     0x1bea <___lcd_send8> <.LFB3> <.LFE2>
    delay_by_nop(5000);
    1d24:	80 38 21    	mov.w     #0x1388, w0
    1d26:	01 00 20    	mov.w     #0x0, w1
    1d28:	86 01 07    	rcall     0x2036 <_delay_by_nop> <.L0> <.LFB0> <.LFE16> <.Letext0> <.Ltext0>

    __lcd_send8(self, 0x03, INTERNAL_WRITE);//0b00110000
    1d2a:	82 c0 b3    	mov.b     #0x8, w2
    1d2c:	31 c0 b3    	mov.b     #0x3, w1
    1d2e:	1e 00 78    	mov.w     [w14], w0
    1d30:	5c ff 07    	rcall     0x1bea <___lcd_send8> <.LFB3> <.LFE2>
    delay_by_nop(5000);
    1d32:	80 38 21    	mov.w     #0x1388, w0
    1d34:	01 00 20    	mov.w     #0x0, w1
    1d36:	7f 01 07    	rcall     0x2036 <_delay_by_nop> <.L0> <.LFB0> <.LFE16> <.Letext0> <.Ltext0>

    // Put it in 4 bit mode
    __lcd_send8(self, 0x02, INTERNAL_WRITE);//0b00110000
    1d38:	82 c0 b3    	mov.b     #0x8, w2
    1d3a:	21 c0 b3    	mov.b     #0x2, w1
    1d3c:	1e 00 78    	mov.w     [w14], w0
    1d3e:	55 ff 07    	rcall     0x1bea <___lcd_send8> <.LFB3> <.LFE2>
    delay_by_nop(5000);
    1d40:	80 38 21    	mov.w     #0x1388, w0
    1d42:	01 00 20    	mov.w     #0x0, w1
    1d44:	78 01 07    	rcall     0x2036 <_delay_by_nop> <.L0> <.LFB0> <.LFE16> <.Letext0> <.Ltext0>

    __lcd_send(self, 0x28, INTERNAL_WRITE); // Set rows and direction
    1d46:	82 c0 b3    	mov.b     #0x8, w2
    1d48:	81 c2 b3    	mov.b     #0x28, w1
    1d4a:	1e 00 78    	mov.w     [w14], w0
    1d4c:	2a ff 07    	rcall     0x1ba2 <___lcd_send> <.LFB2> <.LFE1>
    delay_by_nop(50);
    1d4e:	20 03 20    	mov.w     #0x32, w0
    1d50:	01 00 20    	mov.w     #0x0, w1
    1d52:	71 01 07    	rcall     0x2036 <_delay_by_nop> <.L0> <.LFB0> <.LFE16> <.Letext0> <.Ltext0>

    __lcd_send(self, 0x80, INTERNAL_WRITE); // Display off, cursor off
    1d54:	82 c0 b3    	mov.b     #0x8, w2
    1d56:	01 c8 b3    	mov.b     #0x80, w1
    1d58:	1e 00 78    	mov.w     [w14], w0
    1d5a:	23 ff 07    	rcall     0x1ba2 <___lcd_send> <.LFB2> <.LFE1>
    delay_by_nop(50);
    1d5c:	20 03 20    	mov.w     #0x32, w0
    1d5e:	01 00 20    	mov.w     #0x0, w1
    1d60:	6a 01 07    	rcall     0x2036 <_delay_by_nop> <.L0> <.LFB0> <.LFE16> <.Letext0> <.Ltext0>

    __lcd_send(self, 0x01, INTERNAL_WRITE); // Go to home position
    1d62:	82 c0 b3    	mov.b     #0x8, w2
    1d64:	11 c0 b3    	mov.b     #0x1, w1
    1d66:	1e 00 78    	mov.w     [w14], w0
    1d68:	1c ff 07    	rcall     0x1ba2 <___lcd_send> <.LFB2> <.LFE1>
    delay_by_nop(2000);
    1d6a:	00 7d 20    	mov.w     #0x7d0, w0
    1d6c:	01 00 20    	mov.w     #0x0, w1
    1d6e:	63 01 07    	rcall     0x2036 <_delay_by_nop> <.L0> <.LFB0> <.LFE16> <.Letext0> <.Ltext0>

    __lcd_send(self, 0x06, INTERNAL_WRITE); // Set curson direction
    1d70:	82 c0 b3    	mov.b     #0x8, w2
    1d72:	61 c0 b3    	mov.b     #0x6, w1
    1d74:	1e 00 78    	mov.w     [w14], w0
    1d76:	15 ff 07    	rcall     0x1ba2 <___lcd_send> <.LFB2> <.LFE1>
    delay_by_nop(5000);
    1d78:	80 38 21    	mov.w     #0x1388, w0
    1d7a:	01 00 20    	mov.w     #0x0, w1
    1d7c:	5c 01 07    	rcall     0x2036 <_delay_by_nop> <.L0> <.LFB0> <.LFE16> <.Letext0> <.Ltext0>

    __lcd_send(self, 0x0C, INTERNAL_WRITE); // Display on, cursor off
    1d7e:	82 c0 b3    	mov.b     #0x8, w2
    1d80:	c1 c0 b3    	mov.b     #0xc, w1
    1d82:	1e 00 78    	mov.w     [w14], w0
    1d84:	0e ff 07    	rcall     0x1ba2 <___lcd_send> <.LFB2> <.LFE1>
}
    1d86:	00 80 fa    	ulnk      
    1d88:	00 00 06    	return    

00001d8a <_lcd_stop>:

// Stops lcd I2C transfer
void lcd_stop(_LCD *self) {
    1d8a:	02 00 fa    	lnk       #0x2
    1d8c:	00 0f 78    	mov.w     w0, [w14]
    reset_i2c_bus();
    1d8e:	a7 01 07    	rcall     0x20de <_reset_i2c_bus> <.LFB4> <.LFE3>
}
    1d90:	00 80 fa    	ulnk      
    1d92:	00 00 06    	return    

00001d94 <_lcd_display>:

// Sends show display command to LCD
void lcd_display(_LCD *self, uint8_t on) {
    1d94:	04 00 fa    	lnk       #0x4
    1d96:	00 0f 78    	mov.w     w0, [w14]
    1d98:	21 47 98    	mov.b     w1, [w14+2]
    if (on) {
    1d9a:	2e 40 90    	mov.b     [w14+2], w0
    1d9c:	00 04 e0    	cp0.b     w0
    1d9e:	07 00 32    	bra       Z, 0x1dae <.L18>
        self->display_control |= LCD_DISPLAYON;
    1da0:	1e 00 78    	mov.w     [w14], w0
    1da2:	30 40 90    	mov.b     [w0+3], w0
    1da4:	80 40 78    	mov.b     w0, w1
    1da6:	01 24 a0    	bset.b    w1, #0x2
    1da8:	1e 00 78    	mov.w     [w14], w0
    1daa:	31 40 98    	mov.b     w1, [w0+3]
    1dac:	06 00 37    	bra       0x1dba <.L19>

00001dae <.L18>:
    } else {
        self->display_control &= ~LCD_DISPLAYON;
    1dae:	1e 00 78    	mov.w     [w14], w0
    1db0:	b0 40 90    	mov.b     [w0+3], w1
    1db2:	b0 cf b3    	mov.b     #0xfb, w0
    1db4:	80 c0 60    	and.b     w1, w0, w1
    1db6:	1e 00 78    	mov.w     [w14], w0
    1db8:	31 40 98    	mov.b     w1, [w0+3]

00001dba <.L19>:
    }
    __lcd_send(self, self->display_control | LCD_DISPLAYCONTROL, INTERNAL_WRITE);
    1dba:	1e 00 78    	mov.w     [w14], w0
    1dbc:	30 40 90    	mov.b     [w0+3], w0
    1dbe:	00 34 a0    	bset.b    w0, #0x3
    1dc0:	82 c0 b3    	mov.b     #0x8, w2
    1dc2:	80 40 78    	mov.b     w0, w1
    1dc4:	1e 00 78    	mov.w     [w14], w0
    1dc6:	ed fe 07    	rcall     0x1ba2 <___lcd_send> <.LFB2> <.LFE1>
}
    1dc8:	00 80 fa    	ulnk      
    1dca:	00 00 06    	return    

00001dcc <_lcd_clear>:

// Sends clear display command to LCD
void lcd_clear(_LCD *self) {
    1dcc:	02 00 fa    	lnk       #0x2
    1dce:	00 0f 78    	mov.w     w0, [w14]
    __lcd_send(self, LCD_CLEARDISPLAY, INTERNAL_WRITE);
    1dd0:	82 c0 b3    	mov.b     #0x8, w2
    1dd2:	11 c0 b3    	mov.b     #0x1, w1
    1dd4:	1e 00 78    	mov.w     [w14], w0
    1dd6:	e5 fe 07    	rcall     0x1ba2 <___lcd_send> <.LFB2> <.LFE1>
    delay_by_nop(2000);
    1dd8:	00 7d 20    	mov.w     #0x7d0, w0
    1dda:	01 00 20    	mov.w     #0x0, w1
    1ddc:	2c 01 07    	rcall     0x2036 <_delay_by_nop> <.L0> <.LFB0> <.LFE16> <.Letext0> <.Ltext0>
}
    1dde:	00 80 fa    	ulnk      
    1de0:	00 00 06    	return    

00001de2 <_lcd_putc>:

// Sends single character to LCD display
void lcd_putc(_LCD *self, char c) {
    1de2:	04 00 fa    	lnk       #0x4
    1de4:	00 0f 78    	mov.w     w0, [w14]
    1de6:	21 47 98    	mov.b     w1, [w14+2]
    __lcd_send(self, c, DR_WRITE);
    1de8:	2e 40 90    	mov.b     [w14+2], w0
    1dea:	92 c0 b3    	mov.b     #0x9, w2
    1dec:	80 40 78    	mov.b     w0, w1
    1dee:	1e 00 78    	mov.w     [w14], w0
    1df0:	d8 fe 07    	rcall     0x1ba2 <___lcd_send> <.LFB2> <.LFE1>
    // delay_by_nop(1000);
}
    1df2:	00 80 fa    	ulnk      
    1df4:	00 00 06    	return    

00001df6 <_lcd_goto>:

// Sends commands to move LCD cursor to specified location
void lcd_goto(_LCD *self, uint8_t line, uint8_t col) { //x=col, y=row
    1df6:	06 00 fa    	lnk       #0x6
    1df8:	10 07 98    	mov.w     w0, [w14+2]
    1dfa:	41 47 98    	mov.b     w1, [w14+4]
    1dfc:	52 47 98    	mov.b     w2, [w14+5]
    uint8_t address;
    switch(line) {
    1dfe:	4e 40 90    	mov.b     [w14+4], w0
    1e00:	00 80 fb    	ze        w0, w0
    1e02:	e1 0f 50    	sub.w     w0, #0x1, [w15]
    1e04:	03 00 32    	bra       Z, 0x1e0c <.L24>
    1e06:	e2 0f 50    	sub.w     w0, #0x2, [w15]
    1e08:	04 00 32    	bra       Z, 0x1e12 <.L25>
    1e0a:	06 00 37    	bra       0x1e18 <.L27>

00001e0c <.L24>:
        case 1:
            address = 0x00;
    1e0c:	00 40 eb    	clr.b     w0
    1e0e:	00 4f 78    	mov.b     w0, [w14]
            break;
    1e10:	06 00 37    	bra       0x1e1e <.L26>

00001e12 <.L25>:
        case 2:
            address = 0x40;
    1e12:	00 c4 b3    	mov.b     #0x40, w0
    1e14:	00 4f 78    	mov.b     w0, [w14]
            break;
    1e16:	03 00 37    	bra       0x1e1e <.L26>

00001e18 <.L27>:
        default:
            address = 0x00;
    1e18:	00 40 eb    	clr.b     w0
    1e1a:	00 4f 78    	mov.b     w0, [w14]
            break;
    1e1c:	00 00 00    	nop       

00001e1e <.L26>:
    }

    address = address+col;
    1e1e:	5e 40 90    	mov.b     [w14+5], w0
    1e20:	1e 4f 40    	add.b     w0, [w14], [w14]
    __lcd_send(self, LCD_SETDDRAMADDR | address, INTERNAL_WRITE);
    1e22:	1e 40 78    	mov.b     [w14], w0
    1e24:	00 74 a0    	bset.b    w0, #0x7
    1e26:	82 c0 b3    	mov.b     #0x8, w2
    1e28:	80 40 78    	mov.b     w0, w1
    1e2a:	1e 00 90    	mov.w     [w14+2], w0
    1e2c:	ba fe 07    	rcall     0x1ba2 <___lcd_send> <.LFB2> <.LFE1>
}
    1e2e:	00 80 fa    	ulnk      
    1e30:	00 00 06    	return    

00001e32 <_lcd_cursor>:


void lcd_cursor(_LCD *self, uint8_t cur) {
    1e32:	04 00 fa    	lnk       #0x4
    1e34:	00 0f 78    	mov.w     w0, [w14]
    1e36:	21 47 98    	mov.b     w1, [w14+2]
    switch(cur) {
    1e38:	2e 40 90    	mov.b     [w14+2], w0
    1e3a:	00 80 fb    	ze        w0, w0
    1e3c:	00 00 e0    	cp0.w     w0
    1e3e:	03 00 32    	bra       Z, 0x1e46 <.L30>
    1e40:	e1 0f 50    	sub.w     w0, #0x1, [w15]
    1e42:	06 00 32    	bra       Z, 0x1e50 <.L31>
        case 0:
            __lcd_send(self, 0x0C, INTERNAL_WRITE);
            break;
        case 1:
            __lcd_send(self, 0x0E, INTERNAL_WRITE);
            break;
        default:
            break;
    1e44:	0a 00 37    	bra       0x1e5a <.L28>

00001e46 <.L30>:
    1e46:	82 c0 b3    	mov.b     #0x8, w2
    1e48:	c1 c0 b3    	mov.b     #0xc, w1
    1e4a:	1e 00 78    	mov.w     [w14], w0
    1e4c:	aa fe 07    	rcall     0x1ba2 <___lcd_send> <.LFB2> <.LFE1>
    1e4e:	05 00 37    	bra       0x1e5a <.L28>

00001e50 <.L31>:
    1e50:	82 c0 b3    	mov.b     #0x8, w2
    1e52:	e1 c0 b3    	mov.b     #0xe, w1
    1e54:	1e 00 78    	mov.w     [w14], w0
    1e56:	a5 fe 07    	rcall     0x1ba2 <___lcd_send> <.LFB2> <.LFE1>
    1e58:	00 00 00    	nop       

00001e5a <.L28>:
    }
}
    1e5a:	00 80 fa    	ulnk      
    1e5c:	00 00 06    	return    

00001e5e <_lcd_print1>:

void lcd_print1(_LCD *self, char *str) {
    1e5e:	04 00 fa    	lnk       #0x4
    1e60:	00 0f 78    	mov.w     w0, [w14]
    1e62:	11 07 98    	mov.w     w1, [w14+2]
    lcd_clear(self);
    1e64:	1e 00 78    	mov.w     [w14], w0
    1e66:	b2 ff 07    	rcall     0x1dcc <_lcd_clear> <.LFB8> <.LFE7>
    while (*str) {
    1e68:	08 00 37    	bra       0x1e7a <.L34>

00001e6a <.L35>:
        lcd_putc(self, *str);
    1e6a:	1e 00 90    	mov.w     [w14+2], w0
    1e6c:	10 40 78    	mov.b     [w0], w0
    1e6e:	80 40 78    	mov.b     w0, w1
    1e70:	1e 00 78    	mov.w     [w14], w0
    1e72:	b7 ff 07    	rcall     0x1de2 <_lcd_putc> <.LFB9> <.LFE8>
        str++;
    1e74:	1e 00 90    	mov.w     [w14+2], w0
    1e76:	00 00 e8    	inc.w     w0, w0
    1e78:	10 07 98    	mov.w     w0, [w14+2]

00001e7a <.L34>:
    1e7a:	1e 00 90    	mov.w     [w14+2], w0
    1e7c:	10 40 78    	mov.b     [w0], w0
    1e7e:	00 04 e0    	cp0.b     w0
    1e80:	f4 ff 3a    	bra       NZ, 0x1e6a <.L35>
    }
}
    1e82:	00 80 fa    	ulnk      
    1e84:	00 00 06    	return    

00001e86 <_lcd_print2>:

void lcd_print2(_LCD *self, char* line1, char* line2){
    1e86:	42 00 fa    	lnk       #0x42
    1e88:	60 1f 98    	mov.w     w0, [w14+60]
    1e8a:	71 1f 98    	mov.w     w1, [w14+62]
    1e8c:	02 27 98    	mov.w     w2, [w14+64]
    lcd_clear(self);
    1e8e:	6e 18 90    	mov.w     [w14+60], w0
    1e90:	9d ff 07    	rcall     0x1dcc <_lcd_clear> <.LFB8> <.LFE7>
    char str[56] ="                                                        ";
    1e92:	20 54 29    	mov.w     #0x9542, w0
    1e94:	e4 00 47    	add.w     w14, #0x4, w1
    1e96:	37 00 09    	repeat    #0x37
    1e98:	b0 58 78    	mov.b     [w0++], [w1++]
    1e9a:	80 03 b1    	sub.w     #0x38, w0
    int i =0;
    1e9c:	00 00 eb    	clr.w     w0
    1e9e:	00 0f 78    	mov.w     w0, [w14]
    while (*line1){
    1ea0:	09 00 37    	bra       0x1eb4 <.L37>

00001ea2 <.L38>:
        str[i]=*line1;
    1ea2:	7e 18 90    	mov.w     [w14+62], w0
    1ea4:	90 40 78    	mov.b     [w0], w1
    1ea6:	64 00 47    	add.w     w14, #0x4, w0
    1ea8:	1e 00 40    	add.w     w0, [w14], w0
    1eaa:	01 48 78    	mov.b     w1, [w0]
        i=i+1;
    1eac:	1e 0f e8    	inc.w     [w14], [w14]
        line1++;
    1eae:	7e 18 90    	mov.w     [w14+62], w0
    1eb0:	00 00 e8    	inc.w     w0, w0
    1eb2:	70 1f 98    	mov.w     w0, [w14+62]

00001eb4 <.L37>:
    1eb4:	7e 18 90    	mov.w     [w14+62], w0
    1eb6:	10 40 78    	mov.b     [w0], w0
    1eb8:	00 04 e0    	cp0.b     w0
    1eba:	f3 ff 3a    	bra       NZ, 0x1ea2 <.L38>
    }
    i =40;
    1ebc:	80 02 20    	mov.w     #0x28, w0
    1ebe:	00 0f 78    	mov.w     w0, [w14]
    while (*line2){
    1ec0:	09 00 37    	bra       0x1ed4 <.L39>

00001ec2 <.L40>:
        str[i]=*line2;
    1ec2:	0e 20 90    	mov.w     [w14+64], w0
    1ec4:	90 40 78    	mov.b     [w0], w1
    1ec6:	64 00 47    	add.w     w14, #0x4, w0
    1ec8:	1e 00 40    	add.w     w0, [w14], w0
    1eca:	01 48 78    	mov.b     w1, [w0]
        i=i+1;
    1ecc:	1e 0f e8    	inc.w     [w14], [w14]
        line2++;
    1ece:	0e 20 90    	mov.w     [w14+64], w0
    1ed0:	00 00 e8    	inc.w     w0, w0
    1ed2:	00 27 98    	mov.w     w0, [w14+64]

00001ed4 <.L39>:
    1ed4:	0e 20 90    	mov.w     [w14+64], w0
    1ed6:	10 40 78    	mov.b     [w0], w0
    1ed8:	00 04 e0    	cp0.b     w0
    1eda:	f3 ff 3a    	bra       NZ, 0x1ec2 <.L40>
    }
    char* strptr=str;
    1edc:	64 00 47    	add.w     w14, #0x4, w0
    1ede:	10 07 98    	mov.w     w0, [w14+2]
    lcd_print1(self,strptr);
    1ee0:	9e 00 90    	mov.w     [w14+2], w1
    1ee2:	6e 18 90    	mov.w     [w14+60], w0
    1ee4:	bc ff 07    	rcall     0x1e5e <_lcd_print1> <.LFB12> <.LFE11>
}
    1ee6:	00 80 fa    	ulnk      
    1ee8:	00 00 06    	return    

00001eea <_lcd_print>:

void lcd_print(_LCD *self, char* message) {
    1eea:	30 00 fa    	lnk       #0x30
    1eec:	60 17 98    	mov.w     w0, [w14+44]
    1eee:	71 17 98    	mov.w     w1, [w14+46]
    char newstr1[17] = "                ";
    1ef0:	b0 57 29    	mov.w     #0x957b, w0
    1ef2:	ea 00 47    	add.w     w14, #0xa, w1
    1ef4:	10 00 09    	repeat    #0x10
    1ef6:	b0 58 78    	mov.b     [w0++], [w1++]
    1ef8:	10 01 b1    	sub.w     #0x11, w0
    char* newstrptr1= newstr1;
    1efa:	6a 0f 47    	add.w     w14, #0xa, [w14]
    char newstr2[17] = "                ";
    1efc:	b0 57 29    	mov.w     #0x957b, w0
    1efe:	fb 00 47    	add.w     w14, #0x1b, w1
    1f00:	10 00 09    	repeat    #0x10
    1f02:	b0 58 78    	mov.b     [w0++], [w1++]
    1f04:	10 01 b1    	sub.w     #0x11, w0
    char* newstrptr2= newstr2;
    1f06:	7b 00 47    	add.w     w14, #0x1b, w0
    1f08:	10 07 98    	mov.w     w0, [w14+2]
    char* temp1 = newstrptr1;
    1f0a:	9e 00 78    	mov.w     [w14], w1
    1f0c:	31 07 98    	mov.w     w1, [w14+6]
    char* temp2 = newstrptr2;
    1f0e:	9e 00 90    	mov.w     [w14+2], w1
    1f10:	41 07 98    	mov.w     w1, [w14+8]
    uint8_t i=0;
    1f12:	00 40 eb    	clr.b     w0
    1f14:	40 47 98    	mov.b     w0, [w14+4]
    while (i <17){
    1f16:	0f 00 37    	bra       0x1f36 <.L42>

00001f18 <.L44>:
        if (*message){
    1f18:	7e 10 90    	mov.w     [w14+46], w0
    1f1a:	10 40 78    	mov.b     [w0], w0
    1f1c:	00 04 e0    	cp0.b     w0
    1f1e:	08 00 32    	bra       Z, 0x1f30 <.L43>
            *newstrptr1=*message;
    1f20:	7e 10 90    	mov.w     [w14+46], w0
    1f22:	90 40 78    	mov.b     [w0], w1
    1f24:	1e 00 78    	mov.w     [w14], w0
    1f26:	01 48 78    	mov.b     w1, [w0]
            message++;
    1f28:	7e 10 90    	mov.w     [w14+46], w0
    1f2a:	00 00 e8    	inc.w     w0, w0
    1f2c:	70 17 98    	mov.w     w0, [w14+46]
            newstrptr1++;
    1f2e:	1e 0f e8    	inc.w     [w14], [w14]

00001f30 <.L43>:
        }
        i++;
    1f30:	4e 40 90    	mov.b     [w14+4], w0
    1f32:	00 40 e8    	inc.b     w0, w0
    1f34:	40 47 98    	mov.b     w0, [w14+4]

00001f36 <.L42>:
    1f36:	4e 40 90    	mov.b     [w14+4], w0
    1f38:	f0 4f 50    	sub.b     w0, #0x10, [w15]
    1f3a:	ee ff 36    	bra       LEU, 0x1f18 <.L44>
    }
    i=0;
    1f3c:	00 40 eb    	clr.b     w0
    1f3e:	40 47 98    	mov.b     w0, [w14+4]
    message--; //SKETCHY!
    1f40:	7e 10 90    	mov.w     [w14+46], w0
    1f42:	00 00 e9    	dec.w     w0, w0
    1f44:	70 17 98    	mov.w     w0, [w14+46]
    while (i <17){
    1f46:	11 00 37    	bra       0x1f6a <.L45>

00001f48 <.L47>:
        if (*message){
    1f48:	7e 10 90    	mov.w     [w14+46], w0
    1f4a:	10 40 78    	mov.b     [w0], w0
    1f4c:	00 04 e0    	cp0.b     w0
    1f4e:	0a 00 32    	bra       Z, 0x1f64 <.L46>
            *newstrptr2=*message;
    1f50:	7e 10 90    	mov.w     [w14+46], w0
    1f52:	90 40 78    	mov.b     [w0], w1
    1f54:	1e 00 90    	mov.w     [w14+2], w0
    1f56:	01 48 78    	mov.b     w1, [w0]
            message++;
    1f58:	7e 10 90    	mov.w     [w14+46], w0
    1f5a:	00 00 e8    	inc.w     w0, w0
    1f5c:	70 17 98    	mov.w     w0, [w14+46]
            newstrptr2++;
    1f5e:	1e 00 90    	mov.w     [w14+2], w0
    1f60:	00 00 e8    	inc.w     w0, w0
    1f62:	10 07 98    	mov.w     w0, [w14+2]

00001f64 <.L46>:
        }
        i++;
    1f64:	4e 40 90    	mov.b     [w14+4], w0
    1f66:	00 40 e8    	inc.b     w0, w0
    1f68:	40 47 98    	mov.b     w0, [w14+4]

00001f6a <.L45>:
    1f6a:	4e 40 90    	mov.b     [w14+4], w0
    1f6c:	f0 4f 50    	sub.b     w0, #0x10, [w15]
    1f6e:	ec ff 36    	bra       LEU, 0x1f48 <.L47>
    }
    lcd_print2(self, temp1, temp2);
    1f70:	4e 01 90    	mov.w     [w14+8], w2
    1f72:	be 00 90    	mov.w     [w14+6], w1
    1f74:	6e 10 90    	mov.w     [w14+44], w0
    1f76:	87 ff 07    	rcall     0x1e86 <_lcd_print2> <.LFB13> <.LFE12>
}
    1f78:	00 80 fa    	ulnk      
    1f7a:	00 00 06    	return    

00001f7c <_lcd_broadcast>:

void lcd_broadcast(char* message) {
    1f7c:	04 00 fa    	lnk       #0x4
    1f7e:	10 07 98    	mov.w     w0, [w14+2]
    uint8_t i;
    for (i = 0; i < 3; i++)
    1f80:	00 40 eb    	clr.b     w0
    1f82:	00 4f 78    	mov.b     w0, [w14]
    1f84:	08 00 37    	bra       0x1f96 <.L49>

00001f86 <.L50>:
        lcd_print(&lcd[i], message);
    1f86:	1e 80 fb    	ze        [w14], w0
    1f88:	65 00 b9    	mul.su    w0, #0x5, w0
    1f8a:	80 00 78    	mov.w     w0, w1
    1f8c:	00 04 21    	mov.w     #0x1040, w0
    1f8e:	00 80 40    	add.w     w1, w0, w0
    1f90:	9e 00 90    	mov.w     [w14+2], w1
    1f92:	ab ff 07    	rcall     0x1eea <_lcd_print> <.LFB14> <.LFE13>
    1f94:	1e 4f e8    	inc.b     [w14], [w14]

00001f96 <.L49>:
    1f96:	1e 40 78    	mov.b     [w14], w0
    1f98:	e2 4f 50    	sub.b     w0, #0x2, [w15]
    1f9a:	f5 ff 36    	bra       LEU, 0x1f86 <.L50>
}
    1f9c:	00 80 fa    	ulnk      
    1f9e:	00 00 06    	return    

00001fa0 <_itoa>:

char * itoa (int value, char *result, int base) {
    1fa0:	0e 00 fa    	lnk       #0xe
    1fa2:	40 07 98    	mov.w     w0, [w14+8]
    1fa4:	51 07 98    	mov.w     w1, [w14+10]
    1fa6:	62 07 98    	mov.w     w2, [w14+12]
    // check that the base if valid
    if (base < 2 || base > 36) { *result = '\0'; return result; }
    1fa8:	6e 00 90    	mov.w     [w14+12], w0
    1faa:	e1 0f 50    	sub.w     w0, #0x1, [w15]
    1fac:	04 00 34    	bra       LE, 0x1fb6 <.L52>
    1fae:	ee 00 90    	mov.w     [w14+12], w1
    1fb0:	40 02 20    	mov.w     #0x24, w0
    1fb2:	80 8f 50    	sub.w     w1, w0, [w15]
    1fb4:	05 00 34    	bra       LE, 0x1fc0 <.L53>

00001fb6 <.L52>:
    1fb6:	5e 00 90    	mov.w     [w14+10], w0
    1fb8:	80 40 eb    	clr.b     w1
    1fba:	01 48 78    	mov.b     w1, [w0]
    1fbc:	5e 00 90    	mov.w     [w14+10], w0
    1fbe:	39 00 37    	bra       0x2032 <.L54>

00001fc0 <.L53>:

    char* ptr = result, *ptr1 = result, tmp_char;
    1fc0:	de 00 90    	mov.w     [w14+10], w1
    1fc2:	01 0f 78    	mov.w     w1, [w14]
    1fc4:	5e 01 90    	mov.w     [w14+10], w2
    1fc6:	12 07 98    	mov.w     w2, [w14+2]

00001fc8 <.L55>:
    int tmp_value;

    do {
        tmp_value = value;
    1fc8:	ce 00 90    	mov.w     [w14+8], w1
    1fca:	21 07 98    	mov.w     w1, [w14+4]
        value /= base;
    1fcc:	ce 00 90    	mov.w     [w14+8], w1
    1fce:	6e 00 90    	mov.w     [w14+12], w0
    1fd0:	00 01 78    	mov.w     w0, w2
    1fd2:	11 00 09    	repeat    #0x11
    1fd4:	82 00 d8    	div.sw    w1, w2
    1fd6:	40 07 98    	mov.w     w0, [w14+8]
        *ptr++ = "zyxwvutsrqponmlkjihgfedcba9876543210123456789abcdefghijklmnopqrstuvwxyz" [35 + (tmp_value - value * base)];
    1fd8:	ce 00 90    	mov.w     [w14+8], w1
    1fda:	6e 00 90    	mov.w     [w14+12], w0
    1fdc:	00 88 b9    	mul.ss    w1, w0, w0
    1fde:	00 00 78    	mov.w     w0, w0
    1fe0:	ae 00 90    	mov.w     [w14+4], w1
    1fe2:	00 80 50    	sub.w     w1, w0, w0
    1fe4:	30 02 b0    	add.w     #0x23, w0
    1fe6:	c1 58 29    	mov.w     #0x958c, w1
    1fe8:	e1 40 78    	mov.b     [w1+w0], w1
    1fea:	1e 00 78    	mov.w     [w14], w0
    1fec:	01 48 78    	mov.b     w1, [w0]
    1fee:	1e 0f e8    	inc.w     [w14], [w14]
    } while ( value );
    1ff0:	4e 00 90    	mov.w     [w14+8], w0
    1ff2:	00 00 e0    	cp0.w     w0
    1ff4:	e9 ff 3a    	bra       NZ, 0x1fc8 <.L55>

    // Apply negative sign
    if (tmp_value < 0) *ptr++ = '-';
    1ff6:	2e 00 90    	mov.w     [w14+4], w0
    1ff8:	00 00 e0    	cp0.w     w0
    1ffa:	04 00 3d    	bra       GE, 0x2004 <.L56>
    1ffc:	1e 00 78    	mov.w     [w14], w0
    1ffe:	d1 c2 b3    	mov.b     #0x2d, w1
    2000:	01 48 78    	mov.b     w1, [w0]
    2002:	1e 0f e8    	inc.w     [w14], [w14]

00002004 <.L56>:
    *ptr-- = '\0';
    2004:	1e 00 78    	mov.w     [w14], w0
    2006:	80 40 eb    	clr.b     w1
    2008:	01 48 78    	mov.b     w1, [w0]
    200a:	1e 0f e9    	dec.w     [w14], [w14]
    while (ptr1 < ptr) {
    200c:	0e 00 37    	bra       0x202a <.L57>

0000200e <.L58>:
        tmp_char = *ptr;
    200e:	1e 00 78    	mov.w     [w14], w0
    2010:	90 40 78    	mov.b     [w0], w1
    2012:	61 47 98    	mov.b     w1, [w14+6]
        *ptr--= *ptr1;
    2014:	1e 00 90    	mov.w     [w14+2], w0
    2016:	90 40 78    	mov.b     [w0], w1
    2018:	1e 00 78    	mov.w     [w14], w0
    201a:	01 48 78    	mov.b     w1, [w0]
    201c:	1e 0f e9    	dec.w     [w14], [w14]
        *ptr1++ = tmp_char;
    201e:	1e 00 90    	mov.w     [w14+2], w0
    2020:	6e 41 90    	mov.b     [w14+6], w2
    2022:	02 48 78    	mov.b     w2, [w0]
    2024:	1e 00 90    	mov.w     [w14+2], w0
    2026:	00 00 e8    	inc.w     w0, w0
    2028:	10 07 98    	mov.w     w0, [w14+2]

0000202a <.L57>:
    202a:	1e 00 90    	mov.w     [w14+2], w0
    202c:	9e 0f 50    	sub.w     w0, [w14], [w15]
    202e:	ef ff 39    	bra       NC, 0x200e <.L58>
    }
    return result;
    2030:	5e 00 90    	mov.w     [w14+10], w0

00002032 <.L54>:
}
    2032:	00 80 fa    	ulnk      
    2034:	00 00 06    	return    

00002036 <_delay_by_nop>:
// From https://web.archive.org/web/20161223060411/http://www.engscope.com/pic24-tutorial/10-2-i2c-basic-functions/

#include "i2c_reg.h"

void delay_by_nop(uint32_t num_nops){    // 1 nop= 375ns
    2036:	08 00 fa    	lnk       #0x8
    2038:	20 07 98    	mov.w     w0, [w14+4]
    203a:	31 07 98    	mov.w     w1, [w14+6]
    uint32_t count = 0;
    203c:	60 00 b8    	mul.uu    w0, #0x0, w0
    203e:	00 8f be    	mov.d     w0, [w14]
    while (count < num_nops){
    2040:	05 00 37    	bra       0x204c <.L2>

00002042 <.L3>:
        __asm__("nop");
    2042:	00 00 00    	nop       
        count +=1;
    2044:	12 00 20    	mov.w     #0x1, w2
    2046:	03 00 20    	mov.w     #0x0, w3
    2048:	1e 0f 41    	add.w     w2, [w14], [w14]
    204a:	5e 97 49    	addc.w    w3, [++w14], [w14--]

0000204c <.L2>:
    204c:	2e 00 90    	mov.w     [w14+4], w0
    204e:	be 00 90    	mov.w     [w14+6], w1
    2050:	1e 01 be    	mov.d     [w14], w2
    2052:	80 0f 51    	sub.w     w2, w0, [w15]
    2054:	81 8f 59    	subb.w    w3, w1, [w15]
    2056:	f5 ff 39    	bra       NC, 0x2042 <.L3>
    }
}
    2058:	00 80 fa    	ulnk      
    205a:	00 00 06    	return    

0000205c <_i2c_init>:

// initiates I2C3 module to baud rate BRG
void i2c_init(int BRG){      // I2CBRG = 157 for 16Mhz OSC with 100kHz I2C clock
    205c:	04 00 fa    	lnk       #0x4
    205e:	10 07 98    	mov.w     w0, [w14+2]
   int temp;
   I2C3BRG = BRG;           // Sets freq to 100kHz
    2060:	1e 00 90    	mov.w     [w14+2], w0
    2062:	a0 13 88    	mov.w     w0, 0x274
   I2C3CONbits.I2CEN = 0;	// Disable I2C Mode
    2064:	77 e2 a9    	bclr.b    0x277, #0x7
   I2C3CONbits.DISSLW = 1;	// Disable slew rate control
    2066:	77 22 a8    	bset.b    0x277, #0x1
   IFS5bits.MI2C3IF = 0;	 // Clear Interrupt
    2068:	8e a0 a9    	bclr.b    0x8e, #0x5
   I2C3CONbits.I2CEN = 1;	// Enable I2C Mode
    206a:	77 e2 a8    	bset.b    0x277, #0x7
   temp = I2C3RCV;	 // read buffer to clear buffer full
    206c:	80 13 80    	mov.w     0x270, w0
    206e:	00 0f 78    	mov.w     w0, [w14]
   reset_i2c_bus();	 // set bus to idle
    2070:	36 00 07    	rcall     0x20de <_reset_i2c_bus> <.LFB4> <.LFE3>
}
    2072:	00 80 fa    	ulnk      
    2074:	00 00 06    	return    

00002076 <_i2c_start>:

//function iniates a start condition on bus
void i2c_start(void){
    2076:	02 00 fa    	lnk       #0x2
   int x = 0;
    2078:	00 00 eb    	clr.w     w0
    207a:	00 0f 78    	mov.w     w0, [w14]
   I2C3CONbits.ACKDT = 0;	//Reset any previous Ack
    207c:	76 a2 a9    	bclr.b    0x276, #0x5
   delay_by_nop(10);
    207e:	a0 00 20    	mov.w     #0xa, w0
    2080:	01 00 20    	mov.w     #0x0, w1
    2082:	d9 ff 07    	rcall     0x2036 <_delay_by_nop> <.L0> <.LFB0> <.LFE16> <.Letext0> <.Ltext0>
   I2C3CONbits.SEN = 1;	//Initiate Start condition
    2084:	76 02 a8    	bset.b    0x276, #0x0
   __asm__("nop");
    2086:	00 00 00    	nop       

   while (I2C3CONbits.SEN){    //the hardware will automatically clear Start Bit
    2088:	07 00 37    	bra       0x2098 <.L6>

0000208a <.L8>:
      delay_by_nop(1);      //wait for automatic clear before proceding
    208a:	10 00 20    	mov.w     #0x1, w0
    208c:	01 00 20    	mov.w     #0x0, w1
    208e:	d3 ff 07    	rcall     0x2036 <_delay_by_nop> <.L0> <.LFB0> <.LFE16> <.Letext0> <.Ltext0>
      x++;
    2090:	1e 0f e8    	inc.w     [w14], [w14]
      if (x > 20)
    2092:	1e 00 78    	mov.w     [w14], w0
    2094:	f4 0f 50    	sub.w     w0, #0x14, [w15]
    2096:	05 00 3c    	bra       GT, 0x20a2 <.L9>

00002098 <.L6>:
    2098:	b0 13 80    	mov.w     0x276, w0
    209a:	61 00 60    	and.w     w0, #0x1, w0
    209c:	00 00 e0    	cp0.w     w0
    209e:	f5 ff 3a    	bra       NZ, 0x208a <.L8>
    20a0:	01 00 37    	bra       0x20a4 <.L7>

000020a2 <.L9>:
      break;
    20a2:	00 00 00    	nop       

000020a4 <.L7>:
   }
   delay_by_nop(2);
    20a4:	20 00 20    	mov.w     #0x2, w0
    20a6:	01 00 20    	mov.w     #0x0, w1
    20a8:	c6 ff 07    	rcall     0x2036 <_delay_by_nop> <.L0> <.LFB0> <.LFE16> <.Letext0> <.Ltext0>
}
    20aa:	00 80 fa    	ulnk      
    20ac:	00 00 06    	return    

000020ae <_i2c_restart>:

void i2c_restart(void){
    20ae:	02 00 fa    	lnk       #0x2
   int x = 0;
    20b0:	00 00 eb    	clr.w     w0
    20b2:	00 0f 78    	mov.w     w0, [w14]
   I2C3CONbits.RSEN = 1;	//Initiate restart condition
    20b4:	76 22 a8    	bset.b    0x276, #0x1
   __asm__("nop");
    20b6:	00 00 00    	nop       
   //the hardware will automatically clear restart bit
   //wait for automatic clear before proceding
   while (I2C3CONbits.RSEN){
    20b8:	07 00 37    	bra       0x20c8 <.L11>

000020ba <.L13>:
      delay_by_nop(1);
    20ba:	10 00 20    	mov.w     #0x1, w0
    20bc:	01 00 20    	mov.w     #0x0, w1
    20be:	bb ff 07    	rcall     0x2036 <_delay_by_nop> <.L0> <.LFB0> <.LFE16> <.Letext0> <.Ltext0>
      x++;
    20c0:	1e 0f e8    	inc.w     [w14], [w14]
      if (x > 20)	break;
    20c2:	1e 00 78    	mov.w     [w14], w0
    20c4:	f4 0f 50    	sub.w     w0, #0x14, [w15]
    20c6:	05 00 3c    	bra       GT, 0x20d2 <.L14>

000020c8 <.L11>:
    20c8:	b0 13 80    	mov.w     0x276, w0
    20ca:	62 00 60    	and.w     w0, #0x2, w0
    20cc:	00 00 e0    	cp0.w     w0
    20ce:	f5 ff 3a    	bra       NZ, 0x20ba <.L13>
    20d0:	01 00 37    	bra       0x20d4 <.L12>

000020d2 <.L14>:
    20d2:	00 00 00    	nop       

000020d4 <.L12>:
   }
   delay_by_nop(2);
    20d4:	20 00 20    	mov.w     #0x2, w0
    20d6:	01 00 20    	mov.w     #0x0, w1
    20d8:	ae ff 07    	rcall     0x2036 <_delay_by_nop> <.L0> <.LFB0> <.LFE16> <.Letext0> <.Ltext0>
}
    20da:	00 80 fa    	ulnk      
    20dc:	00 00 06    	return    

000020de <_reset_i2c_bus>:


//Resets the I2C bus to Idle
void reset_i2c_bus(void){
    20de:	02 00 fa    	lnk       #0x2
   int x = 0;
    20e0:	00 00 eb    	clr.w     w0
    20e2:	00 0f 78    	mov.w     w0, [w14]
   I2C3CONbits.PEN = 1;     //initiate stop bit
    20e4:	76 42 a8    	bset.b    0x276, #0x2
   while (I2C3CONbits.PEN) {     //wait for hardware clear of stop bit
    20e6:	07 00 37    	bra       0x20f6 <.L16>

000020e8 <.L18>:
      // delay_by_nop(1);
      delay_by_nop(1);
    20e8:	10 00 20    	mov.w     #0x1, w0
    20ea:	01 00 20    	mov.w     #0x0, w1
    20ec:	a4 ff 07    	rcall     0x2036 <_delay_by_nop> <.L0> <.LFB0> <.LFE16> <.Letext0> <.Ltext0>
      x ++;
    20ee:	1e 0f e8    	inc.w     [w14], [w14]
      if (x > 20) break;
    20f0:	1e 00 78    	mov.w     [w14], w0
    20f2:	f4 0f 50    	sub.w     w0, #0x14, [w15]
    20f4:	05 00 3c    	bra       GT, 0x2100 <.L19>

000020f6 <.L16>:
    20f6:	b0 13 80    	mov.w     0x276, w0
    20f8:	64 00 60    	and.w     w0, #0x4, w0
    20fa:	00 00 e0    	cp0.w     w0
    20fc:	f5 ff 3a    	bra       NZ, 0x20e8 <.L18>
    20fe:	01 00 37    	bra       0x2102 <.L17>

00002100 <.L19>:
    2100:	00 00 00    	nop       

00002102 <.L17>:
   }

   I2C3CONbits.RCEN = 0;
    2102:	76 62 a9    	bclr.b    0x276, #0x3
   IFS5bits.MI2C3IF = 0; // Clear Interrupt
    2104:	8e a0 a9    	bclr.b    0x8e, #0x5
   I2C3STATbits.IWCOL = 0;
    2106:	78 e2 a9    	bclr.b    0x278, #0x7
   I2C3STATbits.BCL = 0;
    2108:	79 42 a9    	bclr.b    0x279, #0x2
   // delay_by_nop(10);
   delay_by_nop(20);
    210a:	40 01 20    	mov.w     #0x14, w0
    210c:	01 00 20    	mov.w     #0x0, w1
    210e:	93 ff 07    	rcall     0x2036 <_delay_by_nop> <.L0> <.LFB0> <.LFE16> <.Letext0> <.Ltext0>
}
    2110:	00 80 fa    	ulnk      
    2112:	00 00 06    	return    

00002114 <_send_i2c_byte>:


//basic I2C byte send
char send_i2c_byte(int data){
    2114:	04 00 fa    	lnk       #0x4
    2116:	10 07 98    	mov.w     w0, [w14+2]
   int i;
   while (I2C3STATbits.TBF) { }
    2118:	00 00 00    	nop       

0000211a <.L21>:
    211a:	c0 13 80    	mov.w     0x278, w0
    211c:	61 00 60    	and.w     w0, #0x1, w0
    211e:	00 00 e0    	cp0.w     w0
    2120:	fc ff 3a    	bra       NZ, 0x211a <.L21>
   IFS5bits.MI2C3IF = 0; // Clear Interrupt
    2122:	8e a0 a9    	bclr.b    0x8e, #0x5
   I2C3TRN = data; // load the outgoing data byte
    2124:	1e 00 90    	mov.w     [w14+2], w0
    2126:	90 13 88    	mov.w     w0, 0x272

   for (i=0; i<500; i++){           // wait for transmission
    2128:	00 00 eb    	clr.w     w0
    212a:	00 0f 78    	mov.w     w0, [w14]
    212c:	09 00 37    	bra       0x2140 <.L22>

0000212e <.L25>:
      if (!I2C3STATbits.TRSTAT) break; // if master transmit not in progress break
    212e:	c1 13 80    	mov.w     0x278, w1
    2130:	00 00 24    	mov.w     #0x4000, w0
    2132:	00 80 60    	and.w     w1, w0, w0
    2134:	00 00 e0    	cp0.w     w0
    2136:	09 00 32    	bra       Z, 0x214a <.L29>
      delay_by_nop(1); }
    2138:	10 00 20    	mov.w     #0x1, w0
    213a:	01 00 20    	mov.w     #0x0, w1
    213c:	7c ff 07    	rcall     0x2036 <_delay_by_nop> <.L0> <.LFB0> <.LFE16> <.Letext0> <.Ltext0>
    213e:	1e 0f e8    	inc.w     [w14], [w14]

00002140 <.L22>:
    2140:	30 1f 20    	mov.w     #0x1f3, w0
    2142:	9e 00 78    	mov.w     [w14], w1
    2144:	80 8f 50    	sub.w     w1, w0, [w15]
    2146:	f3 ff 34    	bra       LE, 0x212e <.L25>
    2148:	01 00 37    	bra       0x214c <.L24>

0000214a <.L29>:
    214a:	00 00 00    	nop       

0000214c <.L24>:

    if (i == 500) {     // if i got to 500, then there was an issue`
    214c:	40 1f 20    	mov.w     #0x1f4, w0
    214e:	9e 00 78    	mov.w     [w14], w1
    2150:	80 8f 50    	sub.w     w1, w0, [w15]
    2152:	02 00 3a    	bra       NZ, 0x2158 <.L26>
        return(1); }    // return 1 to indicate failure
    2154:	10 c0 b3    	mov.b     #0x1, w0
    2156:	0c 00 37    	bra       0x2170 <.L27>

00002158 <.L26>:

   if (I2C3STATbits.ACKSTAT == 1){   // Check for NO_ACK from slave,
    2158:	c1 13 80    	mov.w     0x278, w1
    215a:	00 00 28    	mov.w     #0x8000, w0
    215c:	00 80 60    	and.w     w1, w0, w0
    215e:	00 00 e0    	cp0.w     w0
    2160:	03 00 32    	bra       Z, 0x2168 <.L28>
      reset_i2c_bus();
    2162:	bd ff 07    	rcall     0x20de <_reset_i2c_bus> <.LFB4> <.LFE3>
      return(1); }            // abort if not found
    2164:	10 c0 b3    	mov.b     #0x1, w0
    2166:	04 00 37    	bra       0x2170 <.L27>

00002168 <.L28>:

   delay_by_nop(2);
    2168:	20 00 20    	mov.w     #0x2, w0
    216a:	01 00 20    	mov.w     #0x0, w1
    216c:	64 ff 07    	rcall     0x2036 <_delay_by_nop> <.L0> <.LFB0> <.LFE16> <.Letext0> <.Ltext0>
   return(0);
    216e:	00 40 eb    	clr.b     w0

00002170 <.L27>:
}
    2170:	00 80 fa    	ulnk      
    2172:	00 00 06    	return    

00002174 <_i2c_read>:


//function reads data, returns the read data, no ack
// helper function
char i2c_read(void){
    2174:	04 00 fa    	lnk       #0x4
   int i = 0;
    2176:	00 00 eb    	clr.w     w0
    2178:	00 0f 78    	mov.w     w0, [w14]
   char data = 0;
    217a:	00 40 eb    	clr.b     w0
    217c:	20 47 98    	mov.b     w0, [w14+2]
   I2C3CONbits.RCEN = 1;            //set I2C module to receive
    217e:	76 62 a8    	bset.b    0x276, #0x3

   while (!I2C3STATbits.RBF) {           //if no response, break
    2180:	05 00 37    	bra       0x218c <.L31>

00002182 <.L33>:
      i ++;
    2182:	1e 0f e8    	inc.w     [w14], [w14]
      if (i > 2000) break;  }
    2184:	00 7d 20    	mov.w     #0x7d0, w0
    2186:	9e 00 78    	mov.w     [w14], w1
    2188:	80 8f 50    	sub.w     w1, w0, [w15]
    218a:	05 00 3c    	bra       GT, 0x2196 <.L34>

0000218c <.L31>:
    218c:	c0 13 80    	mov.w     0x278, w0
    218e:	62 00 60    	and.w     w0, #0x2, w0
    2190:	00 00 e0    	cp0.w     w0
    2192:	f7 ff 32    	bra       Z, 0x2182 <.L33>
    2194:	01 00 37    	bra       0x2198 <.L32>

00002196 <.L34>:
    2196:	00 00 00    	nop       

00002198 <.L32>:

   data = I2C3RCV;       //get data from I2C3RCV register
    2198:	80 13 80    	mov.w     0x270, w0
    219a:	20 47 98    	mov.b     w0, [w14+2]
   return data;
    219c:	2e 40 90    	mov.b     [w14+2], w0
}
    219e:	00 80 fa    	ulnk      
    21a0:	00 00 06    	return    

000021a2 <_i2c_read_ack>:


//function reads data, returns the read data, with ack
char i2c_read_ack(void){	//does not reset bus!!!
    21a2:	04 00 fa    	lnk       #0x4
   int i = 0;
    21a4:	00 00 eb    	clr.w     w0
    21a6:	00 0f 78    	mov.w     w0, [w14]
   char data = 0;
    21a8:	00 40 eb    	clr.b     w0
    21aa:	20 47 98    	mov.b     w0, [w14+2]
   I2C3CONbits.RCEN = 1;            //set I2C module to receive
    21ac:	76 62 a8    	bset.b    0x276, #0x3

   while (!I2C3STATbits.RBF) {       //if no response, break
    21ae:	05 00 37    	bra       0x21ba <.L36>

000021b0 <.L38>:
      i++;
    21b0:	1e 0f e8    	inc.w     [w14], [w14]
      if (i > 2000) break;}
    21b2:	00 7d 20    	mov.w     #0x7d0, w0
    21b4:	9e 00 78    	mov.w     [w14], w1
    21b6:	80 8f 50    	sub.w     w1, w0, [w15]
    21b8:	05 00 3c    	bra       GT, 0x21c4 <.L39>

000021ba <.L36>:
    21ba:	c0 13 80    	mov.w     0x278, w0
    21bc:	62 00 60    	and.w     w0, #0x2, w0
    21be:	00 00 e0    	cp0.w     w0
    21c0:	f7 ff 32    	bra       Z, 0x21b0 <.L38>
    21c2:	01 00 37    	bra       0x21c6 <.L37>

000021c4 <.L39>:
    21c4:	00 00 00    	nop       

000021c6 <.L37>:

   data = I2C3RCV;               //get data from I2C3RCV register
    21c6:	80 13 80    	mov.w     0x270, w0
    21c8:	20 47 98    	mov.b     w0, [w14+2]
   I2C3CONbits.ACKEN = 1;        //start ACK generation
    21ca:	76 82 a8    	bset.b    0x276, #0x4
   delay_by_nop(10);             //wait before exiting
    21cc:	a0 00 20    	mov.w     #0xa, w0
    21ce:	01 00 20    	mov.w     #0x0, w1
    21d0:	32 ff 07    	rcall     0x2036 <_delay_by_nop> <.L0> <.LFB0> <.LFE16> <.Letext0> <.Ltext0>
   return data;
    21d2:	2e 40 90    	mov.b     [w14+2], w0
}
    21d4:	00 80 fa    	ulnk      
    21d6:	00 00 06    	return    

000021d8 <_i2c_read_nack>:

char i2c_read_nack(void){	//does not reset bus!!!
    21d8:	04 00 fa    	lnk       #0x4
   int i = 0;
    21da:	00 00 eb    	clr.w     w0
    21dc:	00 0f 78    	mov.w     w0, [w14]
   char data = 0;
    21de:	00 40 eb    	clr.b     w0
    21e0:	20 47 98    	mov.b     w0, [w14+2]
   I2C3CONbits.RCEN = 1;            //set I2C module to receive
    21e2:	76 62 a8    	bset.b    0x276, #0x3

   while (!I2C3STATbits.RBF) {       //if no response, break
    21e4:	05 00 37    	bra       0x21f0 <.L41>

000021e6 <.L43>:
      i++;
    21e6:	1e 0f e8    	inc.w     [w14], [w14]
      if (i > 2000) break;}
    21e8:	00 7d 20    	mov.w     #0x7d0, w0
    21ea:	9e 00 78    	mov.w     [w14], w1
    21ec:	80 8f 50    	sub.w     w1, w0, [w15]
    21ee:	05 00 3c    	bra       GT, 0x21fa <.L44>

000021f0 <.L41>:
    21f0:	c0 13 80    	mov.w     0x278, w0
    21f2:	62 00 60    	and.w     w0, #0x2, w0
    21f4:	00 00 e0    	cp0.w     w0
    21f6:	f7 ff 32    	bra       Z, 0x21e6 <.L43>
    21f8:	01 00 37    	bra       0x21fc <.L42>

000021fa <.L44>:
    21fa:	00 00 00    	nop       

000021fc <.L42>:

   data = I2C3RCV;               //get data from I2C3RCV register
    21fc:	80 13 80    	mov.w     0x270, w0
    21fe:	20 47 98    	mov.b     w0, [w14+2]
   I2C3CONbits.ACKDT = 1;        // set mastrer to nack instead of ack
    2200:	76 a2 a8    	bset.b    0x276, #0x5
   I2C3CONbits.ACKEN = 1;        //start ack generation
    2202:	76 82 a8    	bset.b    0x276, #0x4
   delay_by_nop(10);             //wait before exiting
    2204:	a0 00 20    	mov.w     #0xa, w0
    2206:	01 00 20    	mov.w     #0x0, w1
    2208:	16 ff 07    	rcall     0x2036 <_delay_by_nop> <.L0> <.LFB0> <.LFE16> <.Letext0> <.Ltext0>
   return data;
    220a:	2e 40 90    	mov.b     [w14+2], w0
}
    220c:	00 80 fa    	ulnk      
    220e:	00 00 06    	return    

00002210 <_I2Cwrite>:

// function puts together I2C protocol for random write
void I2Cwrite(char addr, char subaddr, char value){
    2210:	04 00 fa    	lnk       #0x4
    2212:	00 4f 78    	mov.b     w0, [w14]
    2214:	11 47 98    	mov.b     w1, [w14+1]
    2216:	22 47 98    	mov.b     w2, [w14+2]
   i2c_start();
    2218:	2e ff 07    	rcall     0x2076 <_i2c_start> <.LFB2> <.LFE1>
   send_i2c_byte(addr & 0xfffe); // set /W bit, turns least sig, bit to 0
    221a:	1e 00 fb    	se        [w14], w0
    221c:	80 00 78    	mov.w     w0, w1
    221e:	e0 ff 2f    	mov.w     #0xfffe, w0
    2220:	00 80 60    	and.w     w1, w0, w0
    2222:	78 ff 07    	rcall     0x2114 <_send_i2c_byte> <.LFB5> <.LFE4>
   send_i2c_byte(subaddr);
    2224:	1e 40 90    	mov.b     [w14+1], w0
    2226:	00 00 fb    	se        w0, w0
    2228:	75 ff 07    	rcall     0x2114 <_send_i2c_byte> <.LFB5> <.LFE4>
   send_i2c_byte(value);
    222a:	2e 40 90    	mov.b     [w14+2], w0
    222c:	00 00 fb    	se        w0, w0
    222e:	72 ff 07    	rcall     0x2114 <_send_i2c_byte> <.LFB5> <.LFE4>
   reset_i2c_bus();
    2230:	56 ff 07    	rcall     0x20de <_reset_i2c_bus> <.LFB4> <.LFE3>
}
    2232:	00 80 fa    	ulnk      
    2234:	00 00 06    	return    

00002236 <_I2Cread>:

// function puts together I2C protocol for random read
char I2Cread(char addr, char subaddr){
    2236:	04 00 fa    	lnk       #0x4
    2238:	20 47 98    	mov.b     w0, [w14+2]
    223a:	31 47 98    	mov.b     w1, [w14+3]
   char temp;
   i2c_start();
    223c:	1c ff 07    	rcall     0x2076 <_i2c_start> <.LFB2> <.LFE1>
   send_i2c_byte(addr);
    223e:	2e 40 90    	mov.b     [w14+2], w0
    2240:	00 00 fb    	se        w0, w0
    2242:	68 ff 07    	rcall     0x2114 <_send_i2c_byte> <.LFB5> <.LFE4>
   send_i2c_byte(subaddr);
    2244:	3e 40 90    	mov.b     [w14+3], w0
    2246:	00 00 fb    	se        w0, w0
    2248:	65 ff 07    	rcall     0x2114 <_send_i2c_byte> <.LFB5> <.LFE4>
   delay_by_nop(10);
    224a:	a0 00 20    	mov.w     #0xa, w0
    224c:	01 00 20    	mov.w     #0x0, w1
    224e:	f3 fe 07    	rcall     0x2036 <_delay_by_nop> <.L0> <.LFB0> <.LFE16> <.Letext0> <.Ltext0>
   i2c_restart();
    2250:	2e ff 07    	rcall     0x20ae <_i2c_restart> <.LFB3> <.LFE2>

   send_i2c_byte(addr | 0x01); // set R bit, turn least sig. bit to 1
    2252:	2e 40 90    	mov.b     [w14+2], w0
    2254:	00 04 a0    	bset.b    w0, #0x0
    2256:	00 00 fb    	se        w0, w0
    2258:	5d ff 07    	rcall     0x2114 <_send_i2c_byte> <.LFB5> <.LFE4>
   temp = i2c_read();
    225a:	8c ff 07    	rcall     0x2174 <_i2c_read> <.LFB6> <.LFE5>
    225c:	00 4f 78    	mov.b     w0, [w14]

   reset_i2c_bus();
    225e:	3f ff 07    	rcall     0x20de <_reset_i2c_bus> <.LFB4> <.LFE3>
   return temp;
    2260:	1e 40 78    	mov.b     [w14], w0
}
    2262:	00 80 fa    	ulnk      
    2264:	00 00 06    	return    

00002266 <_I2Cpoll>:

// function checks if device at addr is on bus
// 1 means it is there, 0 means it is not there
unsigned char I2Cpoll(char addr){
    2266:	04 00 fa    	lnk       #0x4
    2268:	20 47 98    	mov.b     w0, [w14+2]
    unsigned char temp = 0;
    226a:	00 40 eb    	clr.b     w0
    226c:	00 4f 78    	mov.b     w0, [w14]
    i2c_start();
    226e:	03 ff 07    	rcall     0x2076 <_i2c_start> <.LFB2> <.LFE1>
    temp = send_i2c_byte((addr) & (0xfffe)); // set /W bit
    2270:	2e 40 90    	mov.b     [w14+2], w0
    2272:	00 00 fb    	se        w0, w0
    2274:	80 00 78    	mov.w     w0, w1
    2276:	e0 ff 2f    	mov.w     #0xfffe, w0
    2278:	00 80 60    	and.w     w1, w0, w0
    227a:	4c ff 07    	rcall     0x2114 <_send_i2c_byte> <.LFB5> <.LFE4>
    227c:	00 4f 78    	mov.b     w0, [w14]
    reset_i2c_bus();
    227e:	2f ff 07    	rcall     0x20de <_reset_i2c_bus> <.LFB4> <.LFE3>
    if (temp == 0) {
    2280:	1e 40 78    	mov.b     [w14], w0
    2282:	00 04 e0    	cp0.b     w0
    2284:	02 00 3a    	bra       NZ, 0x228a <.L48>
        return 1; // We found it, no error
    2286:	10 c0 b3    	mov.b     #0x1, w0
    2288:	01 00 37    	bra       0x228c <.L49>

0000228a <.L48>:
    } else return 0;
    228a:	00 40 eb    	clr.b     w0

0000228c <.L49>:
}
    228c:	00 80 fa    	ulnk      
    228e:	00 00 06    	return    

00002290 <_I2Cwritearray>:

// function writes a byte array over i2c
unsigned char I2Cwritearray(char addr, char dat[], uint8_t len) {
    2290:	08 00 fa    	lnk       #0x8
    2292:	20 47 98    	mov.b     w0, [w14+2]
    2294:	21 07 98    	mov.w     w1, [w14+4]
    2296:	62 47 98    	mov.b     w2, [w14+6]
  unsigned char err = 0;
    2298:	00 40 eb    	clr.b     w0
    229a:	00 4f 78    	mov.b     w0, [w14]
  i2c_start();
    229c:	ec fe 07    	rcall     0x2076 <_i2c_start> <.LFB2> <.LFE1>
  err = send_i2c_byte(addr & (0xfffe)); // takes 7 bit address and adds /W bit
    229e:	2e 40 90    	mov.b     [w14+2], w0
    22a0:	00 00 fb    	se        w0, w0
    22a2:	80 00 78    	mov.w     w0, w1
    22a4:	e0 ff 2f    	mov.w     #0xfffe, w0
    22a6:	00 80 60    	and.w     w1, w0, w0
    22a8:	35 ff 07    	rcall     0x2114 <_send_i2c_byte> <.LFB5> <.LFE4>
    22aa:	00 4f 78    	mov.b     w0, [w14]
  uint8_t j;
  for (j = 0; j < len; j++) { // keep sending data bytes til we're done unless it misses an ack
    22ac:	00 40 eb    	clr.b     w0
    22ae:	10 47 98    	mov.b     w0, [w14+1]
    22b0:	0d 00 37    	bra       0x22cc <.L51>

000022b2 <.L52>:
    err |= send_i2c_byte(dat[j]);
    22b2:	1e 40 90    	mov.b     [w14+1], w0
    22b4:	00 80 fb    	ze        w0, w0
    22b6:	ae 00 90    	mov.w     [w14+4], w1
    22b8:	00 80 40    	add.w     w1, w0, w0
    22ba:	10 40 78    	mov.b     [w0], w0
    22bc:	00 00 fb    	se        w0, w0
    22be:	2a ff 07    	rcall     0x2114 <_send_i2c_byte> <.LFB5> <.LFE4>
    22c0:	9e 40 78    	mov.b     [w14], w1
    22c2:	01 40 70    	ior.b     w0, w1, w0
    22c4:	00 4f 78    	mov.b     w0, [w14]
    22c6:	1e 40 90    	mov.b     [w14+1], w0
    22c8:	00 40 e8    	inc.b     w0, w0
    22ca:	10 47 98    	mov.b     w0, [w14+1]

000022cc <.L51>:
    22cc:	9e 40 90    	mov.b     [w14+1], w1
    22ce:	6e 40 90    	mov.b     [w14+6], w0
    22d0:	80 cf 50    	sub.b     w1, w0, [w15]
    22d2:	ef ff 39    	bra       NC, 0x22b2 <.L52>
  }
  reset_i2c_bus();
    22d4:	04 ff 07    	rcall     0x20de <_reset_i2c_bus> <.LFB4> <.LFE3>
  return err;
    22d6:	1e 40 78    	mov.b     [w14], w0
}
    22d8:	00 80 fa    	ulnk      
    22da:	00 00 06    	return    

000022dc <_i2c2_init>:

////////////////////////////////////////////////////////////////////////////////
// I2C2 ////////////////////////////////////////////////////////////////////////
////////////////////////////////////////////////////////////////////////////////

// initiates I2C3 module to baud rate BRG
void i2c2_init(int BRG){      // I2CBRG = 157 for 16Mhz OSC with 100kHz I2C clock
    22dc:	04 00 fa    	lnk       #0x4
    22de:	10 07 98    	mov.w     w0, [w14+2]
   int temp;
   I2C2BRG = BRG;           // Sets freq to 100kHz
    22e0:	1e 00 90    	mov.w     [w14+2], w0
    22e2:	a0 10 88    	mov.w     w0, 0x214
   I2C2CONbits.I2CEN = 0;	// Disable I2C Mode
    22e4:	17 e2 a9    	bclr.b    0x217, #0x7
   I2C2CONbits.DISSLW = 1;	// Disable slew rate control
    22e6:	17 22 a8    	bset.b    0x217, #0x1
   IFS3bits.MI2C2IF = 0;	 // Clear Interrupt
    22e8:	8a 40 a9    	bclr.b    0x8a, #0x2
   I2C2CONbits.I2CEN = 1;	// Enable I2C Mode
    22ea:	17 e2 a8    	bset.b    0x217, #0x7
   temp = I2C2RCV;	 // read buffer to clear buffer full
    22ec:	80 10 80    	mov.w     0x210, w0
    22ee:	00 0f 78    	mov.w     w0, [w14]
   reset_i2c_bus();	 // set bus to idle
    22f0:	f6 fe 07    	rcall     0x20de <_reset_i2c_bus> <.LFB4> <.LFE3>
}
    22f2:	00 80 fa    	ulnk      
    22f4:	00 00 06    	return    

000022f6 <_i2c2_start>:

//function iniates a start condition on bus
void i2c2_start(void){
    22f6:	02 00 fa    	lnk       #0x2
   int x = 0;
    22f8:	00 00 eb    	clr.w     w0
    22fa:	00 0f 78    	mov.w     w0, [w14]
   I2C2CONbits.ACKDT = 0;	//Reset any previous Ack
    22fc:	16 a2 a9    	bclr.b    0x216, #0x5
   delay_by_nop(10);
    22fe:	a0 00 20    	mov.w     #0xa, w0
    2300:	01 00 20    	mov.w     #0x0, w1
    2302:	99 fe 07    	rcall     0x2036 <_delay_by_nop> <.L0> <.LFB0> <.LFE16> <.Letext0> <.Ltext0>
   I2C2CONbits.SEN = 1;	//Initiate Start condition
    2304:	16 02 a8    	bset.b    0x216, #0x0
   __asm__("nop");
    2306:	00 00 00    	nop       

   while (I2C2CONbits.SEN){    //the hardware will automatically clear Start Bit
    2308:	07 00 37    	bra       0x2318 <.L55>

0000230a <.L57>:
      delay_by_nop(1);      //wait for automatic clear before proceding
    230a:	10 00 20    	mov.w     #0x1, w0
    230c:	01 00 20    	mov.w     #0x0, w1
    230e:	93 fe 07    	rcall     0x2036 <_delay_by_nop> <.L0> <.LFB0> <.LFE16> <.Letext0> <.Ltext0>
      x++;
    2310:	1e 0f e8    	inc.w     [w14], [w14]
      if (x > 20)
    2312:	1e 00 78    	mov.w     [w14], w0
    2314:	f4 0f 50    	sub.w     w0, #0x14, [w15]
    2316:	05 00 3c    	bra       GT, 0x2322 <.L58>

00002318 <.L55>:
    2318:	b0 10 80    	mov.w     0x216, w0
    231a:	61 00 60    	and.w     w0, #0x1, w0
    231c:	00 00 e0    	cp0.w     w0
    231e:	f5 ff 3a    	bra       NZ, 0x230a <.L57>
    2320:	01 00 37    	bra       0x2324 <.L56>

00002322 <.L58>:
      break;
    2322:	00 00 00    	nop       

00002324 <.L56>:
   }
   delay_by_nop(2);
    2324:	20 00 20    	mov.w     #0x2, w0
    2326:	01 00 20    	mov.w     #0x0, w1
    2328:	86 fe 07    	rcall     0x2036 <_delay_by_nop> <.L0> <.LFB0> <.LFE16> <.Letext0> <.Ltext0>
}
    232a:	00 80 fa    	ulnk      
    232c:	00 00 06    	return    

0000232e <_i2c2_restart>:

void i2c2_restart(void){
    232e:	02 00 fa    	lnk       #0x2
   int x = 0;
    2330:	00 00 eb    	clr.w     w0
    2332:	00 0f 78    	mov.w     w0, [w14]
   I2C2CONbits.RSEN = 1;	//Initiate restart condition
    2334:	16 22 a8    	bset.b    0x216, #0x1
   __asm__("nop");
    2336:	00 00 00    	nop       
   //the hardware will automatically clear restart bit
   //wait for automatic clear before proceding
   while (I2C2CONbits.RSEN){
    2338:	07 00 37    	bra       0x2348 <.L60>

0000233a <.L62>:
      delay_by_nop(1);
    233a:	10 00 20    	mov.w     #0x1, w0
    233c:	01 00 20    	mov.w     #0x0, w1
    233e:	7b fe 07    	rcall     0x2036 <_delay_by_nop> <.L0> <.LFB0> <.LFE16> <.Letext0> <.Ltext0>
      x++;
    2340:	1e 0f e8    	inc.w     [w14], [w14]
      if (x > 20)	break;
    2342:	1e 00 78    	mov.w     [w14], w0
    2344:	f4 0f 50    	sub.w     w0, #0x14, [w15]
    2346:	05 00 3c    	bra       GT, 0x2352 <.L63>

00002348 <.L60>:
    2348:	b0 10 80    	mov.w     0x216, w0
    234a:	62 00 60    	and.w     w0, #0x2, w0
    234c:	00 00 e0    	cp0.w     w0
    234e:	f5 ff 3a    	bra       NZ, 0x233a <.L62>
    2350:	01 00 37    	bra       0x2354 <.L61>

00002352 <.L63>:
    2352:	00 00 00    	nop       

00002354 <.L61>:
   }
   delay_by_nop(2);
    2354:	20 00 20    	mov.w     #0x2, w0
    2356:	01 00 20    	mov.w     #0x0, w1
    2358:	6e fe 07    	rcall     0x2036 <_delay_by_nop> <.L0> <.LFB0> <.LFE16> <.Letext0> <.Ltext0>
}
    235a:	00 80 fa    	ulnk      
    235c:	00 00 06    	return    

0000235e <_reset_i2c2_bus>:


//Resets the I2C bus to Idle
void reset_i2c2_bus(void){
    235e:	02 00 fa    	lnk       #0x2
   int x = 0;
    2360:	00 00 eb    	clr.w     w0
    2362:	00 0f 78    	mov.w     w0, [w14]
   I2C2CONbits.PEN = 1;     //initiate stop bit
    2364:	16 42 a8    	bset.b    0x216, #0x2
   while (I2C2CONbits.PEN) {     //wait for hardware clear of stop bit
    2366:	07 00 37    	bra       0x2376 <.L65>

00002368 <.L67>:
      // delay_by_nop(1);
      delay_by_nop(1);
    2368:	10 00 20    	mov.w     #0x1, w0
    236a:	01 00 20    	mov.w     #0x0, w1
    236c:	64 fe 07    	rcall     0x2036 <_delay_by_nop> <.L0> <.LFB0> <.LFE16> <.Letext0> <.Ltext0>
      x ++;
    236e:	1e 0f e8    	inc.w     [w14], [w14]
      if (x > 20) break;
    2370:	1e 00 78    	mov.w     [w14], w0
    2372:	f4 0f 50    	sub.w     w0, #0x14, [w15]
    2374:	05 00 3c    	bra       GT, 0x2380 <.L68>

00002376 <.L65>:
    2376:	b0 10 80    	mov.w     0x216, w0
    2378:	64 00 60    	and.w     w0, #0x4, w0
    237a:	00 00 e0    	cp0.w     w0
    237c:	f5 ff 3a    	bra       NZ, 0x2368 <.L67>
    237e:	01 00 37    	bra       0x2382 <.L66>

00002380 <.L68>:
    2380:	00 00 00    	nop       

00002382 <.L66>:
   }

   I2C2CONbits.RCEN = 0;
    2382:	16 62 a9    	bclr.b    0x216, #0x3
   IFS3bits.MI2C2IF = 0; // Clear Interrupt
    2384:	8a 40 a9    	bclr.b    0x8a, #0x2
   I2C2STATbits.IWCOL = 0;
    2386:	18 e2 a9    	bclr.b    0x218, #0x7
   I2C2STATbits.BCL = 0;
    2388:	19 42 a9    	bclr.b    0x219, #0x2
   // delay_by_nop(10);
   delay_by_nop(20);
    238a:	40 01 20    	mov.w     #0x14, w0
    238c:	01 00 20    	mov.w     #0x0, w1
    238e:	53 fe 07    	rcall     0x2036 <_delay_by_nop> <.L0> <.LFB0> <.LFE16> <.Letext0> <.Ltext0>
}
    2390:	00 80 fa    	ulnk      
    2392:	00 00 06    	return    

00002394 <_send_i2c2_byte>:


//basic I2C byte send
char send_i2c2_byte(int data){
    2394:	04 00 fa    	lnk       #0x4
    2396:	10 07 98    	mov.w     w0, [w14+2]
   int i;
   while (I2C2STATbits.TBF) { }
    2398:	00 00 00    	nop       

0000239a <.L70>:
    239a:	c0 10 80    	mov.w     0x218, w0
    239c:	61 00 60    	and.w     w0, #0x1, w0
    239e:	00 00 e0    	cp0.w     w0
    23a0:	fc ff 3a    	bra       NZ, 0x239a <.L70>
   IFS3bits.MI2C2IF = 0; // Clear Interrupt
    23a2:	8a 40 a9    	bclr.b    0x8a, #0x2
   I2C2TRN = data; // load the outgoing data byte
    23a4:	1e 00 90    	mov.w     [w14+2], w0
    23a6:	90 10 88    	mov.w     w0, 0x212

   for (i=0; i<500; i++){           // wait for transmission
    23a8:	00 00 eb    	clr.w     w0
    23aa:	00 0f 78    	mov.w     w0, [w14]
    23ac:	09 00 37    	bra       0x23c0 <.L71>

000023ae <.L74>:
      if (!I2C2STATbits.TRSTAT) break; // if master transmit not in progress break
    23ae:	c1 10 80    	mov.w     0x218, w1
    23b0:	00 00 24    	mov.w     #0x4000, w0
    23b2:	00 80 60    	and.w     w1, w0, w0
    23b4:	00 00 e0    	cp0.w     w0
    23b6:	09 00 32    	bra       Z, 0x23ca <.L78>
      delay_by_nop(1); }
    23b8:	10 00 20    	mov.w     #0x1, w0
    23ba:	01 00 20    	mov.w     #0x0, w1
    23bc:	3c fe 07    	rcall     0x2036 <_delay_by_nop> <.L0> <.LFB0> <.LFE16> <.Letext0> <.Ltext0>
    23be:	1e 0f e8    	inc.w     [w14], [w14]

000023c0 <.L71>:
    23c0:	30 1f 20    	mov.w     #0x1f3, w0
    23c2:	9e 00 78    	mov.w     [w14], w1
    23c4:	80 8f 50    	sub.w     w1, w0, [w15]
    23c6:	f3 ff 34    	bra       LE, 0x23ae <.L74>
    23c8:	01 00 37    	bra       0x23cc <.L73>

000023ca <.L78>:
    23ca:	00 00 00    	nop       

000023cc <.L73>:

    if (i == 500) {     // if i got to 500, then there was an issue`
    23cc:	40 1f 20    	mov.w     #0x1f4, w0
    23ce:	9e 00 78    	mov.w     [w14], w1
    23d0:	80 8f 50    	sub.w     w1, w0, [w15]
    23d2:	02 00 3a    	bra       NZ, 0x23d8 <.L75>
        return(1); }    // return 1 to indicate failure
    23d4:	10 c0 b3    	mov.b     #0x1, w0
    23d6:	0c 00 37    	bra       0x23f0 <.L76>

000023d8 <.L75>:

   if (I2C2STATbits.ACKSTAT == 1){   // Check for NO_ACK from slave,
    23d8:	c1 10 80    	mov.w     0x218, w1
    23da:	00 00 28    	mov.w     #0x8000, w0
    23dc:	00 80 60    	and.w     w1, w0, w0
    23de:	00 00 e0    	cp0.w     w0
    23e0:	03 00 32    	bra       Z, 0x23e8 <.L77>
      reset_i2c2_bus();
    23e2:	bd ff 07    	rcall     0x235e <_reset_i2c2_bus> <.LFB16> <.LFE15>
      return(1); }            // abort if not found
    23e4:	10 c0 b3    	mov.b     #0x1, w0
    23e6:	04 00 37    	bra       0x23f0 <.L76>

000023e8 <.L77>:

   delay_by_nop(2);
    23e8:	20 00 20    	mov.w     #0x2, w0
    23ea:	01 00 20    	mov.w     #0x0, w1
    23ec:	24 fe 07    	rcall     0x2036 <_delay_by_nop> <.L0> <.LFB0> <.LFE16> <.Letext0> <.Ltext0>
   return(0);
    23ee:	00 40 eb    	clr.b     w0

000023f0 <.L76>:
}
    23f0:	00 80 fa    	ulnk      
    23f2:	00 00 06    	return    

000023f4 <_i2c2_read>:


//function reads data, returns the read data, no ack
// helper function
char i2c2_read(void){
    23f4:	04 00 fa    	lnk       #0x4
   int i = 0;
    23f6:	00 00 eb    	clr.w     w0
    23f8:	00 0f 78    	mov.w     w0, [w14]
   char data = 0;
    23fa:	00 40 eb    	clr.b     w0
    23fc:	20 47 98    	mov.b     w0, [w14+2]
   I2C2CONbits.RCEN = 1;            //set I2C module to receive
    23fe:	16 62 a8    	bset.b    0x216, #0x3

   while (!I2C2STATbits.RBF) {           //if no response, break
    2400:	05 00 37    	bra       0x240c <.L80>

00002402 <.L82>:
      i ++;
    2402:	1e 0f e8    	inc.w     [w14], [w14]
      if (i > 2000) break;  }
    2404:	00 7d 20    	mov.w     #0x7d0, w0
    2406:	9e 00 78    	mov.w     [w14], w1
    2408:	80 8f 50    	sub.w     w1, w0, [w15]
    240a:	05 00 3c    	bra       GT, 0x2416 <.L83>

0000240c <.L80>:
    240c:	c0 10 80    	mov.w     0x218, w0
    240e:	62 00 60    	and.w     w0, #0x2, w0
    2410:	00 00 e0    	cp0.w     w0
    2412:	f7 ff 32    	bra       Z, 0x2402 <.L82>
    2414:	01 00 37    	bra       0x2418 <.L81>

00002416 <.L83>:
    2416:	00 00 00    	nop       

00002418 <.L81>:

   data = I2C2RCV;       //get data from I2C2RCV register
    2418:	80 10 80    	mov.w     0x210, w0
    241a:	20 47 98    	mov.b     w0, [w14+2]
   return data;
    241c:	2e 40 90    	mov.b     [w14+2], w0
}
    241e:	00 80 fa    	ulnk      
    2420:	00 00 06    	return    

00002422 <_i2c2_read_ack>:


//function reads data, returns the read data, with ack
char i2c2_read_ack(void){	//does not reset bus!!!
    2422:	04 00 fa    	lnk       #0x4
   int i = 0;
    2424:	00 00 eb    	clr.w     w0
    2426:	00 0f 78    	mov.w     w0, [w14]
   char data = 0;
    2428:	00 40 eb    	clr.b     w0
    242a:	20 47 98    	mov.b     w0, [w14+2]
   I2C2CONbits.RCEN = 1;            //set I2C module to receive
    242c:	16 62 a8    	bset.b    0x216, #0x3

   while (!I2C2STATbits.RBF) {       //if no response, break
    242e:	05 00 37    	bra       0x243a <.L85>

00002430 <.L87>:
      i++;
    2430:	1e 0f e8    	inc.w     [w14], [w14]
      if (i > 2000) break;}
    2432:	00 7d 20    	mov.w     #0x7d0, w0
    2434:	9e 00 78    	mov.w     [w14], w1
    2436:	80 8f 50    	sub.w     w1, w0, [w15]
    2438:	05 00 3c    	bra       GT, 0x2444 <.L88>

0000243a <.L85>:
    243a:	c0 10 80    	mov.w     0x218, w0
    243c:	62 00 60    	and.w     w0, #0x2, w0
    243e:	00 00 e0    	cp0.w     w0
    2440:	f7 ff 32    	bra       Z, 0x2430 <.L87>
    2442:	01 00 37    	bra       0x2446 <.L86>

00002444 <.L88>:
    2444:	00 00 00    	nop       

00002446 <.L86>:

   data = I2C2RCV;               //get data from I2C2RCV register
    2446:	80 10 80    	mov.w     0x210, w0
    2448:	20 47 98    	mov.b     w0, [w14+2]
   I2C2CONbits.ACKEN = 1;        //start ACK generation
    244a:	16 82 a8    	bset.b    0x216, #0x4
   delay_by_nop(10);             //wait before exiting
    244c:	a0 00 20    	mov.w     #0xa, w0
    244e:	01 00 20    	mov.w     #0x0, w1
    2450:	f2 fd 07    	rcall     0x2036 <_delay_by_nop> <.L0> <.LFB0> <.LFE16> <.Letext0> <.Ltext0>
   return data;
    2452:	2e 40 90    	mov.b     [w14+2], w0
}
    2454:	00 80 fa    	ulnk      
    2456:	00 00 06    	return    

00002458 <_i2c2_read_nack>:

char i2c2_read_nack(void){	//does not reset bus!!!
    2458:	04 00 fa    	lnk       #0x4
   int i = 0;
    245a:	00 00 eb    	clr.w     w0
    245c:	00 0f 78    	mov.w     w0, [w14]
   char data = 0;
    245e:	00 40 eb    	clr.b     w0
    2460:	20 47 98    	mov.b     w0, [w14+2]
   I2C2CONbits.RCEN = 1;            //set I2C module to receive
    2462:	16 62 a8    	bset.b    0x216, #0x3

   while (!I2C2STATbits.RBF) {       //if no response, break
    2464:	05 00 37    	bra       0x2470 <.L90>

00002466 <.L92>:
      i++;
    2466:	1e 0f e8    	inc.w     [w14], [w14]
      if (i > 2000) break;}
    2468:	00 7d 20    	mov.w     #0x7d0, w0
    246a:	9e 00 78    	mov.w     [w14], w1
    246c:	80 8f 50    	sub.w     w1, w0, [w15]
    246e:	05 00 3c    	bra       GT, 0x247a <.L93>

00002470 <.L90>:
    2470:	c0 10 80    	mov.w     0x218, w0
    2472:	62 00 60    	and.w     w0, #0x2, w0
    2474:	00 00 e0    	cp0.w     w0
    2476:	f7 ff 32    	bra       Z, 0x2466 <.L92>
    2478:	01 00 37    	bra       0x247c <.L91>

0000247a <.L93>:
    247a:	00 00 00    	nop       

0000247c <.L91>:

   data = I2C2RCV;               //get data from I2C2RCV register
    247c:	80 10 80    	mov.w     0x210, w0
    247e:	20 47 98    	mov.b     w0, [w14+2]
   I2C2CONbits.ACKDT = 1;        // set mastrer to nack instead of ack
    2480:	16 a2 a8    	bset.b    0x216, #0x5
   I2C2CONbits.ACKEN = 1;        //start ack generation
    2482:	16 82 a8    	bset.b    0x216, #0x4
   delay_by_nop(10);             //wait before exiting
    2484:	a0 00 20    	mov.w     #0xa, w0
    2486:	01 00 20    	mov.w     #0x0, w1
    2488:	d6 fd 07    	rcall     0x2036 <_delay_by_nop> <.L0> <.LFB0> <.LFE16> <.Letext0> <.Ltext0>
   return data;
    248a:	2e 40 90    	mov.b     [w14+2], w0
}
    248c:	00 80 fa    	ulnk      
    248e:	00 00 06    	return    

00002490 <_I2C2poll>:

// function checks if device at addr i bus
// 1 means it is not there, 0 means it is not there
unsigned char I2C2poll(char addr){
    2490:	04 00 fa    	lnk       #0x4
    2492:	20 47 98    	mov.b     w0, [w14+2]
   unsigned char temp = 0;
    2494:	00 40 eb    	clr.b     w0
    2496:	00 4f 78    	mov.b     w0, [w14]
   i2c2_start();
    2498:	2e ff 07    	rcall     0x22f6 <_i2c2_start> <.LFB14> <.LFE13>
   temp = send_i2c2_byte((addr) & (0xfffe)); // set /W bit
    249a:	2e 40 90    	mov.b     [w14+2], w0
    249c:	00 00 fb    	se        w0, w0
    249e:	80 00 78    	mov.w     w0, w1
    24a0:	e0 ff 2f    	mov.w     #0xfffe, w0
    24a2:	00 80 60    	and.w     w1, w0, w0
    24a4:	77 ff 07    	rcall     0x2394 <_send_i2c2_byte> <.LFB17> <.LFE16>
    24a6:	00 4f 78    	mov.b     w0, [w14]
   reset_i2c2_bus();
    24a8:	5a ff 07    	rcall     0x235e <_reset_i2c2_bus> <.LFB16> <.LFE15>
   if (temp == 0) {
    24aa:	1e 40 78    	mov.b     [w14], w0
    24ac:	00 04 e0    	cp0.b     w0
    24ae:	02 00 3a    	bra       NZ, 0x24b4 <.L95>
       return 1; // We found it, no error
    24b0:	10 c0 b3    	mov.b     #0x1, w0
    24b2:	01 00 37    	bra       0x24b6 <.L96>

000024b4 <.L95>:
   } else return 0;
    24b4:	00 40 eb    	clr.b     w0

000024b6 <.L96>:
}
    24b6:	00 80 fa    	ulnk      
    24b8:	00 00 06    	return    

000024ba <_init_ajuart>:
uint8_t U1TXbuffer[U1_TX_BUFFER_LENGTH];
uint8_t U1RXbuffer[U1_RX_BUFFER_LENGTH];
uint16_t U1_tx_threshold;

void init_ajuart(void) {
    24ba:	04 00 fa    	lnk       #0x4
    uint8_t *RPOR, *RPINR;

    // Configure audio jack UART pins and connect them to UART1
    AJ_TX_DIR = OUT; AJ_TX = 1;
    24bc:	f0 c2 a9    	bclr.b    0x2f0, #0x6
    24be:	f2 c2 a8    	bset.b    0x2f2, #0x6
    AJ_RX_DIR = IN;
    24c0:	f0 e2 a8    	bset.b    0x2f0, #0x7

    RPOR = (uint8_t *)&RPOR0;
    24c2:	00 6c 20    	mov.w     #0x6c0, w0
    24c4:	00 0f 78    	mov.w     w0, [w14]
    RPINR = (uint8_t *)&RPINR0;
    24c6:	00 68 20    	mov.w     #0x680, w0
    24c8:	10 07 98    	mov.w     w0, [w14+2]

    __builtin_write_OSCCONL(OSCCON & 0xBF);
    24ca:	11 3a 80    	mov.w     0x742, w1
    24cc:	f0 0b 20    	mov.w     #0xbf, w0
    24ce:	00 81 60    	and.w     w1, w0, w2
    24d0:	60 04 20    	mov.w     #0x46, w0
    24d2:	71 05 20    	mov.w     #0x57, w1
    24d4:	23 74 20    	mov.w     #0x742, w3
    24d6:	80 49 78    	mov.b     w0, [w3]
    24d8:	81 49 78    	mov.b     w1, [w3]
    24da:	82 49 78    	mov.b     w2, [w3]
    RPINR[U1RX_RP] = AJ_RX_RP;
    24dc:	1e 00 90    	mov.w     [w14+2], w0
    24de:	40 02 b0    	add.w     #0x24, w0
    24e0:	a1 c1 b3    	mov.b     #0x1a, w1
    24e2:	01 48 78    	mov.b     w1, [w0]
    RPOR[AJ_TX_RP] = U1TX_RP;
    24e4:	9e 00 78    	mov.w     [w14], w1
    24e6:	75 80 40    	add.w     w1, #0x15, w0
    24e8:	31 c0 b3    	mov.b     #0x3, w1
    24ea:	01 48 78    	mov.b     w1, [w0]
    __builtin_write_OSCCONL(OSCCON | 0x40);
    24ec:	10 3a 80    	mov.w     0x742, w0
    24ee:	00 01 78    	mov.w     w0, w2
    24f0:	02 60 a0    	bset.w    w2, #0x6
    24f2:	60 04 20    	mov.w     #0x46, w0
    24f4:	71 05 20    	mov.w     #0x57, w1
    24f6:	23 74 20    	mov.w     #0x742, w3
    24f8:	80 49 78    	mov.b     w0, [w3]
    24fa:	81 49 78    	mov.b     w1, [w3]
    24fc:	82 49 78    	mov.b     w2, [w3]

    U1MODE = 0x0008;                // configure UART1 for transmission at
    24fe:	80 00 20    	mov.w     #0x8, w0
    2500:	00 11 88    	mov.w     w0, 0x220
    U1BRG = 0x0022;                 //   115,200 baud, no parity, 1 stop bit
    2502:	20 02 20    	mov.w     #0x22, w0
    2504:	40 11 88    	mov.w     w0, 0x228

    U1_tx_buffer.data = U1TXbuffer;
    2506:	00 84 20    	mov.w     #0x840, w0
    2508:	60 41 88    	mov.w     w0, 0x82c
    U1_tx_buffer.length = U1_TX_BUFFER_LENGTH;
    250a:	00 40 20    	mov.w     #0x400, w0
    250c:	70 41 88    	mov.w     w0, 0x82e
    U1_tx_buffer.head = 0;
    250e:	00 00 eb    	clr.w     w0
    2510:	80 41 88    	mov.w     w0, 0x830
    U1_tx_buffer.tail = 0;
    2512:	00 00 eb    	clr.w     w0
    2514:	90 41 88    	mov.w     w0, 0x832
    U1_tx_buffer.count = 0;
    2516:	00 00 eb    	clr.w     w0
    2518:	a0 41 88    	mov.w     w0, 0x834
    U1_tx_threshold = 3 * U1_TX_BUFFER_LENGTH / 4;
    251a:	00 30 20    	mov.w     #0x300, w0
    251c:	50 41 88    	mov.w     w0, 0x82a

    U1_rx_buffer.data = U1RXbuffer;
    251e:	00 c4 20    	mov.w     #0xc40, w0
    2520:	b0 41 88    	mov.w     w0, 0x836
    U1_rx_buffer.length = U1_RX_BUFFER_LENGTH;
    2522:	00 40 20    	mov.w     #0x400, w0
    2524:	c0 41 88    	mov.w     w0, 0x838
    U1_rx_buffer.head = 0;
    2526:	00 00 eb    	clr.w     w0
    2528:	d0 41 88    	mov.w     w0, 0x83a
    U1_rx_buffer.tail = 0;
    252a:	00 00 eb    	clr.w     w0
    252c:	e0 41 88    	mov.w     w0, 0x83c
    U1_rx_buffer.count = 0;
    252e:	00 00 eb    	clr.w     w0
    2530:	f0 41 88    	mov.w     w0, 0x83e

    U1STAbits.UTXISEL1 = 0;         // set UART1 UTXISEL<1:0> = 01, TX interrupt
    2532:	23 e2 a9    	bclr.b    0x223, #0x7
    U1STAbits.UTXISEL0 = 1;         //   when all transmit operations are done
    2534:	23 a2 a8    	bset.b    0x223, #0x5

    IFS0bits.U1TXIF = 0;            // lower UART1 TX interrupt flag
    2536:	85 80 a9    	bclr.b    0x85, #0x4
    IEC0bits.U1TXIE = 1;            // enable UART1 TX interrupt
    2538:	95 80 a8    	bset.b    0x95, #0x4

    IFS0bits.U1RXIF = 0;            // lower UART1 RX interrupt flag
    253a:	85 60 a9    	bclr.b    0x85, #0x3
    IEC0bits.U1RXIE = 1;            // enable UART1 RX interrupt
    253c:	95 60 a8    	bset.b    0x95, #0x3

    U1MODEbits.UARTEN = 1;          // enable UART1 module
    253e:	21 e2 a8    	bset.b    0x221, #0x7
    U1STAbits.UTXEN = 1;            // enable UART1 data transmission
    2540:	23 42 a8    	bset.b    0x223, #0x2
}
    2542:	00 80 fa    	ulnk      
    2544:	00 00 06    	return    

00002546 <_U1_in_waiting>:

void __attribute__((interrupt, auto_psv)) _U1TXInterrupt(void) {
    uint8_t ch;

    IFS0bits.U1TXIF = 0;            // lower UART1 TX interrupt flag

    if (U1_tx_buffer.count == 0)    // if nothing left in UART1 TX buffer, 
        U1STAbits.UTXEN = 0;        //   disable data transmission

    while ((U1STAbits.UTXBF == 0) && (U1_tx_buffer.count != 0)) {
        disable_interrupts();
        ch = U1_tx_buffer.data[U1_tx_buffer.head];
        U1_tx_buffer.head++;
        if (U1_tx_buffer.head == U1_tx_buffer.length)
            U1_tx_buffer.head = 0;
        U1_tx_buffer.count--;
        enable_interrupts();
        U1TXREG = (uint16_t)ch;
    }
}

void __attribute__((interrupt, auto_psv)) _U1RXInterrupt(void) {
    IFS0bits.U1RXIF = 0;            // lower UART1 RX interrupt flag

    while ((U1STAbits.URXDA == 1) && (U1_rx_buffer.count != U1_rx_buffer.length)) {
        disable_interrupts();
        U1_rx_buffer.data[U1_rx_buffer.tail] = (uint8_t)U1RXREG;
        U1_rx_buffer.tail++;
        if (U1_rx_buffer.tail == U1_rx_buffer.length)
            U1_rx_buffer.tail = 0;
        U1_rx_buffer.count++;
        enable_interrupts();
    }
}

uint16_t U1_in_waiting(void) {
    2546:	00 00 fa    	lnk       #0x0
    return U1_rx_buffer.count;
    2548:	f0 41 80    	mov.w     0x83e, w0
}
    254a:	00 80 fa    	ulnk      
    254c:	00 00 06    	return    

0000254e <_U1_flush_tx_buffer>:

void U1_flush_tx_buffer(void) {
    254e:	00 00 fa    	lnk       #0x0
    if (U1STAbits.UTXEN == 0)       // if UART1 transmission is disabled,
    2550:	11 11 80    	mov.w     0x222, w1
    2552:	00 40 20    	mov.w     #0x400, w0
    2554:	00 80 60    	and.w     w1, w0, w0
    2556:	00 00 e0    	cp0.w     w0
    2558:	01 00 3a    	bra       NZ, 0x255c <.L15>
        U1STAbits.UTXEN = 1;        //   enable it
    255a:	23 42 a8    	bset.b    0x223, #0x2

0000255c <.L15>:
}
    255c:	00 80 fa    	ulnk      
    255e:	00 00 06    	return    

00002560 <_U1_putc>:

void U1_putc(uint8_t ch) {
    2560:	02 00 fa    	lnk       #0x2
    2562:	00 4f 78    	mov.b     w0, [w14]
    // Wait until UART1 TX buffer is not full
    while (U1_tx_buffer.count == U1_tx_buffer.length) {}
    2564:	00 00 00    	nop       

00002566 <.L18>:
    2566:	a1 41 80    	mov.w     0x834, w1
    2568:	70 41 80    	mov.w     0x82e, w0
    256a:	80 8f 50    	sub.w     w1, w0, [w15]
    256c:	fc ff 32    	bra       Z, 0x2566 <.L18>

    disable_interrupts();
    256e:	ff 3f fc    	disi      #0x3fff
    U1_tx_buffer.data[U1_tx_buffer.tail] = ch;
    2570:	61 41 80    	mov.w     0x82c, w1
    2572:	90 41 80    	mov.w     0x832, w0
    2574:	00 80 40    	add.w     w1, w0, w0
    2576:	1e 48 78    	mov.b     [w14], [w0]
    U1_tx_buffer.tail++;
    2578:	90 41 80    	mov.w     0x832, w0
    257a:	00 00 e8    	inc.w     w0, w0
    257c:	90 41 88    	mov.w     w0, 0x832
    if (U1_tx_buffer.tail == U1_tx_buffer.length)
    257e:	91 41 80    	mov.w     0x832, w1
    2580:	70 41 80    	mov.w     0x82e, w0
    2582:	80 8f 50    	sub.w     w1, w0, [w15]
    2584:	02 00 3a    	bra       NZ, 0x258a <.L19>
        U1_tx_buffer.tail = 0;
    2586:	00 00 eb    	clr.w     w0
    2588:	90 41 88    	mov.w     w0, 0x832

0000258a <.L19>:
    U1_tx_buffer.count++;
    258a:	a0 41 80    	mov.w     0x834, w0
    258c:	00 00 e8    	inc.w     w0, w0
    258e:	a0 41 88    	mov.w     w0, 0x834
    enable_interrupts();
    2590:	52 20 ef    	clr.w     0x52

    // If UART1 TX buffer is full enough, enable data transmission
    if (U1_tx_buffer.count >= U1_tx_threshold)
    2592:	a1 41 80    	mov.w     0x834, w1
    2594:	50 41 80    	mov.w     0x82a, w0
    2596:	80 8f 50    	sub.w     w1, w0, [w15]
    2598:	01 00 39    	bra       NC, 0x259c <.L17>
        U1STAbits.UTXEN = 1;
    259a:	23 42 a8    	bset.b    0x223, #0x2

0000259c <.L17>:
}
    259c:	00 80 fa    	ulnk      
    259e:	00 00 06    	return    

000025a0 <_U1_getc>:

uint8_t U1_getc(void) {
    25a0:	02 00 fa    	lnk       #0x2
    uint8_t ch;

    // Wait until UART1 RX buffer is not empty
    while (U1_rx_buffer.count == 0) {}
    25a2:	00 00 00    	nop       

000025a4 <.L22>:
    25a4:	f0 41 80    	mov.w     0x83e, w0
    25a6:	00 00 e0    	cp0.w     w0
    25a8:	fd ff 32    	bra       Z, 0x25a4 <.L22>

    disable_interrupts();
    25aa:	ff 3f fc    	disi      #0x3fff
    ch = U1_rx_buffer.data[U1_rx_buffer.head];
    25ac:	b1 41 80    	mov.w     0x836, w1
    25ae:	d0 41 80    	mov.w     0x83a, w0
    25b0:	00 80 40    	add.w     w1, w0, w0
    25b2:	10 4f 78    	mov.b     [w0], [w14]
    U1_rx_buffer.head++;
    25b4:	d0 41 80    	mov.w     0x83a, w0
    25b6:	00 00 e8    	inc.w     w0, w0
    25b8:	d0 41 88    	mov.w     w0, 0x83a
    if (U1_rx_buffer.head == U1_rx_buffer.length)
    25ba:	d1 41 80    	mov.w     0x83a, w1
    25bc:	c0 41 80    	mov.w     0x838, w0
    25be:	80 8f 50    	sub.w     w1, w0, [w15]
    25c0:	02 00 3a    	bra       NZ, 0x25c6 <.L23>
        U1_rx_buffer.head = 0;
    25c2:	00 00 eb    	clr.w     w0
    25c4:	d0 41 88    	mov.w     w0, 0x83a

000025c6 <.L23>:
    U1_rx_buffer.count--;
    25c6:	f0 41 80    	mov.w     0x83e, w0
    25c8:	00 00 e9    	dec.w     w0, w0
    25ca:	f0 41 88    	mov.w     w0, 0x83e
    enable_interrupts();
    25cc:	52 20 ef    	clr.w     0x52

    return ch;
    25ce:	1e 40 78    	mov.b     [w14], w0
}
    25d0:	00 80 fa    	ulnk      
    25d2:	00 00 06    	return    

000025d4 <_U1_puts>:

void U1_puts(uint8_t *str) {
    25d4:	02 00 fa    	lnk       #0x2
    25d6:	00 0f 78    	mov.w     w0, [w14]
    while (*str)
    25d8:	04 00 37    	bra       0x25e2 <.L25>

000025da <.L26>:
        U1_putc(*str++);
    25da:	1e 00 78    	mov.w     [w14], w0
    25dc:	10 40 78    	mov.b     [w0], w0
    25de:	1e 0f e8    	inc.w     [w14], [w14]
    25e0:	bf ff 07    	rcall     0x2560 <_U1_putc> <.LFB5> <.LFE4>

000025e2 <.L25>:
    25e2:	1e 00 78    	mov.w     [w14], w0
    25e4:	10 40 78    	mov.b     [w0], w0
    25e6:	00 04 e0    	cp0.b     w0
    25e8:	f8 ff 3a    	bra       NZ, 0x25da <.L26>
    U1_flush_tx_buffer();
    25ea:	b1 ff 07    	rcall     0x254e <_U1_flush_tx_buffer> <.LFB4> <.LFE3>
}
    25ec:	00 80 fa    	ulnk      
    25ee:	00 00 06    	return    

000025f0 <_U1_gets>:

void U1_gets(uint8_t *str, uint16_t len) {
    25f0:	04 00 fa    	lnk       #0x4
    25f2:	00 0f 78    	mov.w     w0, [w14]
    25f4:	11 07 98    	mov.w     w1, [w14+2]
    if (len == 0)
    25f6:	1e 00 90    	mov.w     [w14+2], w0
    25f8:	00 00 e0    	cp0.w     w0
    25fa:	1a 00 32    	bra       Z, 0x2630 <.L32>
        return;

    if (len == 1) {
    25fc:	1e 00 90    	mov.w     [w14+2], w0
    25fe:	e1 0f 50    	sub.w     w0, #0x1, [w15]
    2600:	04 00 3a    	bra       NZ, 0x260a <.L30>
        *str = '\0';
    2602:	1e 00 78    	mov.w     [w14], w0
    2604:	80 40 eb    	clr.b     w1
    2606:	01 48 78    	mov.b     w1, [w0]
        return;
    2608:	14 00 37    	bra       0x2632 <.L27>

0000260a <.L30>:
    }

    while (1) {
        *str = U1_getc();
    260a:	ca ff 07    	rcall     0x25a0 <_U1_getc> <.LFB6> <.LFE5>
    260c:	9e 00 78    	mov.w     [w14], w1
    260e:	80 48 78    	mov.b     w0, [w1]
        if ((*str == '\r') || (len == 1))
    2610:	1e 00 78    	mov.w     [w14], w0
    2612:	10 40 78    	mov.b     [w0], w0
    2614:	ed 4f 50    	sub.b     w0, #0xd, [w15]
    2616:	08 00 32    	bra       Z, 0x2628 <.L31>
    2618:	1e 00 90    	mov.w     [w14+2], w0
    261a:	e1 0f 50    	sub.w     w0, #0x1, [w15]
    261c:	05 00 32    	bra       Z, 0x2628 <.L31>
            break;
        str++;
    261e:	1e 0f e8    	inc.w     [w14], [w14]
        len--;
    2620:	1e 00 90    	mov.w     [w14+2], w0
    2622:	00 00 e9    	dec.w     w0, w0
    2624:	10 07 98    	mov.w     w0, [w14+2]
    }
    2626:	f1 ff 37    	bra       0x260a <.L30>

00002628 <.L31>:
    *str = '\0';
    2628:	1e 00 78    	mov.w     [w14], w0
    262a:	80 40 eb    	clr.b     w1
    262c:	01 48 78    	mov.b     w1, [w0]
    262e:	01 00 37    	bra       0x2632 <.L27>

00002630 <.L32>:
    2630:	00 00 00    	nop       

00002632 <.L27>:
}
    2632:	00 80 fa    	ulnk      
    2634:	00 00 06    	return    

00002636 <_U1_gets_term>:

void U1_gets_term(uint8_t *str, uint16_t len) {
    2636:	08 00 fa    	lnk       #0x8
    2638:	20 07 98    	mov.w     w0, [w14+4]
    263a:	31 07 98    	mov.w     w1, [w14+6]
    uint8_t *start;
    uint16_t left;

    if (len == 0)
    263c:	3e 00 90    	mov.w     [w14+6], w0
    263e:	00 00 e0    	cp0.w     w0
    2640:	6f 00 32    	bra       Z, 0x2720 <.L46>
        return;

    if (len == 1) {
    2642:	3e 00 90    	mov.w     [w14+6], w0
    2644:	e1 0f 50    	sub.w     w0, #0x1, [w15]
    2646:	04 00 3a    	bra       NZ, 0x2650 <.L36>
        *str = '\0';
    2648:	2e 00 90    	mov.w     [w14+4], w0
    264a:	80 40 eb    	clr.b     w1
    264c:	01 48 78    	mov.b     w1, [w0]
        return;
    264e:	69 00 37    	bra       0x2722 <.L33>

00002650 <.L36>:
    }

    U1_putc(0x1B);                          // save current cursor position
    2650:	b0 c1 b3    	mov.b     #0x1b, w0
    2652:	86 ff 07    	rcall     0x2560 <_U1_putc> <.LFB5> <.LFE4>
    U1_putc('7');
    2654:	70 c3 b3    	mov.b     #0x37, w0
    2656:	84 ff 07    	rcall     0x2560 <_U1_putc> <.LFB5> <.LFE4>
    U1_flush_tx_buffer();
    2658:	7a ff 07    	rcall     0x254e <_U1_flush_tx_buffer> <.LFB4> <.LFE3>
    start = str;
    265a:	ae 00 90    	mov.w     [w14+4], w1
    265c:	11 07 98    	mov.w     w1, [w14+2]
    left = len;
    265e:	be 00 90    	mov.w     [w14+6], w1
    2660:	01 0f 78    	mov.w     w1, [w14]
    2662:	03 00 37    	bra       0x266a <.L45>

00002664 <.L47>:
    while (1) {
        *str = U1_getc();                   // get a character
        if (*str == '\r')                   // if character is return,
            break;                          //   end the loop
        if (*str == 0x1B) {                 // if character is escape,
            U1_putc(0x1B);                  //   restore cursor position,
            U1_putc('8');
            U1_putc(0x1B);                  //   clear to end of line, and
            U1_putc('[');
            U1_putc('K');
            U1_flush_tx_buffer();
            str = start;                    //   start over at the beginning
            left = len;
            continue;
        }
        if ((*str == '\b') ||               // if character is backspace
            (*str == 0x7F)) {               //   or delete, 
            if (str > start) {              //   and we are not at the start, 
                U1_putc('\b');              //   erase the last character and
                U1_putc(' ');
                U1_putc('\b');
                U1_flush_tx_buffer();
                str--;                      //   back up the pointer,
                left++;
            } else {                        //   otherwise
                U1_putc('\a');              //   send alert/bell character
                U1_flush_tx_buffer();
            }
            continue;
        }
        if (left == 1) {                    // if string buffer is full,
            U1_putc('\a');                  //   send alert/bell character
            U1_flush_tx_buffer();
            continue;
        }
        if ((*str >= 32) && (*str < 127)) { // if character is printable,
            U1_putc(*str);                  //   echo the received character
            U1_flush_tx_buffer();
            str++;                          //   and advance the pointer
            left--;
        }
    }
    2664:	00 00 00    	nop       
    2666:	01 00 37    	bra       0x266a <.L45>

00002668 <.L48>:
    2668:	00 00 00    	nop       

0000266a <.L45>:
    266a:	9a ff 07    	rcall     0x25a0 <_U1_getc> <.LFB6> <.LFE5>
    266c:	ae 00 90    	mov.w     [w14+4], w1
    266e:	80 48 78    	mov.b     w0, [w1]
    2670:	2e 00 90    	mov.w     [w14+4], w0
    2672:	10 40 78    	mov.b     [w0], w0
    2674:	ed 4f 50    	sub.b     w0, #0xd, [w15]
    2676:	09 00 3a    	bra       NZ, 0x268a <.L37>
    *str = '\0';                            // terminarte the string with null
    2678:	2e 00 90    	mov.w     [w14+4], w0
    267a:	80 40 eb    	clr.b     w1
    267c:	01 48 78    	mov.b     w1, [w0]
    U1_putc('\n');                          // send newline and
    267e:	a0 c0 b3    	mov.b     #0xa, w0
    2680:	6f ff 07    	rcall     0x2560 <_U1_putc> <.LFB5> <.LFE4>
    U1_putc('\r');                          //   carriage return
    2682:	d0 c0 b3    	mov.b     #0xd, w0
    2684:	6d ff 07    	rcall     0x2560 <_U1_putc> <.LFB5> <.LFE4>
    U1_flush_tx_buffer();
    2686:	63 ff 07    	rcall     0x254e <_U1_flush_tx_buffer> <.LFB4> <.LFE3>
    2688:	4c 00 37    	bra       0x2722 <.L33>

0000268a <.L37>:
    268a:	2e 00 90    	mov.w     [w14+4], w0
    268c:	10 40 78    	mov.b     [w0], w0
    268e:	fb 4f 50    	sub.b     w0, #0x1b, [w15]
    2690:	10 00 3a    	bra       NZ, 0x26b2 <.L38>
    2692:	b0 c1 b3    	mov.b     #0x1b, w0
    2694:	65 ff 07    	rcall     0x2560 <_U1_putc> <.LFB5> <.LFE4>
    2696:	80 c3 b3    	mov.b     #0x38, w0
    2698:	63 ff 07    	rcall     0x2560 <_U1_putc> <.LFB5> <.LFE4>
    269a:	b0 c1 b3    	mov.b     #0x1b, w0
    269c:	61 ff 07    	rcall     0x2560 <_U1_putc> <.LFB5> <.LFE4>
    269e:	b0 c5 b3    	mov.b     #0x5b, w0
    26a0:	5f ff 07    	rcall     0x2560 <_U1_putc> <.LFB5> <.LFE4>
    26a2:	b0 c4 b3    	mov.b     #0x4b, w0
    26a4:	5d ff 07    	rcall     0x2560 <_U1_putc> <.LFB5> <.LFE4>
    26a6:	53 ff 07    	rcall     0x254e <_U1_flush_tx_buffer> <.LFB4> <.LFE3>
    26a8:	9e 00 90    	mov.w     [w14+2], w1
    26aa:	21 07 98    	mov.w     w1, [w14+4]
    26ac:	be 00 90    	mov.w     [w14+6], w1
    26ae:	01 0f 78    	mov.w     w1, [w14]
    26b0:	36 00 37    	bra       0x271e <.L39>

000026b2 <.L38>:
    26b2:	2e 00 90    	mov.w     [w14+4], w0
    26b4:	10 40 78    	mov.b     [w0], w0
    26b6:	e8 4f 50    	sub.b     w0, #0x8, [w15]
    26b8:	05 00 32    	bra       Z, 0x26c4 <.L40>
    26ba:	2e 00 90    	mov.w     [w14+4], w0
    26bc:	90 40 78    	mov.b     [w0], w1
    26be:	f0 c7 b3    	mov.b     #0x7f, w0
    26c0:	80 cf 50    	sub.b     w1, w0, [w15]
    26c2:	14 00 3a    	bra       NZ, 0x26ec <.L41>

000026c4 <.L40>:
    26c4:	ae 00 90    	mov.w     [w14+4], w1
    26c6:	1e 00 90    	mov.w     [w14+2], w0
    26c8:	80 8f 50    	sub.w     w1, w0, [w15]
    26ca:	0c 00 36    	bra       LEU, 0x26e4 <.L42>
    26cc:	80 c0 b3    	mov.b     #0x8, w0
    26ce:	48 ff 07    	rcall     0x2560 <_U1_putc> <.LFB5> <.LFE4>
    26d0:	00 c2 b3    	mov.b     #0x20, w0
    26d2:	46 ff 07    	rcall     0x2560 <_U1_putc> <.LFB5> <.LFE4>
    26d4:	80 c0 b3    	mov.b     #0x8, w0
    26d6:	44 ff 07    	rcall     0x2560 <_U1_putc> <.LFB5> <.LFE4>
    26d8:	3a ff 07    	rcall     0x254e <_U1_flush_tx_buffer> <.LFB4> <.LFE3>
    26da:	2e 00 90    	mov.w     [w14+4], w0
    26dc:	00 00 e9    	dec.w     w0, w0
    26de:	20 07 98    	mov.w     w0, [w14+4]
    26e0:	1e 0f e8    	inc.w     [w14], [w14]
    26e2:	03 00 37    	bra       0x26ea <.L43>

000026e4 <.L42>:
    26e4:	70 c0 b3    	mov.b     #0x7, w0
    26e6:	3c ff 07    	rcall     0x2560 <_U1_putc> <.LFB5> <.LFE4>
    26e8:	32 ff 07    	rcall     0x254e <_U1_flush_tx_buffer> <.LFB4> <.LFE3>

000026ea <.L43>:
    26ea:	19 00 37    	bra       0x271e <.L39>

000026ec <.L41>:
    26ec:	1e 00 78    	mov.w     [w14], w0
    26ee:	e1 0f 50    	sub.w     w0, #0x1, [w15]
    26f0:	04 00 3a    	bra       NZ, 0x26fa <.L44>
    26f2:	70 c0 b3    	mov.b     #0x7, w0
    26f4:	35 ff 07    	rcall     0x2560 <_U1_putc> <.LFB5> <.LFE4>
    26f6:	2b ff 07    	rcall     0x254e <_U1_flush_tx_buffer> <.LFB4> <.LFE3>
    26f8:	12 00 37    	bra       0x271e <.L39>

000026fa <.L44>:
    26fa:	2e 00 90    	mov.w     [w14+4], w0
    26fc:	10 40 78    	mov.b     [w0], w0
    26fe:	ff 4f 50    	sub.b     w0, #0x1f, [w15]
    2700:	b1 ff 36    	bra       LEU, 0x2664 <.L47>
    2702:	2e 00 90    	mov.w     [w14+4], w0
    2704:	90 40 78    	mov.b     [w0], w1
    2706:	e0 c7 b3    	mov.b     #0x7e, w0
    2708:	80 cf 50    	sub.b     w1, w0, [w15]
    270a:	ae ff 3e    	bra       GTU, 0x2668 <.L48>
    270c:	2e 00 90    	mov.w     [w14+4], w0
    270e:	10 40 78    	mov.b     [w0], w0
    2710:	27 ff 07    	rcall     0x2560 <_U1_putc> <.LFB5> <.LFE4>
    2712:	1d ff 07    	rcall     0x254e <_U1_flush_tx_buffer> <.LFB4> <.LFE3>
    2714:	2e 00 90    	mov.w     [w14+4], w0
    2716:	00 00 e8    	inc.w     w0, w0
    2718:	20 07 98    	mov.w     w0, [w14+4]
    271a:	1e 0f e9    	dec.w     [w14], [w14]
    271c:	a6 ff 37    	bra       0x266a <.L45>

0000271e <.L39>:
    271e:	a5 ff 37    	bra       0x266a <.L45>

00002720 <.L46>:
    2720:	00 00 00    	nop       

00002722 <.L33>:
}
    2722:	00 80 fa    	ulnk      
    2724:	00 00 06    	return    

00002726 <_write>:

int16_t write(int16_t handle, void *buffer, uint16_t len) {
    2726:	08 00 fa    	lnk       #0x8
    2728:	10 07 98    	mov.w     w0, [w14+2]
    272a:	21 07 98    	mov.w     w1, [w14+4]
    272c:	32 07 98    	mov.w     w2, [w14+6]
    int16_t i;

    switch (handle) {
    272e:	1e 00 90    	mov.w     [w14+2], w0
    2730:	60 00 40    	add.w     w0, #0x0, w0
    2732:	e2 0f 50    	sub.w     w0, #0x2, [w15]
    2734:	10 00 3e    	bra       GTU, 0x2756 <.L55>
        case 0:
        case 1:
        case 2:
            for (i = 0; i < len; i++)
    2736:	00 00 eb    	clr.w     w0
    2738:	00 0f 78    	mov.w     w0, [w14]
    273a:	07 00 37    	bra       0x274a <.L52>

0000273c <.L53>:
                U1_putc(*(uint8_t *)buffer++);
    273c:	2e 00 90    	mov.w     [w14+4], w0
    273e:	10 40 78    	mov.b     [w0], w0
    2740:	ae 00 90    	mov.w     [w14+4], w1
    2742:	81 00 e8    	inc.w     w1, w1
    2744:	21 07 98    	mov.w     w1, [w14+4]
    2746:	0c ff 07    	rcall     0x2560 <_U1_putc> <.LFB5> <.LFE4>
    2748:	1e 0f e8    	inc.w     [w14], [w14]

0000274a <.L52>:
    274a:	9e 00 78    	mov.w     [w14], w1
    274c:	3e 00 90    	mov.w     [w14+6], w0
    274e:	80 8f 50    	sub.w     w1, w0, [w15]
    2750:	f5 ff 39    	bra       NC, 0x273c <.L53>
            U1_flush_tx_buffer();
    2752:	fd fe 07    	rcall     0x254e <_U1_flush_tx_buffer> <.LFB4> <.LFE3>
            break;
    2754:	01 00 37    	bra       0x2758 <.L54>

00002756 <.L55>:
        default:
            break;
    2756:	00 00 00    	nop       

00002758 <.L54>:
    }
    return len;
    2758:	3e 00 90    	mov.w     [w14+6], w0
}
    275a:	00 80 fa    	ulnk      
    275c:	00 00 06    	return    
Disassembly of section .isr.text:

0000275e <__CNInterrupt>:
    275e:	32 00 f8    	push      0x32
    2760:	34 00 f8    	push      0x34
    2762:	88 1f 78    	mov.w     w8, [w15++]
    2764:	18 00 20    	mov.w     #0x1, w8
    2766:	a8 01 88    	mov.w     w8, 0x34
    2768:	08 20 20    	mov.w     #0x200, w8
    276a:	98 01 88    	mov.w     w8, 0x32
    276c:	4f 04 78    	mov.w     [--w15], w8
    276e:	00 00 fa    	lnk       #0x0
    2770:	86 60 a9    	bclr.b    0x86, #0x3
    2772:	06 21 ef    	clr.w     0x106
    2774:	84 e0 a9    	bclr.b    0x84, #0x7
    2776:	11 e1 a8    	bset.b    0x111, #0x7
    2778:	dc e2 a8    	bset.b    0x2dc, #0x7
    277a:	00 80 fa    	ulnk      
    277c:	34 00 f9    	pop       0x34
    277e:	32 00 f9    	pop       0x32
    2780:	00 40 06    	retfie    

00002782 <__T2Interrupt>:
    2782:	36 00 f8    	push      0x36
    2784:	80 9f be    	mov.d     w0, [w15++]
    2786:	82 9f be    	mov.d     w2, [w15++]
    2788:	84 9f be    	mov.d     w4, [w15++]
    278a:	86 9f be    	mov.d     w6, [w15++]
    278c:	32 00 f8    	push      0x32
    278e:	34 00 f8    	push      0x34
    2790:	10 00 20    	mov.w     #0x1, w0
    2792:	a0 01 88    	mov.w     w0, 0x34
    2794:	00 20 20    	mov.w     #0x200, w0
    2796:	90 01 88    	mov.w     w0, 0x32
    2798:	00 00 fa    	lnk       #0x0
    279a:	84 e0 a9    	bclr.b    0x84, #0x7
    279c:	11 e1 a9    	bclr.b    0x111, #0x7
    279e:	dc e2 a9    	bclr.b    0x2dc, #0x7
    27a0:	d1 16 80    	mov.w     0x2da, w1
    27a2:	00 02 20    	mov.w     #0x20, w0
    27a4:	00 80 60    	and.w     w1, w0, w0
    27a6:	00 00 e0    	cp0.w     w0
    27a8:	0b 00 3a    	bra       NZ, 0x27c0 <.L47>
    27aa:	10 c8 bf    	mov.b     0x810, WREG
    27ac:	00 80 fb    	ze        w0, w0
    27ae:	80 00 e8    	inc.w     w0, w1
    27b0:	60 00 20    	mov.w     #0x6, w0
    27b2:	00 01 78    	mov.w     w0, w2
    27b4:	11 00 09    	repeat    #0x11
    27b6:	82 00 d8    	div.sw    w1, w2
    27b8:	80 00 fd    	exch      w0, w1
    27ba:	00 40 78    	mov.b     w0, w0
    27bc:	10 e8 b7    	mov.b     WREG, 0x810
    27be:	0c 00 37    	bra       0x27d8 <.L48>

000027c0 <.L47>:
    27c0:	d0 16 80    	mov.w     0x2da, w0
    27c2:	70 00 60    	and.w     w0, #0x10, w0
    27c4:	00 00 e0    	cp0.w     w0
    27c6:	08 00 3a    	bra       NZ, 0x27d8 <.L48>
    27c8:	10 c8 bf    	mov.b     0x810, WREG
    27ca:	00 40 e9    	dec.b     w0, w0
    27cc:	10 e8 b7    	mov.b     WREG, 0x810
    27ce:	10 c8 bf    	mov.b     0x810, WREG
    27d0:	e5 4f 50    	sub.b     w0, #0x5, [w15]
    27d2:	02 00 36    	bra       LEU, 0x27d8 <.L48>
    27d4:	50 c0 b3    	mov.b     #0x5, w0
    27d6:	10 e8 b7    	mov.b     WREG, 0x810

000027d8 <.L48>:
    27d8:	d0 16 80    	mov.w     0x2da, w0
    27da:	64 00 60    	and.w     w0, #0x4, w0
    27dc:	00 00 e0    	cp0.w     w0
    27de:	0b 00 3a    	bra       NZ, 0x27f6 <.L49>
    27e0:	11 c8 bf    	mov.b     0x811, WREG
    27e2:	00 80 fb    	ze        w0, w0
    27e4:	80 00 e8    	inc.w     w0, w1
    27e6:	60 00 20    	mov.w     #0x6, w0
    27e8:	00 01 78    	mov.w     w0, w2
    27ea:	11 00 09    	repeat    #0x11
    27ec:	82 00 d8    	div.sw    w1, w2
    27ee:	80 00 fd    	exch      w0, w1
    27f0:	00 40 78    	mov.b     w0, w0
    27f2:	11 e8 b7    	mov.b     WREG, 0x811
    27f4:	07 00 37    	bra       0x2804 <.L50>

000027f6 <.L49>:
    27f6:	d0 16 80    	mov.w     0x2da, w0
    27f8:	68 00 60    	and.w     w0, #0x8, w0
    27fa:	00 00 e0    	cp0.w     w0
    27fc:	03 00 3a    	bra       NZ, 0x2804 <.L50>
    27fe:	11 c8 bf    	mov.b     0x811, WREG
    2800:	00 40 e9    	dec.b     w0, w0
    2802:	11 e8 b7    	mov.b     WREG, 0x811

00002804 <.L50>:
    2804:	11 c8 bf    	mov.b     0x811, WREG
    2806:	e5 4f 50    	sub.b     w0, #0x5, [w15]
    2808:	03 00 36    	bra       LEU, 0x2810 <.L51>
    280a:	11 c8 bf    	mov.b     0x811, WREG
    280c:	66 40 40    	add.b     w0, #0x6, w0
    280e:	11 e8 b7    	mov.b     WREG, 0x811

00002810 <.L51>:
    2810:	51 16 80    	mov.w     0x2ca, w1
    2812:	00 00 28    	mov.w     #0x8000, w0
    2814:	00 80 60    	and.w     w1, w0, w0
    2816:	00 00 e0    	cp0.w     w0
    2818:	0b 00 3a    	bra       NZ, 0x2830 <.L52>
    281a:	12 c8 bf    	mov.b     0x812, WREG
    281c:	00 80 fb    	ze        w0, w0
    281e:	80 00 e8    	inc.w     w0, w1
    2820:	60 00 20    	mov.w     #0x6, w0
    2822:	00 01 78    	mov.w     w0, w2
    2824:	11 00 09    	repeat    #0x11
    2826:	82 00 d8    	div.sw    w1, w2
    2828:	80 00 fd    	exch      w0, w1
    282a:	00 40 78    	mov.b     w0, w0
    282c:	12 e8 b7    	mov.b     WREG, 0x812
    282e:	07 00 37    	bra       0x283e <.L53>

00002830 <.L52>:
    2830:	50 17 80    	mov.w     0x2ea, w0
    2832:	68 00 60    	and.w     w0, #0x8, w0
    2834:	00 00 e0    	cp0.w     w0
    2836:	03 00 3a    	bra       NZ, 0x283e <.L53>
    2838:	12 c8 bf    	mov.b     0x812, WREG
    283a:	00 40 e9    	dec.b     w0, w0
    283c:	12 e8 b7    	mov.b     WREG, 0x812

0000283e <.L53>:
    283e:	12 c8 bf    	mov.b     0x812, WREG
    2840:	e5 4f 50    	sub.b     w0, #0x5, [w15]
    2842:	03 00 36    	bra       LEU, 0x284a <.L54>
    2844:	12 c8 bf    	mov.b     0x812, WREG
    2846:	66 40 40    	add.b     w0, #0x6, w0
    2848:	12 e8 b7    	mov.b     WREG, 0x812

0000284a <.L54>:
    284a:	d1 16 80    	mov.w     0x2da, w1
    284c:	00 10 20    	mov.w     #0x100, w0
    284e:	00 80 60    	and.w     w1, w0, w0
    2850:	00 00 e0    	cp0.w     w0
    2852:	0b 00 3a    	bra       NZ, 0x286a <.L55>
    2854:	13 c8 bf    	mov.b     0x813, WREG
    2856:	00 80 fb    	ze        w0, w0
    2858:	80 00 e8    	inc.w     w0, w1
    285a:	60 00 20    	mov.w     #0x6, w0
    285c:	00 01 78    	mov.w     w0, w2
    285e:	11 00 09    	repeat    #0x11
    2860:	82 00 d8    	div.sw    w1, w2
    2862:	80 00 fd    	exch      w0, w1
    2864:	00 40 78    	mov.b     w0, w0
    2866:	13 e8 b7    	mov.b     WREG, 0x813
    2868:	08 00 37    	bra       0x287a <.L56>

0000286a <.L55>:
    286a:	d1 16 80    	mov.w     0x2da, w1
    286c:	00 80 20    	mov.w     #0x800, w0
    286e:	00 80 60    	and.w     w1, w0, w0
    2870:	00 00 e0    	cp0.w     w0
    2872:	03 00 3a    	bra       NZ, 0x287a <.L56>
    2874:	13 c8 bf    	mov.b     0x813, WREG
    2876:	00 40 e9    	dec.b     w0, w0
    2878:	13 e8 b7    	mov.b     WREG, 0x813

0000287a <.L56>:
    287a:	13 c8 bf    	mov.b     0x813, WREG
    287c:	e5 4f 50    	sub.b     w0, #0x5, [w15]
    287e:	03 00 36    	bra       LEU, 0x2886 <.L57>
    2880:	13 c8 bf    	mov.b     0x813, WREG
    2882:	66 40 40    	add.b     w0, #0x6, w0
    2884:	13 e8 b7    	mov.b     WREG, 0x813

00002886 <.L57>:
    2886:	d1 16 80    	mov.w     0x2da, w1
    2888:	00 20 20    	mov.w     #0x200, w0
    288a:	00 80 60    	and.w     w1, w0, w0
    288c:	00 00 e0    	cp0.w     w0
    288e:	0b 00 3a    	bra       NZ, 0x28a6 <.L58>
    2890:	14 c8 bf    	mov.b     0x814, WREG
    2892:	00 80 fb    	ze        w0, w0
    2894:	80 00 e8    	inc.w     w0, w1
    2896:	60 00 20    	mov.w     #0x6, w0
    2898:	00 01 78    	mov.w     w0, w2
    289a:	11 00 09    	repeat    #0x11
    289c:	82 00 d8    	div.sw    w1, w2
    289e:	80 00 fd    	exch      w0, w1
    28a0:	00 40 78    	mov.b     w0, w0
    28a2:	14 e8 b7    	mov.b     WREG, 0x814
    28a4:	08 00 37    	bra       0x28b6 <.L59>

000028a6 <.L58>:
    28a6:	d1 16 80    	mov.w     0x2da, w1
    28a8:	00 40 20    	mov.w     #0x400, w0
    28aa:	00 80 60    	and.w     w1, w0, w0
    28ac:	00 00 e0    	cp0.w     w0
    28ae:	03 00 3a    	bra       NZ, 0x28b6 <.L59>
    28b0:	14 c8 bf    	mov.b     0x814, WREG
    28b2:	00 40 e9    	dec.b     w0, w0
    28b4:	14 e8 b7    	mov.b     WREG, 0x814

000028b6 <.L59>:
    28b6:	14 c8 bf    	mov.b     0x814, WREG
    28b8:	e5 4f 50    	sub.b     w0, #0x5, [w15]
    28ba:	03 00 36    	bra       LEU, 0x28c2 <.L60>
    28bc:	14 c8 bf    	mov.b     0x814, WREG
    28be:	66 40 40    	add.b     w0, #0x6, w0
    28c0:	14 e8 b7    	mov.b     WREG, 0x814

000028c2 <.L60>:
    28c2:	d8 f8 07    	rcall     0x1a74 <_updateDisplay> <.LFB8> <.LFE5>
    28c4:	00 80 fa    	ulnk      
    28c6:	34 00 f9    	pop       0x34
    28c8:	32 00 f9    	pop       0x32
    28ca:	4f 03 be    	mov.d     [--w15], w6
    28cc:	4f 02 be    	mov.d     [--w15], w4
    28ce:	4f 01 be    	mov.d     [--w15], w2
    28d0:	4f 00 be    	mov.d     [--w15], w0
    28d2:	36 00 f9    	pop       0x36
    28d4:	00 40 06    	retfie    

000028d6 <__SI2C2Interrupt>:
    28d6:	80 9f be    	mov.d     w0, [w15++]
    28d8:	32 00 f8    	push      0x32
    28da:	34 00 f8    	push      0x34
    28dc:	10 00 20    	mov.w     #0x1, w0
    28de:	a0 01 88    	mov.w     w0, 0x34
    28e0:	00 20 20    	mov.w     #0x200, w0
    28e2:	90 01 88    	mov.w     w0, 0x32
    28e4:	02 00 fa    	lnk       #0x2
    28e6:	8a 20 a9    	bclr.b    0x8a, #0x1
    28e8:	40 41 80    	mov.w     0x828, w0
    28ea:	e1 0f 50    	sub.w     w0, #0x1, [w15]
    28ec:	23 00 32    	bra       Z, 0x2934 <.L4>
    28ee:	e1 0f 50    	sub.w     w0, #0x1, [w15]
    28f0:	03 00 39    	bra       NC, 0x28f8 <.L3>
    28f2:	e2 0f 50    	sub.w     w0, #0x2, [w15]
    28f4:	50 00 32    	bra       Z, 0x2996 <.L5>
    28f6:	51 00 37    	bra       0x299a <.L18>

000028f8 <.L3>:
    28f8:	80 10 80    	mov.w     0x210, w0
    28fa:	00 4f 78    	mov.b     w0, [w14]
    28fc:	c0 10 80    	mov.w     0x218, w0
    28fe:	64 00 60    	and.w     w0, #0x4, w0
    2900:	00 00 e0    	cp0.w     w0
    2902:	15 00 32    	bra       Z, 0x292e <.L6>
    2904:	21 c8 bf    	mov.b     0x821, WREG
    2906:	00 80 fb    	ze        w0, w0
    2908:	47 00 dd    	sl.w      w0, #0x7, w0
    290a:	80 40 78    	mov.b     w0, w1
    290c:	22 c8 bf    	mov.b     0x822, WREG
    290e:	00 80 fb    	ze        w0, w0
    2910:	67 00 60    	and.w     w0, #0x7, w0
    2912:	44 00 dd    	sl.w      w0, #0x4, w0
    2914:	00 40 78    	mov.b     w0, w0
    2916:	80 c0 70    	ior.b     w1, w0, w1
    2918:	23 c8 bf    	mov.b     0x823, WREG
    291a:	6f 40 60    	and.b     w0, #0xf, w0
    291c:	00 c0 70    	ior.b     w1, w0, w0
    291e:	1e e8 b7    	mov.b     WREG, 0x81e
    2920:	1e c8 bf    	mov.b     0x81e, WREG
    2922:	00 80 fb    	ze        w0, w0
    2924:	90 10 88    	mov.w     w0, 0x212
    2926:	17 82 a8    	bset.b    0x217, #0x4
    2928:	20 00 20    	mov.w     #0x2, w0
    292a:	40 41 88    	mov.w     w0, 0x828
    292c:	37 00 37    	bra       0x299c <.L1>

0000292e <.L6>:
    292e:	10 00 20    	mov.w     #0x1, w0
    2930:	40 41 88    	mov.w     w0, 0x828
    2932:	34 00 37    	bra       0x299c <.L1>

00002934 <.L4>:
    2934:	80 10 80    	mov.w     0x210, w0
    2936:	00 40 78    	mov.b     w0, w0
    2938:	1f e8 b7    	mov.b     WREG, 0x81f
    293a:	1f c8 bf    	mov.b     0x81f, WREG
    293c:	00 80 fb    	ze        w0, w0
    293e:	45 00 de    	lsr.w     w0, #0x5, w0
    2940:	00 40 78    	mov.b     w0, w0
    2942:	00 80 fb    	ze        w0, w0
    2944:	e4 0f 50    	sub.w     w0, #0x4, [w15]
    2946:	0f 00 32    	bra       Z, 0x2966 <.L12>
    2948:	e4 0f 50    	sub.w     w0, #0x4, [w15]
    294a:	05 00 3c    	bra       GT, 0x2956 <.L16>
    294c:	e1 0f 50    	sub.w     w0, #0x1, [w15]
    294e:	16 00 32    	bra       Z, 0x297c <.L10>
    2950:	e2 0f 50    	sub.w     w0, #0x2, [w15]
    2952:	17 00 32    	bra       Z, 0x2982 <.L11>
    2954:	19 00 37    	bra       0x2988 <.L9>

00002956 <.L16>:
    2956:	e7 0f 50    	sub.w     w0, #0x7, [w15]
    2958:	0a 00 32    	bra       Z, 0x296e <.L14>
    295a:	11 10 20    	mov.w     #0x101, w1
    295c:	81 0f 50    	sub.w     w0, w1, [w15]
    295e:	18 00 32    	bra       Z, 0x2990 <.L19>
    2960:	e6 0f 50    	sub.w     w0, #0x6, [w15]
    2962:	09 00 32    	bra       Z, 0x2976 <.L13>
    2964:	11 00 37    	bra       0x2988 <.L9>

00002966 <.L12>:
    2966:	1f c8 bf    	mov.b     0x81f, WREG
    2968:	7f 40 60    	and.b     w0, #0x1f, w0
    296a:	20 e8 b7    	mov.b     WREG, 0x820
    296c:	12 00 37    	bra       0x2992 <.L17>

0000296e <.L14>:
    296e:	1f c8 bf    	mov.b     0x81f, WREG
    2970:	7f 40 60    	and.b     w0, #0x1f, w0
    2972:	22 e8 b7    	mov.b     WREG, 0x822
    2974:	0e 00 37    	bra       0x2992 <.L17>

00002976 <.L13>:
    2976:	10 c0 b3    	mov.b     #0x1, w0
    2978:	24 e8 b7    	mov.b     WREG, 0x824
    297a:	0b 00 37    	bra       0x2992 <.L17>

0000297c <.L10>:
    297c:	10 c0 b3    	mov.b     #0x1, w0
    297e:	25 e8 b7    	mov.b     WREG, 0x825
    2980:	08 00 37    	bra       0x2992 <.L17>

00002982 <.L11>:
    2982:	10 c0 b3    	mov.b     #0x1, w0
    2984:	26 e8 b7    	mov.b     WREG, 0x826
    2986:	05 00 37    	bra       0x2992 <.L17>

00002988 <.L9>:
    2988:	23 c8 bf    	mov.b     0x823, WREG
    298a:	00 40 e8    	inc.b     w0, w0
    298c:	23 e8 b7    	mov.b     WREG, 0x823
    298e:	01 00 37    	bra       0x2992 <.L17>

00002990 <.L19>:
    2990:	00 00 00    	nop       

00002992 <.L17>:
    2992:	28 28 ef    	clr.w     0x828
    2994:	03 00 37    	bra       0x299c <.L1>

00002996 <.L5>:
    2996:	28 28 ef    	clr.w     0x828
    2998:	01 00 37    	bra       0x299c <.L1>

0000299a <.L18>:
    299a:	28 28 ef    	clr.w     0x828

0000299c <.L1>:
    299c:	00 80 fa    	ulnk      
    299e:	34 00 f9    	pop       0x34
    29a0:	32 00 f9    	pop       0x32
    29a2:	4f 00 be    	mov.d     [--w15], w0
    29a4:	00 40 06    	retfie    

000029a6 <__U1TXInterrupt>:
    29a6:	80 9f be    	mov.d     w0, [w15++]
    29a8:	32 00 f8    	push      0x32
    29aa:	34 00 f8    	push      0x34
    29ac:	10 00 20    	mov.w     #0x1, w0
    29ae:	a0 01 88    	mov.w     w0, 0x34
    29b0:	00 20 20    	mov.w     #0x200, w0
    29b2:	90 01 88    	mov.w     w0, 0x32
    29b4:	02 00 fa    	lnk       #0x2
    29b6:	85 80 a9    	bclr.b    0x85, #0x4
    29b8:	a0 41 80    	mov.w     0x834, w0
    29ba:	00 00 e0    	cp0.w     w0
    29bc:	17 00 3a    	bra       NZ, 0x29ec <.L8>
    29be:	23 42 a9    	bclr.b    0x223, #0x2
    29c0:	16 00 37    	bra       0x29ee <.L4>

000029c2 <.L7>:
    29c2:	ff 3f fc    	disi      #0x3fff
    29c4:	61 41 80    	mov.w     0x82c, w1
    29c6:	80 41 80    	mov.w     0x830, w0
    29c8:	00 80 40    	add.w     w1, w0, w0
    29ca:	10 4f 78    	mov.b     [w0], [w14]
    29cc:	80 41 80    	mov.w     0x830, w0
    29ce:	00 00 e8    	inc.w     w0, w0
    29d0:	80 41 88    	mov.w     w0, 0x830
    29d2:	81 41 80    	mov.w     0x830, w1
    29d4:	70 41 80    	mov.w     0x82e, w0
    29d6:	80 8f 50    	sub.w     w1, w0, [w15]
    29d8:	02 00 3a    	bra       NZ, 0x29de <.L5>
    29da:	00 00 eb    	clr.w     w0
    29dc:	80 41 88    	mov.w     w0, 0x830

000029de <.L5>:
    29de:	a0 41 80    	mov.w     0x834, w0
    29e0:	00 00 e9    	dec.w     w0, w0
    29e2:	a0 41 88    	mov.w     w0, 0x834
    29e4:	52 20 ef    	clr.w     0x52
    29e6:	1e 80 fb    	ze        [w14], w0
    29e8:	20 11 88    	mov.w     w0, 0x224
    29ea:	01 00 37    	bra       0x29ee <.L4>

000029ec <.L8>:
    29ec:	00 00 00    	nop       

000029ee <.L4>:
    29ee:	11 11 80    	mov.w     0x222, w1
    29f0:	00 20 20    	mov.w     #0x200, w0
    29f2:	00 80 60    	and.w     w1, w0, w0
    29f4:	00 00 e0    	cp0.w     w0
    29f6:	03 00 3a    	bra       NZ, 0x29fe <.L2>
    29f8:	a0 41 80    	mov.w     0x834, w0
    29fa:	00 00 e0    	cp0.w     w0
    29fc:	e2 ff 3a    	bra       NZ, 0x29c2 <.L7>

000029fe <.L2>:
    29fe:	00 80 fa    	ulnk      
    2a00:	34 00 f9    	pop       0x34
    2a02:	32 00 f9    	pop       0x32
    2a04:	4f 00 be    	mov.d     [--w15], w0
    2a06:	00 40 06    	retfie    

00002a08 <__U1RXInterrupt>:
    2a08:	80 9f be    	mov.d     w0, [w15++]
    2a0a:	32 00 f8    	push      0x32
    2a0c:	34 00 f8    	push      0x34
    2a0e:	10 00 20    	mov.w     #0x1, w0
    2a10:	a0 01 88    	mov.w     w0, 0x34
    2a12:	00 20 20    	mov.w     #0x200, w0
    2a14:	90 01 88    	mov.w     w0, 0x32
    2a16:	00 00 fa    	lnk       #0x0
    2a18:	85 60 a9    	bclr.b    0x85, #0x3
    2a1a:	14 00 37    	bra       0x2a44 <.L10>

00002a1c <.L13>:
    2a1c:	ff 3f fc    	disi      #0x3fff
    2a1e:	b1 41 80    	mov.w     0x836, w1
    2a20:	e0 41 80    	mov.w     0x83c, w0
    2a22:	00 80 40    	add.w     w1, w0, w0
    2a24:	31 11 80    	mov.w     0x226, w1
    2a26:	81 40 78    	mov.b     w1, w1
    2a28:	01 48 78    	mov.b     w1, [w0]
    2a2a:	e0 41 80    	mov.w     0x83c, w0
    2a2c:	00 00 e8    	inc.w     w0, w0
    2a2e:	e0 41 88    	mov.w     w0, 0x83c
    2a30:	e1 41 80    	mov.w     0x83c, w1
    2a32:	c0 41 80    	mov.w     0x838, w0
    2a34:	80 8f 50    	sub.w     w1, w0, [w15]
    2a36:	02 00 3a    	bra       NZ, 0x2a3c <.L11>
    2a38:	00 00 eb    	clr.w     w0
    2a3a:	e0 41 88    	mov.w     w0, 0x83c

00002a3c <.L11>:
    2a3c:	f0 41 80    	mov.w     0x83e, w0
    2a3e:	00 00 e8    	inc.w     w0, w0
    2a40:	f0 41 88    	mov.w     w0, 0x83e
    2a42:	52 20 ef    	clr.w     0x52

00002a44 <.L10>:
    2a44:	10 11 80    	mov.w     0x222, w0
    2a46:	61 00 60    	and.w     w0, #0x1, w0
    2a48:	00 00 e0    	cp0.w     w0
    2a4a:	04 00 32    	bra       Z, 0x2a54 <.L9>
    2a4c:	f1 41 80    	mov.w     0x83e, w1
    2a4e:	c0 41 80    	mov.w     0x838, w0
    2a50:	80 8f 50    	sub.w     w1, w0, [w15]
    2a52:	e4 ff 3a    	bra       NZ, 0x2a1c <.L13>

00002a54 <.L9>:
    2a54:	00 80 fa    	ulnk      
    2a56:	34 00 f9    	pop       0x34
    2a58:	32 00 f9    	pop       0x32
    2a5a:	4f 00 be    	mov.d     [--w15], w0
    2a5c:	00 40 06    	retfie    
Disassembly of section .text:

00002a5e <_init_elecanisms>:
            U1_rx_buffer.tail = 0;
        U1_rx_buffer.count++;
        enable_interrupts();
    }
}
    2a5e:	00 00 fa    	lnk       #0x0
    2a60:	00 10 20    	mov.w     #0x100, w0
    2a62:	20 3a 88    	mov.w     w0, 0x744
    2a64:	d8 a2 a8    	bset.b    0x2d8, #0x5
    2a66:	d8 82 a8    	bset.b    0x2d8, #0x4
    2a68:	e8 82 a8    	bset.b    0x2e8, #0x4
    2a6a:	e8 a2 a8    	bset.b    0x2e8, #0x5
    2a6c:	c9 e2 a8    	bset.b    0x2c9, #0x7
    2a6e:	e8 62 a8    	bset.b    0x2e8, #0x3
    2a70:	d9 02 a8    	bset.b    0x2d9, #0x0
    2a72:	d9 62 a8    	bset.b    0x2d9, #0x3
    2a74:	d9 22 a8    	bset.b    0x2d9, #0x1
    2a76:	d9 42 a8    	bset.b    0x2d9, #0x2
    2a78:	d8 02 a8    	bset.b    0x2d8, #0x0
    2a7a:	d8 22 a8    	bset.b    0x2d8, #0x1
    2a7c:	d8 42 a8    	bset.b    0x2d8, #0x2
    2a7e:	d8 62 a8    	bset.b    0x2d8, #0x3
    2a80:	c8 a2 a8    	bset.b    0x2c8, #0x5
    2a82:	c8 82 a8    	bset.b    0x2c8, #0x4
    2a84:	c8 62 a8    	bset.b    0x2c8, #0x3
    2a86:	c8 42 a8    	bset.b    0x2c8, #0x2
    2a88:	c8 22 a8    	bset.b    0x2c8, #0x1
    2a8a:	c8 02 a8    	bset.b    0x2c8, #0x0
    2a8c:	f0 03 20    	mov.w     #0x3f, w0
    2a8e:	10 27 88    	mov.w     w0, 0x4e2
    2a90:	e4 24 ef    	clr.w     0x4e4
    2a92:	e6 24 ef    	clr.w     0x4e6
    2a94:	ea 24 ef    	clr.w     0x4ea
    2a96:	ec 24 ef    	clr.w     0x4ec
    2a98:	00 0e 20    	mov.w     #0xe0, w0
    2a9a:	00 19 88    	mov.w     w0, 0x320
    2a9c:	22 23 ef    	clr.w     0x322
    2a9e:	00 c4 20    	mov.w     #0xc40, w0
    2aa0:	20 19 88    	mov.w     w0, 0x324
    2aa2:	50 00 20    	mov.w     #0x5, w0
    2aa4:	40 19 88    	mov.w     w0, 0x328
    2aa6:	21 e3 a8    	bset.b    0x321, #0x7
    2aa8:	d8 e2 a9    	bclr.b    0x2d8, #0x7
    2aaa:	dc e2 a9    	bclr.b    0x2dc, #0x7
    2aac:	e8 02 a9    	bclr.b    0x2e8, #0x0
    2aae:	ec 02 a9    	bclr.b    0x2ec, #0x0
    2ab0:	e8 22 a9    	bclr.b    0x2e8, #0x1
    2ab2:	ec 22 a9    	bclr.b    0x2ec, #0x1
    2ab4:	d1 e2 a8    	bset.b    0x2d1, #0x7
    2ab6:	d1 82 a8    	bset.b    0x2d1, #0x4
    2ab8:	c9 82 a8    	bset.b    0x2c9, #0x4
    2aba:	00 80 fa    	ulnk      
    2abc:	00 00 06    	return    

00002abe <_read_analog>:
    2abe:	02 00 fa    	lnk       #0x2
    2ac0:	00 0f 78    	mov.w     w0, [w14]
    2ac2:	9e 00 78    	mov.w     [w14], w1
    2ac4:	41 19 88    	mov.w     w1, 0x328
    2ac6:	20 23 a8    	bset.b    0x320, #0x1
    2ac8:	00 00 00    	nop       

00002aca <.L3>:
    2aca:	00 19 80    	mov.w     0x320, w0
    2acc:	61 00 60    	and.w     w0, #0x1, w0
    2ace:	00 00 e0    	cp0.w     w0
    2ad0:	fc ff 32    	bra       Z, 0x2aca <.L3>
    2ad2:	00 18 80    	mov.w     0x300, w0
    2ad4:	00 80 fa    	ulnk      
    2ad6:	00 00 06    	return    

00002ad8 <_parity>:

#include "common.h"

uint8_t parity(uint16_t v)
{
    2ad8:	02 00 fa    	lnk       #0x2
    2ada:	00 0f 78    	mov.w     w0, [w14]
    v ^= v >> 8;
    2adc:	1e 00 78    	mov.w     [w14], w0
    2ade:	48 00 de    	lsr.w     w0, #0x8, w0
    2ae0:	1e 0f 68    	xor.w     w0, [w14], [w14]
    v ^= v >> 4;
    2ae2:	1e 00 78    	mov.w     [w14], w0
    2ae4:	44 00 de    	lsr.w     w0, #0x4, w0
    2ae6:	1e 0f 68    	xor.w     w0, [w14], [w14]
    v ^= v >> 2;
    2ae8:	1e 00 78    	mov.w     [w14], w0
    2aea:	42 00 de    	lsr.w     w0, #0x2, w0
    2aec:	1e 0f 68    	xor.w     w0, [w14], [w14]
    v ^= v >> 1;
    2aee:	1e 00 78    	mov.w     [w14], w0
    2af0:	00 00 d1    	lsr.w     w0, w0
    2af2:	1e 0f 68    	xor.w     w0, [w14], [w14]
    return v & 1;
    2af4:	1e 00 78    	mov.w     [w14], w0
    2af6:	00 40 78    	mov.b     w0, w0
    2af8:	61 40 60    	and.b     w0, #0x1, w0
}
    2afa:	00 80 fa    	ulnk      
    2afc:	00 00 06    	return    
Disassembly of section .dinit:

00002afe <.dinit>:
    2afe:	50 10 00    	nop       
    2b00:	06 00 00    	nop       
    2b02:	80 00 00    	nop       
    2b04:	00 08 00    	nop       
    2b06:	1e 00 00    	nop       
    2b08:	80 00 00    	nop       
    2b0a:	40 10 00    	nop       
    2b0c:	10 00 00    	nop       
    2b0e:	80 00 00    	nop       
    2b10:	1e 08 00    	nop       
    2b12:	0c 00 00    	nop       
    2b14:	80 00 00    	nop       
    2b16:	2c 08 00    	nop       
    2b18:	14 08 00    	nop       
    2b1a:	80 00 00    	nop       
    2b1c:	2a 08 00    	nop       
    2b1e:	02 00 00    	nop       
    2b20:	80 00 00    	nop       
    2b22:	00 00 00    	nop       
Disassembly of section .isr:

00002b24 <__DefaultInterrupt>:
    2b24:	00 40 da    	break     
    2b26:	00 00 fe    	reset     
