
codeword.elf:     file format elf32-pic30

Disassembly of section .aivt._AltADC1Interrupt:

0000012e <.aivt._AltADC1Interrupt>:
 12e:	1a 2b 00    	nop       
Disassembly of section .aivt._AltAddressError:

00000108 <.aivt._AltAddressError>:
 108:	1a 2b 00    	nop       
Disassembly of section .aivt._AltCNInterrupt:

0000013a <.aivt._AltCNInterrupt>:
 13a:	1a 2b 00    	nop       
Disassembly of section .aivt._AltCRCInterrupt:

0000019a <.aivt._AltCRCInterrupt>:
 19a:	1a 2b 00    	nop       
Disassembly of section .aivt._AltCTMUInterrupt:

000001ae <.aivt._AltCTMUInterrupt>:
 1ae:	1a 2b 00    	nop       
Disassembly of section .aivt._AltCompInterrupt:

00000138 <.aivt._AltCompInterrupt>:
 138:	1a 2b 00    	nop       
Disassembly of section .aivt._AltIC1Interrupt:

00000116 <.aivt._AltIC1Interrupt>:
 116:	1a 2b 00    	nop       
Disassembly of section .aivt._AltIC2Interrupt:

0000011e <.aivt._AltIC2Interrupt>:
 11e:	1a 2b 00    	nop       
Disassembly of section .aivt._AltIC3Interrupt:

0000015e <.aivt._AltIC3Interrupt>:
 15e:	1a 2b 00    	nop       
Disassembly of section .aivt._AltIC4Interrupt:

00000160 <.aivt._AltIC4Interrupt>:
 160:	1a 2b 00    	nop       
Disassembly of section .aivt._AltIC5Interrupt:

00000162 <.aivt._AltIC5Interrupt>:
 162:	1a 2b 00    	nop       
Disassembly of section .aivt._AltIC6Interrupt:

00000164 <.aivt._AltIC6Interrupt>:
 164:	1a 2b 00    	nop       
Disassembly of section .aivt._AltIC7Interrupt:

00000140 <.aivt._AltIC7Interrupt>:
 140:	1a 2b 00    	nop       
Disassembly of section .aivt._AltIC8Interrupt:

00000142 <.aivt._AltIC8Interrupt>:
 142:	1a 2b 00    	nop       
Disassembly of section .aivt._AltIC9Interrupt:

000001ce <.aivt._AltIC9Interrupt>:
 1ce:	1a 2b 00    	nop       
Disassembly of section .aivt._AltINT0Interrupt:

00000114 <.aivt._AltINT0Interrupt>:
 114:	1a 2b 00    	nop       
Disassembly of section .aivt._AltINT1Interrupt:

0000013c <.aivt._AltINT1Interrupt>:
 13c:	1a 2b 00    	nop       
Disassembly of section .aivt._AltINT2Interrupt:

0000014e <.aivt._AltINT2Interrupt>:
 14e:	1a 2b 00    	nop       
Disassembly of section .aivt._AltINT3Interrupt:

0000017e <.aivt._AltINT3Interrupt>:
 17e:	1a 2b 00    	nop       
Disassembly of section .aivt._AltINT4Interrupt:

00000180 <.aivt._AltINT4Interrupt>:
 180:	1a 2b 00    	nop       
Disassembly of section .aivt._AltInterrupt14:

00000130 <.aivt._AltInterrupt14>:
 130:	1a 2b 00    	nop       
Disassembly of section .aivt._AltInterrupt15:

00000132 <.aivt._AltInterrupt15>:
 132:	1a 2b 00    	nop       
Disassembly of section .aivt._AltInterrupt21:

0000013e <.aivt._AltInterrupt21>:
 13e:	1a 2b 00    	nop       
Disassembly of section .aivt._AltInterrupt24:

00000144 <.aivt._AltInterrupt24>:
 144:	1a 2b 00    	nop       
Disassembly of section .aivt._AltInterrupt34:

00000158 <.aivt._AltInterrupt34>:
 158:	1a 2b 00    	nop       
Disassembly of section .aivt._AltInterrupt35:

0000015a <.aivt._AltInterrupt35>:
 15a:	1a 2b 00    	nop       
Disassembly of section .aivt._AltInterrupt36:

0000015c <.aivt._AltInterrupt36>:
 15c:	1a 2b 00    	nop       
Disassembly of section .aivt._AltInterrupt4:

0000011c <.aivt._AltInterrupt4>:
 11c:	1a 2b 00    	nop       
Disassembly of section .aivt._AltInterrupt46:

00000170 <.aivt._AltInterrupt46>:
 170:	1a 2b 00    	nop       
Disassembly of section .aivt._AltInterrupt47:

00000172 <.aivt._AltInterrupt47>:
 172:	1a 2b 00    	nop       
Disassembly of section .aivt._AltInterrupt48:

00000174 <.aivt._AltInterrupt48>:
 174:	1a 2b 00    	nop       
Disassembly of section .aivt._AltInterrupt51:

0000017a <.aivt._AltInterrupt51>:
 17a:	1a 2b 00    	nop       
Disassembly of section .aivt._AltInterrupt52:

0000017c <.aivt._AltInterrupt52>:
 17c:	1a 2b 00    	nop       
Disassembly of section .aivt._AltInterrupt55:

00000182 <.aivt._AltInterrupt55>:
 182:	1a 2b 00    	nop       
Disassembly of section .aivt._AltInterrupt56:

00000184 <.aivt._AltInterrupt56>:
 184:	1a 2b 00    	nop       
Disassembly of section .aivt._AltInterrupt57:

00000186 <.aivt._AltInterrupt57>:
 186:	1a 2b 00    	nop       
Disassembly of section .aivt._AltInterrupt58:

00000188 <.aivt._AltInterrupt58>:
 188:	1a 2b 00    	nop       
Disassembly of section .aivt._AltInterrupt59:

0000018a <.aivt._AltInterrupt59>:
 18a:	1a 2b 00    	nop       
Disassembly of section .aivt._AltInterrupt60:

0000018c <.aivt._AltInterrupt60>:
 18c:	1a 2b 00    	nop       
Disassembly of section .aivt._AltInterrupt61:

0000018e <.aivt._AltInterrupt61>:
 18e:	1a 2b 00    	nop       
Disassembly of section .aivt._AltInterrupt63:

00000192 <.aivt._AltInterrupt63>:
 192:	1a 2b 00    	nop       
Disassembly of section .aivt._AltInterrupt64:

00000194 <.aivt._AltInterrupt64>:
 194:	1a 2b 00    	nop       
Disassembly of section .aivt._AltInterrupt68:

0000019c <.aivt._AltInterrupt68>:
 19c:	1a 2b 00    	nop       
Disassembly of section .aivt._AltInterrupt69:

0000019e <.aivt._AltInterrupt69>:
 19e:	1a 2b 00    	nop       
Disassembly of section .aivt._AltInterrupt70:

000001a0 <.aivt._AltInterrupt70>:
 1a0:	1a 2b 00    	nop       
Disassembly of section .aivt._AltInterrupt71:

000001a2 <.aivt._AltInterrupt71>:
 1a2:	1a 2b 00    	nop       
Disassembly of section .aivt._AltInterrupt73:

000001a6 <.aivt._AltInterrupt73>:
 1a6:	1a 2b 00    	nop       
Disassembly of section .aivt._AltInterrupt74:

000001a8 <.aivt._AltInterrupt74>:
 1a8:	1a 2b 00    	nop       
Disassembly of section .aivt._AltInterrupt75:

000001aa <.aivt._AltInterrupt75>:
 1aa:	1a 2b 00    	nop       
Disassembly of section .aivt._AltInterrupt76:

000001ac <.aivt._AltInterrupt76>:
 1ac:	1a 2b 00    	nop       
Disassembly of section .aivt._AltInterrupt78:

000001b0 <.aivt._AltInterrupt78>:
 1b0:	1a 2b 00    	nop       
Disassembly of section .aivt._AltInterrupt79:

000001b2 <.aivt._AltInterrupt79>:
 1b2:	1a 2b 00    	nop       
Disassembly of section .aivt._AltInterrupt80:

000001b4 <.aivt._AltInterrupt80>:
 1b4:	1a 2b 00    	nop       
Disassembly of section .aivt._AltLVDInterrupt:

000001a4 <.aivt._AltLVDInterrupt>:
 1a4:	1a 2b 00    	nop       
Disassembly of section .aivt._AltMI2C1Interrupt:

00000136 <.aivt._AltMI2C1Interrupt>:
 136:	1a 2b 00    	nop       
Disassembly of section .aivt._AltMI2C2Interrupt:

00000178 <.aivt._AltMI2C2Interrupt>:
 178:	1a 2b 00    	nop       
Disassembly of section .aivt._AltMI2C3Interrupt:

000001be <.aivt._AltMI2C3Interrupt>:
 1be:	1a 2b 00    	nop       
Disassembly of section .aivt._AltMathError:

0000010c <.aivt._AltMathError>:
 10c:	1a 2b 00    	nop       
Disassembly of section .aivt._AltOC1Interrupt:

00000118 <.aivt._AltOC1Interrupt>:
 118:	1a 2b 00    	nop       
Disassembly of section .aivt._AltOC2Interrupt:

00000120 <.aivt._AltOC2Interrupt>:
 120:	1a 2b 00    	nop       
Disassembly of section .aivt._AltOC3Interrupt:

00000146 <.aivt._AltOC3Interrupt>:
 146:	1a 2b 00    	nop       
Disassembly of section .aivt._AltOC4Interrupt:

00000148 <.aivt._AltOC4Interrupt>:
 148:	1a 2b 00    	nop       
Disassembly of section .aivt._AltOC5Interrupt:

00000166 <.aivt._AltOC5Interrupt>:
 166:	1a 2b 00    	nop       
Disassembly of section .aivt._AltOC6Interrupt:

00000168 <.aivt._AltOC6Interrupt>:
 168:	1a 2b 00    	nop       
Disassembly of section .aivt._AltOC7Interrupt:

0000016a <.aivt._AltOC7Interrupt>:
 16a:	1a 2b 00    	nop       
Disassembly of section .aivt._AltOC8Interrupt:

0000016c <.aivt._AltOC8Interrupt>:
 16c:	1a 2b 00    	nop       
Disassembly of section .aivt._AltOC9Interrupt:

000001cc <.aivt._AltOC9Interrupt>:
 1cc:	1a 2b 00    	nop       
Disassembly of section .aivt._AltOscillatorFail:

00000106 <.aivt._AltOscillatorFail>:
 106:	1a 2b 00    	nop       
Disassembly of section .aivt._AltPMPInterrupt:

0000016e <.aivt._AltPMPInterrupt>:
 16e:	1a 2b 00    	nop       
Disassembly of section .aivt._AltRTCCInterrupt:

00000190 <.aivt._AltRTCCInterrupt>:
 190:	1a 2b 00    	nop       
Disassembly of section .aivt._AltReservedTrap0:

00000104 <.aivt._AltReservedTrap0>:
 104:	1a 2b 00    	nop       
Disassembly of section .aivt._AltReservedTrap5:

0000010e <.aivt._AltReservedTrap5>:
 10e:	1a 2b 00    	nop       
Disassembly of section .aivt._AltReservedTrap6:

00000110 <.aivt._AltReservedTrap6>:
 110:	1a 2b 00    	nop       
Disassembly of section .aivt._AltReservedTrap7:

00000112 <.aivt._AltReservedTrap7>:
 112:	1a 2b 00    	nop       
Disassembly of section .aivt._AltSI2C1Interrupt:

00000134 <.aivt._AltSI2C1Interrupt>:
 134:	1a 2b 00    	nop       
Disassembly of section .aivt._AltSI2C2Interrupt:

00000176 <.aivt._AltSI2C2Interrupt>:
 176:	1a 2b 00    	nop       
Disassembly of section .aivt._AltSI2C3Interrupt:

000001bc <.aivt._AltSI2C3Interrupt>:
 1bc:	1a 2b 00    	nop       
Disassembly of section .aivt._AltSPI1ErrInterrupt:

00000126 <.aivt._AltSPI1ErrInterrupt>:
 126:	1a 2b 00    	nop       
Disassembly of section .aivt._AltSPI1Interrupt:

00000128 <.aivt._AltSPI1Interrupt>:
 128:	1a 2b 00    	nop       
Disassembly of section .aivt._AltSPI2ErrInterrupt:

00000154 <.aivt._AltSPI2ErrInterrupt>:
 154:	1a 2b 00    	nop       
Disassembly of section .aivt._AltSPI2Interrupt:

00000156 <.aivt._AltSPI2Interrupt>:
 156:	1a 2b 00    	nop       
Disassembly of section .aivt._AltSPI3ErrInterrupt:

000001c8 <.aivt._AltSPI3ErrInterrupt>:
 1c8:	1a 2b 00    	nop       
Disassembly of section .aivt._AltSPI3Interrupt:

000001ca <.aivt._AltSPI3Interrupt>:
 1ca:	1a 2b 00    	nop       
Disassembly of section .aivt._AltStackError:

0000010a <.aivt._AltStackError>:
 10a:	1a 2b 00    	nop       
Disassembly of section .aivt._AltT1Interrupt:

0000011a <.aivt._AltT1Interrupt>:
 11a:	1a 2b 00    	nop       
Disassembly of section .aivt._AltT2Interrupt:

00000122 <.aivt._AltT2Interrupt>:
 122:	1a 2b 00    	nop       
Disassembly of section .aivt._AltT3Interrupt:

00000124 <.aivt._AltT3Interrupt>:
 124:	1a 2b 00    	nop       
Disassembly of section .aivt._AltT4Interrupt:

0000014a <.aivt._AltT4Interrupt>:
 14a:	1a 2b 00    	nop       
Disassembly of section .aivt._AltT5Interrupt:

0000014c <.aivt._AltT5Interrupt>:
 14c:	1a 2b 00    	nop       
Disassembly of section .aivt._AltU1ErrInterrupt:

00000196 <.aivt._AltU1ErrInterrupt>:
 196:	1a 2b 00    	nop       
Disassembly of section .aivt._AltU1RXInterrupt:

0000012a <.aivt._AltU1RXInterrupt>:
 12a:	1a 2b 00    	nop       
Disassembly of section .aivt._AltU1TXInterrupt:

0000012c <.aivt._AltU1TXInterrupt>:
 12c:	1a 2b 00    	nop       
Disassembly of section .aivt._AltU2ErrInterrupt:

00000198 <.aivt._AltU2ErrInterrupt>:
 198:	1a 2b 00    	nop       
Disassembly of section .aivt._AltU2RXInterrupt:

00000150 <.aivt._AltU2RXInterrupt>:
 150:	1a 2b 00    	nop       
Disassembly of section .aivt._AltU2TXInterrupt:

00000152 <.aivt._AltU2TXInterrupt>:
 152:	1a 2b 00    	nop       
Disassembly of section .aivt._AltU3ErrInterrupt:

000001b6 <.aivt._AltU3ErrInterrupt>:
 1b6:	1a 2b 00    	nop       
Disassembly of section .aivt._AltU3RXInterrupt:

000001b8 <.aivt._AltU3RXInterrupt>:
 1b8:	1a 2b 00    	nop       
Disassembly of section .aivt._AltU3TXInterrupt:

000001ba <.aivt._AltU3TXInterrupt>:
 1ba:	1a 2b 00    	nop       
Disassembly of section .aivt._AltU4ErrInterrupt:

000001c2 <.aivt._AltU4ErrInterrupt>:
 1c2:	1a 2b 00    	nop       
Disassembly of section .aivt._AltU4RXInterrupt:

000001c4 <.aivt._AltU4RXInterrupt>:
 1c4:	1a 2b 00    	nop       
Disassembly of section .aivt._AltU4TXInterrupt:

000001c6 <.aivt._AltU4TXInterrupt>:
 1c6:	1a 2b 00    	nop       
Disassembly of section .aivt._AltUSB1Interrupt:

000001c0 <.aivt._AltUSB1Interrupt>:
 1c0:	1a 2b 00    	nop       
Disassembly of section .reset:

00000000 <.reset>:
   0:	10 11 04    	goto      0x1110 <__reset>
   2:	00 00 00 
Disassembly of section .text:

00001110 <__reset>:
    1110:	8f 05 21    	mov.w     #0x1058, w15
    1112:	0e ff 27    	mov.w     #0x7ff0, w14
    1114:	0e 01 88    	mov.w     w14, 0x20
    1116:	00 00 00    	nop       
    1118:	00 00 20    	mov.w     #0x0, w0
    111a:	00 00 e0    	cp0.w     w0
    111c:	02 00 32    	bra       Z, 0x1122 <CORCON_RESET>
    111e:	00 01 20    	mov.w     #0x10, w0
    1120:	20 02 88    	mov.w     w0, 0x44

00001122 <CORCON_RESET>:
    1122:	14 00 07    	rcall     0x114c <__psv_init>
    1124:	81 00 07    	rcall     0x1228 <__crt_start_mode> <__crt_start_mode_normal>
    1126:	00 00 e0    	cp0.w     w0
    1128:	03 00 3a    	bra       NZ, 0x1130 <L11>
    112a:	40 af 22    	mov.w     #0x2af4, w0
    112c:	01 00 20    	mov.w     #0x0, w1
    112e:	02 00 37    	bra       0x1134 <L21>

00001130 <L11>:
    1130:	00 00 20    	mov.w     #0x0, w0
    1132:	01 00 20    	mov.w     #0x0, w1

00001134 <L21>:
    1134:	81 0f 70    	ior.w     w0, w1, [w15]
    1136:	01 00 32    	bra       Z, 0x113a <L12>
    1138:	14 00 07    	rcall     0x1162 <__data_init> <__data_init_da>

0000113a <L12>:
    113a:	00 00 20    	mov.w     #0x0, w0
    113c:	00 00 e0    	cp0.w     w0
    113e:	02 00 32    	bra       Z, 0x1144 <L13>
    1140:	00 00 02    	call      0x0 <__DEFAULT_VECTOR-0x110c>
    1142:	00 00 00 

00001144 <L13>:
    1144:	d4 15 02    	call      0x15d4 <_main>
    1146:	00 00 00 
    1148:	00 40 da    	break     
    114a:	00 00 fe    	reset     

0000114c <__psv_init>:
    114c:	44 40 a9    	bclr.b    0x44, #0x2
    114e:	a0 3a 20    	mov.w     #0x3aa, w0
    1150:	00 00 e0    	cp0.w     w0
    1152:	03 00 32    	bra       Z, 0x115a <L14>
    1154:	00 20 20    	mov.w     #0x200, w0
    1156:	90 01 88    	mov.w     w0, 0x32
    1158:	44 40 a8    	bset.b    0x44, #0x2

0000115a <L14>:
    115a:	00 00 06    	return    

0000115c <__long_indirect_call>:
    115c:	8a 1f 78    	mov.w     w10, [w15++]
    115e:	8b 1f 78    	mov.w     w11, [w15++]
    1160:	00 00 06    	return    

00001162 <__data_init>:
    1162:	a1 02 88    	mov.w     w1, 0x54
    1164:	80 04 78    	mov.w     w0, w9
    1166:	00 00 eb    	clr.w     w0
    1168:	1f 00 37    	bra       0x11a8 <L41>

0000116a <L11>:
    116a:	e2 84 44    	add.w     w9, #0x2, w9
    116c:	54 a0 b4    	addc.w    0x54
    116e:	99 05 ba    	tblrdl.w  [w9], w11
    1170:	e2 84 44    	add.w     w9, #0x2, w9
    1172:	54 a0 b4    	addc.w    0x54
    1174:	99 06 ba    	tblrdl.w  [w9], w13
    1176:	e2 84 44    	add.w     w9, #0x2, w9
    1178:	54 a0 b4    	addc.w    0x54
    117a:	00 06 eb    	clr.w     w12
    117c:	47 6f de    	lsr.w     w13, #0x7, w14
    117e:	fd 07 b2    	and.w     #0x7f, w13
    1180:	ae 01 88    	mov.w     w14, 0x34
    1182:	63 6c e1    	cp.b      w13, #0x3
    1184:	03 00 3a    	bra       NZ, 0x118c <L21>
    1186:	ea ff 07    	rcall     0x115c <__long_indirect_call>
    1188:	00 00 eb    	clr.w     w0
    118a:	0e 00 37    	bra       0x11a8 <L41>

0000118c <L21>:
    118c:	60 6c e1    	cp.b      w13, #0x0
    118e:	08 00 3a    	bra       NZ, 0x11a0 <L22>

00001190 <L91>:
    1190:	00 4d eb    	clr.b     [w10]
    1192:	0a 05 e8    	inc.w     w10, w10
    1194:	02 00 39    	bra       NC, 0x119a <L81>
    1196:	34 20 ec    	inc.w     0x34
    1198:	0a f0 a0    	bset.w    w10, #0xf

0000119a <L81>:
    119a:	8b 05 e9    	dec.w     w11, w11
    119c:	f9 ff 3e    	bra       GTU, 0x1190 <L91>
    119e:	04 00 37    	bra       0x11a8 <L41>

000011a0 <L22>:
    11a0:	61 68 e1    	cp.w      w13, #0x1
    11a2:	01 00 32    	bra       Z, 0x11a6 <L31>
    11a4:	00 86 eb    	setm.w    w12

000011a6 <L31>:
    11a6:	0b 00 07    	rcall     0x11be <L13> <__memcpyd3extended>

000011a8 <L41>:
    11a8:	19 c7 ba    	tblrdh.b  [w9], w14
    11aa:	19 05 ba    	tblrdl.w  [w9], w10
    11ac:	0e 04 e0    	cp0.b     w14
    11ae:	03 00 3a    	bra       NZ, 0x11b6 <L12>
    11b0:	0a 00 e0    	cp0.w     w10
    11b2:	db ff 3a    	bra       NZ, 0x116a <L11>
    11b4:	00 00 06    	return    

000011b6 <L12>:
    11b6:	fe 07 b2    	and.w     #0x7f, w14
    11b8:	ae 02 88    	mov.w     w14, 0x54
    11ba:	8a 04 78    	mov.w     w10, w9
    11bc:	f5 ff 37    	bra       0x11a8 <L41>

000011be <L13>:
    11be:	0c d0 a3    	btst.c    w12, #0xd
    11c0:	e2 0f 4d    	addc.w    w10, #0x2, [w15]
    11c2:	1c 00 39    	bra       NC, 0x11fc <L23>
    11c4:	89 02 78    	mov.w     w9, w5
    11c6:	35 4d ba    	tblrdl.b  [w5++], [w10]
    11c8:	0a 05 e8    	inc.w     w10, w10
    11ca:	02 00 39    	bra       NC, 0x11d0 <L32>
    11cc:	34 20 ec    	inc.w     0x34
    11ce:	0a f0 a0    	bset.w    w10, #0xf

000011d0 <L32>:
    11d0:	8b 05 e9    	dec.w     w11, w11
    11d2:	0f 00 32    	bra       Z, 0x11f2 <L42>
    11d4:	25 4d ba    	tblrdl.b  [w5--], [w10]
    11d6:	0a 05 e8    	inc.w     w10, w10
    11d8:	02 00 39    	bra       NC, 0x11de <L33>
    11da:	34 20 ec    	inc.w     0x34
    11dc:	0a f0 a0    	bset.w    w10, #0xf

000011de <L33>:
    11de:	8b 05 e9    	dec.w     w11, w11
    11e0:	08 00 32    	bra       Z, 0x11f2 <L42>
    11e2:	0c 00 e0    	cp0.w     w12
    11e4:	06 00 32    	bra       Z, 0x11f2 <L42>
    11e6:	15 cd ba    	tblrdh.b  [w5], [w10]
    11e8:	0a 05 e8    	inc.w     w10, w10
    11ea:	02 00 39    	bra       NC, 0x11f0 <L34>
    11ec:	34 20 ec    	inc.w     0x34
    11ee:	0a f0 a0    	bset.w    w10, #0xf

000011f0 <L34>:
    11f0:	8b 05 e9    	dec.w     w11, w11

000011f2 <L42>:
    11f2:	89 84 e8    	inc2.w    w9, w9
    11f4:	54 a0 b4    	addc.w    0x54
    11f6:	0b 00 e0    	cp0.w     w11
    11f8:	e2 ff 3a    	bra       NZ, 0x11be <L13> <__memcpyd3extended>
    11fa:	00 00 06    	return    

000011fc <L23>:
    11fc:	99 02 ba    	tblrdl.w  [w9], w5
    11fe:	05 5d 78    	mov.b     w5, [w10++]
    1200:	8b 05 e9    	dec.w     w11, w11
    1202:	f7 ff 32    	bra       Z, 0x11f2 <L42>
    1204:	c8 2a de    	lsr.w     w5, #0x8, w5
    1206:	05 5d 78    	mov.b     w5, [w10++]
    1208:	8b 05 e9    	dec.w     w11, w11
    120a:	f3 ff 32    	bra       Z, 0x11f2 <L42>
    120c:	0c 00 e0    	cp0.w     w12
    120e:	f1 ff 32    	bra       Z, 0x11f2 <L42>
    1210:	19 dd ba    	tblrdh.b  [w9], [w10++]
    1212:	ee ff 37    	bra       0x11f0 <L34>

00001214 <.handle>:
    1214:	44 18 04    	goto      0x1844 <_setup>
    1216:	00 00 00 
    1218:	7e 18 04    	goto      0x187e <_run>
    121a:	00 00 00 
    121c:	4e 19 04    	goto      0x194e <_solved>
    121e:	00 00 00 
    1220:	9c 19 04    	goto      0x199c <_end_win>
    1222:	00 00 00 
    1224:	f2 19 04    	goto      0x19f2 <_end_fail>
    1226:	00 00 00 

00001228 <__crt_start_mode>:
    1228:	00 00 05    	retlw.w   #0x0, w0
Disassembly of section .application_ivt:

00001000 <__DEFAULT_VECTOR-0x10c>:
    1000:	10 11 04    	goto      0x1110 <__reset>
    1002:	00 00 00 
    1004:	1a 2b 04    	goto      0x2b1a <__DefaultInterrupt>
    1006:	00 00 00 
    1008:	1a 2b 04    	goto      0x2b1a <__DefaultInterrupt>
    100a:	00 00 00 
    100c:	1a 2b 04    	goto      0x2b1a <__DefaultInterrupt>
    100e:	00 00 00 
    1010:	1a 2b 04    	goto      0x2b1a <__DefaultInterrupt>
    1012:	00 00 00 
    1014:	1a 2b 04    	goto      0x2b1a <__DefaultInterrupt>
    1016:	00 00 00 
    1018:	1a 2b 04    	goto      0x2b1a <__DefaultInterrupt>
    101a:	00 00 00 
    101c:	1a 2b 04    	goto      0x2b1a <__DefaultInterrupt>
    101e:	00 00 00 
    1020:	1a 2b 04    	goto      0x2b1a <__DefaultInterrupt>
    1022:	00 00 00 
    1024:	1a 2b 04    	goto      0x2b1a <__DefaultInterrupt>
    1026:	00 00 00 
    1028:	1a 2b 04    	goto      0x2b1a <__DefaultInterrupt>
    102a:	00 00 00 
    102c:	1a 2b 04    	goto      0x2b1a <__DefaultInterrupt>
    102e:	00 00 00 
    1030:	54 27 04    	goto      0x2754 <__T2Interrupt>
    1032:	00 00 00 
    1034:	1a 2b 04    	goto      0x2b1a <__DefaultInterrupt>
    1036:	00 00 00 
    1038:	1a 2b 04    	goto      0x2b1a <__DefaultInterrupt>
    103a:	00 00 00 
    103c:	1a 2b 04    	goto      0x2b1a <__DefaultInterrupt>
    103e:	00 00 00 
    1040:	fe 29 04    	goto      0x29fe <__U1RXInterrupt>
    1042:	00 00 00 
    1044:	9c 29 04    	goto      0x299c <__U1TXInterrupt>
    1046:	00 00 00 
    1048:	1a 2b 04    	goto      0x2b1a <__DefaultInterrupt>
    104a:	00 00 00 
    104c:	1a 2b 04    	goto      0x2b1a <__DefaultInterrupt>
    104e:	00 00 00 
    1050:	1a 2b 04    	goto      0x2b1a <__DefaultInterrupt>
    1052:	00 00 00 
    1054:	1a 2b 04    	goto      0x2b1a <__DefaultInterrupt>
    1056:	00 00 00 
    1058:	30 27 04    	goto      0x2730 <__CNInterrupt>
    105a:	00 00 00 
    105c:	1a 2b 04    	goto      0x2b1a <__DefaultInterrupt>
    105e:	00 00 00 
    1060:	1a 2b 04    	goto      0x2b1a <__DefaultInterrupt>
    1062:	00 00 00 
    1064:	1a 2b 04    	goto      0x2b1a <__DefaultInterrupt>
    1066:	00 00 00 
    1068:	1a 2b 04    	goto      0x2b1a <__DefaultInterrupt>
    106a:	00 00 00 
    106c:	1a 2b 04    	goto      0x2b1a <__DefaultInterrupt>
    106e:	00 00 00 
    1070:	1a 2b 04    	goto      0x2b1a <__DefaultInterrupt>
    1072:	00 00 00 
    1074:	1a 2b 04    	goto      0x2b1a <__DefaultInterrupt>
    1076:	00 00 00 
    1078:	1a 2b 04    	goto      0x2b1a <__DefaultInterrupt>
    107a:	00 00 00 
    107c:	1a 2b 04    	goto      0x2b1a <__DefaultInterrupt>
    107e:	00 00 00 
    1080:	1a 2b 04    	goto      0x2b1a <__DefaultInterrupt>
    1082:	00 00 00 
    1084:	1a 2b 04    	goto      0x2b1a <__DefaultInterrupt>
    1086:	00 00 00 
    1088:	1a 2b 04    	goto      0x2b1a <__DefaultInterrupt>
    108a:	00 00 00 
    108c:	1a 2b 04    	goto      0x2b1a <__DefaultInterrupt>
    108e:	00 00 00 
    1090:	1a 2b 04    	goto      0x2b1a <__DefaultInterrupt>
    1092:	00 00 00 
    1094:	1a 2b 04    	goto      0x2b1a <__DefaultInterrupt>
    1096:	00 00 00 
    1098:	1a 2b 04    	goto      0x2b1a <__DefaultInterrupt>
    109a:	00 00 00 
    109c:	1a 2b 04    	goto      0x2b1a <__DefaultInterrupt>
    109e:	00 00 00 
    10a0:	1a 2b 04    	goto      0x2b1a <__DefaultInterrupt>
    10a2:	00 00 00 
    10a4:	1a 2b 04    	goto      0x2b1a <__DefaultInterrupt>
    10a6:	00 00 00 
    10a8:	1a 2b 04    	goto      0x2b1a <__DefaultInterrupt>
    10aa:	00 00 00 
    10ac:	1a 2b 04    	goto      0x2b1a <__DefaultInterrupt>
    10ae:	00 00 00 
    10b0:	a8 28 04    	goto      0x28a8 <__SI2C2Interrupt>
    10b2:	00 00 00 
    10b4:	1a 2b 04    	goto      0x2b1a <__DefaultInterrupt>
    10b6:	00 00 00 
    10b8:	1a 2b 04    	goto      0x2b1a <__DefaultInterrupt>
    10ba:	00 00 00 
    10bc:	1a 2b 04    	goto      0x2b1a <__DefaultInterrupt>
    10be:	00 00 00 
    10c0:	1a 2b 04    	goto      0x2b1a <__DefaultInterrupt>
    10c2:	00 00 00 
    10c4:	1a 2b 04    	goto      0x2b1a <__DefaultInterrupt>
    10c6:	00 00 00 
    10c8:	1a 2b 04    	goto      0x2b1a <__DefaultInterrupt>
    10ca:	00 00 00 
    10cc:	1a 2b 04    	goto      0x2b1a <__DefaultInterrupt>
    10ce:	00 00 00 
    10d0:	1a 2b 04    	goto      0x2b1a <__DefaultInterrupt>
    10d2:	00 00 00 
    10d4:	1a 2b 04    	goto      0x2b1a <__DefaultInterrupt>
    10d6:	00 00 00 
    10d8:	1a 2b 04    	goto      0x2b1a <__DefaultInterrupt>
    10da:	00 00 00 
    10dc:	1a 2b 04    	goto      0x2b1a <__DefaultInterrupt>
    10de:	00 00 00 
    10e0:	1a 2b 04    	goto      0x2b1a <__DefaultInterrupt>
    10e2:	00 00 00 
    10e4:	1a 2b 04    	goto      0x2b1a <__DefaultInterrupt>
    10e6:	00 00 00 
    10e8:	1a 2b 04    	goto      0x2b1a <__DefaultInterrupt>
    10ea:	00 00 00 
    10ec:	1a 2b 04    	goto      0x2b1a <__DefaultInterrupt>
    10ee:	00 00 00 
    10f0:	1a 2b 04    	goto      0x2b1a <__DefaultInterrupt>
    10f2:	00 00 00 
    10f4:	1a 2b 04    	goto      0x2b1a <__DefaultInterrupt>
    10f6:	00 00 00 
    10f8:	1a 2b 04    	goto      0x2b1a <__DefaultInterrupt>
    10fa:	00 00 00 
    10fc:	1a 2b 04    	goto      0x2b1a <__DefaultInterrupt>
    10fe:	00 00 00 
    1100:	1a 2b 04    	goto      0x2b1a <__DefaultInterrupt>
    1102:	00 00 00 
    1104:	1a 2b 04    	goto      0x2b1a <__DefaultInterrupt>
    1106:	00 00 00 
    1108:	1a 2b 04    	goto      0x2b1a <__DefaultInterrupt>
    110a:	00 00 00 

0000110c <__DEFAULT_VECTOR>:
    110c:	1a 2b 04    	goto      0x2b1a <__DefaultInterrupt>
    110e:	00 00 00 
Disassembly of section .ivt:

00000004 <.ivt>:
   4:	04 10 00    	nop       
   6:	08 10 00    	nop       
   8:	0c 10 00    	nop       
   a:	10 10 00    	nop       
   c:	14 10 00    	nop       
   e:	0c 11 00    	nop       
  10:	0c 11 00    	nop       
  12:	0c 11 00    	nop       
  14:	18 10 00    	nop       
  16:	1c 10 00    	nop       
  18:	20 10 00    	nop       
  1a:	24 10 00    	nop       
  1c:	0c 11 00    	nop       
  1e:	28 10 00    	nop       
  20:	2c 10 00    	nop       
  22:	30 10 00    	nop       
  24:	34 10 00    	nop       
  26:	38 10 00    	nop       
  28:	3c 10 00    	nop       
  2a:	40 10 00    	nop       
  2c:	44 10 00    	nop       
  2e:	48 10 00    	nop       
  30:	0c 11 00    	nop       
  32:	0c 11 00    	nop       
  34:	4c 10 00    	nop       
  36:	50 10 00    	nop       
  38:	54 10 00    	nop       
  3a:	58 10 00    	nop       
  3c:	5c 10 00    	nop       
  3e:	0c 11 00    	nop       
  40:	60 10 00    	nop       
  42:	64 10 00    	nop       
  44:	0c 11 00    	nop       
  46:	68 10 00    	nop       
  48:	6c 10 00    	nop       
  4a:	70 10 00    	nop       
  4c:	74 10 00    	nop       
  4e:	78 10 00    	nop       
  50:	7c 10 00    	nop       
  52:	80 10 00    	nop       
  54:	84 10 00    	nop       
  56:	88 10 00    	nop       
  58:	0c 11 00    	nop       
  5a:	0c 11 00    	nop       
  5c:	0c 11 00    	nop       
  5e:	8c 10 00    	nop       
  60:	90 10 00    	nop       
  62:	94 10 00    	nop       
  64:	98 10 00    	nop       
  66:	9c 10 00    	nop       
  68:	a0 10 00    	nop       
  6a:	a4 10 00    	nop       
  6c:	a8 10 00    	nop       
  6e:	ac 10 00    	nop       
  70:	0c 11 00    	nop       
  72:	0c 11 00    	nop       
  74:	0c 11 00    	nop       
  76:	b0 10 00    	nop       
  78:	b4 10 00    	nop       
  7a:	0c 11 00    	nop       
  7c:	0c 11 00    	nop       
  7e:	b8 10 00    	nop       
  80:	bc 10 00    	nop       
  82:	0c 11 00    	nop       
  84:	0c 11 00    	nop       
  86:	0c 11 00    	nop       
  88:	0c 11 00    	nop       
  8a:	0c 11 00    	nop       
  8c:	0c 11 00    	nop       
  8e:	0c 11 00    	nop       
  90:	c0 10 00    	nop       
  92:	0c 11 00    	nop       
  94:	0c 11 00    	nop       
  96:	c4 10 00    	nop       
  98:	c8 10 00    	nop       
  9a:	cc 10 00    	nop       
  9c:	0c 11 00    	nop       
  9e:	0c 11 00    	nop       
  a0:	0c 11 00    	nop       
  a2:	0c 11 00    	nop       
  a4:	d0 10 00    	nop       
  a6:	0c 11 00    	nop       
  a8:	0c 11 00    	nop       
  aa:	0c 11 00    	nop       
  ac:	0c 11 00    	nop       
  ae:	d4 10 00    	nop       
  b0:	0c 11 00    	nop       
  b2:	0c 11 00    	nop       
  b4:	0c 11 00    	nop       
  b6:	d8 10 00    	nop       
  b8:	dc 10 00    	nop       
  ba:	e0 10 00    	nop       
  bc:	e4 10 00    	nop       
  be:	e8 10 00    	nop       
  c0:	ec 10 00    	nop       
  c2:	f0 10 00    	nop       
  c4:	f4 10 00    	nop       
  c6:	f8 10 00    	nop       
  c8:	fc 10 00    	nop       
  ca:	00 11 00    	nop       
  cc:	04 11 00    	nop       
  ce:	08 11 00    	nop       
  d0:	0c 11 00    	nop       
  d2:	0c 11 00    	nop       
  d4:	0c 11 00    	nop       
  d6:	0c 11 00    	nop       
  d8:	0c 11 00    	nop       
  da:	0c 11 00    	nop       
  dc:	0c 11 00    	nop       
  de:	0c 11 00    	nop       
  e0:	0c 11 00    	nop       
  e2:	0c 11 00    	nop       
  e4:	0c 11 00    	nop       
  e6:	0c 11 00    	nop       
  e8:	0c 11 00    	nop       
  ea:	0c 11 00    	nop       
  ec:	0c 11 00    	nop       
  ee:	0c 11 00    	nop       
  f0:	0c 11 00    	nop       
  f2:	0c 11 00    	nop       
  f4:	0c 11 00    	nop       
  f6:	0c 11 00    	nop       
  f8:	0c 11 00    	nop       
  fa:	0c 11 00    	nop       
  fc:	0c 11 00    	nop       
  fe:	0c 11 00    	nop       
Disassembly of section .const:

0000922a <.LC2-0x2ee>:
    922a:	61 62       	.word 0x6261
    922c:	6f 75       	.word 0x756f
    922e:	74 00       	.word 0x74
    9230:	65 76       	.word 0x7665
    9232:	65 72       	.word 0x7265
    9234:	79 00       	.word 0x79
    9236:	6c 61       	.word 0x616c
    9238:	72 67       	.word 0x6772
    923a:	65 00       	.word 0x65
    923c:	70 6c       	.word 0x6c70
    923e:	61 6e       	.word 0x6e61
    9240:	74 00       	.word 0x74
    9242:	73 70       	.word 0x7073
    9244:	65 6c       	.word 0x6c65
    9246:	6c 00       	.word 0x6c
    9248:	74 68       	.word 0x6874
    924a:	65 73       	.word 0x7365
    924c:	65 00       	.word 0x65
    924e:	77 68       	.word 0x6877
    9250:	65 72       	.word 0x7265
    9252:	65 00       	.word 0x65
    9254:	61 66       	.word 0x6661
    9256:	74 65       	.word 0x6574
    9258:	72 00       	.word 0x72
    925a:	66 69       	.word 0x6966
    925c:	72 73       	.word 0x7372
    925e:	74 00       	.word 0x74
    9260:	6c 65       	.word 0x656c
    9262:	61 72       	.word 0x7261
    9264:	6e 00       	.word 0x6e
    9266:	70 6f       	.word 0x6f70
    9268:	69 6e       	.word 0x6e69
    926a:	74 00       	.word 0x74
    926c:	73 74       	.word 0x7473
    926e:	69 6c       	.word 0x6c69
    9270:	6c 00       	.word 0x6c
    9272:	74 68       	.word 0x6874
    9274:	69 6e       	.word 0x6e69
    9276:	67 00       	.word 0x67
    9278:	77 68       	.word 0x6877
    927a:	69 63       	.word 0x6369
    927c:	68 00       	.word 0x68
    927e:	61 67       	.word 0x6761
    9280:	61 69       	.word 0x6961
    9282:	6e 00       	.word 0x6e
    9284:	66 6f       	.word 0x6f66
    9286:	75 6e       	.word 0x6e75
    9288:	64 00       	.word 0x64
    928a:	6e 65       	.word 0x656e
    928c:	76 65       	.word 0x6576
    928e:	72 00       	.word 0x72
    9290:	72 69       	.word 0x6972
    9292:	67 68       	.word 0x6867
    9294:	74 00       	.word 0x74
    9296:	73 74       	.word 0x7473
    9298:	75 64       	.word 0x6475
    929a:	79 00       	.word 0x79
    929c:	74 68       	.word 0x6874
    929e:	69 6e       	.word 0x6e69
    92a0:	6b 00       	.word 0x6b
    92a2:	77 6f       	.word 0x6f77
    92a4:	72 6c       	.word 0x6c72
    92a6:	64 00       	.word 0x64
    92a8:	62 65       	.word 0x6562
    92aa:	6c 6f       	.word 0x6f6c
    92ac:	77 00       	.word 0x77
    92ae:	67 72       	.word 0x7267
    92b0:	65 61       	.word 0x6165
    92b2:	74 00       	.word 0x74
    92b4:	6f 74       	.word 0x746f
    92b6:	68 65       	.word 0x6568
    92b8:	72 00       	.word 0x72
    92ba:	73 6d       	.word 0x6d73
    92bc:	61 6c       	.word 0x6c61
    92be:	6c 00       	.word 0x6c
    92c0:	74 68       	.word 0x6874
    92c2:	65 69       	.word 0x6965
    92c4:	72 00       	.word 0x72
    92c6:	74 68       	.word 0x6874
    92c8:	72 65       	.word 0x6572
    92ca:	65 00       	.word 0x65
    92cc:	77 6f       	.word 0x6f77
    92ce:	75 6c       	.word 0x6c75
    92d0:	64 00       	.word 0x64
    92d2:	63 6f       	.word 0x6f63
    92d4:	75 6c       	.word 0x6c75
    92d6:	64 00       	.word 0x64
    92d8:	68 6f       	.word 0x6f68
    92da:	75 73       	.word 0x7375
    92dc:	65 00       	.word 0x65
    92de:	70 6c       	.word 0x6c70
    92e0:	61 63       	.word 0x6361
    92e2:	65 00       	.word 0x65
    92e4:	73 6f       	.word 0x6f73
    92e6:	75 6e       	.word 0x6e75
    92e8:	64 00       	.word 0x64
    92ea:	74 68       	.word 0x6874
    92ec:	65 72       	.word 0x7265
    92ee:	65 00       	.word 0x65
    92f0:	77 61       	.word 0x6177
    92f2:	74 65       	.word 0x6574
    92f4:	72 00       	.word 0x72
    92f6:	77 72       	.word 0x7277
    92f8:	69 74       	.word 0x7469
    92fa:	65 00       	.word 0x65
    92fc:	57 52       	.word 0x5257
    92fe:	49 54       	.word 0x5449
    9300:	45 47       	.word 0x4745
    9302:	59 51       	.word 0x5159
    9304:	57 56       	.word 0x5657
    9306:	4d 52       	.word 0x524d
    9308:	54 45       	.word 0x4554
    930a:	50 49       	.word 0x4950
    930c:	58 5a       	.word 0x5a58
    930e:	46 4d       	.word 0x4d46
    9310:	49 4a       	.word 0x4a49
    9312:	59 4a       	.word 0x4a59
    9314:	54 46       	.word 0x4654
    9316:	50 42       	.word 0x4250
    9318:	41 4d       	.word 0x4d41
    931a:	45 51       	.word 0x5145
    931c:	50 47       	.word 0x4750
    931e:	58 00       	.word 0x58
    9320:	53 54       	.word 0x5453
    9322:	49 4c       	.word 0x4c49
    9324:	4c 53       	.word 0x534c
    9326:	47 43       	.word 0x4347
    9328:	42 57       	.word 0x5742
    932a:	54 52       	.word 0x5254
    932c:	54 56       	.word 0x5654
    932e:	5a 53       	.word 0x535a
    9330:	4a 56       	.word 0x564a
    9332:	49 44       	.word 0x4449
    9334:	52 46       	.word 0x4652
    9336:	50 4c       	.word 0x4c50
    9338:	4a 4f       	.word 0x4f4a
    933a:	4b 55       	.word 0x554b
    933c:	53 49       	.word 0x4953
    933e:	4a 4c       	.word 0x4c4a
    9340:	41 46       	.word 0x4641
    9342:	5a 00       	.word 0x5a
    9344:	45 56       	.word 0x5645
    9346:	45 52       	.word 0x5245
    9348:	59 4b       	.word 0x4b59
    934a:	45 58       	.word 0x5845
    934c:	4d 59       	.word 0x594d
    934e:	5a 4d       	.word 0x4d5a
    9350:	53 43       	.word 0x4353
    9352:	54 56       	.word 0x5654
    9354:	50 41       	.word 0x4150
    9356:	47 4e       	.word 0x4e47
    9358:	44 45       	.word 0x4544
    935a:	46 44       	.word 0x4446
    935c:	48 45       	.word 0x4548
    935e:	52 51       	.word 0x5152
    9360:	4a 48       	.word 0x484a
    9362:	4d 57       	.word 0x574d
    9364:	4e 59       	.word 0x594e
    9366:	58 00       	.word 0x58
    9368:	57 4f       	.word 0x4f57
    936a:	52 4c       	.word 0x4c52
    936c:	44 47       	.word 0x4744
    936e:	57 51       	.word 0x5157
    9370:	41 50       	.word 0x5041
    9372:	4e 57       	.word 0x574e
    9374:	45 4f       	.word 0x4f45
    9376:	4b 4d       	.word 0x4d4b
    9378:	51 51       	.word 0x5151
    937a:	57 52       	.word 0x5257
    937c:	5a 59       	.word 0x595a
    937e:	4a 50       	.word 0x504a
    9380:	44 4c       	.word 0x4c44
    9382:	4a 42       	.word 0x424a
    9384:	49 4e       	.word 0x4e49
    9386:	53 49       	.word 0x4953
    9388:	43 44       	.word 0x4443
    938a:	48 00       	.word 0x48
    938c:	57 52       	.word 0x5257
    938e:	49 54       	.word 0x5449
    9390:	45 47       	.word 0x4745
    9392:	57 4a       	.word 0x4a57
    9394:	58 44       	.word 0x4458
    9396:	4c 5a       	.word 0x5a4c
    9398:	50 4c       	.word 0x4c50
    939a:	58 49       	.word 0x4958
    939c:	52 4a       	.word 0x4a52
    939e:	54 43       	.word 0x4354
    93a0:	49 46       	.word 0x4649
    93a2:	53 54       	.word 0x5453
    93a4:	46 48       	.word 0x4846
    93a6:	42 49       	.word 0x4942
    93a8:	4f 53       	.word 0x534f
    93aa:	51 58       	.word 0x5851
    93ac:	55 4a       	.word 0x4a55
    93ae:	45 00       	.word 0x45
    93b0:	46 4f       	.word 0x4f46
    93b2:	55 4e       	.word 0x4e55
    93b4:	44 5a       	.word 0x5a44
    93b6:	49 4a       	.word 0x4a49
    93b8:	43 45       	.word 0x4543
    93ba:	46 4f       	.word 0x4f46
    93bc:	47 4d       	.word 0x4d47
    93be:	51 59       	.word 0x5951
    93c0:	4e 51       	.word 0x514e
    93c2:	42 56       	.word 0x5642
    93c4:	45 55       	.word 0x5545
    93c6:	4a 5a       	.word 0x5a4a
    93c8:	4e 4f       	.word 0x4f4e
    93ca:	55 57       	.word 0x5755
    93cc:	4a 51       	.word 0x514a
    93ce:	47 4c       	.word 0x4c47
    93d0:	49 44       	.word 0x4449
    93d2:	50 00       	.word 0x50
    93d4:	43 4f       	.word 0x4f43
    93d6:	55 4c       	.word 0x4c55
    93d8:	44 44       	.word 0x4444
    93da:	58 43       	.word 0x4358
    93dc:	55 4a       	.word 0x4a55
    93de:	54 4f       	.word 0x4f54
    93e0:	5a 55       	.word 0x555a
    93e2:	50 51       	.word 0x5150
    93e4:	59 4d       	.word 0x4d59
    93e6:	4b 58       	.word 0x584b
    93e8:	56 55       	.word 0x5556
    93ea:	53 4c       	.word 0x4c53
    93ec:	4b 52       	.word 0x524b
    93ee:	51 56       	.word 0x5651
    93f0:	57 4d       	.word 0x4d57
    93f2:	48 44       	.word 0x4448
    93f4:	56 51       	.word 0x5156
    93f6:	4a 00       	.word 0x4a
    93f8:	54 48       	.word 0x4854
    93fa:	45 53       	.word 0x5345
    93fc:	45 58       	.word 0x5845
    93fe:	54 4b       	.word 0x4b54
    9400:	44 4c       	.word 0x4c44
    9402:	56 47       	.word 0x4756
    9404:	48 49       	.word 0x4948
    9406:	54 50       	.word 0x5054
    9408:	53 45       	.word 0x4553
    940a:	51 49       	.word 0x4951
    940c:	56 54       	.word 0x5456
    940e:	4d 45       	.word 0x454d
    9410:	48 44       	.word 0x4448
    9412:	4f 4e       	.word 0x4e4f
    9414:	53 56       	.word 0x5653
    9416:	59 4d       	.word 0x4d59
    9418:	45 46       	.word 0x4645
    941a:	42 00       	.word 0x42
    941c:	4f 54       	.word 0x544f
    941e:	48 45       	.word 0x4548
    9420:	52 52       	.word 0x5252
    9422:	49 42       	.word 0x4249
    9424:	4f 43       	.word 0x434f
    9426:	45 54       	.word 0x5445
    9428:	4e 52       	.word 0x524e
    942a:	4b 4a       	.word 0x4a4b
    942c:	42 4e       	.word 0x4e42
    942e:	4a 55       	.word 0x554a
    9430:	48 47       	.word 0x4748
    9432:	45 47       	.word 0x4745
    9434:	4a 56       	.word 0x564a
    9436:	57 4b       	.word 0x4b57
    9438:	45 4b       	.word 0x4b45
    943a:	44 56       	.word 0x5644
    943c:	52 50       	.word 0x5052
    943e:	4d 00       	.word 0x4d
    9440:	57 4f       	.word 0x4f57
    9442:	52 4c       	.word 0x4c52
    9444:	44 54       	.word 0x5444
    9446:	58 53       	.word 0x5358
    9448:	55 52       	.word 0x5255
    944a:	57 46       	.word 0x4657
    944c:	57 4f       	.word 0x4f57
    944e:	51 59       	.word 0x5951
    9450:	52 56       	.word 0x5652
    9452:	52 51       	.word 0x5152
    9454:	47 4e       	.word 0x4e47
    9456:	4a 59       	.word 0x594a
    9458:	42 4b       	.word 0x4b42
    945a:	4c 51       	.word 0x514c
    945c:	4f 48       	.word 0x484f
    945e:	58 44       	.word 0x4458
    9460:	45 49       	.word 0x4945
    9462:	51 00       	.word 0x51
    9464:	53 4d       	.word 0x4d53
    9466:	41 4c       	.word 0x4c41
    9468:	4c 49       	.word 0x494c
    946a:	56 52       	.word 0x5256
    946c:	58 53       	.word 0x5358
    946e:	55 58       	.word 0x5855
    9470:	44 43       	.word 0x4344
    9472:	4d 52       	.word 0x524d
    9474:	59 41       	.word 0x4159
    9476:	51 54       	.word 0x5451
    9478:	46 50       	.word 0x5046
    947a:	4a 56       	.word 0x564a
    947c:	50 48       	.word 0x4850
    947e:	46 4c       	.word 0x4c46
    9480:	58 51       	.word 0x5158
    9482:	4c 52       	.word 0x524c
    9484:	4f 42       	.word 0x424f
    9486:	48 00       	.word 0x48
    9488:	54 48       	.word 0x4854
    948a:	45 53       	.word 0x5345
    948c:	45 4b       	.word 0x4b45
    948e:	50 54       	.word 0x5450
    9490:	52 4c       	.word 0x4c52
    9492:	42 48       	.word 0x4842
    9494:	4b 56       	.word 0x564b
    9496:	55 4e       	.word 0x4e55
    9498:	44 51       	.word 0x5144
    949a:	47 4c       	.word 0x4c47
    949c:	45 4a       	.word 0x4a45
    949e:	53 58       	.word 0x5853
    94a0:	41 4d       	.word 0x4d41
    94a2:	53 56       	.word 0x5653
    94a4:	44 57       	.word 0x5744
    94a6:	41 4f       	.word 0x4f41
    94a8:	45 46       	.word 0x4645
    94aa:	4e 00       	.word 0x4e
    94ac:	57 52       	.word 0x5257
    94ae:	49 54       	.word 0x5449
    94b0:	45 56       	.word 0x5645
    94b2:	57 49       	.word 0x4957
    94b4:	58 59       	.word 0x5958
    94b6:	48 57       	.word 0x5748
    94b8:	4b 58       	.word 0x584b
    94ba:	42 47       	.word 0x4742
    94bc:	52 46       	.word 0x4652
    94be:	45 4c       	.word 0x4c45
    94c0:	59 49       	.word 0x4959
    94c2:	50 55       	.word 0x5550
    94c4:	41 44       	.word 0x4441
    94c6:	54 52       	.word 0x5254
    94c8:	4e 4c       	.word 0x4c4e
    94ca:	56 45       	.word 0x4556
    94cc:	41 51       	.word 0x5141
    94ce:	55 00       	.word 0x55
    94d0:	47 52       	.word 0x5247
    94d2:	45 41       	.word 0x4145
    94d4:	54 4c       	.word 0x4c54
    94d6:	4f 47       	.word 0x474f
    94d8:	4d 58       	.word 0x584d
    94da:	56 59       	.word 0x5956
    94dc:	43 4e       	.word 0x4e43
    94de:	52 57       	.word 0x5752
    94e0:	4b 48       	.word 0x484b
    94e2:	56 50       	.word 0x5056
    94e4:	45 42       	.word 0x4245
    94e6:	49 5a       	.word 0x5a49
    94e8:	41 50       	.word 0x5041
    94ea:	57 56       	.word 0x5657
    94ec:	46 57       	.word 0x5746
    94ee:	48 46       	.word 0x4648
    94f0:	53 54       	.word 0x5453
    94f2:	51 00       	.word 0x51
    94f4:	4f 54       	.word 0x544f
    94f6:	48 45       	.word 0x4548
    94f8:	52 46       	.word 0x4652
    94fa:	47 49       	.word 0x4947
    94fc:	4f 44       	.word 0x444f
    94fe:	48 42       	.word 0x4248
    9500:	54 50       	.word 0x5054
    9502:	58 53       	.word 0x5358
    9504:	49 43       	.word 0x4349
    9506:	47 45       	.word 0x4547
    9508:	4c 50       	.word 0x504c
    950a:	48 41       	.word 0x4148
    950c:	44 45       	.word 0x4544
    950e:	4a 49       	.word 0x494a
    9510:	5a 4e       	.word 0x4e5a
    9512:	41 50       	.word 0x5041
    9514:	4b 49       	.word 0x494b
    9516:	52 00       	.word 0x52

00009518 <.LC2>:
    9518:	00 20       	.word 0x2000

00009519 <.LC0>:
	...

00009520 <.LC1>:
    9520:	20 6f       	.word 0x6f20
    9522:	20 20       	.word 0x2020
    9524:	6f 20       	.word 0x206f
    9526:	20 6f       	.word 0x6f20
    9528:	20 20       	.word 0x2020
    952a:	6f 20       	.word 0x206f
    952c:	20 6f       	.word 0x6f20
    952e:	20 00       	.word 0x20
    9530:	00 20       	.word 0x2000

00009531 <.LC3>:
    9531:	00 00       	.word 0
    9533:	00 00       	.word 0
    9535:	00 00       	.word 0
    9537:	00 00       	.word 0
    9539:	00 00       	.word 0
    953b:	00 00       	.word 0
    953d:	00 00       	.word 0
    953f:	00 00       	.word 0
	...

00009542 <.LC0>:
    9542:	20 20       	.word 0x2020
    9544:	20 20       	.word 0x2020
    9546:	20 20       	.word 0x2020
    9548:	20 20       	.word 0x2020
    954a:	20 20       	.word 0x2020
    954c:	20 20       	.word 0x2020
    954e:	20 20       	.word 0x2020
    9550:	20 20       	.word 0x2020
    9552:	20 20       	.word 0x2020
    9554:	20 20       	.word 0x2020
    9556:	20 20       	.word 0x2020
    9558:	20 20       	.word 0x2020
    955a:	20 20       	.word 0x2020
    955c:	20 20       	.word 0x2020
    955e:	20 20       	.word 0x2020
    9560:	20 20       	.word 0x2020
    9562:	20 20       	.word 0x2020
    9564:	20 20       	.word 0x2020
    9566:	20 20       	.word 0x2020
    9568:	20 20       	.word 0x2020
    956a:	20 20       	.word 0x2020
    956c:	20 20       	.word 0x2020
    956e:	20 20       	.word 0x2020
    9570:	20 20       	.word 0x2020
    9572:	20 20       	.word 0x2020
    9574:	20 20       	.word 0x2020
    9576:	20 20       	.word 0x2020
    9578:	20 20       	.word 0x2020
    957a:	00 20       	.word 0x2000

0000957b <.LC1>:
    957b:	00 00       	.word 0
    957d:	00 00       	.word 0
    957f:	00 00       	.word 0
    9581:	00 00       	.word 0
    9583:	00 00       	.word 0
    9585:	00 00       	.word 0
    9587:	00 00       	.word 0
    9589:	00 00       	.word 0
	...

0000958c <.LC2>:
    958c:	7a 79       	.word 0x797a
    958e:	78 77       	.word 0x7778
    9590:	76 75       	.word 0x7576
    9592:	74 73       	.word 0x7374
    9594:	72 71       	.word 0x7172
    9596:	70 6f       	.word 0x6f70
    9598:	6e 6d       	.word 0x6d6e
    959a:	6c 6b       	.word 0x6b6c
    959c:	6a 69       	.word 0x696a
    959e:	68 67       	.word 0x6768
    95a0:	66 65       	.word 0x6566
    95a2:	64 63       	.word 0x6364
    95a4:	62 61       	.word 0x6162
    95a6:	39 38       	.word 0x3839
    95a8:	37 36       	.word 0x3637
    95aa:	35 34       	.word 0x3435
    95ac:	33 32       	.word 0x3233
    95ae:	31 30       	.word 0x3031
    95b0:	31 32       	.word 0x3231
    95b2:	33 34       	.word 0x3433
    95b4:	35 36       	.word 0x3635
    95b6:	37 38       	.word 0x3837
    95b8:	39 61       	.word 0x6139
    95ba:	62 63       	.word 0x6362
    95bc:	64 65       	.word 0x6564
    95be:	66 67       	.word 0x6766
    95c0:	68 69       	.word 0x6968
    95c2:	6a 6b       	.word 0x6b6a
    95c4:	6c 6d       	.word 0x6d6c
    95c6:	6e 6f       	.word 0x6f6e
    95c8:	70 71       	.word 0x7170
    95ca:	72 73       	.word 0x7372
    95cc:	74 75       	.word 0x7574
    95ce:	76 77       	.word 0x7776
    95d0:	78 79       	.word 0x7978
    95d2:	7a 00       	.word 0x7a
Disassembly of section .text:

000015d4 <_main>:
uint16_t counter;

_LCD lcd1;

void main(void) {
    15d4:	62 00 fa    	lnk       #0x62
    15d6:	88 1f 78    	mov.w     w8, [w15++]
    init_elecanisms();
    15d8:	3d 0a 07    	rcall     0x2a54 <.LFE2> <_init_elecanisms> <.L0> <.LFB0> <.Ltext0>
    init_ajuart();
    15da:	58 07 07    	rcall     0x248c <_init_ajuart> <.L0> <.LFB0> <.LFE21> <.Letext0> <.Ltext0>
    // Setup rocker pins as inputs and set pull-up resistors
    toggleSwitchSetup();
    15dc:	64 02 07    	rcall     0x1aa6 <_toggleSwitchSetup> <.LFB9> <.LFE8>

    i2c_init(1e3);
    15de:	80 3e 20    	mov.w     #0x3e8, w0
    15e0:	26 05 07    	rcall     0x202e <_i2c_init> <.LFB1> <.LFE0>
    lcd_init(&lcd1, 0x07, 'A'); //Setup LCD screen (type A i/o extender)
    15e2:	12 c4 b3    	mov.b     #0x41, w2
    15e4:	71 c0 b3    	mov.b     #0x7, w1
    15e6:	20 05 21    	mov.w     #0x1052, w0
    15e8:	46 03 07    	rcall     0x1c76 <_lcd_init> <.LFB5> <.LFE4>
    lcd_clear(&lcd1);  // Clears _LCD objects from previous array
    15ea:	20 05 21    	mov.w     #0x1052, w0
    15ec:	d8 03 07    	rcall     0x1d9e <_lcd_clear> <.LFB8> <.LFE7>

    i2c2_init(157);                      // Initializes I2C on I2C2
    15ee:	d0 09 20    	mov.w     #0x9d, w0
    15f0:	5e 06 07    	rcall     0x22ae <_i2c2_init> <.LFB13> <.LFE12>
    I2C2ADD = MODULE_CODEWORD_ADDR>>1;   // Set the device address (7-bit register)
    15f2:	00 01 20    	mov.w     #0x10, w0
    15f4:	d0 10 88    	mov.w     w0, 0x21a
    I2C2MSK = 0;                         // Set mask to 0 (only this address matters)
    15f6:	1c 22 ef    	clr.w     0x21c
    _SI2C2IE = 1;                        // Enable i2c slave interrupt
    15f8:	9a 20 a8    	bset.b    0x9a, #0x1

    rand_val = read_analog(A0_AN); // Set up the seed
    15fa:	50 00 20    	mov.w     #0x5, w0
    15fc:	5b 0a 07    	rcall     0x2ab4 <_read_analog> <.LFB1> <.LFE0>
    15fe:	b0 40 88    	mov.w     w0, 0x816

    // Add more random noise
    uint8_t i, j;
    for (i=0; i<20; i++) {
    1600:	00 40 eb    	clr.b     w0
    1602:	00 4f 78    	mov.b     w0, [w14]
    1604:	12 00 37    	bra       0x162a <.L2>

00001606 <.L5>:
        for (j=0; j<read_analog(A0_AN); j++) {
    1606:	00 40 eb    	clr.b     w0
    1608:	10 47 98    	mov.b     w0, [w14+1]
    160a:	08 00 37    	bra       0x161c <.L3>

0000160c <.L4>:
            rand_next();
    160c:	71 02 07    	rcall     0x1af0 <_rand_next> <.LFB10> <.LFE9>
            delay_by_nop(read_analog(A0_AN));
    160e:	50 00 20    	mov.w     #0x5, w0
    1610:	51 0a 07    	rcall     0x2ab4 <_read_analog> <.LFB1> <.LFE0>
    1612:	80 00 eb    	clr.w     w1
    1614:	f9 04 07    	rcall     0x2008 <_delay_by_nop> <.L0> <.LFB0> <.LFE16> <.Letext0> <.Ltext0>
    1616:	1e 40 90    	mov.b     [w14+1], w0
    1618:	00 40 e8    	inc.b     w0, w0
    161a:	10 47 98    	mov.b     w0, [w14+1]

0000161c <.L3>:
    161c:	1e 40 90    	mov.b     [w14+1], w0
    161e:	00 84 fb    	ze        w0, w8
    1620:	50 00 20    	mov.w     #0x5, w0
    1622:	48 0a 07    	rcall     0x2ab4 <_read_analog> <.LFB1> <.LFE0>
    1624:	80 0f 54    	sub.w     w8, w0, [w15]
    1626:	f2 ff 39    	bra       NC, 0x160c <.L4>
    1628:	1e 4f e8    	inc.b     [w14], [w14]

0000162a <.L2>:
    162a:	1e 40 78    	mov.b     [w14], w0
    162c:	f3 4f 50    	sub.b     w0, #0x13, [w15]
    162e:	eb ff 36    	bra       LEU, 0x1606 <.L5>
        }
    }

    // U1_putc((uint8_t)rand_val >> 8);
    // U1_putc((uint8_t)rand_val);
    // U1_putc('\r');
    // U1_putc('\n');
    // U1_flush_tx_buffer();

    // set codeword and set of letters
    char _codeSet[36];
    for(i=0; i < 36; i++) {
    1630:	00 40 eb    	clr.b     w0
    1632:	00 4f 78    	mov.b     w0, [w14]
    1634:	12 00 37    	bra       0x165a <.L6>

00001636 <.L7>:
        _codeSet[i] = letterSets[rand_val%15][i];
    1636:	9e 81 fb    	ze        [w14], w3
    1638:	b2 40 80    	mov.w     0x816, w2
    163a:	90 88 28    	mov.w     #0x8889, w0
    163c:	00 10 b8    	mul.uu    w2, w0, w0
    163e:	43 08 de    	lsr.w     w1, #0x3, w0
    1640:	6f 00 b9    	mul.su    w0, #0xf, w0
    1642:	00 00 78    	mov.w     w0, w0
    1644:	00 00 51    	sub.w     w2, w0, w0
    1646:	1e 81 fb    	ze        [w14], w2
    1648:	41 02 20    	mov.w     #0x24, w1
    164a:	01 80 b9    	mul.ss    w0, w1, w0
    164c:	00 00 78    	mov.w     w0, w0
    164e:	02 00 40    	add.w     w0, w2, w0
    1650:	c1 2f 29    	mov.w     #0x92fc, w1
    1652:	e1 40 78    	mov.b     [w1+w0], w1
    1654:	03 00 47    	add.w     w14, w3, w0
    1656:	21 40 98    	mov.b     w1, [w0+2]
    1658:	1e 4f e8    	inc.b     [w14], [w14]

0000165a <.L6>:
    165a:	30 c2 b3    	mov.b     #0x23, w0
    165c:	9e 40 78    	mov.b     [w14], w1
    165e:	80 cf 50    	sub.b     w1, w0, [w15]
    1660:	ea ff 36    	bra       LEU, 0x1636 <.L7>
    }
    codeSet = _codeSet;
    1662:	0e 80 e8    	inc2.w    w14, w0
    1664:	10 40 88    	mov.w     w0, 0x802

    char tmp[7] = " ";
    1666:	00 02 20    	mov.w     #0x20, w0
    1668:	01 00 20    	mov.w     #0x0, w1
    166a:	30 17 98    	mov.w     w0, [w14+38]
    166c:	41 17 98    	mov.w     w1, [w14+40]
    166e:	8e 00 78    	mov.w     w14, w1
    1670:	a1 02 b0    	add.w     #0x2a, w1
    1672:	00 00 09    	repeat    #0x0
    1674:	80 18 eb    	clr.w     [w1++]
    1676:	80 58 eb    	clr.b     [w1++]
    for (i=0; i<5; i++){
    1678:	00 40 eb    	clr.b     w0
    167a:	00 4f 78    	mov.b     w0, [w14]
    167c:	08 00 37    	bra       0x168e <.L8>

0000167e <.L9>:
        tmp[i] = codeSet[i];
    167e:	1e 80 fb    	ze        [w14], w0
    1680:	12 40 80    	mov.w     0x802, w2
    1682:	9e 80 fb    	ze        [w14], w1
    1684:	81 00 41    	add.w     w2, w1, w1
    1686:	91 40 78    	mov.b     [w1], w1
    1688:	00 00 47    	add.w     w14, w0, w0
    168a:	61 60 98    	mov.b     w1, [w0+38]
    168c:	1e 4f e8    	inc.b     [w14], [w14]

0000168e <.L8>:
    168e:	1e 40 78    	mov.b     [w14], w0
    1690:	e4 4f 50    	sub.b     w0, #0x4, [w15]
    1692:	f5 ff 36    	bra       LEU, 0x167e <.L9>
    }
    codeword = tmp;
    1694:	60 02 20    	mov.w     #0x26, w0
    1696:	0e 00 40    	add.w     w0, w14, w0
    1698:	70 40 88    	mov.w     w0, 0x80e

    // setup column sets of letters
    char _set0[7] = " ";
    169a:	90 51 29    	mov.w     #0x9519, w0
    169c:	90 40 78    	mov.b     [w0], w1
    169e:	51 6f 98    	mov.b     w1, [w14+45]
    16a0:	90 40 90    	mov.b     [w0+1], w1
    16a2:	61 6f 98    	mov.b     w1, [w14+46]
    16a4:	8e 00 78    	mov.w     w14, w1
    16a6:	f1 02 b0    	add.w     #0x2f, w1
    16a8:	04 00 09    	repeat    #0x4
    16aa:	80 58 eb    	clr.b     [w1++]
    for (i=0; i<6; i++){
    16ac:	00 40 eb    	clr.b     w0
    16ae:	00 4f 78    	mov.b     w0, [w14]
    16b0:	09 00 37    	bra       0x16c4 <.L10>

000016b2 <.L11>:
        _set0[i] = codeSet[i+5];
    16b2:	1e 80 fb    	ze        [w14], w0
    16b4:	12 40 80    	mov.w     0x802, w2
    16b6:	9e 80 fb    	ze        [w14], w1
    16b8:	e5 80 40    	add.w     w1, #0x5, w1
    16ba:	81 00 41    	add.w     w2, w1, w1
    16bc:	91 40 78    	mov.b     [w1], w1
    16be:	00 00 47    	add.w     w14, w0, w0
    16c0:	51 68 98    	mov.b     w1, [w0+45]
    16c2:	1e 4f e8    	inc.b     [w14], [w14]

000016c4 <.L10>:
    16c4:	1e 40 78    	mov.b     [w14], w0
    16c6:	e5 4f 50    	sub.b     w0, #0x5, [w15]
    16c8:	f4 ff 36    	bra       LEU, 0x16b2 <.L11>
    }
    set0 = _set0;
    16ca:	d0 02 20    	mov.w     #0x2d, w0
    16cc:	0e 00 40    	add.w     w0, w14, w0
    16ce:	20 40 88    	mov.w     w0, 0x804

    char _set1[7] = " ";
    16d0:	00 02 20    	mov.w     #0x20, w0
    16d2:	01 00 20    	mov.w     #0x0, w1
    16d4:	20 1f 98    	mov.w     w0, [w14+52]
    16d6:	31 1f 98    	mov.w     w1, [w14+54]
    16d8:	8e 00 78    	mov.w     w14, w1
    16da:	81 03 b0    	add.w     #0x38, w1
    16dc:	00 00 09    	repeat    #0x0
    16de:	80 18 eb    	clr.w     [w1++]
    16e0:	80 58 eb    	clr.b     [w1++]
    for (i=0; i<6; i++){
    16e2:	00 40 eb    	clr.b     w0
    16e4:	00 4f 78    	mov.b     w0, [w14]
    16e6:	09 00 37    	bra       0x16fa <.L12>

000016e8 <.L13>:
        _set1[i] = codeSet[i+11];
    16e8:	1e 80 fb    	ze        [w14], w0
    16ea:	12 40 80    	mov.w     0x802, w2
    16ec:	9e 80 fb    	ze        [w14], w1
    16ee:	eb 80 40    	add.w     w1, #0xb, w1
    16f0:	81 00 41    	add.w     w2, w1, w1
    16f2:	91 40 78    	mov.b     [w1], w1
    16f4:	00 00 47    	add.w     w14, w0, w0
    16f6:	41 70 98    	mov.b     w1, [w0+52]
    16f8:	1e 4f e8    	inc.b     [w14], [w14]

000016fa <.L12>:
    16fa:	1e 40 78    	mov.b     [w14], w0
    16fc:	e5 4f 50    	sub.b     w0, #0x5, [w15]
    16fe:	f4 ff 36    	bra       LEU, 0x16e8 <.L13>
    }
    set1 = _set1;
    1700:	40 03 20    	mov.w     #0x34, w0
    1702:	0e 00 40    	add.w     w0, w14, w0
    1704:	30 40 88    	mov.w     w0, 0x806

    char _set2[7] = " ";
    1706:	90 51 29    	mov.w     #0x9519, w0
    1708:	90 40 78    	mov.b     [w0], w1
    170a:	31 7f 98    	mov.b     w1, [w14+59]
    170c:	90 40 90    	mov.b     [w0+1], w1
    170e:	41 7f 98    	mov.b     w1, [w14+60]
    1710:	8e 00 78    	mov.w     w14, w1
    1712:	d1 03 b0    	add.w     #0x3d, w1
    1714:	04 00 09    	repeat    #0x4
    1716:	80 58 eb    	clr.b     [w1++]
    for (i=0; i<6; i++){
    1718:	00 40 eb    	clr.b     w0
    171a:	00 4f 78    	mov.b     w0, [w14]
    171c:	09 00 37    	bra       0x1730 <.L14>

0000171e <.L15>:
        _set2[i] = codeSet[i+17];
    171e:	1e 80 fb    	ze        [w14], w0
    1720:	12 40 80    	mov.w     0x802, w2
    1722:	9e 80 fb    	ze        [w14], w1
    1724:	f1 80 40    	add.w     w1, #0x11, w1
    1726:	81 00 41    	add.w     w2, w1, w1
    1728:	91 40 78    	mov.b     [w1], w1
    172a:	00 00 47    	add.w     w14, w0, w0
    172c:	31 78 98    	mov.b     w1, [w0+59]
    172e:	1e 4f e8    	inc.b     [w14], [w14]

00001730 <.L14>:
    1730:	1e 40 78    	mov.b     [w14], w0
    1732:	e5 4f 50    	sub.b     w0, #0x5, [w15]
    1734:	f4 ff 36    	bra       LEU, 0x171e <.L15>
    }
    set2 = _set2;
    1736:	b0 03 20    	mov.w     #0x3b, w0
    1738:	0e 00 40    	add.w     w0, w14, w0
    173a:	40 40 88    	mov.w     w0, 0x808

    char _set3[7] = " ";
    173c:	00 02 20    	mov.w     #0x20, w0
    173e:	01 00 20    	mov.w     #0x0, w1
    1740:	10 27 98    	mov.w     w0, [w14+66]
    1742:	21 27 98    	mov.w     w1, [w14+68]
    1744:	8e 00 78    	mov.w     w14, w1
    1746:	61 04 b0    	add.w     #0x46, w1
    1748:	00 00 09    	repeat    #0x0
    174a:	80 18 eb    	clr.w     [w1++]
    174c:	80 58 eb    	clr.b     [w1++]
    for (i=0; i<6; i++){
    174e:	00 40 eb    	clr.b     w0
    1750:	00 4f 78    	mov.b     w0, [w14]
    1752:	09 00 37    	bra       0x1766 <.L16>

00001754 <.L17>:
        _set3[i] = codeSet[i+23];
    1754:	1e 80 fb    	ze        [w14], w0
    1756:	12 40 80    	mov.w     0x802, w2
    1758:	9e 80 fb    	ze        [w14], w1
    175a:	f7 80 40    	add.w     w1, #0x17, w1
    175c:	81 00 41    	add.w     w2, w1, w1
    175e:	91 40 78    	mov.b     [w1], w1
    1760:	00 00 47    	add.w     w14, w0, w0
    1762:	21 c0 98    	mov.b     w1, [w0+66]
    1764:	1e 4f e8    	inc.b     [w14], [w14]

00001766 <.L16>:
    1766:	1e 40 78    	mov.b     [w14], w0
    1768:	e5 4f 50    	sub.b     w0, #0x5, [w15]
    176a:	f4 ff 36    	bra       LEU, 0x1754 <.L17>
    }
    set3 = _set3;
    176c:	20 04 20    	mov.w     #0x42, w0
    176e:	0e 00 40    	add.w     w0, w14, w0
    1770:	50 40 88    	mov.w     w0, 0x80a

    char _set4[7] = " ";
    1772:	90 51 29    	mov.w     #0x9519, w0
    1774:	90 40 78    	mov.b     [w0], w1
    1776:	11 cf 98    	mov.b     w1, [w14+73]
    1778:	90 40 90    	mov.b     [w0+1], w1
    177a:	21 cf 98    	mov.b     w1, [w14+74]
    177c:	8e 00 78    	mov.w     w14, w1
    177e:	b1 04 b0    	add.w     #0x4b, w1
    1780:	04 00 09    	repeat    #0x4
    1782:	80 58 eb    	clr.b     [w1++]
    for (i=0; i<6; i++){
    1784:	00 40 eb    	clr.b     w0
    1786:	00 4f 78    	mov.b     w0, [w14]
    1788:	09 00 37    	bra       0x179c <.L18>

0000178a <.L19>:
        _set4[i] = codeSet[i+29];
    178a:	1e 80 fb    	ze        [w14], w0
    178c:	12 40 80    	mov.w     0x802, w2
    178e:	9e 80 fb    	ze        [w14], w1
    1790:	fd 80 40    	add.w     w1, #0x1d, w1
    1792:	81 00 41    	add.w     w2, w1, w1
    1794:	91 40 78    	mov.b     [w1], w1
    1796:	00 00 47    	add.w     w14, w0, w0
    1798:	11 c8 98    	mov.b     w1, [w0+73]
    179a:	1e 4f e8    	inc.b     [w14], [w14]

0000179c <.L18>:
    179c:	1e 40 78    	mov.b     [w14], w0
    179e:	e5 4f 50    	sub.b     w0, #0x5, [w15]
    17a0:	f4 ff 36    	bra       LEU, 0x178a <.L19>
    }
    set4 = _set4;
    17a2:	90 04 20    	mov.w     #0x49, w0
    17a4:	0e 00 40    	add.w     w0, w14, w0
    17a6:	60 40 88    	mov.w     w0, 0x80c

    // initialize indices of each column
    i0 = rand_val%5;
    17a8:	b2 40 80    	mov.w     0x816, w2
    17aa:	d0 cc 2c    	mov.w     #0xcccd, w0
    17ac:	00 10 b8    	mul.uu    w2, w0, w0
    17ae:	42 08 de    	lsr.w     w1, #0x2, w0
    17b0:	65 00 b9    	mul.su    w0, #0x5, w0
    17b2:	00 00 78    	mov.w     w0, w0
    17b4:	00 00 51    	sub.w     w2, w0, w0
    17b6:	00 40 78    	mov.b     w0, w0
    17b8:	10 e8 b7    	mov.b     WREG, 0x810
    rand_next();
    17ba:	9a 01 07    	rcall     0x1af0 <_rand_next> <.LFB10> <.LFE9>
    i1 = rand_val%5;
    17bc:	b2 40 80    	mov.w     0x816, w2
    17be:	d0 cc 2c    	mov.w     #0xcccd, w0
    17c0:	00 10 b8    	mul.uu    w2, w0, w0
    17c2:	42 08 de    	lsr.w     w1, #0x2, w0
    17c4:	65 00 b9    	mul.su    w0, #0x5, w0
    17c6:	00 00 78    	mov.w     w0, w0
    17c8:	00 00 51    	sub.w     w2, w0, w0
    17ca:	00 40 78    	mov.b     w0, w0
    17cc:	11 e8 b7    	mov.b     WREG, 0x811
    rand_next();
    17ce:	90 01 07    	rcall     0x1af0 <_rand_next> <.LFB10> <.LFE9>
    i2 = rand_val%5;
    17d0:	b2 40 80    	mov.w     0x816, w2
    17d2:	d0 cc 2c    	mov.w     #0xcccd, w0
    17d4:	00 10 b8    	mul.uu    w2, w0, w0
    17d6:	42 08 de    	lsr.w     w1, #0x2, w0
    17d8:	65 00 b9    	mul.su    w0, #0x5, w0
    17da:	00 00 78    	mov.w     w0, w0
    17dc:	00 00 51    	sub.w     w2, w0, w0
    17de:	00 40 78    	mov.b     w0, w0
    17e0:	12 e8 b7    	mov.b     WREG, 0x812
    rand_next();
    17e2:	86 01 07    	rcall     0x1af0 <_rand_next> <.LFB10> <.LFE9>
    i3 = rand_val%5;
    17e4:	b2 40 80    	mov.w     0x816, w2
    17e6:	d0 cc 2c    	mov.w     #0xcccd, w0
    17e8:	00 10 b8    	mul.uu    w2, w0, w0
    17ea:	42 08 de    	lsr.w     w1, #0x2, w0
    17ec:	65 00 b9    	mul.su    w0, #0x5, w0
    17ee:	00 00 78    	mov.w     w0, w0
    17f0:	00 00 51    	sub.w     w2, w0, w0
    17f2:	00 40 78    	mov.b     w0, w0
    17f4:	13 e8 b7    	mov.b     WREG, 0x813
    rand_next();
    17f6:	7c 01 07    	rcall     0x1af0 <_rand_next> <.LFB10> <.LFE9>
    i4 = rand_val%5;
    17f8:	b2 40 80    	mov.w     0x816, w2
    17fa:	d0 cc 2c    	mov.w     #0xcccd, w0
    17fc:	00 10 b8    	mul.uu    w2, w0, w0
    17fe:	42 08 de    	lsr.w     w1, #0x2, w0
    1800:	65 00 b9    	mul.su    w0, #0x5, w0
    1802:	00 00 78    	mov.w     w0, w0
    1804:	00 00 51    	sub.w     w2, w0, w0
    1806:	00 40 78    	mov.b     w0, w0
    1808:	14 e8 b7    	mov.b     WREG, 0x814

    char dispstring[17] = " o  o  o  o  o ";
    180a:	00 52 29    	mov.w     #0x9520, w0
    180c:	01 05 20    	mov.w     #0x50, w1
    180e:	81 00 47    	add.w     w14, w1, w1
    1810:	0f 00 09    	repeat    #0xf
    1812:	b0 58 78    	mov.b     [w0++], [w1++]
    1814:	00 01 b1    	sub.w     #0x10, w0
    1816:	00 40 eb    	clr.b     w0
    1818:	00 e7 98    	mov.b     w0, [w14+96]
    dispptr = dispstring;
    181a:	00 05 20    	mov.w     #0x50, w0
    181c:	0e 00 40    	add.w     w0, w14, w0
    181e:	00 40 88    	mov.w     w0, 0x800
    lcd_print2(&lcd1, dispptr, "");
    1820:	00 40 80    	mov.w     0x800, w0
    1822:	82 51 29    	mov.w     #0x9518, w2
    1824:	80 00 78    	mov.w     w0, w1
    1826:	20 05 21    	mov.w     #0x1052, w0
    1828:	17 03 07    	rcall     0x1e58 <_lcd_print2> <.LFB13> <.LFE12>

    // Timer 2 Setup
    T2CON = 0x0020;         // set Timer2 period to 10 ms for debounce
    182a:	00 02 20    	mov.w     #0x20, w0
    182c:	80 08 88    	mov.w     w0, 0x110
    PR2 = 0x2710;           // prescaler 16, match value 10000
    182e:	00 71 22    	mov.w     #0x2710, w0
    1830:	60 08 88    	mov.w     w0, 0x10c

    TMR2 = 0;               // set Timer2 to 0
    1832:	06 21 ef    	clr.w     0x106
    IFS0bits.T2IF = 0;      // lower T2 interrupt flag
    1834:	84 e0 a9    	bclr.b    0x84, #0x7
    IEC0bits.T2IE = 1;      // enable T2 interrupt
    1836:	94 e0 a8    	bset.b    0x94, #0x7
    T2CONbits.TON = 0;      // make sure T2 isn't on
    1838:	11 e1 a9    	bclr.b    0x111, #0x7

    state = setup;
    183a:	40 84 21    	mov.w     #0x1844, w0
    183c:	c0 40 88    	mov.w     w0, 0x818

0000183e <.L20>:

    while (1) {
        state();
    183e:	c0 40 80    	mov.w     0x818, w0
    1840:	00 00 01    	call      w0
    }
    1842:	fd ff 37    	bra       0x183e <.L20>

00001844 <_setup>:
}

// STATE MACHINE FUNCTIONS /////////////////////////////////////////////////////

void setup(void) { // Waits for master module to start the game
    1844:	00 00 fa    	lnk       #0x0
    // State Setup
    if (state != last_state) {
    1846:	c1 40 80    	mov.w     0x818, w1
    1848:	d0 40 80    	mov.w     0x81a, w0
    184a:	80 8f 50    	sub.w     w1, w0, [w15]
    184c:	08 00 32    	bra       Z, 0x185e <.L22>
        last_state = state;
    184e:	c0 40 80    	mov.w     0x818, w0
    1850:	d0 40 88    	mov.w     w0, 0x81a
        MODULE_LED_GREEN = ON; delay_by_nop(1);
    1852:	da 22 a8    	bset.b    0x2da, #0x1
    1854:	10 00 20    	mov.w     #0x1, w0
    1856:	01 00 20    	mov.w     #0x0, w1
    1858:	d7 03 07    	rcall     0x2008 <_delay_by_nop> <.L0> <.LFB0> <.LFE16> <.Letext0> <.Ltext0>
        MODULE_LED_RED = ON;
    185a:	da 02 a8    	bset.b    0x2da, #0x0
        complete_flag = 0;
    185c:	24 68 ef    	clr.b     0x824

0000185e <.L22>:
        // setup state here
    }

    // Perform state tasks

    // Check for state transitions
    // if ((start_flag == 1) || (SW2 == 0)){
    //     state = run;
    // }

    if (start_flag == 1) {
    185e:	27 c8 bf    	mov.b     0x827, WREG
    1860:	e1 4f 50    	sub.b     w0, #0x1, [w15]
    1862:	02 00 3a    	bra       NZ, 0x1868 <.L23>
        state = run;
    1864:	e0 87 21    	mov.w     #0x187e, w0
    1866:	c0 40 88    	mov.w     w0, 0x818

00001868 <.L23>:
    }

    // State Cleanup
    if (state != last_state) {
    1868:	c1 40 80    	mov.w     0x818, w1
    186a:	d0 40 80    	mov.w     0x81a, w0
    186c:	80 8f 50    	sub.w     w1, w0, [w15]
    186e:	05 00 32    	bra       Z, 0x187a <.L21>
        // cleanup state here
        MODULE_LED_GREEN = OFF; delay_by_nop(1);
    1870:	da 22 a9    	bclr.b    0x2da, #0x1
    1872:	10 00 20    	mov.w     #0x1, w0
    1874:	01 00 20    	mov.w     #0x0, w1
    1876:	c8 03 07    	rcall     0x2008 <_delay_by_nop> <.L0> <.LFB0> <.LFE16> <.Letext0> <.Ltext0>
        MODULE_LED_RED = ON;
    1878:	da 02 a8    	bset.b    0x2da, #0x0

0000187a <.L21>:
    }
}
    187a:	00 80 fa    	ulnk      
    187c:	00 00 06    	return    

0000187e <_run>:

void run(void) { // Plays the game
    187e:	00 00 fa    	lnk       #0x0
    // State Setup
    if (state != last_state) {
    1880:	c1 40 80    	mov.w     0x818, w1
    1882:	d0 40 80    	mov.w     0x81a, w0
    1884:	80 8f 50    	sub.w     w1, w0, [w15]
    1886:	07 00 32    	bra       Z, 0x1896 <.L26>
        last_state = state;
    1888:	c0 40 80    	mov.w     0x818, w0
    188a:	d0 40 88    	mov.w     w0, 0x81a
        // setup state here
        LED1 = ON; delay_by_nop(1);
    188c:	dc e2 a8    	bset.b    0x2dc, #0x7
    188e:	10 00 20    	mov.w     #0x1, w0
    1890:	01 00 20    	mov.w     #0x0, w1
    1892:	ba 03 07    	rcall     0x2008 <_delay_by_nop> <.L0> <.LFB0> <.LFE16> <.Letext0> <.Ltext0>
        MODULE_LED_RED = ON;
    1894:	da 02 a8    	bset.b    0x2da, #0x0

00001896 <.L26>:
    }

    // Perform state tasks
    updateDisplay();
    1896:	d7 00 07    	rcall     0x1a46 <_updateDisplay> <.LFB8> <.LFE5>
    if (read_analog(A5_AN) > 500) { //TODO: Add real submit button pin mapping
    1898:	00 00 eb    	clr.w     w0
    189a:	0c 09 07    	rcall     0x2ab4 <_read_analog> <.LFB1> <.LFE0>
    189c:	41 1f 20    	mov.w     #0x1f4, w1
    189e:	81 0f 50    	sub.w     w0, w1, [w15]
    18a0:	38 00 36    	bra       LEU, 0x1912 <.L27>
        if ((set0[i0] == codeword[0]) &&
    18a2:	21 40 80    	mov.w     0x804, w1
    18a4:	10 c8 bf    	mov.b     0x810, WREG
    18a6:	00 80 fb    	ze        w0, w0
    18a8:	00 80 40    	add.w     w1, w0, w0
    18aa:	90 40 78    	mov.b     [w0], w1
    18ac:	70 40 80    	mov.w     0x80e, w0
    18ae:	10 40 78    	mov.b     [w0], w0
    18b0:	80 cf 50    	sub.b     w1, w0, [w15]
    18b2:	2b 00 3a    	bra       NZ, 0x190a <.L28>
            (set1[i1] == codeword[1]) &&
    18b4:	31 40 80    	mov.w     0x806, w1
    18b6:	11 c8 bf    	mov.b     0x811, WREG
    18b8:	00 80 fb    	ze        w0, w0
    18ba:	00 80 40    	add.w     w1, w0, w0
    18bc:	90 40 78    	mov.b     [w0], w1
    18be:	70 40 80    	mov.w     0x80e, w0
    18c0:	00 00 e8    	inc.w     w0, w0
    18c2:	10 40 78    	mov.b     [w0], w0
    18c4:	80 cf 50    	sub.b     w1, w0, [w15]
    18c6:	21 00 3a    	bra       NZ, 0x190a <.L28>
            (set2[i2] == codeword[2]) &&
    18c8:	41 40 80    	mov.w     0x808, w1
    18ca:	12 c8 bf    	mov.b     0x812, WREG
    18cc:	00 80 fb    	ze        w0, w0
    18ce:	00 80 40    	add.w     w1, w0, w0
    18d0:	90 40 78    	mov.b     [w0], w1
    18d2:	70 40 80    	mov.w     0x80e, w0
    18d4:	00 80 e8    	inc2.w    w0, w0
    18d6:	10 40 78    	mov.b     [w0], w0
    18d8:	80 cf 50    	sub.b     w1, w0, [w15]
    18da:	17 00 3a    	bra       NZ, 0x190a <.L28>
            (set3[i3] == codeword[3]) &&
    18dc:	51 40 80    	mov.w     0x80a, w1
    18de:	13 c8 bf    	mov.b     0x813, WREG
    18e0:	00 80 fb    	ze        w0, w0
    18e2:	00 80 40    	add.w     w1, w0, w0
    18e4:	90 40 78    	mov.b     [w0], w1
    18e6:	70 40 80    	mov.w     0x80e, w0
    18e8:	63 00 40    	add.w     w0, #0x3, w0
    18ea:	10 40 78    	mov.b     [w0], w0
    18ec:	80 cf 50    	sub.b     w1, w0, [w15]
    18ee:	0d 00 3a    	bra       NZ, 0x190a <.L28>
            (set4[i4] == codeword[4])) {
    18f0:	61 40 80    	mov.w     0x80c, w1
    18f2:	14 c8 bf    	mov.b     0x814, WREG
    18f4:	00 80 fb    	ze        w0, w0
    18f6:	00 80 40    	add.w     w1, w0, w0
    18f8:	90 40 78    	mov.b     [w0], w1
    18fa:	70 40 80    	mov.w     0x80e, w0
    18fc:	64 00 40    	add.w     w0, #0x4, w0
    18fe:	10 40 78    	mov.b     [w0], w0
    1900:	80 cf 50    	sub.b     w1, w0, [w15]
    1902:	03 00 3a    	bra       NZ, 0x190a <.L28>
                state = solved;
    1904:	e0 94 21    	mov.w     #0x194e, w0
    1906:	c0 40 88    	mov.w     w0, 0x818
    1908:	04 00 37    	bra       0x1912 <.L27>

0000190a <.L28>:
        } else {
            num_strikes++;
    190a:	25 c8 bf    	mov.b     0x825, WREG
    190c:	00 40 e8    	inc.b     w0, w0
    190e:	25 e8 b7    	mov.b     WREG, 0x825
            LED3 = OFF;
    1910:	ec 22 a9    	bclr.b    0x2ec, #0x1

00001912 <.L27>:
        }
    }
    lcd_print2(&lcd1, dispptr, "");
    1912:	00 40 80    	mov.w     0x800, w0
    1914:	82 51 29    	mov.w     #0x9518, w2
    1916:	80 00 78    	mov.w     w0, w1
    1918:	20 05 21    	mov.w     #0x1052, w0
    191a:	9e 02 07    	rcall     0x1e58 <_lcd_print2> <.LFB13> <.LFE12>
    delay_by_nop(30000);
    191c:	00 53 27    	mov.w     #0x7530, w0
    191e:	01 00 20    	mov.w     #0x0, w1
    1920:	73 03 07    	rcall     0x2008 <_delay_by_nop> <.L0> <.LFB0> <.LFE16> <.Letext0> <.Ltext0>

    // Check for state transitions
    if (win_flag == 1) {
    1922:	28 c8 bf    	mov.b     0x828, WREG
    1924:	e1 4f 50    	sub.b     w0, #0x1, [w15]
    1926:	03 00 3a    	bra       NZ, 0x192e <.L29>
        state = end_win;
    1928:	c0 99 21    	mov.w     #0x199c, w0
    192a:	c0 40 88    	mov.w     w0, 0x818
    192c:	05 00 37    	bra       0x1938 <.L30>

0000192e <.L29>:
    } else if (lose_flag == 1) {
    192e:	29 c8 bf    	mov.b     0x829, WREG
    1930:	e1 4f 50    	sub.b     w0, #0x1, [w15]
    1932:	02 00 3a    	bra       NZ, 0x1938 <.L30>
        state = end_fail;
    1934:	20 9f 21    	mov.w     #0x19f2, w0
    1936:	c0 40 88    	mov.w     w0, 0x818

00001938 <.L30>:
    }

    // State Cleanup
    if (state != last_state) {
    1938:	c1 40 80    	mov.w     0x818, w1
    193a:	d0 40 80    	mov.w     0x81a, w0
    193c:	80 8f 50    	sub.w     w1, w0, [w15]
    193e:	05 00 32    	bra       Z, 0x194a <.L25>
        // cleanup state here
        LED1=OFF; delay_by_nop(1);
    1940:	dc e2 a9    	bclr.b    0x2dc, #0x7
    1942:	10 00 20    	mov.w     #0x1, w0
    1944:	01 00 20    	mov.w     #0x0, w1
    1946:	60 03 07    	rcall     0x2008 <_delay_by_nop> <.L0> <.LFB0> <.LFE16> <.Letext0> <.Ltext0>
        MODULE_LED_RED = OFF;
    1948:	da 02 a9    	bclr.b    0x2da, #0x0

0000194a <.L25>:
    }
}
    194a:	00 80 fa    	ulnk      
    194c:	00 00 06    	return    

0000194e <_solved>:

void solved(void) { // The puzzle on this module is finished
    194e:	00 00 fa    	lnk       #0x0
    // State Setup
    if (state != last_state) {
    1950:	c1 40 80    	mov.w     0x818, w1
    1952:	d0 40 80    	mov.w     0x81a, w0
    1954:	80 8f 50    	sub.w     w1, w0, [w15]
    1956:	06 00 32    	bra       Z, 0x1964 <.L33>
        // setup state here
        last_state = state;
    1958:	c0 40 80    	mov.w     0x818, w0
    195a:	d0 40 88    	mov.w     w0, 0x81a
        LED3 = ON;
    195c:	ec 22 a8    	bset.b    0x2ec, #0x1
        complete_flag = 1;
    195e:	10 c0 b3    	mov.b     #0x1, w0
    1960:	24 e8 b7    	mov.b     WREG, 0x824
        MODULE_LED_GREEN = ON;
    1962:	da 22 a8    	bset.b    0x2da, #0x1

00001964 <.L33>:
    }

    // Perform state tasks
    lcd_print2(&lcd1, dispptr, "  --CORRECT--  ");
    1964:	00 40 80    	mov.w     0x800, w0
    1966:	12 53 29    	mov.w     #0x9531, w2
    1968:	80 00 78    	mov.w     w0, w1
    196a:	20 05 21    	mov.w     #0x1052, w0
    196c:	75 02 07    	rcall     0x1e58 <_lcd_print2> <.LFB13> <.LFE12>
    delay_by_nop(30000);
    196e:	00 53 27    	mov.w     #0x7530, w0
    1970:	01 00 20    	mov.w     #0x0, w1
    1972:	4a 03 07    	rcall     0x2008 <_delay_by_nop> <.L0> <.LFB0> <.LFE16> <.Letext0> <.Ltext0>

    // Check for state transitions
    if (win_flag == 1) {
    1974:	28 c8 bf    	mov.b     0x828, WREG
    1976:	e1 4f 50    	sub.b     w0, #0x1, [w15]
    1978:	03 00 3a    	bra       NZ, 0x1980 <.L34>
        state = end_win;
    197a:	c0 99 21    	mov.w     #0x199c, w0
    197c:	c0 40 88    	mov.w     w0, 0x818
    197e:	05 00 37    	bra       0x198a <.L35>

00001980 <.L34>:
    } else if (lose_flag == 1) {
    1980:	29 c8 bf    	mov.b     0x829, WREG
    1982:	e1 4f 50    	sub.b     w0, #0x1, [w15]
    1984:	02 00 3a    	bra       NZ, 0x198a <.L35>
        state = end_fail;
    1986:	20 9f 21    	mov.w     #0x19f2, w0
    1988:	c0 40 88    	mov.w     w0, 0x818

0000198a <.L35>:
    }

    // State Cleanup
    if (state != last_state) {
    198a:	c1 40 80    	mov.w     0x818, w1
    198c:	d0 40 80    	mov.w     0x81a, w0
    198e:	80 8f 50    	sub.w     w1, w0, [w15]
    1990:	03 00 32    	bra       Z, 0x1998 <.L32>
        // cleanup state here
        LED3 = OFF;
    1992:	ec 22 a9    	bclr.b    0x2ec, #0x1
        complete_flag = 0;
    1994:	24 68 ef    	clr.b     0x824
        MODULE_LED_GREEN = OFF;
    1996:	da 22 a9    	bclr.b    0x2da, #0x1

00001998 <.L32>:
    }
}
    1998:	00 80 fa    	ulnk      
    199a:	00 00 06    	return    

0000199c <_end_win>:

void end_win(void) { // The master module said the game was won
    199c:	00 00 fa    	lnk       #0x0
    // State Setup
    if (state != last_state) {
    199e:	c1 40 80    	mov.w     0x818, w1
    19a0:	d0 40 80    	mov.w     0x81a, w0
    19a2:	80 8f 50    	sub.w     w1, w0, [w15]
    19a4:	0a 00 32    	bra       Z, 0x19ba <.L38>
        last_state = state;
    19a6:	c0 40 80    	mov.w     0x818, w0
    19a8:	d0 40 88    	mov.w     w0, 0x81a
        MODULE_LED_GREEN = ON;
    19aa:	da 22 a8    	bset.b    0x2da, #0x1

        T1CON = 0x0030;         // set Timer1 period to 0.5s
    19ac:	00 03 20    	mov.w     #0x30, w0
    19ae:	20 08 88    	mov.w     w0, 0x104
        PR1 = 0x7A11;
    19b0:	10 a1 27    	mov.w     #0x7a11, w0
    19b2:	10 08 88    	mov.w     w0, 0x102

        TMR1 = 0;               // set Timer1 count to 0
    19b4:	00 21 ef    	clr.w     0x100
        IFS0bits.T1IF = 0;      // lower Timer1 interrupt flag
    19b6:	84 60 a9    	bclr.b    0x84, #0x3
        T1CONbits.TON = 1;      // turn on Timer1
    19b8:	05 e1 a8    	bset.b    0x105, #0x7

000019ba <.L38>:
    }

    // Perform state tasks
    if (IFS0bits.T1IF == 1) {
    19ba:	20 04 80    	mov.w     0x84, w0
    19bc:	68 00 60    	and.w     w0, #0x8, w0
    19be:	00 00 e0    	cp0.w     w0
    19c0:	10 00 32    	bra       Z, 0x19e2 <.L39>
        IFS0bits.T1IF = 0;      // lower Timer1 interrupt flag
    19c2:	84 60 a9    	bclr.b    0x84, #0x3
        MODULE_LED_GREEN = !MODULE_LED_GREEN;           // toggle LED
    19c4:	d0 16 80    	mov.w     0x2da, w0
    19c6:	62 00 60    	and.w     w0, #0x2, w0
    19c8:	00 f0 a7    	btsc.w    w0, #0xf
    19ca:	00 00 ea    	neg.w     w0, w0
    19cc:	00 00 e9    	dec.w     w0, w0
    19ce:	4f 00 de    	lsr.w     w0, #0xf, w0
    19d0:	00 40 78    	mov.b     w0, w0
    19d2:	00 80 fb    	ze        w0, w0
    19d4:	61 00 60    	and.w     w0, #0x1, w0
    19d6:	00 00 40    	add.w     w0, w0, w0
    19d8:	d2 16 80    	mov.w     0x2da, w2
    19da:	d1 ff 2f    	mov.w     #0xfffd, w1
    19dc:	81 00 61    	and.w     w2, w1, w1
    19de:	01 00 70    	ior.w     w0, w1, w0
    19e0:	d0 16 88    	mov.w     w0, 0x2da

000019e2 <.L39>:
    }

    // Check for state transitions

    // State Cleanup
    if (state != last_state) {
    19e2:	c1 40 80    	mov.w     0x818, w1
    19e4:	d0 40 80    	mov.w     0x81a, w0
    19e6:	80 8f 50    	sub.w     w1, w0, [w15]
    19e8:	02 00 32    	bra       Z, 0x19ee <.L37>
        // cleanup state here
        MODULE_LED_GREEN = OFF;
    19ea:	da 22 a9    	bclr.b    0x2da, #0x1
        T1CONbits.TON = 0;      // turn off Timer1
    19ec:	05 e1 a9    	bclr.b    0x105, #0x7

000019ee <.L37>:
    }
}
    19ee:	00 80 fa    	ulnk      
    19f0:	00 00 06    	return    

000019f2 <_end_fail>:

void end_fail(void) { // The master module said the game was lost
    19f2:	00 00 fa    	lnk       #0x0
    // State Setup
    if (state != last_state) {
    19f4:	c1 40 80    	mov.w     0x818, w1
    19f6:	d0 40 80    	mov.w     0x81a, w0
    19f8:	80 8f 50    	sub.w     w1, w0, [w15]
    19fa:	0a 00 32    	bra       Z, 0x1a10 <.L42>
        // setup state here
        last_state = state;
    19fc:	c0 40 80    	mov.w     0x818, w0
    19fe:	d0 40 88    	mov.w     w0, 0x81a
        MODULE_LED_RED = ON;
    1a00:	da 02 a8    	bset.b    0x2da, #0x0

        T1CON = 0x0030;         // set Timer1 period to 0.5s
    1a02:	00 03 20    	mov.w     #0x30, w0
    1a04:	20 08 88    	mov.w     w0, 0x104
        PR1 = 0x7A11;
    1a06:	10 a1 27    	mov.w     #0x7a11, w0
    1a08:	10 08 88    	mov.w     w0, 0x102

        TMR1 = 0;               // set Timer1 count to 0
    1a0a:	00 21 ef    	clr.w     0x100
        IFS0bits.T1IF = 0;      // lower Timer1 interrupt flag
    1a0c:	84 60 a9    	bclr.b    0x84, #0x3
        T1CONbits.TON = 1;      // turn on Timer1
    1a0e:	05 e1 a8    	bset.b    0x105, #0x7

00001a10 <.L42>:
    }

    // Perform state tasks
    if (IFS0bits.T1IF == 1) {
    1a10:	20 04 80    	mov.w     0x84, w0
    1a12:	68 00 60    	and.w     w0, #0x8, w0
    1a14:	00 00 e0    	cp0.w     w0
    1a16:	0f 00 32    	bra       Z, 0x1a36 <.L43>
        IFS0bits.T1IF = 0;      // lower Timer1 interrupt flag
    1a18:	84 60 a9    	bclr.b    0x84, #0x3
        MODULE_LED_RED = !MODULE_LED_RED;           // toggle LED
    1a1a:	d0 16 80    	mov.w     0x2da, w0
    1a1c:	61 00 60    	and.w     w0, #0x1, w0
    1a1e:	00 f0 a7    	btsc.w    w0, #0xf
    1a20:	00 00 ea    	neg.w     w0, w0
    1a22:	00 00 e9    	dec.w     w0, w0
    1a24:	4f 00 de    	lsr.w     w0, #0xf, w0
    1a26:	00 40 78    	mov.b     w0, w0
    1a28:	00 80 fb    	ze        w0, w0
    1a2a:	61 00 60    	and.w     w0, #0x1, w0
    1a2c:	d2 16 80    	mov.w     0x2da, w2
    1a2e:	e1 ff 2f    	mov.w     #0xfffe, w1
    1a30:	81 00 61    	and.w     w2, w1, w1
    1a32:	01 00 70    	ior.w     w0, w1, w0
    1a34:	d0 16 88    	mov.w     w0, 0x2da

00001a36 <.L43>:
    }

    // Check for state transitions

    // State Cleanup
    if (state != last_state) {
    1a36:	c1 40 80    	mov.w     0x818, w1
    1a38:	d0 40 80    	mov.w     0x81a, w0
    1a3a:	80 8f 50    	sub.w     w1, w0, [w15]
    1a3c:	02 00 32    	bra       Z, 0x1a42 <.L41>
        // cleanup state here
        MODULE_LED_RED = OFF;
    1a3e:	da 02 a9    	bclr.b    0x2da, #0x0
        T1CONbits.TON = 0;      // turn off Timer1
    1a40:	05 e1 a9    	bclr.b    0x105, #0x7

00001a42 <.L41>:
    }
}
    1a42:	00 80 fa    	ulnk      
    1a44:	00 00 06    	return    

00001a46 <_updateDisplay>:

// ISRs ////////////////////////////////////////////////////////////////////////

void __attribute__((interrupt, auto_psv)) _CNInterrupt(void) {
    IFS1bits.CNIF = 0;      // lower INT3 interrupt flag
    TMR2 = 0;                 // reset debounce Timer2
    IFS0bits.T2IF = 0;        // lower Timer2 Interrupt flag
    T2CONbits.TON = 1;        // start Timer2
    LED1 = ON;
}

void __attribute__((interrupt, auto_psv)) _T2Interrupt(void) {
    IFS0bits.T2IF = 0;      // lower Timer2 interrupt flag
    T2CONbits.TON = 0;      // turn off timer
    LED1 = OFF;

    // Sample pins and increment/decrement index of character displayed
    if(!D0) {i0 = (i0+1)% LETTERS_PER_COLUMN;} else
    if(!D1) {i0 = (i0 - 1);
        if(i0 > 5) {i0 = LETTERS_PER_COLUMN - 1;}
    }

    if(!D12) {i1 = (i1+1)% LETTERS_PER_COLUMN;} else
    if(!D13) {i1 = (i1 - 1);}
    if(i1 > 5) {i1 += LETTERS_PER_COLUMN;}

    if(!D4) {i2 = (i2+1)% LETTERS_PER_COLUMN;} else
    if(!D5) {i2 = (i2 - 1);}
    if(i2 > 5) {i2 += LETTERS_PER_COLUMN;}

    if(!D6) {i3 = (i3+1)% LETTERS_PER_COLUMN;} else
    if(!D7) {i3 = (i3 - 1);}
    if(i3 > 5) {i3 += LETTERS_PER_COLUMN;}

    if(!D8) {i4 = (i4+1)% LETTERS_PER_COLUMN;} else
    if(!D9) {i4 = (i4 - 1);}
    if(i4 > 5) {i4 += LETTERS_PER_COLUMN;}

    updateDisplay();
}


// HELPER FUNCTIONS ////////////////////////////////////////////////////////////

void updateDisplay(void) {
    1a46:	00 00 fa    	lnk       #0x0
    dispptr[1] = set0[i0];
    1a48:	00 40 80    	mov.w     0x800, w0
    1a4a:	00 00 e8    	inc.w     w0, w0
    1a4c:	22 40 80    	mov.w     0x804, w2
    1a4e:	01 81 20    	mov.w     #0x810, w1
    1a50:	91 40 78    	mov.b     [w1], w1
    1a52:	81 80 fb    	ze        w1, w1
    1a54:	81 00 41    	add.w     w2, w1, w1
    1a56:	91 40 78    	mov.b     [w1], w1
    1a58:	01 48 78    	mov.b     w1, [w0]
    dispptr[4] = set1[i1];
    1a5a:	00 40 80    	mov.w     0x800, w0
    1a5c:	64 00 40    	add.w     w0, #0x4, w0
    1a5e:	32 40 80    	mov.w     0x806, w2
    1a60:	11 81 20    	mov.w     #0x811, w1
    1a62:	91 40 78    	mov.b     [w1], w1
    1a64:	81 80 fb    	ze        w1, w1
    1a66:	81 00 41    	add.w     w2, w1, w1
    1a68:	91 40 78    	mov.b     [w1], w1
    1a6a:	01 48 78    	mov.b     w1, [w0]
    dispptr[7] = set2[i2];
    1a6c:	00 40 80    	mov.w     0x800, w0
    1a6e:	67 00 40    	add.w     w0, #0x7, w0
    1a70:	42 40 80    	mov.w     0x808, w2
    1a72:	21 81 20    	mov.w     #0x812, w1
    1a74:	91 40 78    	mov.b     [w1], w1
    1a76:	81 80 fb    	ze        w1, w1
    1a78:	81 00 41    	add.w     w2, w1, w1
    1a7a:	91 40 78    	mov.b     [w1], w1
    1a7c:	01 48 78    	mov.b     w1, [w0]
    dispptr[10] = set3[i3];
    1a7e:	00 40 80    	mov.w     0x800, w0
    1a80:	6a 00 40    	add.w     w0, #0xa, w0
    1a82:	52 40 80    	mov.w     0x80a, w2
    1a84:	31 81 20    	mov.w     #0x813, w1
    1a86:	91 40 78    	mov.b     [w1], w1
    1a88:	81 80 fb    	ze        w1, w1
    1a8a:	81 00 41    	add.w     w2, w1, w1
    1a8c:	91 40 78    	mov.b     [w1], w1
    1a8e:	01 48 78    	mov.b     w1, [w0]
    dispptr[13] = set4[i4];
    1a90:	00 40 80    	mov.w     0x800, w0
    1a92:	6d 00 40    	add.w     w0, #0xd, w0
    1a94:	62 40 80    	mov.w     0x80c, w2
    1a96:	41 81 20    	mov.w     #0x814, w1
    1a98:	91 40 78    	mov.b     [w1], w1
    1a9a:	81 80 fb    	ze        w1, w1
    1a9c:	81 00 41    	add.w     w2, w1, w1
    1a9e:	91 40 78    	mov.b     [w1], w1
    1aa0:	01 48 78    	mov.b     w1, [w0]
}
    1aa2:	00 80 fa    	ulnk      
    1aa4:	00 00 06    	return    

00001aa6 <_toggleSwitchSetup>:

void toggleSwitchSetup(void) {
    1aa6:	00 00 fa    	lnk       #0x0
    // Initialize pins as inputs
    D0_DIR = 1; //D0 as input
    1aa8:	d8 a2 a8    	bset.b    0x2d8, #0x5
    D1_DIR = 1; //D1 as input
    1aaa:	d8 82 a8    	bset.b    0x2d8, #0x4

    D4_DIR = 1; //D4 as input
    1aac:	c9 e2 a8    	bset.b    0x2c9, #0x7
    D5_DIR = 1; //D5 as input
    1aae:	e8 62 a8    	bset.b    0x2e8, #0x3
    D6_DIR = 1; //D6 as input
    1ab0:	d9 02 a8    	bset.b    0x2d9, #0x0
    D7_DIR = 1; //D7 as input
    1ab2:	d9 62 a8    	bset.b    0x2d9, #0x3
    D8_DIR = 1; //D8 as input
    1ab4:	d9 22 a8    	bset.b    0x2d9, #0x1
    D9_DIR = 1; //D9 as input
    1ab6:	d9 42 a8    	bset.b    0x2d9, #0x2
    D10_DIR = 0; // D10 and D11 are module LEDs
    1ab8:	d8 02 a9    	bclr.b    0x2d8, #0x0
    D11_DIR = 0;
    1aba:	d8 22 a9    	bclr.b    0x2d8, #0x1
    D12_DIR = 1;//D12 as input
    1abc:	d8 42 a8    	bset.b    0x2d8, #0x2
    D13_DIR = 1;//D13 as input
    1abe:	d8 62 a8    	bset.b    0x2d8, #0x3

    D0_PUE = 1; //D0 pullup enable
    1ac0:	6f c0 a8    	bset.b    0x6f, #0x6
    D1_PUE = 1; //D1 pullup enable
    1ac2:	6f a0 a8    	bset.b    0x6f, #0x5

    D4_PUE = 1; //D4 pullup enable
    1ac4:	6f 80 a8    	bset.b    0x6f, #0x4
    D5_PUE = 1; //D5 pullup enable
    1ac6:	76 e0 a8    	bset.b    0x76, #0x7
    D6_PUE = 1; //D6 pullup enable
    1ac8:	74 a0 a8    	bset.b    0x74, #0x5
    D7_PUE = 1; //D7 pullup enable
    1aca:	75 00 a8    	bset.b    0x75, #0x0
    D8_PUE = 1; //D8 pullup enable
    1acc:	74 c0 a8    	bset.b    0x74, #0x6
    D9_PUE = 1; //D9 pullup enable
    1ace:	74 e0 a8    	bset.b    0x74, #0x7
    D12_PUE = 1;//D12 pullup enable
    1ad0:	74 60 a8    	bset.b    0x74, #0x3
    D13_PUE = 1;//D13 pullup enable
    1ad2:	74 80 a8    	bset.b    0x74, #0x4

    D0_CNEN = 1; //D0 interrupt enable
    1ad4:	63 c0 a8    	bset.b    0x63, #0x6
    D1_CNEN = 1; //D1 interrupt enable
    1ad6:	63 a0 a8    	bset.b    0x63, #0x5

    D4_CNEN = 1; //D4 interrupt enable
    1ad8:	63 80 a8    	bset.b    0x63, #0x4
    D5_CNEN = 1; //D5 interrupt enable
    1ada:	6a e0 a8    	bset.b    0x6a, #0x7
    D6_CNEN = 1; //D6 interrupt enable
    1adc:	68 a0 a8    	bset.b    0x68, #0x5
    D7_CNEN = 1; //D7 interrupt enable
    1ade:	69 00 a8    	bset.b    0x69, #0x0
    D8_CNEN = 1; //D8 interrupt enable
    1ae0:	68 c0 a8    	bset.b    0x68, #0x6
    D9_CNEN = 1; //D9 interrupt enable
    1ae2:	68 e0 a8    	bset.b    0x68, #0x7
    D12_CNEN = 1;//D12 interrupt enable
    1ae4:	68 60 a8    	bset.b    0x68, #0x3
    D13_CNEN = 1;//D13 interrupt enable
    1ae6:	68 80 a8    	bset.b    0x68, #0x4

    IFS1bits.CNIF = 0; // lower CN interrupt flag
    1ae8:	86 60 a9    	bclr.b    0x86, #0x3
    IEC1bits.CNIE = 1; // Enable CN interrupt module
    1aea:	96 60 a8    	bset.b    0x96, #0x3
}
    1aec:	00 80 fa    	ulnk      
    1aee:	00 00 06    	return    

00001af0 <_rand_next>:

void rand_next(void) {
    1af0:	02 00 fa    	lnk       #0x2
    uint16_t val;

    // See "A List of Maximum Period NLFSRs" by Elena Dubrova, p. 7
    val = (rand_val ^ (rand_val >> 2) ^ (rand_val >> 13) ^ ((rand_val >> 2) & (rand_val >> 3))) & 1;
    1af2:	b0 40 80    	mov.w     0x816, w0
    1af4:	c2 00 de    	lsr.w     w0, #0x2, w1
    1af6:	b0 40 80    	mov.w     0x816, w0
    1af8:	80 80 68    	xor.w     w1, w0, w1
    1afa:	b0 40 80    	mov.w     0x816, w0
    1afc:	4d 00 de    	lsr.w     w0, #0xd, w0
    1afe:	80 80 68    	xor.w     w1, w0, w1
    1b00:	b0 40 80    	mov.w     0x816, w0
    1b02:	42 01 de    	lsr.w     w0, #0x2, w2
    1b04:	b0 40 80    	mov.w     0x816, w0
    1b06:	43 00 de    	lsr.w     w0, #0x3, w0
    1b08:	00 00 61    	and.w     w2, w0, w0
    1b0a:	00 80 68    	xor.w     w1, w0, w0
    1b0c:	61 0f 60    	and.w     w0, #0x1, [w14]
    rand_val = (rand_val >> 1) | (val << 15);
    1b0e:	b0 40 80    	mov.w     0x816, w0
    1b10:	80 00 d1    	lsr.w     w0, w1
    1b12:	1e 00 78    	mov.w     [w14], w0
    1b14:	4f 00 dd    	sl.w      w0, #0xf, w0
    1b16:	01 00 70    	ior.w     w0, w1, w0
    1b18:	b0 40 88    	mov.w     w0, 0x816
}
    1b1a:	00 80 fa    	ulnk      
    1b1c:	00 00 06    	return    

00001b1e <___lcd_i2c_write>:
#define DR_READ 0x0B

_LCD lcd[3];

void __lcd_i2c_write(_LCD *self, uint8_t ch) {
    1b1e:	04 00 fa    	lnk       #0x4
    1b20:	00 0f 78    	mov.w     w0, [w14]
    1b22:	21 47 98    	mov.b     w1, [w14+2]
    i2c_start();
    1b24:	91 02 07    	rcall     0x2048 <_i2c_start> <.LFB2> <.LFE1>
    send_i2c_byte(self->addr_write);
    1b26:	1e 00 78    	mov.w     [w14], w0
    1b28:	10 40 78    	mov.b     [w0], w0
    1b2a:	00 80 fb    	ze        w0, w0
    1b2c:	dc 02 07    	rcall     0x20e6 <_send_i2c_byte> <.LFB5> <.LFE4>
    send_i2c_byte(ch);
    1b2e:	2e 40 90    	mov.b     [w14+2], w0
    1b30:	00 80 fb    	ze        w0, w0
    1b32:	d9 02 07    	rcall     0x20e6 <_send_i2c_byte> <.LFB5> <.LFE4>
    reset_i2c_bus();
    1b34:	bd 02 07    	rcall     0x20b0 <_reset_i2c_bus> <.LFB4> <.LFE3>
}
    1b36:	00 80 fa    	ulnk      
    1b38:	00 00 06    	return    

00001b3a <___lcd_enablePulse>:

// Pulse enable pin high and then low to shift in 4 bits of data
void __lcd_enablePulse(_LCD *self) {
    1b3a:	02 00 fa    	lnk       #0x2
    1b3c:	00 0f 78    	mov.w     w0, [w14]
    self->io_write_val ^= ENABLE_TOGGLE;
    1b3e:	1e 00 78    	mov.w     [w14], w0
    1b40:	20 40 90    	mov.b     [w0+2], w0
    1b42:	80 40 78    	mov.b     w0, w1
    1b44:	01 24 a2    	btg.b     w1, #0x2
    1b46:	1e 00 78    	mov.w     [w14], w0
    1b48:	21 40 98    	mov.b     w1, [w0+2]
    __lcd_i2c_write(self, self->io_write_val);
    1b4a:	1e 00 78    	mov.w     [w14], w0
    1b4c:	20 40 90    	mov.b     [w0+2], w0
    1b4e:	80 40 78    	mov.b     w0, w1
    1b50:	1e 00 78    	mov.w     [w14], w0
    1b52:	e5 ff 07    	rcall     0x1b1e <___lcd_i2c_write> <.L0> <.LFB0> <.LFE10> <.Letext0> <.Ltext0>
    delay_by_nop(100);
    1b54:	40 06 20    	mov.w     #0x64, w0
    1b56:	01 00 20    	mov.w     #0x0, w1
    1b58:	57 02 07    	rcall     0x2008 <_delay_by_nop> <.L0> <.LFB0> <.LFE16> <.Letext0> <.Ltext0>
    self->io_write_val ^= ENABLE_TOGGLE;
    1b5a:	1e 00 78    	mov.w     [w14], w0
    1b5c:	20 40 90    	mov.b     [w0+2], w0
    1b5e:	80 40 78    	mov.b     w0, w1
    1b60:	01 24 a2    	btg.b     w1, #0x2
    1b62:	1e 00 78    	mov.w     [w14], w0
    1b64:	21 40 98    	mov.b     w1, [w0+2]
    __lcd_i2c_write(self, self->io_write_val);
    1b66:	1e 00 78    	mov.w     [w14], w0
    1b68:	20 40 90    	mov.b     [w0+2], w0
    1b6a:	80 40 78    	mov.b     w0, w1
    1b6c:	1e 00 78    	mov.w     [w14], w0
    1b6e:	d7 ff 07    	rcall     0x1b1e <___lcd_i2c_write> <.L0> <.LFB0> <.LFE10> <.Letext0> <.Ltext0>
    // delay_by_nop(1000);
}
    1b70:	00 80 fa    	ulnk      
    1b72:	00 00 06    	return    

00001b74 <___lcd_send>:

/* Send 8 bits of data as one 4-bit nibble, shifting in, second 4-bit nibble, and
shifting in */
void __lcd_send(_LCD *self, uint8_t value, uint8_t command) {
    1b74:	06 00 fa    	lnk       #0x6
    1b76:	10 07 98    	mov.w     w0, [w14+2]
    1b78:	41 47 98    	mov.b     w1, [w14+4]
    1b7a:	52 47 98    	mov.b     w2, [w14+5]
    uint8_t MS = value & 0x78;
    1b7c:	4e 40 90    	mov.b     [w14+4], w0
    1b7e:	81 c7 b3    	mov.b     #0x78, w1
    1b80:	01 4f 60    	and.b     w0, w1, [w14]
    uint8_t LS = value << 4;
    1b82:	ce 40 90    	mov.b     [w14+4], w1
    1b84:	40 00 20    	mov.w     #0x4, w0
    1b86:	00 08 dd    	sl.w      w1, w0, w0
    1b88:	10 47 98    	mov.b     w0, [w14+1]
    self->io_write_val = command | MS;
    1b8a:	5e 40 90    	mov.b     [w14+5], w0
    1b8c:	9e 40 70    	ior.b     w0, [w14], w1
    1b8e:	1e 00 90    	mov.w     [w14+2], w0
    1b90:	21 40 98    	mov.b     w1, [w0+2]
    __lcd_i2c_write(self, self->io_write_val);
    1b92:	1e 00 90    	mov.w     [w14+2], w0
    1b94:	20 40 90    	mov.b     [w0+2], w0
    1b96:	80 40 78    	mov.b     w0, w1
    1b98:	1e 00 90    	mov.w     [w14+2], w0
    1b9a:	c1 ff 07    	rcall     0x1b1e <___lcd_i2c_write> <.L0> <.LFB0> <.LFE10> <.Letext0> <.Ltext0>
    __lcd_enablePulse(self);
    1b9c:	1e 00 90    	mov.w     [w14+2], w0
    1b9e:	cd ff 07    	rcall     0x1b3a <___lcd_enablePulse> <.LFB1> <.LFE0>
    self->io_write_val= command | LS;
    1ba0:	de 40 90    	mov.b     [w14+5], w1
    1ba2:	1e 40 90    	mov.b     [w14+1], w0
    1ba4:	80 c0 70    	ior.b     w1, w0, w1
    1ba6:	1e 00 90    	mov.w     [w14+2], w0
    1ba8:	21 40 98    	mov.b     w1, [w0+2]
    __lcd_i2c_write(self, self->io_write_val);
    1baa:	1e 00 90    	mov.w     [w14+2], w0
    1bac:	20 40 90    	mov.b     [w0+2], w0
    1bae:	80 40 78    	mov.b     w0, w1
    1bb0:	1e 00 90    	mov.w     [w14+2], w0
    1bb2:	b5 ff 07    	rcall     0x1b1e <___lcd_i2c_write> <.L0> <.LFB0> <.LFE10> <.Letext0> <.Ltext0>
    __lcd_enablePulse(self);
    1bb4:	1e 00 90    	mov.w     [w14+2], w0
    1bb6:	c1 ff 07    	rcall     0x1b3a <___lcd_enablePulse> <.LFB1> <.LFE0>
}
    1bb8:	00 80 fa    	ulnk      
    1bba:	00 00 06    	return    

00001bbc <___lcd_send8>:

void __lcd_send8(_LCD *self, uint8_t value, uint8_t command) {
    1bbc:	04 00 fa    	lnk       #0x4
    1bbe:	00 0f 78    	mov.w     w0, [w14]
    1bc0:	21 47 98    	mov.b     w1, [w14+2]
    1bc2:	32 47 98    	mov.b     w2, [w14+3]
    value = value << 4;
    1bc4:	ae 40 90    	mov.b     [w14+2], w1
    1bc6:	40 00 20    	mov.w     #0x4, w0
    1bc8:	00 08 dd    	sl.w      w1, w0, w0
    1bca:	20 47 98    	mov.b     w0, [w14+2]
    self->io_write_val = command | value;
    1bcc:	be 40 90    	mov.b     [w14+3], w1
    1bce:	2e 40 90    	mov.b     [w14+2], w0
    1bd0:	80 c0 70    	ior.b     w1, w0, w1
    1bd2:	1e 00 78    	mov.w     [w14], w0
    1bd4:	21 40 98    	mov.b     w1, [w0+2]
    __lcd_i2c_write(self, self->io_write_val);
    1bd6:	1e 00 78    	mov.w     [w14], w0
    1bd8:	20 40 90    	mov.b     [w0+2], w0
    1bda:	80 40 78    	mov.b     w0, w1
    1bdc:	1e 00 78    	mov.w     [w14], w0
    1bde:	9f ff 07    	rcall     0x1b1e <___lcd_i2c_write> <.L0> <.LFB0> <.LFE10> <.Letext0> <.Ltext0>
    __lcd_enablePulse(self);
    1be0:	1e 00 78    	mov.w     [w14], w0
    1be2:	ab ff 07    	rcall     0x1b3a <___lcd_enablePulse> <.LFB1> <.LFE0>
}
    1be4:	00 80 fa    	ulnk      
    1be6:	00 00 06    	return    

00001be8 <_init_lcd>:

/* Some code from last year's Spaceteam project that sets up three LCD screens on
 one bus with corresponding IO extender types and hard-wired addresses */
void init_lcd(uint8_t initiator) {
    1be8:	02 00 fa    	lnk       #0x2
    1bea:	00 4f 78    	mov.b     w0, [w14]

    i2c_init(1e3);
    1bec:	80 3e 20    	mov.w     #0x3e8, w0
    1bee:	1f 02 07    	rcall     0x202e <_i2c_init> <.LFB1> <.LFE0>

    switch (initiator) {
    1bf0:	1e 80 fb    	ze        [w14], w0
    1bf2:	e1 0f 50    	sub.w     w0, #0x1, [w15]
    1bf4:	17 00 32    	bra       Z, 0x1c24 <.L8>
    1bf6:	e1 0f 50    	sub.w     w0, #0x1, [w15]
    1bf8:	03 00 3c    	bra       GT, 0x1c00 <.L11>
    1bfa:	00 00 e0    	cp0.w     w0
    1bfc:	06 00 32    	bra       Z, 0x1c0a <.L7>
    1bfe:	39 00 37    	bra       0x1c72 <.L5>

00001c00 <.L11>:
    1c00:	e2 0f 50    	sub.w     w0, #0x2, [w15]
    1c02:	1d 00 32    	bra       Z, 0x1c3e <.L9>
    1c04:	e3 0f 50    	sub.w     w0, #0x3, [w15]
    1c06:	28 00 32    	bra       Z, 0x1c58 <.L10>
    1c08:	34 00 37    	bra       0x1c72 <.L5>

00001c0a <.L7>:
        case 0: // Central
            lcd_init(&lcd[0], 0x05,'A');
    1c0a:	12 c4 b3    	mov.b     #0x41, w2
    1c0c:	51 c0 b3    	mov.b     #0x5, w1
    1c0e:	20 04 21    	mov.w     #0x1042, w0
    1c10:	32 00 07    	rcall     0x1c76 <_lcd_init> <.LFB5> <.LFE4>
            lcd_init(&lcd[1], 0x07,'A');
    1c12:	12 c4 b3    	mov.b     #0x41, w2
    1c14:	71 c0 b3    	mov.b     #0x7, w1
    1c16:	70 04 21    	mov.w     #0x1047, w0
    1c18:	2e 00 07    	rcall     0x1c76 <_lcd_init> <.LFB5> <.LFE4>
            lcd_init(&lcd[2], 0x06,'T');
    1c1a:	42 c5 b3    	mov.b     #0x54, w2
    1c1c:	61 c0 b3    	mov.b     #0x6, w1
    1c1e:	c0 04 21    	mov.w     #0x104c, w0
    1c20:	2a 00 07    	rcall     0x1c76 <_lcd_init> <.LFB5> <.LFE4>
            break;
    1c22:	27 00 37    	bra       0x1c72 <.L5>

00001c24 <.L8>:
        case 1:
            lcd_init(&lcd[0], 0x07,'A');
    1c24:	12 c4 b3    	mov.b     #0x41, w2
    1c26:	71 c0 b3    	mov.b     #0x7, w1
    1c28:	20 04 21    	mov.w     #0x1042, w0
    1c2a:	25 00 07    	rcall     0x1c76 <_lcd_init> <.LFB5> <.LFE4>
            lcd_init(&lcd[2], 0x06,'A');
    1c2c:	12 c4 b3    	mov.b     #0x41, w2
    1c2e:	61 c0 b3    	mov.b     #0x6, w1
    1c30:	c0 04 21    	mov.w     #0x104c, w0
    1c32:	21 00 07    	rcall     0x1c76 <_lcd_init> <.LFB5> <.LFE4>
            lcd_init(&lcd[1], 0x05,'A');
    1c34:	12 c4 b3    	mov.b     #0x41, w2
    1c36:	51 c0 b3    	mov.b     #0x5, w1
    1c38:	70 04 21    	mov.w     #0x1047, w0
    1c3a:	1d 00 07    	rcall     0x1c76 <_lcd_init> <.LFB5> <.LFE4>
            break;
    1c3c:	1a 00 37    	bra       0x1c72 <.L5>

00001c3e <.L9>:
        case 2:
            lcd_init(&lcd[0], 0x07,'T');
    1c3e:	42 c5 b3    	mov.b     #0x54, w2
    1c40:	71 c0 b3    	mov.b     #0x7, w1
    1c42:	20 04 21    	mov.w     #0x1042, w0
    1c44:	18 00 07    	rcall     0x1c76 <_lcd_init> <.LFB5> <.LFE4>
            lcd_init(&lcd[1], 0x06,'A');
    1c46:	12 c4 b3    	mov.b     #0x41, w2
    1c48:	61 c0 b3    	mov.b     #0x6, w1
    1c4a:	70 04 21    	mov.w     #0x1047, w0
    1c4c:	14 00 07    	rcall     0x1c76 <_lcd_init> <.LFB5> <.LFE4>
            lcd_init(&lcd[2], 0x05,'A');
    1c4e:	12 c4 b3    	mov.b     #0x41, w2
    1c50:	51 c0 b3    	mov.b     #0x5, w1
    1c52:	c0 04 21    	mov.w     #0x104c, w0
    1c54:	10 00 07    	rcall     0x1c76 <_lcd_init> <.LFB5> <.LFE4>
            break;
    1c56:	0d 00 37    	bra       0x1c72 <.L5>

00001c58 <.L10>:
        case 3:
            lcd_init(&lcd[0], 0x07,'A');
    1c58:	12 c4 b3    	mov.b     #0x41, w2
    1c5a:	71 c0 b3    	mov.b     #0x7, w1
    1c5c:	20 04 21    	mov.w     #0x1042, w0
    1c5e:	0b 00 07    	rcall     0x1c76 <_lcd_init> <.LFB5> <.LFE4>
            lcd_init(&lcd[1], 0x06,'A');
    1c60:	12 c4 b3    	mov.b     #0x41, w2
    1c62:	61 c0 b3    	mov.b     #0x6, w1
    1c64:	70 04 21    	mov.w     #0x1047, w0
    1c66:	07 00 07    	rcall     0x1c76 <_lcd_init> <.LFB5> <.LFE4>
            lcd_init(&lcd[2], 0x05,'A');
    1c68:	12 c4 b3    	mov.b     #0x41, w2
    1c6a:	51 c0 b3    	mov.b     #0x5, w1
    1c6c:	c0 04 21    	mov.w     #0x104c, w0
    1c6e:	03 00 07    	rcall     0x1c76 <_lcd_init> <.LFB5> <.LFE4>
            break;
    1c70:	00 00 00    	nop       

00001c72 <.L5>:
    }
}
    1c72:	00 80 fa    	ulnk      
    1c74:	00 00 06    	return    

00001c76 <_lcd_init>:

// Initializes the LCD screen hardware as per pg. 46 of the datasheet
void lcd_init(_LCD *self, uint8_t addr, char vendor) {
    1c76:	04 00 fa    	lnk       #0x4
    1c78:	00 0f 78    	mov.w     w0, [w14]
    1c7a:	21 47 98    	mov.b     w1, [w14+2]
    1c7c:	32 47 98    	mov.b     w2, [w14+3]
    switch(vendor){
    1c7e:	3e 40 90    	mov.b     [w14+3], w0
    1c80:	00 00 fb    	se        w0, w0
    1c82:	11 04 20    	mov.w     #0x41, w1
    1c84:	81 0f 50    	sub.w     w0, w1, [w15]
    1c86:	10 00 32    	bra       Z, 0x1ca8 <.L14>
    1c88:	41 05 20    	mov.w     #0x54, w1
    1c8a:	81 0f 50    	sub.w     w0, w1, [w15]
    1c8c:	1a 00 3a    	bra       NZ, 0x1cc2 <.L13>
        case 'T':// 0x40 == vendor prefix for PCF8574T
            self->addr_write = 0x40 + (addr << 1);
    1c8e:	2e 40 90    	mov.b     [w14+2], w0
    1c90:	00 40 40    	add.b     w0, w0, w0
    1c92:	02 c4 b3    	mov.b     #0x40, w2
    1c94:	82 40 40    	add.b     w0, w2, w1
    1c96:	1e 00 78    	mov.w     [w14], w0
    1c98:	01 48 78    	mov.b     w1, [w0]
            self->addr_read = 0x40 + (addr << 1)+1;
    1c9a:	2e 40 90    	mov.b     [w14+2], w0
    1c9c:	00 40 40    	add.b     w0, w0, w0
    1c9e:	12 c4 b3    	mov.b     #0x41, w2
    1ca0:	82 40 40    	add.b     w0, w2, w1
    1ca2:	1e 00 78    	mov.w     [w14], w0
    1ca4:	11 40 98    	mov.b     w1, [w0+1]
            break;
    1ca6:	0d 00 37    	bra       0x1cc2 <.L13>

00001ca8 <.L14>:
        case 'A':// 0x70 == vendor prefix PCF8574AT
            self->addr_write = 0x70 + (addr << 1);
    1ca8:	2e 40 90    	mov.b     [w14+2], w0
    1caa:	00 40 40    	add.b     w0, w0, w0
    1cac:	02 c7 b3    	mov.b     #0x70, w2
    1cae:	82 40 40    	add.b     w0, w2, w1
    1cb0:	1e 00 78    	mov.w     [w14], w0
    1cb2:	01 48 78    	mov.b     w1, [w0]
            self->addr_read = 0x70 + (addr << 1)+1;
    1cb4:	2e 40 90    	mov.b     [w14+2], w0
    1cb6:	00 40 40    	add.b     w0, w0, w0
    1cb8:	12 c7 b3    	mov.b     #0x71, w2
    1cba:	82 40 40    	add.b     w0, w2, w1
    1cbc:	1e 00 78    	mov.w     [w14], w0
    1cbe:	11 40 98    	mov.b     w1, [w0+1]
            break;
    1cc0:	00 00 00    	nop       

00001cc2 <.L13>:
    }

    self->display_control = 0x00;
    1cc2:	1e 00 78    	mov.w     [w14], w0
    1cc4:	80 40 eb    	clr.b     w1
    1cc6:	31 40 98    	mov.b     w1, [w0+3]
    self->display_mode = 0x00;
    1cc8:	1e 00 78    	mov.w     [w14], w0
    1cca:	80 40 eb    	clr.b     w1
    1ccc:	41 40 98    	mov.b     w1, [w0+4]

    self->io_write_val = 0x00;
    1cce:	1e 00 78    	mov.w     [w14], w0
    1cd0:	80 40 eb    	clr.b     w1
    1cd2:	21 40 98    	mov.b     w1, [w0+2]

    __lcd_i2c_write(self, 0x00);
    1cd4:	80 40 eb    	clr.b     w1
    1cd6:	1e 00 78    	mov.w     [w14], w0
    1cd8:	22 ff 07    	rcall     0x1b1e <___lcd_i2c_write> <.L0> <.LFB0> <.LFE10> <.Letext0> <.Ltext0>

    delay_by_nop(15000);
    1cda:	80 a9 23    	mov.w     #0x3a98, w0
    1cdc:	01 00 20    	mov.w     #0x0, w1
    1cde:	94 01 07    	rcall     0x2008 <_delay_by_nop> <.L0> <.LFB0> <.LFE16> <.Letext0> <.Ltext0>

    // Some bullshit according to pg 46
    __lcd_send8(self, 0x03, INTERNAL_WRITE);
    1ce0:	82 c0 b3    	mov.b     #0x8, w2
    1ce2:	31 c0 b3    	mov.b     #0x3, w1
    1ce4:	1e 00 78    	mov.w     [w14], w0
    1ce6:	6a ff 07    	rcall     0x1bbc <___lcd_send8> <.LFB3> <.LFE2>
    delay_by_nop(5000);
    1ce8:	80 38 21    	mov.w     #0x1388, w0
    1cea:	01 00 20    	mov.w     #0x0, w1
    1cec:	8d 01 07    	rcall     0x2008 <_delay_by_nop> <.L0> <.LFB0> <.LFE16> <.Letext0> <.Ltext0>

    __lcd_send8(self, 0x03, INTERNAL_WRITE);//0b00110000
    1cee:	82 c0 b3    	mov.b     #0x8, w2
    1cf0:	31 c0 b3    	mov.b     #0x3, w1
    1cf2:	1e 00 78    	mov.w     [w14], w0
    1cf4:	63 ff 07    	rcall     0x1bbc <___lcd_send8> <.LFB3> <.LFE2>
    delay_by_nop(5000);
    1cf6:	80 38 21    	mov.w     #0x1388, w0
    1cf8:	01 00 20    	mov.w     #0x0, w1
    1cfa:	86 01 07    	rcall     0x2008 <_delay_by_nop> <.L0> <.LFB0> <.LFE16> <.Letext0> <.Ltext0>

    __lcd_send8(self, 0x03, INTERNAL_WRITE);//0b00110000
    1cfc:	82 c0 b3    	mov.b     #0x8, w2
    1cfe:	31 c0 b3    	mov.b     #0x3, w1
    1d00:	1e 00 78    	mov.w     [w14], w0
    1d02:	5c ff 07    	rcall     0x1bbc <___lcd_send8> <.LFB3> <.LFE2>
    delay_by_nop(5000);
    1d04:	80 38 21    	mov.w     #0x1388, w0
    1d06:	01 00 20    	mov.w     #0x0, w1
    1d08:	7f 01 07    	rcall     0x2008 <_delay_by_nop> <.L0> <.LFB0> <.LFE16> <.Letext0> <.Ltext0>

    // Put it in 4 bit mode
    __lcd_send8(self, 0x02, INTERNAL_WRITE);//0b00110000
    1d0a:	82 c0 b3    	mov.b     #0x8, w2
    1d0c:	21 c0 b3    	mov.b     #0x2, w1
    1d0e:	1e 00 78    	mov.w     [w14], w0
    1d10:	55 ff 07    	rcall     0x1bbc <___lcd_send8> <.LFB3> <.LFE2>
    delay_by_nop(5000);
    1d12:	80 38 21    	mov.w     #0x1388, w0
    1d14:	01 00 20    	mov.w     #0x0, w1
    1d16:	78 01 07    	rcall     0x2008 <_delay_by_nop> <.L0> <.LFB0> <.LFE16> <.Letext0> <.Ltext0>

    __lcd_send(self, 0x28, INTERNAL_WRITE); // Set rows and direction
    1d18:	82 c0 b3    	mov.b     #0x8, w2
    1d1a:	81 c2 b3    	mov.b     #0x28, w1
    1d1c:	1e 00 78    	mov.w     [w14], w0
    1d1e:	2a ff 07    	rcall     0x1b74 <___lcd_send> <.LFB2> <.LFE1>
    delay_by_nop(50);
    1d20:	20 03 20    	mov.w     #0x32, w0
    1d22:	01 00 20    	mov.w     #0x0, w1
    1d24:	71 01 07    	rcall     0x2008 <_delay_by_nop> <.L0> <.LFB0> <.LFE16> <.Letext0> <.Ltext0>

    __lcd_send(self, 0x80, INTERNAL_WRITE); // Display off, cursor off
    1d26:	82 c0 b3    	mov.b     #0x8, w2
    1d28:	01 c8 b3    	mov.b     #0x80, w1
    1d2a:	1e 00 78    	mov.w     [w14], w0
    1d2c:	23 ff 07    	rcall     0x1b74 <___lcd_send> <.LFB2> <.LFE1>
    delay_by_nop(50);
    1d2e:	20 03 20    	mov.w     #0x32, w0
    1d30:	01 00 20    	mov.w     #0x0, w1
    1d32:	6a 01 07    	rcall     0x2008 <_delay_by_nop> <.L0> <.LFB0> <.LFE16> <.Letext0> <.Ltext0>

    __lcd_send(self, 0x01, INTERNAL_WRITE); // Go to home position
    1d34:	82 c0 b3    	mov.b     #0x8, w2
    1d36:	11 c0 b3    	mov.b     #0x1, w1
    1d38:	1e 00 78    	mov.w     [w14], w0
    1d3a:	1c ff 07    	rcall     0x1b74 <___lcd_send> <.LFB2> <.LFE1>
    delay_by_nop(2000);
    1d3c:	00 7d 20    	mov.w     #0x7d0, w0
    1d3e:	01 00 20    	mov.w     #0x0, w1
    1d40:	63 01 07    	rcall     0x2008 <_delay_by_nop> <.L0> <.LFB0> <.LFE16> <.Letext0> <.Ltext0>

    __lcd_send(self, 0x06, INTERNAL_WRITE); // Set curson direction
    1d42:	82 c0 b3    	mov.b     #0x8, w2
    1d44:	61 c0 b3    	mov.b     #0x6, w1
    1d46:	1e 00 78    	mov.w     [w14], w0
    1d48:	15 ff 07    	rcall     0x1b74 <___lcd_send> <.LFB2> <.LFE1>
    delay_by_nop(5000);
    1d4a:	80 38 21    	mov.w     #0x1388, w0
    1d4c:	01 00 20    	mov.w     #0x0, w1
    1d4e:	5c 01 07    	rcall     0x2008 <_delay_by_nop> <.L0> <.LFB0> <.LFE16> <.Letext0> <.Ltext0>

    __lcd_send(self, 0x0C, INTERNAL_WRITE); // Display on, cursor off
    1d50:	82 c0 b3    	mov.b     #0x8, w2
    1d52:	c1 c0 b3    	mov.b     #0xc, w1
    1d54:	1e 00 78    	mov.w     [w14], w0
    1d56:	0e ff 07    	rcall     0x1b74 <___lcd_send> <.LFB2> <.LFE1>
}
    1d58:	00 80 fa    	ulnk      
    1d5a:	00 00 06    	return    

00001d5c <_lcd_stop>:

// Stops lcd I2C transfer
void lcd_stop(_LCD *self) {
    1d5c:	02 00 fa    	lnk       #0x2
    1d5e:	00 0f 78    	mov.w     w0, [w14]
    reset_i2c_bus();
    1d60:	a7 01 07    	rcall     0x20b0 <_reset_i2c_bus> <.LFB4> <.LFE3>
}
    1d62:	00 80 fa    	ulnk      
    1d64:	00 00 06    	return    

00001d66 <_lcd_display>:

// Sends show display command to LCD
void lcd_display(_LCD *self, uint8_t on) {
    1d66:	04 00 fa    	lnk       #0x4
    1d68:	00 0f 78    	mov.w     w0, [w14]
    1d6a:	21 47 98    	mov.b     w1, [w14+2]
    if (on) {
    1d6c:	2e 40 90    	mov.b     [w14+2], w0
    1d6e:	00 04 e0    	cp0.b     w0
    1d70:	07 00 32    	bra       Z, 0x1d80 <.L18>
        self->display_control |= LCD_DISPLAYON;
    1d72:	1e 00 78    	mov.w     [w14], w0
    1d74:	30 40 90    	mov.b     [w0+3], w0
    1d76:	80 40 78    	mov.b     w0, w1
    1d78:	01 24 a0    	bset.b    w1, #0x2
    1d7a:	1e 00 78    	mov.w     [w14], w0
    1d7c:	31 40 98    	mov.b     w1, [w0+3]
    1d7e:	06 00 37    	bra       0x1d8c <.L19>

00001d80 <.L18>:
    } else {
        self->display_control &= ~LCD_DISPLAYON;
    1d80:	1e 00 78    	mov.w     [w14], w0
    1d82:	b0 40 90    	mov.b     [w0+3], w1
    1d84:	b0 cf b3    	mov.b     #0xfb, w0
    1d86:	80 c0 60    	and.b     w1, w0, w1
    1d88:	1e 00 78    	mov.w     [w14], w0
    1d8a:	31 40 98    	mov.b     w1, [w0+3]

00001d8c <.L19>:
    }
    __lcd_send(self, self->display_control | LCD_DISPLAYCONTROL, INTERNAL_WRITE);
    1d8c:	1e 00 78    	mov.w     [w14], w0
    1d8e:	30 40 90    	mov.b     [w0+3], w0
    1d90:	00 34 a0    	bset.b    w0, #0x3
    1d92:	82 c0 b3    	mov.b     #0x8, w2
    1d94:	80 40 78    	mov.b     w0, w1
    1d96:	1e 00 78    	mov.w     [w14], w0
    1d98:	ed fe 07    	rcall     0x1b74 <___lcd_send> <.LFB2> <.LFE1>
}
    1d9a:	00 80 fa    	ulnk      
    1d9c:	00 00 06    	return    

00001d9e <_lcd_clear>:

// Sends clear display command to LCD
void lcd_clear(_LCD *self) {
    1d9e:	02 00 fa    	lnk       #0x2
    1da0:	00 0f 78    	mov.w     w0, [w14]
    __lcd_send(self, LCD_CLEARDISPLAY, INTERNAL_WRITE);
    1da2:	82 c0 b3    	mov.b     #0x8, w2
    1da4:	11 c0 b3    	mov.b     #0x1, w1
    1da6:	1e 00 78    	mov.w     [w14], w0
    1da8:	e5 fe 07    	rcall     0x1b74 <___lcd_send> <.LFB2> <.LFE1>
    delay_by_nop(2000);
    1daa:	00 7d 20    	mov.w     #0x7d0, w0
    1dac:	01 00 20    	mov.w     #0x0, w1
    1dae:	2c 01 07    	rcall     0x2008 <_delay_by_nop> <.L0> <.LFB0> <.LFE16> <.Letext0> <.Ltext0>
}
    1db0:	00 80 fa    	ulnk      
    1db2:	00 00 06    	return    

00001db4 <_lcd_putc>:

// Sends single character to LCD display
void lcd_putc(_LCD *self, char c) {
    1db4:	04 00 fa    	lnk       #0x4
    1db6:	00 0f 78    	mov.w     w0, [w14]
    1db8:	21 47 98    	mov.b     w1, [w14+2]
    __lcd_send(self, c, DR_WRITE);
    1dba:	2e 40 90    	mov.b     [w14+2], w0
    1dbc:	92 c0 b3    	mov.b     #0x9, w2
    1dbe:	80 40 78    	mov.b     w0, w1
    1dc0:	1e 00 78    	mov.w     [w14], w0
    1dc2:	d8 fe 07    	rcall     0x1b74 <___lcd_send> <.LFB2> <.LFE1>
    // delay_by_nop(1000);
}
    1dc4:	00 80 fa    	ulnk      
    1dc6:	00 00 06    	return    

00001dc8 <_lcd_goto>:

// Sends commands to move LCD cursor to specified location
void lcd_goto(_LCD *self, uint8_t line, uint8_t col) { //x=col, y=row
    1dc8:	06 00 fa    	lnk       #0x6
    1dca:	10 07 98    	mov.w     w0, [w14+2]
    1dcc:	41 47 98    	mov.b     w1, [w14+4]
    1dce:	52 47 98    	mov.b     w2, [w14+5]
    uint8_t address;
    switch(line) {
    1dd0:	4e 40 90    	mov.b     [w14+4], w0
    1dd2:	00 80 fb    	ze        w0, w0
    1dd4:	e1 0f 50    	sub.w     w0, #0x1, [w15]
    1dd6:	03 00 32    	bra       Z, 0x1dde <.L24>
    1dd8:	e2 0f 50    	sub.w     w0, #0x2, [w15]
    1dda:	04 00 32    	bra       Z, 0x1de4 <.L25>
    1ddc:	06 00 37    	bra       0x1dea <.L27>

00001dde <.L24>:
        case 1:
            address = 0x00;
    1dde:	00 40 eb    	clr.b     w0
    1de0:	00 4f 78    	mov.b     w0, [w14]
            break;
    1de2:	06 00 37    	bra       0x1df0 <.L26>

00001de4 <.L25>:
        case 2:
            address = 0x40;
    1de4:	00 c4 b3    	mov.b     #0x40, w0
    1de6:	00 4f 78    	mov.b     w0, [w14]
            break;
    1de8:	03 00 37    	bra       0x1df0 <.L26>

00001dea <.L27>:
        default:
            address = 0x00;
    1dea:	00 40 eb    	clr.b     w0
    1dec:	00 4f 78    	mov.b     w0, [w14]
            break;
    1dee:	00 00 00    	nop       

00001df0 <.L26>:
    }

    address = address+col;
    1df0:	5e 40 90    	mov.b     [w14+5], w0
    1df2:	1e 4f 40    	add.b     w0, [w14], [w14]
    __lcd_send(self, LCD_SETDDRAMADDR | address, INTERNAL_WRITE);
    1df4:	1e 40 78    	mov.b     [w14], w0
    1df6:	00 74 a0    	bset.b    w0, #0x7
    1df8:	82 c0 b3    	mov.b     #0x8, w2
    1dfa:	80 40 78    	mov.b     w0, w1
    1dfc:	1e 00 90    	mov.w     [w14+2], w0
    1dfe:	ba fe 07    	rcall     0x1b74 <___lcd_send> <.LFB2> <.LFE1>
}
    1e00:	00 80 fa    	ulnk      
    1e02:	00 00 06    	return    

00001e04 <_lcd_cursor>:


void lcd_cursor(_LCD *self, uint8_t cur) {
    1e04:	04 00 fa    	lnk       #0x4
    1e06:	00 0f 78    	mov.w     w0, [w14]
    1e08:	21 47 98    	mov.b     w1, [w14+2]
    switch(cur) {
    1e0a:	2e 40 90    	mov.b     [w14+2], w0
    1e0c:	00 80 fb    	ze        w0, w0
    1e0e:	00 00 e0    	cp0.w     w0
    1e10:	03 00 32    	bra       Z, 0x1e18 <.L30>
    1e12:	e1 0f 50    	sub.w     w0, #0x1, [w15]
    1e14:	06 00 32    	bra       Z, 0x1e22 <.L31>
        case 0:
            __lcd_send(self, 0x0C, INTERNAL_WRITE);
            break;
        case 1:
            __lcd_send(self, 0x0E, INTERNAL_WRITE);
            break;
        default:
            break;
    1e16:	0a 00 37    	bra       0x1e2c <.L28>

00001e18 <.L30>:
    1e18:	82 c0 b3    	mov.b     #0x8, w2
    1e1a:	c1 c0 b3    	mov.b     #0xc, w1
    1e1c:	1e 00 78    	mov.w     [w14], w0
    1e1e:	aa fe 07    	rcall     0x1b74 <___lcd_send> <.LFB2> <.LFE1>
    1e20:	05 00 37    	bra       0x1e2c <.L28>

00001e22 <.L31>:
    1e22:	82 c0 b3    	mov.b     #0x8, w2
    1e24:	e1 c0 b3    	mov.b     #0xe, w1
    1e26:	1e 00 78    	mov.w     [w14], w0
    1e28:	a5 fe 07    	rcall     0x1b74 <___lcd_send> <.LFB2> <.LFE1>
    1e2a:	00 00 00    	nop       

00001e2c <.L28>:
    }
}
    1e2c:	00 80 fa    	ulnk      
    1e2e:	00 00 06    	return    

00001e30 <_lcd_print1>:

void lcd_print1(_LCD *self, char *str) {
    1e30:	04 00 fa    	lnk       #0x4
    1e32:	00 0f 78    	mov.w     w0, [w14]
    1e34:	11 07 98    	mov.w     w1, [w14+2]
    lcd_clear(self);
    1e36:	1e 00 78    	mov.w     [w14], w0
    1e38:	b2 ff 07    	rcall     0x1d9e <_lcd_clear> <.LFB8> <.LFE7>
    while (*str) {
    1e3a:	08 00 37    	bra       0x1e4c <.L34>

00001e3c <.L35>:
        lcd_putc(self, *str);
    1e3c:	1e 00 90    	mov.w     [w14+2], w0
    1e3e:	10 40 78    	mov.b     [w0], w0
    1e40:	80 40 78    	mov.b     w0, w1
    1e42:	1e 00 78    	mov.w     [w14], w0
    1e44:	b7 ff 07    	rcall     0x1db4 <_lcd_putc> <.LFB9> <.LFE8>
        str++;
    1e46:	1e 00 90    	mov.w     [w14+2], w0
    1e48:	00 00 e8    	inc.w     w0, w0
    1e4a:	10 07 98    	mov.w     w0, [w14+2]

00001e4c <.L34>:
    1e4c:	1e 00 90    	mov.w     [w14+2], w0
    1e4e:	10 40 78    	mov.b     [w0], w0
    1e50:	00 04 e0    	cp0.b     w0
    1e52:	f4 ff 3a    	bra       NZ, 0x1e3c <.L35>
    }
}
    1e54:	00 80 fa    	ulnk      
    1e56:	00 00 06    	return    

00001e58 <_lcd_print2>:

void lcd_print2(_LCD *self, char* line1, char* line2){
    1e58:	42 00 fa    	lnk       #0x42
    1e5a:	60 1f 98    	mov.w     w0, [w14+60]
    1e5c:	71 1f 98    	mov.w     w1, [w14+62]
    1e5e:	02 27 98    	mov.w     w2, [w14+64]
    lcd_clear(self);
    1e60:	6e 18 90    	mov.w     [w14+60], w0
    1e62:	9d ff 07    	rcall     0x1d9e <_lcd_clear> <.LFB8> <.LFE7>
    char str[56] ="                                                        ";
    1e64:	20 54 29    	mov.w     #0x9542, w0
    1e66:	e4 00 47    	add.w     w14, #0x4, w1
    1e68:	37 00 09    	repeat    #0x37
    1e6a:	b0 58 78    	mov.b     [w0++], [w1++]
    1e6c:	80 03 b1    	sub.w     #0x38, w0
    int i =0;
    1e6e:	00 00 eb    	clr.w     w0
    1e70:	00 0f 78    	mov.w     w0, [w14]
    while (*line1){
    1e72:	09 00 37    	bra       0x1e86 <.L37>

00001e74 <.L38>:
        str[i]=*line1;
    1e74:	7e 18 90    	mov.w     [w14+62], w0
    1e76:	90 40 78    	mov.b     [w0], w1
    1e78:	64 00 47    	add.w     w14, #0x4, w0
    1e7a:	1e 00 40    	add.w     w0, [w14], w0
    1e7c:	01 48 78    	mov.b     w1, [w0]
        i=i+1;
    1e7e:	1e 0f e8    	inc.w     [w14], [w14]
        line1++;
    1e80:	7e 18 90    	mov.w     [w14+62], w0
    1e82:	00 00 e8    	inc.w     w0, w0
    1e84:	70 1f 98    	mov.w     w0, [w14+62]

00001e86 <.L37>:
    1e86:	7e 18 90    	mov.w     [w14+62], w0
    1e88:	10 40 78    	mov.b     [w0], w0
    1e8a:	00 04 e0    	cp0.b     w0
    1e8c:	f3 ff 3a    	bra       NZ, 0x1e74 <.L38>
    }
    i =40;
    1e8e:	80 02 20    	mov.w     #0x28, w0
    1e90:	00 0f 78    	mov.w     w0, [w14]
    while (*line2){
    1e92:	09 00 37    	bra       0x1ea6 <.L39>

00001e94 <.L40>:
        str[i]=*line2;
    1e94:	0e 20 90    	mov.w     [w14+64], w0
    1e96:	90 40 78    	mov.b     [w0], w1
    1e98:	64 00 47    	add.w     w14, #0x4, w0
    1e9a:	1e 00 40    	add.w     w0, [w14], w0
    1e9c:	01 48 78    	mov.b     w1, [w0]
        i=i+1;
    1e9e:	1e 0f e8    	inc.w     [w14], [w14]
        line2++;
    1ea0:	0e 20 90    	mov.w     [w14+64], w0
    1ea2:	00 00 e8    	inc.w     w0, w0
    1ea4:	00 27 98    	mov.w     w0, [w14+64]

00001ea6 <.L39>:
    1ea6:	0e 20 90    	mov.w     [w14+64], w0
    1ea8:	10 40 78    	mov.b     [w0], w0
    1eaa:	00 04 e0    	cp0.b     w0
    1eac:	f3 ff 3a    	bra       NZ, 0x1e94 <.L40>
    }
    char* strptr=str;
    1eae:	64 00 47    	add.w     w14, #0x4, w0
    1eb0:	10 07 98    	mov.w     w0, [w14+2]
    lcd_print1(self,strptr);
    1eb2:	9e 00 90    	mov.w     [w14+2], w1
    1eb4:	6e 18 90    	mov.w     [w14+60], w0
    1eb6:	bc ff 07    	rcall     0x1e30 <_lcd_print1> <.LFB12> <.LFE11>
}
    1eb8:	00 80 fa    	ulnk      
    1eba:	00 00 06    	return    

00001ebc <_lcd_print>:

void lcd_print(_LCD *self, char* message) {
    1ebc:	30 00 fa    	lnk       #0x30
    1ebe:	60 17 98    	mov.w     w0, [w14+44]
    1ec0:	71 17 98    	mov.w     w1, [w14+46]
    char newstr1[17] = "                ";
    1ec2:	b0 57 29    	mov.w     #0x957b, w0
    1ec4:	ea 00 47    	add.w     w14, #0xa, w1
    1ec6:	10 00 09    	repeat    #0x10
    1ec8:	b0 58 78    	mov.b     [w0++], [w1++]
    1eca:	10 01 b1    	sub.w     #0x11, w0
    char* newstrptr1= newstr1;
    1ecc:	6a 0f 47    	add.w     w14, #0xa, [w14]
    char newstr2[17] = "                ";
    1ece:	b0 57 29    	mov.w     #0x957b, w0
    1ed0:	fb 00 47    	add.w     w14, #0x1b, w1
    1ed2:	10 00 09    	repeat    #0x10
    1ed4:	b0 58 78    	mov.b     [w0++], [w1++]
    1ed6:	10 01 b1    	sub.w     #0x11, w0
    char* newstrptr2= newstr2;
    1ed8:	7b 00 47    	add.w     w14, #0x1b, w0
    1eda:	10 07 98    	mov.w     w0, [w14+2]
    char* temp1 = newstrptr1;
    1edc:	9e 00 78    	mov.w     [w14], w1
    1ede:	31 07 98    	mov.w     w1, [w14+6]
    char* temp2 = newstrptr2;
    1ee0:	9e 00 90    	mov.w     [w14+2], w1
    1ee2:	41 07 98    	mov.w     w1, [w14+8]
    uint8_t i=0;
    1ee4:	00 40 eb    	clr.b     w0
    1ee6:	40 47 98    	mov.b     w0, [w14+4]
    while (i <17){
    1ee8:	0f 00 37    	bra       0x1f08 <.L42>

00001eea <.L44>:
        if (*message){
    1eea:	7e 10 90    	mov.w     [w14+46], w0
    1eec:	10 40 78    	mov.b     [w0], w0
    1eee:	00 04 e0    	cp0.b     w0
    1ef0:	08 00 32    	bra       Z, 0x1f02 <.L43>
            *newstrptr1=*message;
    1ef2:	7e 10 90    	mov.w     [w14+46], w0
    1ef4:	90 40 78    	mov.b     [w0], w1
    1ef6:	1e 00 78    	mov.w     [w14], w0
    1ef8:	01 48 78    	mov.b     w1, [w0]
            message++;
    1efa:	7e 10 90    	mov.w     [w14+46], w0
    1efc:	00 00 e8    	inc.w     w0, w0
    1efe:	70 17 98    	mov.w     w0, [w14+46]
            newstrptr1++;
    1f00:	1e 0f e8    	inc.w     [w14], [w14]

00001f02 <.L43>:
        }
        i++;
    1f02:	4e 40 90    	mov.b     [w14+4], w0
    1f04:	00 40 e8    	inc.b     w0, w0
    1f06:	40 47 98    	mov.b     w0, [w14+4]

00001f08 <.L42>:
    1f08:	4e 40 90    	mov.b     [w14+4], w0
    1f0a:	f0 4f 50    	sub.b     w0, #0x10, [w15]
    1f0c:	ee ff 36    	bra       LEU, 0x1eea <.L44>
    }
    i=0;
    1f0e:	00 40 eb    	clr.b     w0
    1f10:	40 47 98    	mov.b     w0, [w14+4]
    message--; //SKETCHY!
    1f12:	7e 10 90    	mov.w     [w14+46], w0
    1f14:	00 00 e9    	dec.w     w0, w0
    1f16:	70 17 98    	mov.w     w0, [w14+46]
    while (i <17){
    1f18:	11 00 37    	bra       0x1f3c <.L45>

00001f1a <.L47>:
        if (*message){
    1f1a:	7e 10 90    	mov.w     [w14+46], w0
    1f1c:	10 40 78    	mov.b     [w0], w0
    1f1e:	00 04 e0    	cp0.b     w0
    1f20:	0a 00 32    	bra       Z, 0x1f36 <.L46>
            *newstrptr2=*message;
    1f22:	7e 10 90    	mov.w     [w14+46], w0
    1f24:	90 40 78    	mov.b     [w0], w1
    1f26:	1e 00 90    	mov.w     [w14+2], w0
    1f28:	01 48 78    	mov.b     w1, [w0]
            message++;
    1f2a:	7e 10 90    	mov.w     [w14+46], w0
    1f2c:	00 00 e8    	inc.w     w0, w0
    1f2e:	70 17 98    	mov.w     w0, [w14+46]
            newstrptr2++;
    1f30:	1e 00 90    	mov.w     [w14+2], w0
    1f32:	00 00 e8    	inc.w     w0, w0
    1f34:	10 07 98    	mov.w     w0, [w14+2]

00001f36 <.L46>:
        }
        i++;
    1f36:	4e 40 90    	mov.b     [w14+4], w0
    1f38:	00 40 e8    	inc.b     w0, w0
    1f3a:	40 47 98    	mov.b     w0, [w14+4]

00001f3c <.L45>:
    1f3c:	4e 40 90    	mov.b     [w14+4], w0
    1f3e:	f0 4f 50    	sub.b     w0, #0x10, [w15]
    1f40:	ec ff 36    	bra       LEU, 0x1f1a <.L47>
    }
    lcd_print2(self, temp1, temp2);
    1f42:	4e 01 90    	mov.w     [w14+8], w2
    1f44:	be 00 90    	mov.w     [w14+6], w1
    1f46:	6e 10 90    	mov.w     [w14+44], w0
    1f48:	87 ff 07    	rcall     0x1e58 <_lcd_print2> <.LFB13> <.LFE12>
}
    1f4a:	00 80 fa    	ulnk      
    1f4c:	00 00 06    	return    

00001f4e <_lcd_broadcast>:

void lcd_broadcast(char* message) {
    1f4e:	04 00 fa    	lnk       #0x4
    1f50:	10 07 98    	mov.w     w0, [w14+2]
    uint8_t i;
    for (i = 0; i < 3; i++)
    1f52:	00 40 eb    	clr.b     w0
    1f54:	00 4f 78    	mov.b     w0, [w14]
    1f56:	08 00 37    	bra       0x1f68 <.L49>

00001f58 <.L50>:
        lcd_print(&lcd[i], message);
    1f58:	1e 80 fb    	ze        [w14], w0
    1f5a:	65 00 b9    	mul.su    w0, #0x5, w0
    1f5c:	80 00 78    	mov.w     w0, w1
    1f5e:	20 04 21    	mov.w     #0x1042, w0
    1f60:	00 80 40    	add.w     w1, w0, w0
    1f62:	9e 00 90    	mov.w     [w14+2], w1
    1f64:	ab ff 07    	rcall     0x1ebc <_lcd_print> <.LFB14> <.LFE13>
    1f66:	1e 4f e8    	inc.b     [w14], [w14]

00001f68 <.L49>:
    1f68:	1e 40 78    	mov.b     [w14], w0
    1f6a:	e2 4f 50    	sub.b     w0, #0x2, [w15]
    1f6c:	f5 ff 36    	bra       LEU, 0x1f58 <.L50>
}
    1f6e:	00 80 fa    	ulnk      
    1f70:	00 00 06    	return    

00001f72 <_itoa>:

char * itoa (int value, char *result, int base) {
    1f72:	0e 00 fa    	lnk       #0xe
    1f74:	40 07 98    	mov.w     w0, [w14+8]
    1f76:	51 07 98    	mov.w     w1, [w14+10]
    1f78:	62 07 98    	mov.w     w2, [w14+12]
    // check that the base if valid
    if (base < 2 || base > 36) { *result = '\0'; return result; }
    1f7a:	6e 00 90    	mov.w     [w14+12], w0
    1f7c:	e1 0f 50    	sub.w     w0, #0x1, [w15]
    1f7e:	04 00 34    	bra       LE, 0x1f88 <.L52>
    1f80:	ee 00 90    	mov.w     [w14+12], w1
    1f82:	40 02 20    	mov.w     #0x24, w0
    1f84:	80 8f 50    	sub.w     w1, w0, [w15]
    1f86:	05 00 34    	bra       LE, 0x1f92 <.L53>

00001f88 <.L52>:
    1f88:	5e 00 90    	mov.w     [w14+10], w0
    1f8a:	80 40 eb    	clr.b     w1
    1f8c:	01 48 78    	mov.b     w1, [w0]
    1f8e:	5e 00 90    	mov.w     [w14+10], w0
    1f90:	39 00 37    	bra       0x2004 <.L54>

00001f92 <.L53>:

    char* ptr = result, *ptr1 = result, tmp_char;
    1f92:	de 00 90    	mov.w     [w14+10], w1
    1f94:	01 0f 78    	mov.w     w1, [w14]
    1f96:	5e 01 90    	mov.w     [w14+10], w2
    1f98:	12 07 98    	mov.w     w2, [w14+2]

00001f9a <.L55>:
    int tmp_value;

    do {
        tmp_value = value;
    1f9a:	ce 00 90    	mov.w     [w14+8], w1
    1f9c:	21 07 98    	mov.w     w1, [w14+4]
        value /= base;
    1f9e:	ce 00 90    	mov.w     [w14+8], w1
    1fa0:	6e 00 90    	mov.w     [w14+12], w0
    1fa2:	00 01 78    	mov.w     w0, w2
    1fa4:	11 00 09    	repeat    #0x11
    1fa6:	82 00 d8    	div.sw    w1, w2
    1fa8:	40 07 98    	mov.w     w0, [w14+8]
        *ptr++ = "zyxwvutsrqponmlkjihgfedcba9876543210123456789abcdefghijklmnopqrstuvwxyz" [35 + (tmp_value - value * base)];
    1faa:	ce 00 90    	mov.w     [w14+8], w1
    1fac:	6e 00 90    	mov.w     [w14+12], w0
    1fae:	00 88 b9    	mul.ss    w1, w0, w0
    1fb0:	00 00 78    	mov.w     w0, w0
    1fb2:	ae 00 90    	mov.w     [w14+4], w1
    1fb4:	00 80 50    	sub.w     w1, w0, w0
    1fb6:	30 02 b0    	add.w     #0x23, w0
    1fb8:	c1 58 29    	mov.w     #0x958c, w1
    1fba:	e1 40 78    	mov.b     [w1+w0], w1
    1fbc:	1e 00 78    	mov.w     [w14], w0
    1fbe:	01 48 78    	mov.b     w1, [w0]
    1fc0:	1e 0f e8    	inc.w     [w14], [w14]
    } while ( value );
    1fc2:	4e 00 90    	mov.w     [w14+8], w0
    1fc4:	00 00 e0    	cp0.w     w0
    1fc6:	e9 ff 3a    	bra       NZ, 0x1f9a <.L55>

    // Apply negative sign
    if (tmp_value < 0) *ptr++ = '-';
    1fc8:	2e 00 90    	mov.w     [w14+4], w0
    1fca:	00 00 e0    	cp0.w     w0
    1fcc:	04 00 3d    	bra       GE, 0x1fd6 <.L56>
    1fce:	1e 00 78    	mov.w     [w14], w0
    1fd0:	d1 c2 b3    	mov.b     #0x2d, w1
    1fd2:	01 48 78    	mov.b     w1, [w0]
    1fd4:	1e 0f e8    	inc.w     [w14], [w14]

00001fd6 <.L56>:
    *ptr-- = '\0';
    1fd6:	1e 00 78    	mov.w     [w14], w0
    1fd8:	80 40 eb    	clr.b     w1
    1fda:	01 48 78    	mov.b     w1, [w0]
    1fdc:	1e 0f e9    	dec.w     [w14], [w14]
    while (ptr1 < ptr) {
    1fde:	0e 00 37    	bra       0x1ffc <.L57>

00001fe0 <.L58>:
        tmp_char = *ptr;
    1fe0:	1e 00 78    	mov.w     [w14], w0
    1fe2:	90 40 78    	mov.b     [w0], w1
    1fe4:	61 47 98    	mov.b     w1, [w14+6]
        *ptr--= *ptr1;
    1fe6:	1e 00 90    	mov.w     [w14+2], w0
    1fe8:	90 40 78    	mov.b     [w0], w1
    1fea:	1e 00 78    	mov.w     [w14], w0
    1fec:	01 48 78    	mov.b     w1, [w0]
    1fee:	1e 0f e9    	dec.w     [w14], [w14]
        *ptr1++ = tmp_char;
    1ff0:	1e 00 90    	mov.w     [w14+2], w0
    1ff2:	6e 41 90    	mov.b     [w14+6], w2
    1ff4:	02 48 78    	mov.b     w2, [w0]
    1ff6:	1e 00 90    	mov.w     [w14+2], w0
    1ff8:	00 00 e8    	inc.w     w0, w0
    1ffa:	10 07 98    	mov.w     w0, [w14+2]

00001ffc <.L57>:
    1ffc:	1e 00 90    	mov.w     [w14+2], w0
    1ffe:	9e 0f 50    	sub.w     w0, [w14], [w15]
    2000:	ef ff 39    	bra       NC, 0x1fe0 <.L58>
    }
    return result;
    2002:	5e 00 90    	mov.w     [w14+10], w0

00002004 <.L54>:
}
    2004:	00 80 fa    	ulnk      
    2006:	00 00 06    	return    

00002008 <_delay_by_nop>:
// From https://web.archive.org/web/20161223060411/http://www.engscope.com/pic24-tutorial/10-2-i2c-basic-functions/

#include "i2c_reg.h"

void delay_by_nop(uint32_t num_nops){    // 1 nop= 375ns
    2008:	08 00 fa    	lnk       #0x8
    200a:	20 07 98    	mov.w     w0, [w14+4]
    200c:	31 07 98    	mov.w     w1, [w14+6]
    uint32_t count = 0;
    200e:	60 00 b8    	mul.uu    w0, #0x0, w0
    2010:	00 8f be    	mov.d     w0, [w14]
    while (count < num_nops){
    2012:	05 00 37    	bra       0x201e <.L2>

00002014 <.L3>:
        __asm__("nop");
    2014:	00 00 00    	nop       
        count +=1;
    2016:	12 00 20    	mov.w     #0x1, w2
    2018:	03 00 20    	mov.w     #0x0, w3
    201a:	1e 0f 41    	add.w     w2, [w14], [w14]
    201c:	5e 97 49    	addc.w    w3, [++w14], [w14--]

0000201e <.L2>:
    201e:	2e 00 90    	mov.w     [w14+4], w0
    2020:	be 00 90    	mov.w     [w14+6], w1
    2022:	1e 01 be    	mov.d     [w14], w2
    2024:	80 0f 51    	sub.w     w2, w0, [w15]
    2026:	81 8f 59    	subb.w    w3, w1, [w15]
    2028:	f5 ff 39    	bra       NC, 0x2014 <.L3>
    }
}
    202a:	00 80 fa    	ulnk      
    202c:	00 00 06    	return    

0000202e <_i2c_init>:

// initiates I2C3 module to baud rate BRG
void i2c_init(int BRG){      // I2CBRG = 157 for 16Mhz OSC with 100kHz I2C clock
    202e:	04 00 fa    	lnk       #0x4
    2030:	10 07 98    	mov.w     w0, [w14+2]
   int temp;
   I2C3BRG = BRG;           // Sets freq to 100kHz
    2032:	1e 00 90    	mov.w     [w14+2], w0
    2034:	a0 13 88    	mov.w     w0, 0x274
   I2C3CONbits.I2CEN = 0;	// Disable I2C Mode
    2036:	77 e2 a9    	bclr.b    0x277, #0x7
   I2C3CONbits.DISSLW = 1;	// Disable slew rate control
    2038:	77 22 a8    	bset.b    0x277, #0x1
   IFS5bits.MI2C3IF = 0;	 // Clear Interrupt
    203a:	8e a0 a9    	bclr.b    0x8e, #0x5
   I2C3CONbits.I2CEN = 1;	// Enable I2C Mode
    203c:	77 e2 a8    	bset.b    0x277, #0x7
   temp = I2C3RCV;	 // read buffer to clear buffer full
    203e:	80 13 80    	mov.w     0x270, w0
    2040:	00 0f 78    	mov.w     w0, [w14]
   reset_i2c_bus();	 // set bus to idle
    2042:	36 00 07    	rcall     0x20b0 <_reset_i2c_bus> <.LFB4> <.LFE3>
}
    2044:	00 80 fa    	ulnk      
    2046:	00 00 06    	return    

00002048 <_i2c_start>:

//function iniates a start condition on bus
void i2c_start(void){
    2048:	02 00 fa    	lnk       #0x2
   int x = 0;
    204a:	00 00 eb    	clr.w     w0
    204c:	00 0f 78    	mov.w     w0, [w14]
   I2C3CONbits.ACKDT = 0;	//Reset any previous Ack
    204e:	76 a2 a9    	bclr.b    0x276, #0x5
   delay_by_nop(10);
    2050:	a0 00 20    	mov.w     #0xa, w0
    2052:	01 00 20    	mov.w     #0x0, w1
    2054:	d9 ff 07    	rcall     0x2008 <_delay_by_nop> <.L0> <.LFB0> <.LFE16> <.Letext0> <.Ltext0>
   I2C3CONbits.SEN = 1;	//Initiate Start condition
    2056:	76 02 a8    	bset.b    0x276, #0x0
   __asm__("nop");
    2058:	00 00 00    	nop       

   while (I2C3CONbits.SEN){    //the hardware will automatically clear Start Bit
    205a:	07 00 37    	bra       0x206a <.L6>

0000205c <.L8>:
      delay_by_nop(1);      //wait for automatic clear before proceding
    205c:	10 00 20    	mov.w     #0x1, w0
    205e:	01 00 20    	mov.w     #0x0, w1
    2060:	d3 ff 07    	rcall     0x2008 <_delay_by_nop> <.L0> <.LFB0> <.LFE16> <.Letext0> <.Ltext0>
      x++;
    2062:	1e 0f e8    	inc.w     [w14], [w14]
      if (x > 20)
    2064:	1e 00 78    	mov.w     [w14], w0
    2066:	f4 0f 50    	sub.w     w0, #0x14, [w15]
    2068:	05 00 3c    	bra       GT, 0x2074 <.L9>

0000206a <.L6>:
    206a:	b0 13 80    	mov.w     0x276, w0
    206c:	61 00 60    	and.w     w0, #0x1, w0
    206e:	00 00 e0    	cp0.w     w0
    2070:	f5 ff 3a    	bra       NZ, 0x205c <.L8>
    2072:	01 00 37    	bra       0x2076 <.L7>

00002074 <.L9>:
      break;
    2074:	00 00 00    	nop       

00002076 <.L7>:
   }
   delay_by_nop(2);
    2076:	20 00 20    	mov.w     #0x2, w0
    2078:	01 00 20    	mov.w     #0x0, w1
    207a:	c6 ff 07    	rcall     0x2008 <_delay_by_nop> <.L0> <.LFB0> <.LFE16> <.Letext0> <.Ltext0>
}
    207c:	00 80 fa    	ulnk      
    207e:	00 00 06    	return    

00002080 <_i2c_restart>:

void i2c_restart(void){
    2080:	02 00 fa    	lnk       #0x2
   int x = 0;
    2082:	00 00 eb    	clr.w     w0
    2084:	00 0f 78    	mov.w     w0, [w14]
   I2C3CONbits.RSEN = 1;	//Initiate restart condition
    2086:	76 22 a8    	bset.b    0x276, #0x1
   __asm__("nop");
    2088:	00 00 00    	nop       
   //the hardware will automatically clear restart bit
   //wait for automatic clear before proceding
   while (I2C3CONbits.RSEN){
    208a:	07 00 37    	bra       0x209a <.L11>

0000208c <.L13>:
      delay_by_nop(1);
    208c:	10 00 20    	mov.w     #0x1, w0
    208e:	01 00 20    	mov.w     #0x0, w1
    2090:	bb ff 07    	rcall     0x2008 <_delay_by_nop> <.L0> <.LFB0> <.LFE16> <.Letext0> <.Ltext0>
      x++;
    2092:	1e 0f e8    	inc.w     [w14], [w14]
      if (x > 20)	break;
    2094:	1e 00 78    	mov.w     [w14], w0
    2096:	f4 0f 50    	sub.w     w0, #0x14, [w15]
    2098:	05 00 3c    	bra       GT, 0x20a4 <.L14>

0000209a <.L11>:
    209a:	b0 13 80    	mov.w     0x276, w0
    209c:	62 00 60    	and.w     w0, #0x2, w0
    209e:	00 00 e0    	cp0.w     w0
    20a0:	f5 ff 3a    	bra       NZ, 0x208c <.L13>
    20a2:	01 00 37    	bra       0x20a6 <.L12>

000020a4 <.L14>:
    20a4:	00 00 00    	nop       

000020a6 <.L12>:
   }
   delay_by_nop(2);
    20a6:	20 00 20    	mov.w     #0x2, w0
    20a8:	01 00 20    	mov.w     #0x0, w1
    20aa:	ae ff 07    	rcall     0x2008 <_delay_by_nop> <.L0> <.LFB0> <.LFE16> <.Letext0> <.Ltext0>
}
    20ac:	00 80 fa    	ulnk      
    20ae:	00 00 06    	return    

000020b0 <_reset_i2c_bus>:


//Resets the I2C bus to Idle
void reset_i2c_bus(void){
    20b0:	02 00 fa    	lnk       #0x2
   int x = 0;
    20b2:	00 00 eb    	clr.w     w0
    20b4:	00 0f 78    	mov.w     w0, [w14]
   I2C3CONbits.PEN = 1;     //initiate stop bit
    20b6:	76 42 a8    	bset.b    0x276, #0x2
   while (I2C3CONbits.PEN) {     //wait for hardware clear of stop bit
    20b8:	07 00 37    	bra       0x20c8 <.L16>

000020ba <.L18>:
      // delay_by_nop(1);
      delay_by_nop(1);
    20ba:	10 00 20    	mov.w     #0x1, w0
    20bc:	01 00 20    	mov.w     #0x0, w1
    20be:	a4 ff 07    	rcall     0x2008 <_delay_by_nop> <.L0> <.LFB0> <.LFE16> <.Letext0> <.Ltext0>
      x ++;
    20c0:	1e 0f e8    	inc.w     [w14], [w14]
      if (x > 20) break;
    20c2:	1e 00 78    	mov.w     [w14], w0
    20c4:	f4 0f 50    	sub.w     w0, #0x14, [w15]
    20c6:	05 00 3c    	bra       GT, 0x20d2 <.L19>

000020c8 <.L16>:
    20c8:	b0 13 80    	mov.w     0x276, w0
    20ca:	64 00 60    	and.w     w0, #0x4, w0
    20cc:	00 00 e0    	cp0.w     w0
    20ce:	f5 ff 3a    	bra       NZ, 0x20ba <.L18>
    20d0:	01 00 37    	bra       0x20d4 <.L17>

000020d2 <.L19>:
    20d2:	00 00 00    	nop       

000020d4 <.L17>:
   }

   I2C3CONbits.RCEN = 0;
    20d4:	76 62 a9    	bclr.b    0x276, #0x3
   IFS5bits.MI2C3IF = 0; // Clear Interrupt
    20d6:	8e a0 a9    	bclr.b    0x8e, #0x5
   I2C3STATbits.IWCOL = 0;
    20d8:	78 e2 a9    	bclr.b    0x278, #0x7
   I2C3STATbits.BCL = 0;
    20da:	79 42 a9    	bclr.b    0x279, #0x2
   // delay_by_nop(10);
   delay_by_nop(20);
    20dc:	40 01 20    	mov.w     #0x14, w0
    20de:	01 00 20    	mov.w     #0x0, w1
    20e0:	93 ff 07    	rcall     0x2008 <_delay_by_nop> <.L0> <.LFB0> <.LFE16> <.Letext0> <.Ltext0>
}
    20e2:	00 80 fa    	ulnk      
    20e4:	00 00 06    	return    

000020e6 <_send_i2c_byte>:


//basic I2C byte send
char send_i2c_byte(int data){
    20e6:	04 00 fa    	lnk       #0x4
    20e8:	10 07 98    	mov.w     w0, [w14+2]
   int i;
   while (I2C3STATbits.TBF) { }
    20ea:	00 00 00    	nop       

000020ec <.L21>:
    20ec:	c0 13 80    	mov.w     0x278, w0
    20ee:	61 00 60    	and.w     w0, #0x1, w0
    20f0:	00 00 e0    	cp0.w     w0
    20f2:	fc ff 3a    	bra       NZ, 0x20ec <.L21>
   IFS5bits.MI2C3IF = 0; // Clear Interrupt
    20f4:	8e a0 a9    	bclr.b    0x8e, #0x5
   I2C3TRN = data; // load the outgoing data byte
    20f6:	1e 00 90    	mov.w     [w14+2], w0
    20f8:	90 13 88    	mov.w     w0, 0x272

   for (i=0; i<500; i++){           // wait for transmission
    20fa:	00 00 eb    	clr.w     w0
    20fc:	00 0f 78    	mov.w     w0, [w14]
    20fe:	09 00 37    	bra       0x2112 <.L22>

00002100 <.L25>:
      if (!I2C3STATbits.TRSTAT) break; // if master transmit not in progress break
    2100:	c1 13 80    	mov.w     0x278, w1
    2102:	00 00 24    	mov.w     #0x4000, w0
    2104:	00 80 60    	and.w     w1, w0, w0
    2106:	00 00 e0    	cp0.w     w0
    2108:	09 00 32    	bra       Z, 0x211c <.L29>
      delay_by_nop(1); }
    210a:	10 00 20    	mov.w     #0x1, w0
    210c:	01 00 20    	mov.w     #0x0, w1
    210e:	7c ff 07    	rcall     0x2008 <_delay_by_nop> <.L0> <.LFB0> <.LFE16> <.Letext0> <.Ltext0>
    2110:	1e 0f e8    	inc.w     [w14], [w14]

00002112 <.L22>:
    2112:	30 1f 20    	mov.w     #0x1f3, w0
    2114:	9e 00 78    	mov.w     [w14], w1
    2116:	80 8f 50    	sub.w     w1, w0, [w15]
    2118:	f3 ff 34    	bra       LE, 0x2100 <.L25>
    211a:	01 00 37    	bra       0x211e <.L24>

0000211c <.L29>:
    211c:	00 00 00    	nop       

0000211e <.L24>:

    if (i == 500) {     // if i got to 500, then there was an issue`
    211e:	40 1f 20    	mov.w     #0x1f4, w0
    2120:	9e 00 78    	mov.w     [w14], w1
    2122:	80 8f 50    	sub.w     w1, w0, [w15]
    2124:	02 00 3a    	bra       NZ, 0x212a <.L26>
        return(1); }    // return 1 to indicate failure
    2126:	10 c0 b3    	mov.b     #0x1, w0
    2128:	0c 00 37    	bra       0x2142 <.L27>

0000212a <.L26>:

   if (I2C3STATbits.ACKSTAT == 1){   // Check for NO_ACK from slave,
    212a:	c1 13 80    	mov.w     0x278, w1
    212c:	00 00 28    	mov.w     #0x8000, w0
    212e:	00 80 60    	and.w     w1, w0, w0
    2130:	00 00 e0    	cp0.w     w0
    2132:	03 00 32    	bra       Z, 0x213a <.L28>
      reset_i2c_bus();
    2134:	bd ff 07    	rcall     0x20b0 <_reset_i2c_bus> <.LFB4> <.LFE3>
      return(1); }            // abort if not found
    2136:	10 c0 b3    	mov.b     #0x1, w0
    2138:	04 00 37    	bra       0x2142 <.L27>

0000213a <.L28>:

   delay_by_nop(2);
    213a:	20 00 20    	mov.w     #0x2, w0
    213c:	01 00 20    	mov.w     #0x0, w1
    213e:	64 ff 07    	rcall     0x2008 <_delay_by_nop> <.L0> <.LFB0> <.LFE16> <.Letext0> <.Ltext0>
   return(0);
    2140:	00 40 eb    	clr.b     w0

00002142 <.L27>:
}
    2142:	00 80 fa    	ulnk      
    2144:	00 00 06    	return    

00002146 <_i2c_read>:


//function reads data, returns the read data, no ack
// helper function
char i2c_read(void){
    2146:	04 00 fa    	lnk       #0x4
   int i = 0;
    2148:	00 00 eb    	clr.w     w0
    214a:	00 0f 78    	mov.w     w0, [w14]
   char data = 0;
    214c:	00 40 eb    	clr.b     w0
    214e:	20 47 98    	mov.b     w0, [w14+2]
   I2C3CONbits.RCEN = 1;            //set I2C module to receive
    2150:	76 62 a8    	bset.b    0x276, #0x3

   while (!I2C3STATbits.RBF) {           //if no response, break
    2152:	05 00 37    	bra       0x215e <.L31>

00002154 <.L33>:
      i ++;
    2154:	1e 0f e8    	inc.w     [w14], [w14]
      if (i > 2000) break;  }
    2156:	00 7d 20    	mov.w     #0x7d0, w0
    2158:	9e 00 78    	mov.w     [w14], w1
    215a:	80 8f 50    	sub.w     w1, w0, [w15]
    215c:	05 00 3c    	bra       GT, 0x2168 <.L34>

0000215e <.L31>:
    215e:	c0 13 80    	mov.w     0x278, w0
    2160:	62 00 60    	and.w     w0, #0x2, w0
    2162:	00 00 e0    	cp0.w     w0
    2164:	f7 ff 32    	bra       Z, 0x2154 <.L33>
    2166:	01 00 37    	bra       0x216a <.L32>

00002168 <.L34>:
    2168:	00 00 00    	nop       

0000216a <.L32>:

   data = I2C3RCV;       //get data from I2C3RCV register
    216a:	80 13 80    	mov.w     0x270, w0
    216c:	20 47 98    	mov.b     w0, [w14+2]
   return data;
    216e:	2e 40 90    	mov.b     [w14+2], w0
}
    2170:	00 80 fa    	ulnk      
    2172:	00 00 06    	return    

00002174 <_i2c_read_ack>:


//function reads data, returns the read data, with ack
char i2c_read_ack(void){	//does not reset bus!!!
    2174:	04 00 fa    	lnk       #0x4
   int i = 0;
    2176:	00 00 eb    	clr.w     w0
    2178:	00 0f 78    	mov.w     w0, [w14]
   char data = 0;
    217a:	00 40 eb    	clr.b     w0
    217c:	20 47 98    	mov.b     w0, [w14+2]
   I2C3CONbits.RCEN = 1;            //set I2C module to receive
    217e:	76 62 a8    	bset.b    0x276, #0x3

   while (!I2C3STATbits.RBF) {       //if no response, break
    2180:	05 00 37    	bra       0x218c <.L36>

00002182 <.L38>:
      i++;
    2182:	1e 0f e8    	inc.w     [w14], [w14]
      if (i > 2000) break;}
    2184:	00 7d 20    	mov.w     #0x7d0, w0
    2186:	9e 00 78    	mov.w     [w14], w1
    2188:	80 8f 50    	sub.w     w1, w0, [w15]
    218a:	05 00 3c    	bra       GT, 0x2196 <.L39>

0000218c <.L36>:
    218c:	c0 13 80    	mov.w     0x278, w0
    218e:	62 00 60    	and.w     w0, #0x2, w0
    2190:	00 00 e0    	cp0.w     w0
    2192:	f7 ff 32    	bra       Z, 0x2182 <.L38>
    2194:	01 00 37    	bra       0x2198 <.L37>

00002196 <.L39>:
    2196:	00 00 00    	nop       

00002198 <.L37>:

   data = I2C3RCV;               //get data from I2C3RCV register
    2198:	80 13 80    	mov.w     0x270, w0
    219a:	20 47 98    	mov.b     w0, [w14+2]
   I2C3CONbits.ACKEN = 1;        //start ACK generation
    219c:	76 82 a8    	bset.b    0x276, #0x4
   delay_by_nop(10);             //wait before exiting
    219e:	a0 00 20    	mov.w     #0xa, w0
    21a0:	01 00 20    	mov.w     #0x0, w1
    21a2:	32 ff 07    	rcall     0x2008 <_delay_by_nop> <.L0> <.LFB0> <.LFE16> <.Letext0> <.Ltext0>
   return data;
    21a4:	2e 40 90    	mov.b     [w14+2], w0
}
    21a6:	00 80 fa    	ulnk      
    21a8:	00 00 06    	return    

000021aa <_i2c_read_nack>:

char i2c_read_nack(void){	//does not reset bus!!!
    21aa:	04 00 fa    	lnk       #0x4
   int i = 0;
    21ac:	00 00 eb    	clr.w     w0
    21ae:	00 0f 78    	mov.w     w0, [w14]
   char data = 0;
    21b0:	00 40 eb    	clr.b     w0
    21b2:	20 47 98    	mov.b     w0, [w14+2]
   I2C3CONbits.RCEN = 1;            //set I2C module to receive
    21b4:	76 62 a8    	bset.b    0x276, #0x3

   while (!I2C3STATbits.RBF) {       //if no response, break
    21b6:	05 00 37    	bra       0x21c2 <.L41>

000021b8 <.L43>:
      i++;
    21b8:	1e 0f e8    	inc.w     [w14], [w14]
      if (i > 2000) break;}
    21ba:	00 7d 20    	mov.w     #0x7d0, w0
    21bc:	9e 00 78    	mov.w     [w14], w1
    21be:	80 8f 50    	sub.w     w1, w0, [w15]
    21c0:	05 00 3c    	bra       GT, 0x21cc <.L44>

000021c2 <.L41>:
    21c2:	c0 13 80    	mov.w     0x278, w0
    21c4:	62 00 60    	and.w     w0, #0x2, w0
    21c6:	00 00 e0    	cp0.w     w0
    21c8:	f7 ff 32    	bra       Z, 0x21b8 <.L43>
    21ca:	01 00 37    	bra       0x21ce <.L42>

000021cc <.L44>:
    21cc:	00 00 00    	nop       

000021ce <.L42>:

   data = I2C3RCV;               //get data from I2C3RCV register
    21ce:	80 13 80    	mov.w     0x270, w0
    21d0:	20 47 98    	mov.b     w0, [w14+2]
   I2C3CONbits.ACKDT = 1;        // set mastrer to nack instead of ack
    21d2:	76 a2 a8    	bset.b    0x276, #0x5
   I2C3CONbits.ACKEN = 1;        //start ack generation
    21d4:	76 82 a8    	bset.b    0x276, #0x4
   delay_by_nop(10);             //wait before exiting
    21d6:	a0 00 20    	mov.w     #0xa, w0
    21d8:	01 00 20    	mov.w     #0x0, w1
    21da:	16 ff 07    	rcall     0x2008 <_delay_by_nop> <.L0> <.LFB0> <.LFE16> <.Letext0> <.Ltext0>
   return data;
    21dc:	2e 40 90    	mov.b     [w14+2], w0
}
    21de:	00 80 fa    	ulnk      
    21e0:	00 00 06    	return    

000021e2 <_I2Cwrite>:

// function puts together I2C protocol for random write
void I2Cwrite(char addr, char subaddr, char value){
    21e2:	04 00 fa    	lnk       #0x4
    21e4:	00 4f 78    	mov.b     w0, [w14]
    21e6:	11 47 98    	mov.b     w1, [w14+1]
    21e8:	22 47 98    	mov.b     w2, [w14+2]
   i2c_start();
    21ea:	2e ff 07    	rcall     0x2048 <_i2c_start> <.LFB2> <.LFE1>
   send_i2c_byte(addr & 0xfffe); // set /W bit, turns least sig, bit to 0
    21ec:	1e 00 fb    	se        [w14], w0
    21ee:	80 00 78    	mov.w     w0, w1
    21f0:	e0 ff 2f    	mov.w     #0xfffe, w0
    21f2:	00 80 60    	and.w     w1, w0, w0
    21f4:	78 ff 07    	rcall     0x20e6 <_send_i2c_byte> <.LFB5> <.LFE4>
   send_i2c_byte(subaddr);
    21f6:	1e 40 90    	mov.b     [w14+1], w0
    21f8:	00 00 fb    	se        w0, w0
    21fa:	75 ff 07    	rcall     0x20e6 <_send_i2c_byte> <.LFB5> <.LFE4>
   send_i2c_byte(value);
    21fc:	2e 40 90    	mov.b     [w14+2], w0
    21fe:	00 00 fb    	se        w0, w0
    2200:	72 ff 07    	rcall     0x20e6 <_send_i2c_byte> <.LFB5> <.LFE4>
   reset_i2c_bus();
    2202:	56 ff 07    	rcall     0x20b0 <_reset_i2c_bus> <.LFB4> <.LFE3>
}
    2204:	00 80 fa    	ulnk      
    2206:	00 00 06    	return    

00002208 <_I2Cread>:

// function puts together I2C protocol for random read
char I2Cread(char addr, char subaddr){
    2208:	04 00 fa    	lnk       #0x4
    220a:	20 47 98    	mov.b     w0, [w14+2]
    220c:	31 47 98    	mov.b     w1, [w14+3]
   char temp;
   i2c_start();
    220e:	1c ff 07    	rcall     0x2048 <_i2c_start> <.LFB2> <.LFE1>
   send_i2c_byte(addr);
    2210:	2e 40 90    	mov.b     [w14+2], w0
    2212:	00 00 fb    	se        w0, w0
    2214:	68 ff 07    	rcall     0x20e6 <_send_i2c_byte> <.LFB5> <.LFE4>
   send_i2c_byte(subaddr);
    2216:	3e 40 90    	mov.b     [w14+3], w0
    2218:	00 00 fb    	se        w0, w0
    221a:	65 ff 07    	rcall     0x20e6 <_send_i2c_byte> <.LFB5> <.LFE4>
   delay_by_nop(10);
    221c:	a0 00 20    	mov.w     #0xa, w0
    221e:	01 00 20    	mov.w     #0x0, w1
    2220:	f3 fe 07    	rcall     0x2008 <_delay_by_nop> <.L0> <.LFB0> <.LFE16> <.Letext0> <.Ltext0>
   i2c_restart();
    2222:	2e ff 07    	rcall     0x2080 <_i2c_restart> <.LFB3> <.LFE2>

   send_i2c_byte(addr | 0x01); // set R bit, turn least sig. bit to 1
    2224:	2e 40 90    	mov.b     [w14+2], w0
    2226:	00 04 a0    	bset.b    w0, #0x0
    2228:	00 00 fb    	se        w0, w0
    222a:	5d ff 07    	rcall     0x20e6 <_send_i2c_byte> <.LFB5> <.LFE4>
   temp = i2c_read();
    222c:	8c ff 07    	rcall     0x2146 <_i2c_read> <.LFB6> <.LFE5>
    222e:	00 4f 78    	mov.b     w0, [w14]

   reset_i2c_bus();
    2230:	3f ff 07    	rcall     0x20b0 <_reset_i2c_bus> <.LFB4> <.LFE3>
   return temp;
    2232:	1e 40 78    	mov.b     [w14], w0
}
    2234:	00 80 fa    	ulnk      
    2236:	00 00 06    	return    

00002238 <_I2Cpoll>:

// function checks if device at addr is on bus
// 1 means it is there, 0 means it is not there
unsigned char I2Cpoll(char addr){
    2238:	04 00 fa    	lnk       #0x4
    223a:	20 47 98    	mov.b     w0, [w14+2]
    unsigned char temp = 0;
    223c:	00 40 eb    	clr.b     w0
    223e:	00 4f 78    	mov.b     w0, [w14]
    i2c_start();
    2240:	03 ff 07    	rcall     0x2048 <_i2c_start> <.LFB2> <.LFE1>
    temp = send_i2c_byte((addr) & (0xfffe)); // set /W bit
    2242:	2e 40 90    	mov.b     [w14+2], w0
    2244:	00 00 fb    	se        w0, w0
    2246:	80 00 78    	mov.w     w0, w1
    2248:	e0 ff 2f    	mov.w     #0xfffe, w0
    224a:	00 80 60    	and.w     w1, w0, w0
    224c:	4c ff 07    	rcall     0x20e6 <_send_i2c_byte> <.LFB5> <.LFE4>
    224e:	00 4f 78    	mov.b     w0, [w14]
    reset_i2c_bus();
    2250:	2f ff 07    	rcall     0x20b0 <_reset_i2c_bus> <.LFB4> <.LFE3>
    if (temp == 0) {
    2252:	1e 40 78    	mov.b     [w14], w0
    2254:	00 04 e0    	cp0.b     w0
    2256:	02 00 3a    	bra       NZ, 0x225c <.L48>
        return 1; // We found it, no error
    2258:	10 c0 b3    	mov.b     #0x1, w0
    225a:	01 00 37    	bra       0x225e <.L49>

0000225c <.L48>:
    } else return 0;
    225c:	00 40 eb    	clr.b     w0

0000225e <.L49>:
}
    225e:	00 80 fa    	ulnk      
    2260:	00 00 06    	return    

00002262 <_I2Cwritearray>:

// function writes a byte array over i2c
unsigned char I2Cwritearray(char addr, char dat[], uint8_t len) {
    2262:	08 00 fa    	lnk       #0x8
    2264:	20 47 98    	mov.b     w0, [w14+2]
    2266:	21 07 98    	mov.w     w1, [w14+4]
    2268:	62 47 98    	mov.b     w2, [w14+6]
  unsigned char err = 0;
    226a:	00 40 eb    	clr.b     w0
    226c:	00 4f 78    	mov.b     w0, [w14]
  i2c_start();
    226e:	ec fe 07    	rcall     0x2048 <_i2c_start> <.LFB2> <.LFE1>
  err = send_i2c_byte(addr & (0xfffe)); // takes 7 bit address and adds /W bit
    2270:	2e 40 90    	mov.b     [w14+2], w0
    2272:	00 00 fb    	se        w0, w0
    2274:	80 00 78    	mov.w     w0, w1
    2276:	e0 ff 2f    	mov.w     #0xfffe, w0
    2278:	00 80 60    	and.w     w1, w0, w0
    227a:	35 ff 07    	rcall     0x20e6 <_send_i2c_byte> <.LFB5> <.LFE4>
    227c:	00 4f 78    	mov.b     w0, [w14]
  uint8_t j;
  for (j = 0; j < len; j++) { // keep sending data bytes til we're done unless it misses an ack
    227e:	00 40 eb    	clr.b     w0
    2280:	10 47 98    	mov.b     w0, [w14+1]
    2282:	0d 00 37    	bra       0x229e <.L51>

00002284 <.L52>:
    err |= send_i2c_byte(dat[j]);
    2284:	1e 40 90    	mov.b     [w14+1], w0
    2286:	00 80 fb    	ze        w0, w0
    2288:	ae 00 90    	mov.w     [w14+4], w1
    228a:	00 80 40    	add.w     w1, w0, w0
    228c:	10 40 78    	mov.b     [w0], w0
    228e:	00 00 fb    	se        w0, w0
    2290:	2a ff 07    	rcall     0x20e6 <_send_i2c_byte> <.LFB5> <.LFE4>
    2292:	9e 40 78    	mov.b     [w14], w1
    2294:	01 40 70    	ior.b     w0, w1, w0
    2296:	00 4f 78    	mov.b     w0, [w14]
    2298:	1e 40 90    	mov.b     [w14+1], w0
    229a:	00 40 e8    	inc.b     w0, w0
    229c:	10 47 98    	mov.b     w0, [w14+1]

0000229e <.L51>:
    229e:	9e 40 90    	mov.b     [w14+1], w1
    22a0:	6e 40 90    	mov.b     [w14+6], w0
    22a2:	80 cf 50    	sub.b     w1, w0, [w15]
    22a4:	ef ff 39    	bra       NC, 0x2284 <.L52>
  }
  reset_i2c_bus();
    22a6:	04 ff 07    	rcall     0x20b0 <_reset_i2c_bus> <.LFB4> <.LFE3>
  return err;
    22a8:	1e 40 78    	mov.b     [w14], w0
}
    22aa:	00 80 fa    	ulnk      
    22ac:	00 00 06    	return    

000022ae <_i2c2_init>:

////////////////////////////////////////////////////////////////////////////////
// I2C2 ////////////////////////////////////////////////////////////////////////
////////////////////////////////////////////////////////////////////////////////

// initiates I2C3 module to baud rate BRG
void i2c2_init(int BRG){      // I2CBRG = 157 for 16Mhz OSC with 100kHz I2C clock
    22ae:	04 00 fa    	lnk       #0x4
    22b0:	10 07 98    	mov.w     w0, [w14+2]
   int temp;
   I2C2BRG = BRG;           // Sets freq to 100kHz
    22b2:	1e 00 90    	mov.w     [w14+2], w0
    22b4:	a0 10 88    	mov.w     w0, 0x214
   I2C2CONbits.I2CEN = 0;	// Disable I2C Mode
    22b6:	17 e2 a9    	bclr.b    0x217, #0x7
   I2C2CONbits.DISSLW = 1;	// Disable slew rate control
    22b8:	17 22 a8    	bset.b    0x217, #0x1
   IFS3bits.MI2C2IF = 0;	 // Clear Interrupt
    22ba:	8a 40 a9    	bclr.b    0x8a, #0x2
   I2C2CONbits.I2CEN = 1;	// Enable I2C Mode
    22bc:	17 e2 a8    	bset.b    0x217, #0x7
   temp = I2C2RCV;	 // read buffer to clear buffer full
    22be:	80 10 80    	mov.w     0x210, w0
    22c0:	00 0f 78    	mov.w     w0, [w14]
   reset_i2c_bus();	 // set bus to idle
    22c2:	f6 fe 07    	rcall     0x20b0 <_reset_i2c_bus> <.LFB4> <.LFE3>
}
    22c4:	00 80 fa    	ulnk      
    22c6:	00 00 06    	return    

000022c8 <_i2c2_start>:

//function iniates a start condition on bus
void i2c2_start(void){
    22c8:	02 00 fa    	lnk       #0x2
   int x = 0;
    22ca:	00 00 eb    	clr.w     w0
    22cc:	00 0f 78    	mov.w     w0, [w14]
   I2C2CONbits.ACKDT = 0;	//Reset any previous Ack
    22ce:	16 a2 a9    	bclr.b    0x216, #0x5
   delay_by_nop(10);
    22d0:	a0 00 20    	mov.w     #0xa, w0
    22d2:	01 00 20    	mov.w     #0x0, w1
    22d4:	99 fe 07    	rcall     0x2008 <_delay_by_nop> <.L0> <.LFB0> <.LFE16> <.Letext0> <.Ltext0>
   I2C2CONbits.SEN = 1;	//Initiate Start condition
    22d6:	16 02 a8    	bset.b    0x216, #0x0
   __asm__("nop");
    22d8:	00 00 00    	nop       

   while (I2C2CONbits.SEN){    //the hardware will automatically clear Start Bit
    22da:	07 00 37    	bra       0x22ea <.L55>

000022dc <.L57>:
      delay_by_nop(1);      //wait for automatic clear before proceding
    22dc:	10 00 20    	mov.w     #0x1, w0
    22de:	01 00 20    	mov.w     #0x0, w1
    22e0:	93 fe 07    	rcall     0x2008 <_delay_by_nop> <.L0> <.LFB0> <.LFE16> <.Letext0> <.Ltext0>
      x++;
    22e2:	1e 0f e8    	inc.w     [w14], [w14]
      if (x > 20)
    22e4:	1e 00 78    	mov.w     [w14], w0
    22e6:	f4 0f 50    	sub.w     w0, #0x14, [w15]
    22e8:	05 00 3c    	bra       GT, 0x22f4 <.L58>

000022ea <.L55>:
    22ea:	b0 10 80    	mov.w     0x216, w0
    22ec:	61 00 60    	and.w     w0, #0x1, w0
    22ee:	00 00 e0    	cp0.w     w0
    22f0:	f5 ff 3a    	bra       NZ, 0x22dc <.L57>
    22f2:	01 00 37    	bra       0x22f6 <.L56>

000022f4 <.L58>:
      break;
    22f4:	00 00 00    	nop       

000022f6 <.L56>:
   }
   delay_by_nop(2);
    22f6:	20 00 20    	mov.w     #0x2, w0
    22f8:	01 00 20    	mov.w     #0x0, w1
    22fa:	86 fe 07    	rcall     0x2008 <_delay_by_nop> <.L0> <.LFB0> <.LFE16> <.Letext0> <.Ltext0>
}
    22fc:	00 80 fa    	ulnk      
    22fe:	00 00 06    	return    

00002300 <_i2c2_restart>:

void i2c2_restart(void){
    2300:	02 00 fa    	lnk       #0x2
   int x = 0;
    2302:	00 00 eb    	clr.w     w0
    2304:	00 0f 78    	mov.w     w0, [w14]
   I2C2CONbits.RSEN = 1;	//Initiate restart condition
    2306:	16 22 a8    	bset.b    0x216, #0x1
   __asm__("nop");
    2308:	00 00 00    	nop       
   //the hardware will automatically clear restart bit
   //wait for automatic clear before proceding
   while (I2C2CONbits.RSEN){
    230a:	07 00 37    	bra       0x231a <.L60>

0000230c <.L62>:
      delay_by_nop(1);
    230c:	10 00 20    	mov.w     #0x1, w0
    230e:	01 00 20    	mov.w     #0x0, w1
    2310:	7b fe 07    	rcall     0x2008 <_delay_by_nop> <.L0> <.LFB0> <.LFE16> <.Letext0> <.Ltext0>
      x++;
    2312:	1e 0f e8    	inc.w     [w14], [w14]
      if (x > 20)	break;
    2314:	1e 00 78    	mov.w     [w14], w0
    2316:	f4 0f 50    	sub.w     w0, #0x14, [w15]
    2318:	05 00 3c    	bra       GT, 0x2324 <.L63>

0000231a <.L60>:
    231a:	b0 10 80    	mov.w     0x216, w0
    231c:	62 00 60    	and.w     w0, #0x2, w0
    231e:	00 00 e0    	cp0.w     w0
    2320:	f5 ff 3a    	bra       NZ, 0x230c <.L62>
    2322:	01 00 37    	bra       0x2326 <.L61>

00002324 <.L63>:
    2324:	00 00 00    	nop       

00002326 <.L61>:
   }
   delay_by_nop(2);
    2326:	20 00 20    	mov.w     #0x2, w0
    2328:	01 00 20    	mov.w     #0x0, w1
    232a:	6e fe 07    	rcall     0x2008 <_delay_by_nop> <.L0> <.LFB0> <.LFE16> <.Letext0> <.Ltext0>
}
    232c:	00 80 fa    	ulnk      
    232e:	00 00 06    	return    

00002330 <_reset_i2c2_bus>:


//Resets the I2C bus to Idle
void reset_i2c2_bus(void){
    2330:	02 00 fa    	lnk       #0x2
   int x = 0;
    2332:	00 00 eb    	clr.w     w0
    2334:	00 0f 78    	mov.w     w0, [w14]
   I2C2CONbits.PEN = 1;     //initiate stop bit
    2336:	16 42 a8    	bset.b    0x216, #0x2
   while (I2C2CONbits.PEN) {     //wait for hardware clear of stop bit
    2338:	07 00 37    	bra       0x2348 <.L65>

0000233a <.L67>:
      // delay_by_nop(1);
      delay_by_nop(1);
    233a:	10 00 20    	mov.w     #0x1, w0
    233c:	01 00 20    	mov.w     #0x0, w1
    233e:	64 fe 07    	rcall     0x2008 <_delay_by_nop> <.L0> <.LFB0> <.LFE16> <.Letext0> <.Ltext0>
      x ++;
    2340:	1e 0f e8    	inc.w     [w14], [w14]
      if (x > 20) break;
    2342:	1e 00 78    	mov.w     [w14], w0
    2344:	f4 0f 50    	sub.w     w0, #0x14, [w15]
    2346:	05 00 3c    	bra       GT, 0x2352 <.L68>

00002348 <.L65>:
    2348:	b0 10 80    	mov.w     0x216, w0
    234a:	64 00 60    	and.w     w0, #0x4, w0
    234c:	00 00 e0    	cp0.w     w0
    234e:	f5 ff 3a    	bra       NZ, 0x233a <.L67>
    2350:	01 00 37    	bra       0x2354 <.L66>

00002352 <.L68>:
    2352:	00 00 00    	nop       

00002354 <.L66>:
   }

   I2C2CONbits.RCEN = 0;
    2354:	16 62 a9    	bclr.b    0x216, #0x3
   IFS3bits.MI2C2IF = 0; // Clear Interrupt
    2356:	8a 40 a9    	bclr.b    0x8a, #0x2
   I2C2STATbits.IWCOL = 0;
    2358:	18 e2 a9    	bclr.b    0x218, #0x7
   I2C2STATbits.BCL = 0;
    235a:	19 42 a9    	bclr.b    0x219, #0x2
   // delay_by_nop(10);
   delay_by_nop(20);
    235c:	40 01 20    	mov.w     #0x14, w0
    235e:	01 00 20    	mov.w     #0x0, w1
    2360:	53 fe 07    	rcall     0x2008 <_delay_by_nop> <.L0> <.LFB0> <.LFE16> <.Letext0> <.Ltext0>
}
    2362:	00 80 fa    	ulnk      
    2364:	00 00 06    	return    

00002366 <_send_i2c2_byte>:


//basic I2C byte send
char send_i2c2_byte(int data){
    2366:	04 00 fa    	lnk       #0x4
    2368:	10 07 98    	mov.w     w0, [w14+2]
   int i;
   while (I2C2STATbits.TBF) { }
    236a:	00 00 00    	nop       

0000236c <.L70>:
    236c:	c0 10 80    	mov.w     0x218, w0
    236e:	61 00 60    	and.w     w0, #0x1, w0
    2370:	00 00 e0    	cp0.w     w0
    2372:	fc ff 3a    	bra       NZ, 0x236c <.L70>
   IFS3bits.MI2C2IF = 0; // Clear Interrupt
    2374:	8a 40 a9    	bclr.b    0x8a, #0x2
   I2C2TRN = data; // load the outgoing data byte
    2376:	1e 00 90    	mov.w     [w14+2], w0
    2378:	90 10 88    	mov.w     w0, 0x212

   for (i=0; i<500; i++){           // wait for transmission
    237a:	00 00 eb    	clr.w     w0
    237c:	00 0f 78    	mov.w     w0, [w14]
    237e:	09 00 37    	bra       0x2392 <.L71>

00002380 <.L74>:
      if (!I2C2STATbits.TRSTAT) break; // if master transmit not in progress break
    2380:	c1 10 80    	mov.w     0x218, w1
    2382:	00 00 24    	mov.w     #0x4000, w0
    2384:	00 80 60    	and.w     w1, w0, w0
    2386:	00 00 e0    	cp0.w     w0
    2388:	09 00 32    	bra       Z, 0x239c <.L78>
      delay_by_nop(1); }
    238a:	10 00 20    	mov.w     #0x1, w0
    238c:	01 00 20    	mov.w     #0x0, w1
    238e:	3c fe 07    	rcall     0x2008 <_delay_by_nop> <.L0> <.LFB0> <.LFE16> <.Letext0> <.Ltext0>
    2390:	1e 0f e8    	inc.w     [w14], [w14]

00002392 <.L71>:
    2392:	30 1f 20    	mov.w     #0x1f3, w0
    2394:	9e 00 78    	mov.w     [w14], w1
    2396:	80 8f 50    	sub.w     w1, w0, [w15]
    2398:	f3 ff 34    	bra       LE, 0x2380 <.L74>
    239a:	01 00 37    	bra       0x239e <.L73>

0000239c <.L78>:
    239c:	00 00 00    	nop       

0000239e <.L73>:

    if (i == 500) {     // if i got to 500, then there was an issue`
    239e:	40 1f 20    	mov.w     #0x1f4, w0
    23a0:	9e 00 78    	mov.w     [w14], w1
    23a2:	80 8f 50    	sub.w     w1, w0, [w15]
    23a4:	02 00 3a    	bra       NZ, 0x23aa <.L75>
        return(1); }    // return 1 to indicate failure
    23a6:	10 c0 b3    	mov.b     #0x1, w0
    23a8:	0c 00 37    	bra       0x23c2 <.L76>

000023aa <.L75>:

   if (I2C2STATbits.ACKSTAT == 1){   // Check for NO_ACK from slave,
    23aa:	c1 10 80    	mov.w     0x218, w1
    23ac:	00 00 28    	mov.w     #0x8000, w0
    23ae:	00 80 60    	and.w     w1, w0, w0
    23b0:	00 00 e0    	cp0.w     w0
    23b2:	03 00 32    	bra       Z, 0x23ba <.L77>
      reset_i2c2_bus();
    23b4:	bd ff 07    	rcall     0x2330 <_reset_i2c2_bus> <.LFB16> <.LFE15>
      return(1); }            // abort if not found
    23b6:	10 c0 b3    	mov.b     #0x1, w0
    23b8:	04 00 37    	bra       0x23c2 <.L76>

000023ba <.L77>:

   delay_by_nop(2);
    23ba:	20 00 20    	mov.w     #0x2, w0
    23bc:	01 00 20    	mov.w     #0x0, w1
    23be:	24 fe 07    	rcall     0x2008 <_delay_by_nop> <.L0> <.LFB0> <.LFE16> <.Letext0> <.Ltext0>
   return(0);
    23c0:	00 40 eb    	clr.b     w0

000023c2 <.L76>:
}
    23c2:	00 80 fa    	ulnk      
    23c4:	00 00 06    	return    

000023c6 <_i2c2_read>:


//function reads data, returns the read data, no ack
// helper function
char i2c2_read(void){
    23c6:	04 00 fa    	lnk       #0x4
   int i = 0;
    23c8:	00 00 eb    	clr.w     w0
    23ca:	00 0f 78    	mov.w     w0, [w14]
   char data = 0;
    23cc:	00 40 eb    	clr.b     w0
    23ce:	20 47 98    	mov.b     w0, [w14+2]
   I2C2CONbits.RCEN = 1;            //set I2C module to receive
    23d0:	16 62 a8    	bset.b    0x216, #0x3

   while (!I2C2STATbits.RBF) {           //if no response, break
    23d2:	05 00 37    	bra       0x23de <.L80>

000023d4 <.L82>:
      i ++;
    23d4:	1e 0f e8    	inc.w     [w14], [w14]
      if (i > 2000) break;  }
    23d6:	00 7d 20    	mov.w     #0x7d0, w0
    23d8:	9e 00 78    	mov.w     [w14], w1
    23da:	80 8f 50    	sub.w     w1, w0, [w15]
    23dc:	05 00 3c    	bra       GT, 0x23e8 <.L83>

000023de <.L80>:
    23de:	c0 10 80    	mov.w     0x218, w0
    23e0:	62 00 60    	and.w     w0, #0x2, w0
    23e2:	00 00 e0    	cp0.w     w0
    23e4:	f7 ff 32    	bra       Z, 0x23d4 <.L82>
    23e6:	01 00 37    	bra       0x23ea <.L81>

000023e8 <.L83>:
    23e8:	00 00 00    	nop       

000023ea <.L81>:

   data = I2C2RCV;       //get data from I2C2RCV register
    23ea:	80 10 80    	mov.w     0x210, w0
    23ec:	20 47 98    	mov.b     w0, [w14+2]
   return data;
    23ee:	2e 40 90    	mov.b     [w14+2], w0
}
    23f0:	00 80 fa    	ulnk      
    23f2:	00 00 06    	return    

000023f4 <_i2c2_read_ack>:


//function reads data, returns the read data, with ack
char i2c2_read_ack(void){	//does not reset bus!!!
    23f4:	04 00 fa    	lnk       #0x4
   int i = 0;
    23f6:	00 00 eb    	clr.w     w0
    23f8:	00 0f 78    	mov.w     w0, [w14]
   char data = 0;
    23fa:	00 40 eb    	clr.b     w0
    23fc:	20 47 98    	mov.b     w0, [w14+2]
   I2C2CONbits.RCEN = 1;            //set I2C module to receive
    23fe:	16 62 a8    	bset.b    0x216, #0x3

   while (!I2C2STATbits.RBF) {       //if no response, break
    2400:	05 00 37    	bra       0x240c <.L85>

00002402 <.L87>:
      i++;
    2402:	1e 0f e8    	inc.w     [w14], [w14]
      if (i > 2000) break;}
    2404:	00 7d 20    	mov.w     #0x7d0, w0
    2406:	9e 00 78    	mov.w     [w14], w1
    2408:	80 8f 50    	sub.w     w1, w0, [w15]
    240a:	05 00 3c    	bra       GT, 0x2416 <.L88>

0000240c <.L85>:
    240c:	c0 10 80    	mov.w     0x218, w0
    240e:	62 00 60    	and.w     w0, #0x2, w0
    2410:	00 00 e0    	cp0.w     w0
    2412:	f7 ff 32    	bra       Z, 0x2402 <.L87>
    2414:	01 00 37    	bra       0x2418 <.L86>

00002416 <.L88>:
    2416:	00 00 00    	nop       

00002418 <.L86>:

   data = I2C2RCV;               //get data from I2C2RCV register
    2418:	80 10 80    	mov.w     0x210, w0
    241a:	20 47 98    	mov.b     w0, [w14+2]
   I2C2CONbits.ACKEN = 1;        //start ACK generation
    241c:	16 82 a8    	bset.b    0x216, #0x4
   delay_by_nop(10);             //wait before exiting
    241e:	a0 00 20    	mov.w     #0xa, w0
    2420:	01 00 20    	mov.w     #0x0, w1
    2422:	f2 fd 07    	rcall     0x2008 <_delay_by_nop> <.L0> <.LFB0> <.LFE16> <.Letext0> <.Ltext0>
   return data;
    2424:	2e 40 90    	mov.b     [w14+2], w0
}
    2426:	00 80 fa    	ulnk      
    2428:	00 00 06    	return    

0000242a <_i2c2_read_nack>:

char i2c2_read_nack(void){	//does not reset bus!!!
    242a:	04 00 fa    	lnk       #0x4
   int i = 0;
    242c:	00 00 eb    	clr.w     w0
    242e:	00 0f 78    	mov.w     w0, [w14]
   char data = 0;
    2430:	00 40 eb    	clr.b     w0
    2432:	20 47 98    	mov.b     w0, [w14+2]
   I2C2CONbits.RCEN = 1;            //set I2C module to receive
    2434:	16 62 a8    	bset.b    0x216, #0x3

   while (!I2C2STATbits.RBF) {       //if no response, break
    2436:	05 00 37    	bra       0x2442 <.L90>

00002438 <.L92>:
      i++;
    2438:	1e 0f e8    	inc.w     [w14], [w14]
      if (i > 2000) break;}
    243a:	00 7d 20    	mov.w     #0x7d0, w0
    243c:	9e 00 78    	mov.w     [w14], w1
    243e:	80 8f 50    	sub.w     w1, w0, [w15]
    2440:	05 00 3c    	bra       GT, 0x244c <.L93>

00002442 <.L90>:
    2442:	c0 10 80    	mov.w     0x218, w0
    2444:	62 00 60    	and.w     w0, #0x2, w0
    2446:	00 00 e0    	cp0.w     w0
    2448:	f7 ff 32    	bra       Z, 0x2438 <.L92>
    244a:	01 00 37    	bra       0x244e <.L91>

0000244c <.L93>:
    244c:	00 00 00    	nop       

0000244e <.L91>:

   data = I2C2RCV;               //get data from I2C2RCV register
    244e:	80 10 80    	mov.w     0x210, w0
    2450:	20 47 98    	mov.b     w0, [w14+2]
   I2C2CONbits.ACKDT = 1;        // set mastrer to nack instead of ack
    2452:	16 a2 a8    	bset.b    0x216, #0x5
   I2C2CONbits.ACKEN = 1;        //start ack generation
    2454:	16 82 a8    	bset.b    0x216, #0x4
   delay_by_nop(10);             //wait before exiting
    2456:	a0 00 20    	mov.w     #0xa, w0
    2458:	01 00 20    	mov.w     #0x0, w1
    245a:	d6 fd 07    	rcall     0x2008 <_delay_by_nop> <.L0> <.LFB0> <.LFE16> <.Letext0> <.Ltext0>
   return data;
    245c:	2e 40 90    	mov.b     [w14+2], w0
}
    245e:	00 80 fa    	ulnk      
    2460:	00 00 06    	return    

00002462 <_I2C2poll>:

// function checks if device at addr i bus
// 1 means it is not there, 0 means it is not there
unsigned char I2C2poll(char addr){
    2462:	04 00 fa    	lnk       #0x4
    2464:	20 47 98    	mov.b     w0, [w14+2]
   unsigned char temp = 0;
    2466:	00 40 eb    	clr.b     w0
    2468:	00 4f 78    	mov.b     w0, [w14]
   i2c2_start();
    246a:	2e ff 07    	rcall     0x22c8 <_i2c2_start> <.LFB14> <.LFE13>
   temp = send_i2c2_byte((addr) & (0xfffe)); // set /W bit
    246c:	2e 40 90    	mov.b     [w14+2], w0
    246e:	00 00 fb    	se        w0, w0
    2470:	80 00 78    	mov.w     w0, w1
    2472:	e0 ff 2f    	mov.w     #0xfffe, w0
    2474:	00 80 60    	and.w     w1, w0, w0
    2476:	77 ff 07    	rcall     0x2366 <_send_i2c2_byte> <.LFB17> <.LFE16>
    2478:	00 4f 78    	mov.b     w0, [w14]
   reset_i2c2_bus();
    247a:	5a ff 07    	rcall     0x2330 <_reset_i2c2_bus> <.LFB16> <.LFE15>
   if (temp == 0) {
    247c:	1e 40 78    	mov.b     [w14], w0
    247e:	00 04 e0    	cp0.b     w0
    2480:	02 00 3a    	bra       NZ, 0x2486 <.L95>
       return 1; // We found it, no error
    2482:	10 c0 b3    	mov.b     #0x1, w0
    2484:	01 00 37    	bra       0x2488 <.L96>

00002486 <.L95>:
   } else return 0;
    2486:	00 40 eb    	clr.b     w0

00002488 <.L96>:
}
    2488:	00 80 fa    	ulnk      
    248a:	00 00 06    	return    

0000248c <_init_ajuart>:
uint8_t U1TXbuffer[U1_TX_BUFFER_LENGTH];
uint8_t U1RXbuffer[U1_RX_BUFFER_LENGTH];
uint16_t U1_tx_threshold;

void init_ajuart(void) {
    248c:	04 00 fa    	lnk       #0x4
    uint8_t *RPOR, *RPINR;

    // Configure audio jack UART pins and connect them to UART1
    AJ_TX_DIR = OUT; AJ_TX = 1;
    248e:	f0 c2 a9    	bclr.b    0x2f0, #0x6
    2490:	f2 c2 a8    	bset.b    0x2f2, #0x6
    AJ_RX_DIR = IN;
    2492:	f0 e2 a8    	bset.b    0x2f0, #0x7

    RPOR = (uint8_t *)&RPOR0;
    2494:	00 6c 20    	mov.w     #0x6c0, w0
    2496:	00 0f 78    	mov.w     w0, [w14]
    RPINR = (uint8_t *)&RPINR0;
    2498:	00 68 20    	mov.w     #0x680, w0
    249a:	10 07 98    	mov.w     w0, [w14+2]

    __builtin_write_OSCCONL(OSCCON & 0xBF);
    249c:	11 3a 80    	mov.w     0x742, w1
    249e:	f0 0b 20    	mov.w     #0xbf, w0
    24a0:	00 81 60    	and.w     w1, w0, w2
    24a2:	60 04 20    	mov.w     #0x46, w0
    24a4:	71 05 20    	mov.w     #0x57, w1
    24a6:	23 74 20    	mov.w     #0x742, w3
    24a8:	80 49 78    	mov.b     w0, [w3]
    24aa:	81 49 78    	mov.b     w1, [w3]
    24ac:	82 49 78    	mov.b     w2, [w3]
    RPINR[U1RX_RP] = AJ_RX_RP;
    24ae:	1e 00 90    	mov.w     [w14+2], w0
    24b0:	40 02 b0    	add.w     #0x24, w0
    24b2:	a1 c1 b3    	mov.b     #0x1a, w1
    24b4:	01 48 78    	mov.b     w1, [w0]
    RPOR[AJ_TX_RP] = U1TX_RP;
    24b6:	9e 00 78    	mov.w     [w14], w1
    24b8:	75 80 40    	add.w     w1, #0x15, w0
    24ba:	31 c0 b3    	mov.b     #0x3, w1
    24bc:	01 48 78    	mov.b     w1, [w0]
    __builtin_write_OSCCONL(OSCCON | 0x40);
    24be:	10 3a 80    	mov.w     0x742, w0
    24c0:	00 01 78    	mov.w     w0, w2
    24c2:	02 60 a0    	bset.w    w2, #0x6
    24c4:	60 04 20    	mov.w     #0x46, w0
    24c6:	71 05 20    	mov.w     #0x57, w1
    24c8:	23 74 20    	mov.w     #0x742, w3
    24ca:	80 49 78    	mov.b     w0, [w3]
    24cc:	81 49 78    	mov.b     w1, [w3]
    24ce:	82 49 78    	mov.b     w2, [w3]

    U1MODE = 0x0008;                // configure UART1 for transmission at
    24d0:	80 00 20    	mov.w     #0x8, w0
    24d2:	00 11 88    	mov.w     w0, 0x220
    U1BRG = 0x0022;                 //   115,200 baud, no parity, 1 stop bit
    24d4:	20 02 20    	mov.w     #0x22, w0
    24d6:	40 11 88    	mov.w     w0, 0x228

    U1_tx_buffer.data = U1TXbuffer;
    24d8:	20 84 20    	mov.w     #0x842, w0
    24da:	70 41 88    	mov.w     w0, 0x82e
    U1_tx_buffer.length = U1_TX_BUFFER_LENGTH;
    24dc:	00 40 20    	mov.w     #0x400, w0
    24de:	80 41 88    	mov.w     w0, 0x830
    U1_tx_buffer.head = 0;
    24e0:	00 00 eb    	clr.w     w0
    24e2:	90 41 88    	mov.w     w0, 0x832
    U1_tx_buffer.tail = 0;
    24e4:	00 00 eb    	clr.w     w0
    24e6:	a0 41 88    	mov.w     w0, 0x834
    U1_tx_buffer.count = 0;
    24e8:	00 00 eb    	clr.w     w0
    24ea:	b0 41 88    	mov.w     w0, 0x836
    U1_tx_threshold = 3 * U1_TX_BUFFER_LENGTH / 4;
    24ec:	00 30 20    	mov.w     #0x300, w0
    24ee:	60 41 88    	mov.w     w0, 0x82c

    U1_rx_buffer.data = U1RXbuffer;
    24f0:	20 c4 20    	mov.w     #0xc42, w0
    24f2:	c0 41 88    	mov.w     w0, 0x838
    U1_rx_buffer.length = U1_RX_BUFFER_LENGTH;
    24f4:	00 40 20    	mov.w     #0x400, w0
    24f6:	d0 41 88    	mov.w     w0, 0x83a
    U1_rx_buffer.head = 0;
    24f8:	00 00 eb    	clr.w     w0
    24fa:	e0 41 88    	mov.w     w0, 0x83c
    U1_rx_buffer.tail = 0;
    24fc:	00 00 eb    	clr.w     w0
    24fe:	f0 41 88    	mov.w     w0, 0x83e
    U1_rx_buffer.count = 0;
    2500:	00 00 eb    	clr.w     w0
    2502:	00 42 88    	mov.w     w0, 0x840

    U1STAbits.UTXISEL1 = 0;         // set UART1 UTXISEL<1:0> = 01, TX interrupt
    2504:	23 e2 a9    	bclr.b    0x223, #0x7
    U1STAbits.UTXISEL0 = 1;         //   when all transmit operations are done
    2506:	23 a2 a8    	bset.b    0x223, #0x5

    IFS0bits.U1TXIF = 0;            // lower UART1 TX interrupt flag
    2508:	85 80 a9    	bclr.b    0x85, #0x4
    IEC0bits.U1TXIE = 1;            // enable UART1 TX interrupt
    250a:	95 80 a8    	bset.b    0x95, #0x4

    IFS0bits.U1RXIF = 0;            // lower UART1 RX interrupt flag
    250c:	85 60 a9    	bclr.b    0x85, #0x3
    IEC0bits.U1RXIE = 1;            // enable UART1 RX interrupt
    250e:	95 60 a8    	bset.b    0x95, #0x3

    U1MODEbits.UARTEN = 1;          // enable UART1 module
    2510:	21 e2 a8    	bset.b    0x221, #0x7
    U1STAbits.UTXEN = 1;            // enable UART1 data transmission
    2512:	23 42 a8    	bset.b    0x223, #0x2
}
    2514:	00 80 fa    	ulnk      
    2516:	00 00 06    	return    

00002518 <_U1_in_waiting>:

void __attribute__((interrupt, auto_psv)) _U1TXInterrupt(void) {
    uint8_t ch;

    IFS0bits.U1TXIF = 0;            // lower UART1 TX interrupt flag

    if (U1_tx_buffer.count == 0)    // if nothing left in UART1 TX buffer, 
        U1STAbits.UTXEN = 0;        //   disable data transmission

    while ((U1STAbits.UTXBF == 0) && (U1_tx_buffer.count != 0)) {
        disable_interrupts();
        ch = U1_tx_buffer.data[U1_tx_buffer.head];
        U1_tx_buffer.head++;
        if (U1_tx_buffer.head == U1_tx_buffer.length)
            U1_tx_buffer.head = 0;
        U1_tx_buffer.count--;
        enable_interrupts();
        U1TXREG = (uint16_t)ch;
    }
}

void __attribute__((interrupt, auto_psv)) _U1RXInterrupt(void) {
    IFS0bits.U1RXIF = 0;            // lower UART1 RX interrupt flag

    while ((U1STAbits.URXDA == 1) && (U1_rx_buffer.count != U1_rx_buffer.length)) {
        disable_interrupts();
        U1_rx_buffer.data[U1_rx_buffer.tail] = (uint8_t)U1RXREG;
        U1_rx_buffer.tail++;
        if (U1_rx_buffer.tail == U1_rx_buffer.length)
            U1_rx_buffer.tail = 0;
        U1_rx_buffer.count++;
        enable_interrupts();
    }
}

uint16_t U1_in_waiting(void) {
    2518:	00 00 fa    	lnk       #0x0
    return U1_rx_buffer.count;
    251a:	00 42 80    	mov.w     0x840, w0
}
    251c:	00 80 fa    	ulnk      
    251e:	00 00 06    	return    

00002520 <_U1_flush_tx_buffer>:

void U1_flush_tx_buffer(void) {
    2520:	00 00 fa    	lnk       #0x0
    if (U1STAbits.UTXEN == 0)       // if UART1 transmission is disabled,
    2522:	11 11 80    	mov.w     0x222, w1
    2524:	00 40 20    	mov.w     #0x400, w0
    2526:	00 80 60    	and.w     w1, w0, w0
    2528:	00 00 e0    	cp0.w     w0
    252a:	01 00 3a    	bra       NZ, 0x252e <.L15>
        U1STAbits.UTXEN = 1;        //   enable it
    252c:	23 42 a8    	bset.b    0x223, #0x2

0000252e <.L15>:
}
    252e:	00 80 fa    	ulnk      
    2530:	00 00 06    	return    

00002532 <_U1_putc>:

void U1_putc(uint8_t ch) {
    2532:	02 00 fa    	lnk       #0x2
    2534:	00 4f 78    	mov.b     w0, [w14]
    // Wait until UART1 TX buffer is not full
    while (U1_tx_buffer.count == U1_tx_buffer.length) {}
    2536:	00 00 00    	nop       

00002538 <.L18>:
    2538:	b1 41 80    	mov.w     0x836, w1
    253a:	80 41 80    	mov.w     0x830, w0
    253c:	80 8f 50    	sub.w     w1, w0, [w15]
    253e:	fc ff 32    	bra       Z, 0x2538 <.L18>

    disable_interrupts();
    2540:	ff 3f fc    	disi      #0x3fff
    U1_tx_buffer.data[U1_tx_buffer.tail] = ch;
    2542:	71 41 80    	mov.w     0x82e, w1
    2544:	a0 41 80    	mov.w     0x834, w0
    2546:	00 80 40    	add.w     w1, w0, w0
    2548:	1e 48 78    	mov.b     [w14], [w0]
    U1_tx_buffer.tail++;
    254a:	a0 41 80    	mov.w     0x834, w0
    254c:	00 00 e8    	inc.w     w0, w0
    254e:	a0 41 88    	mov.w     w0, 0x834
    if (U1_tx_buffer.tail == U1_tx_buffer.length)
    2550:	a1 41 80    	mov.w     0x834, w1
    2552:	80 41 80    	mov.w     0x830, w0
    2554:	80 8f 50    	sub.w     w1, w0, [w15]
    2556:	02 00 3a    	bra       NZ, 0x255c <.L19>
        U1_tx_buffer.tail = 0;
    2558:	00 00 eb    	clr.w     w0
    255a:	a0 41 88    	mov.w     w0, 0x834

0000255c <.L19>:
    U1_tx_buffer.count++;
    255c:	b0 41 80    	mov.w     0x836, w0
    255e:	00 00 e8    	inc.w     w0, w0
    2560:	b0 41 88    	mov.w     w0, 0x836
    enable_interrupts();
    2562:	52 20 ef    	clr.w     0x52

    // If UART1 TX buffer is full enough, enable data transmission
    if (U1_tx_buffer.count >= U1_tx_threshold)
    2564:	b1 41 80    	mov.w     0x836, w1
    2566:	60 41 80    	mov.w     0x82c, w0
    2568:	80 8f 50    	sub.w     w1, w0, [w15]
    256a:	01 00 39    	bra       NC, 0x256e <.L17>
        U1STAbits.UTXEN = 1;
    256c:	23 42 a8    	bset.b    0x223, #0x2

0000256e <.L17>:
}
    256e:	00 80 fa    	ulnk      
    2570:	00 00 06    	return    

00002572 <_U1_getc>:

uint8_t U1_getc(void) {
    2572:	02 00 fa    	lnk       #0x2
    uint8_t ch;

    // Wait until UART1 RX buffer is not empty
    while (U1_rx_buffer.count == 0) {}
    2574:	00 00 00    	nop       

00002576 <.L22>:
    2576:	00 42 80    	mov.w     0x840, w0
    2578:	00 00 e0    	cp0.w     w0
    257a:	fd ff 32    	bra       Z, 0x2576 <.L22>

    disable_interrupts();
    257c:	ff 3f fc    	disi      #0x3fff
    ch = U1_rx_buffer.data[U1_rx_buffer.head];
    257e:	c1 41 80    	mov.w     0x838, w1
    2580:	e0 41 80    	mov.w     0x83c, w0
    2582:	00 80 40    	add.w     w1, w0, w0
    2584:	10 4f 78    	mov.b     [w0], [w14]
    U1_rx_buffer.head++;
    2586:	e0 41 80    	mov.w     0x83c, w0
    2588:	00 00 e8    	inc.w     w0, w0
    258a:	e0 41 88    	mov.w     w0, 0x83c
    if (U1_rx_buffer.head == U1_rx_buffer.length)
    258c:	e1 41 80    	mov.w     0x83c, w1
    258e:	d0 41 80    	mov.w     0x83a, w0
    2590:	80 8f 50    	sub.w     w1, w0, [w15]
    2592:	02 00 3a    	bra       NZ, 0x2598 <.L23>
        U1_rx_buffer.head = 0;
    2594:	00 00 eb    	clr.w     w0
    2596:	e0 41 88    	mov.w     w0, 0x83c

00002598 <.L23>:
    U1_rx_buffer.count--;
    2598:	00 42 80    	mov.w     0x840, w0
    259a:	00 00 e9    	dec.w     w0, w0
    259c:	00 42 88    	mov.w     w0, 0x840
    enable_interrupts();
    259e:	52 20 ef    	clr.w     0x52

    return ch;
    25a0:	1e 40 78    	mov.b     [w14], w0
}
    25a2:	00 80 fa    	ulnk      
    25a4:	00 00 06    	return    

000025a6 <_U1_puts>:

void U1_puts(uint8_t *str) {
    25a6:	02 00 fa    	lnk       #0x2
    25a8:	00 0f 78    	mov.w     w0, [w14]
    while (*str)
    25aa:	04 00 37    	bra       0x25b4 <.L25>

000025ac <.L26>:
        U1_putc(*str++);
    25ac:	1e 00 78    	mov.w     [w14], w0
    25ae:	10 40 78    	mov.b     [w0], w0
    25b0:	1e 0f e8    	inc.w     [w14], [w14]
    25b2:	bf ff 07    	rcall     0x2532 <_U1_putc> <.LFB5> <.LFE4>

000025b4 <.L25>:
    25b4:	1e 00 78    	mov.w     [w14], w0
    25b6:	10 40 78    	mov.b     [w0], w0
    25b8:	00 04 e0    	cp0.b     w0
    25ba:	f8 ff 3a    	bra       NZ, 0x25ac <.L26>
    U1_flush_tx_buffer();
    25bc:	b1 ff 07    	rcall     0x2520 <_U1_flush_tx_buffer> <.LFB4> <.LFE3>
}
    25be:	00 80 fa    	ulnk      
    25c0:	00 00 06    	return    

000025c2 <_U1_gets>:

void U1_gets(uint8_t *str, uint16_t len) {
    25c2:	04 00 fa    	lnk       #0x4
    25c4:	00 0f 78    	mov.w     w0, [w14]
    25c6:	11 07 98    	mov.w     w1, [w14+2]
    if (len == 0)
    25c8:	1e 00 90    	mov.w     [w14+2], w0
    25ca:	00 00 e0    	cp0.w     w0
    25cc:	1a 00 32    	bra       Z, 0x2602 <.L32>
        return;

    if (len == 1) {
    25ce:	1e 00 90    	mov.w     [w14+2], w0
    25d0:	e1 0f 50    	sub.w     w0, #0x1, [w15]
    25d2:	04 00 3a    	bra       NZ, 0x25dc <.L30>
        *str = '\0';
    25d4:	1e 00 78    	mov.w     [w14], w0
    25d6:	80 40 eb    	clr.b     w1
    25d8:	01 48 78    	mov.b     w1, [w0]
        return;
    25da:	14 00 37    	bra       0x2604 <.L27>

000025dc <.L30>:
    }

    while (1) {
        *str = U1_getc();
    25dc:	ca ff 07    	rcall     0x2572 <_U1_getc> <.LFB6> <.LFE5>
    25de:	9e 00 78    	mov.w     [w14], w1
    25e0:	80 48 78    	mov.b     w0, [w1]
        if ((*str == '\r') || (len == 1))
    25e2:	1e 00 78    	mov.w     [w14], w0
    25e4:	10 40 78    	mov.b     [w0], w0
    25e6:	ed 4f 50    	sub.b     w0, #0xd, [w15]
    25e8:	08 00 32    	bra       Z, 0x25fa <.L31>
    25ea:	1e 00 90    	mov.w     [w14+2], w0
    25ec:	e1 0f 50    	sub.w     w0, #0x1, [w15]
    25ee:	05 00 32    	bra       Z, 0x25fa <.L31>
            break;
        str++;
    25f0:	1e 0f e8    	inc.w     [w14], [w14]
        len--;
    25f2:	1e 00 90    	mov.w     [w14+2], w0
    25f4:	00 00 e9    	dec.w     w0, w0
    25f6:	10 07 98    	mov.w     w0, [w14+2]
    }
    25f8:	f1 ff 37    	bra       0x25dc <.L30>

000025fa <.L31>:
    *str = '\0';
    25fa:	1e 00 78    	mov.w     [w14], w0
    25fc:	80 40 eb    	clr.b     w1
    25fe:	01 48 78    	mov.b     w1, [w0]
    2600:	01 00 37    	bra       0x2604 <.L27>

00002602 <.L32>:
    2602:	00 00 00    	nop       

00002604 <.L27>:
}
    2604:	00 80 fa    	ulnk      
    2606:	00 00 06    	return    

00002608 <_U1_gets_term>:

void U1_gets_term(uint8_t *str, uint16_t len) {
    2608:	08 00 fa    	lnk       #0x8
    260a:	20 07 98    	mov.w     w0, [w14+4]
    260c:	31 07 98    	mov.w     w1, [w14+6]
    uint8_t *start;
    uint16_t left;

    if (len == 0)
    260e:	3e 00 90    	mov.w     [w14+6], w0
    2610:	00 00 e0    	cp0.w     w0
    2612:	6f 00 32    	bra       Z, 0x26f2 <.L46>
        return;

    if (len == 1) {
    2614:	3e 00 90    	mov.w     [w14+6], w0
    2616:	e1 0f 50    	sub.w     w0, #0x1, [w15]
    2618:	04 00 3a    	bra       NZ, 0x2622 <.L36>
        *str = '\0';
    261a:	2e 00 90    	mov.w     [w14+4], w0
    261c:	80 40 eb    	clr.b     w1
    261e:	01 48 78    	mov.b     w1, [w0]
        return;
    2620:	69 00 37    	bra       0x26f4 <.L33>

00002622 <.L36>:
    }

    U1_putc(0x1B);                          // save current cursor position
    2622:	b0 c1 b3    	mov.b     #0x1b, w0
    2624:	86 ff 07    	rcall     0x2532 <_U1_putc> <.LFB5> <.LFE4>
    U1_putc('7');
    2626:	70 c3 b3    	mov.b     #0x37, w0
    2628:	84 ff 07    	rcall     0x2532 <_U1_putc> <.LFB5> <.LFE4>
    U1_flush_tx_buffer();
    262a:	7a ff 07    	rcall     0x2520 <_U1_flush_tx_buffer> <.LFB4> <.LFE3>
    start = str;
    262c:	ae 00 90    	mov.w     [w14+4], w1
    262e:	11 07 98    	mov.w     w1, [w14+2]
    left = len;
    2630:	be 00 90    	mov.w     [w14+6], w1
    2632:	01 0f 78    	mov.w     w1, [w14]
    2634:	03 00 37    	bra       0x263c <.L45>

00002636 <.L47>:
    while (1) {
        *str = U1_getc();                   // get a character
        if (*str == '\r')                   // if character is return,
            break;                          //   end the loop
        if (*str == 0x1B) {                 // if character is escape,
            U1_putc(0x1B);                  //   restore cursor position,
            U1_putc('8');
            U1_putc(0x1B);                  //   clear to end of line, and
            U1_putc('[');
            U1_putc('K');
            U1_flush_tx_buffer();
            str = start;                    //   start over at the beginning
            left = len;
            continue;
        }
        if ((*str == '\b') ||               // if character is backspace
            (*str == 0x7F)) {               //   or delete, 
            if (str > start) {              //   and we are not at the start, 
                U1_putc('\b');              //   erase the last character and
                U1_putc(' ');
                U1_putc('\b');
                U1_flush_tx_buffer();
                str--;                      //   back up the pointer,
                left++;
            } else {                        //   otherwise
                U1_putc('\a');              //   send alert/bell character
                U1_flush_tx_buffer();
            }
            continue;
        }
        if (left == 1) {                    // if string buffer is full,
            U1_putc('\a');                  //   send alert/bell character
            U1_flush_tx_buffer();
            continue;
        }
        if ((*str >= 32) && (*str < 127)) { // if character is printable,
            U1_putc(*str);                  //   echo the received character
            U1_flush_tx_buffer();
            str++;                          //   and advance the pointer
            left--;
        }
    }
    2636:	00 00 00    	nop       
    2638:	01 00 37    	bra       0x263c <.L45>

0000263a <.L48>:
    263a:	00 00 00    	nop       

0000263c <.L45>:
    263c:	9a ff 07    	rcall     0x2572 <_U1_getc> <.LFB6> <.LFE5>
    263e:	ae 00 90    	mov.w     [w14+4], w1
    2640:	80 48 78    	mov.b     w0, [w1]
    2642:	2e 00 90    	mov.w     [w14+4], w0
    2644:	10 40 78    	mov.b     [w0], w0
    2646:	ed 4f 50    	sub.b     w0, #0xd, [w15]
    2648:	09 00 3a    	bra       NZ, 0x265c <.L37>
    *str = '\0';                            // terminarte the string with null
    264a:	2e 00 90    	mov.w     [w14+4], w0
    264c:	80 40 eb    	clr.b     w1
    264e:	01 48 78    	mov.b     w1, [w0]
    U1_putc('\n');                          // send newline and
    2650:	a0 c0 b3    	mov.b     #0xa, w0
    2652:	6f ff 07    	rcall     0x2532 <_U1_putc> <.LFB5> <.LFE4>
    U1_putc('\r');                          //   carriage return
    2654:	d0 c0 b3    	mov.b     #0xd, w0
    2656:	6d ff 07    	rcall     0x2532 <_U1_putc> <.LFB5> <.LFE4>
    U1_flush_tx_buffer();
    2658:	63 ff 07    	rcall     0x2520 <_U1_flush_tx_buffer> <.LFB4> <.LFE3>
    265a:	4c 00 37    	bra       0x26f4 <.L33>

0000265c <.L37>:
    265c:	2e 00 90    	mov.w     [w14+4], w0
    265e:	10 40 78    	mov.b     [w0], w0
    2660:	fb 4f 50    	sub.b     w0, #0x1b, [w15]
    2662:	10 00 3a    	bra       NZ, 0x2684 <.L38>
    2664:	b0 c1 b3    	mov.b     #0x1b, w0
    2666:	65 ff 07    	rcall     0x2532 <_U1_putc> <.LFB5> <.LFE4>
    2668:	80 c3 b3    	mov.b     #0x38, w0
    266a:	63 ff 07    	rcall     0x2532 <_U1_putc> <.LFB5> <.LFE4>
    266c:	b0 c1 b3    	mov.b     #0x1b, w0
    266e:	61 ff 07    	rcall     0x2532 <_U1_putc> <.LFB5> <.LFE4>
    2670:	b0 c5 b3    	mov.b     #0x5b, w0
    2672:	5f ff 07    	rcall     0x2532 <_U1_putc> <.LFB5> <.LFE4>
    2674:	b0 c4 b3    	mov.b     #0x4b, w0
    2676:	5d ff 07    	rcall     0x2532 <_U1_putc> <.LFB5> <.LFE4>
    2678:	53 ff 07    	rcall     0x2520 <_U1_flush_tx_buffer> <.LFB4> <.LFE3>
    267a:	9e 00 90    	mov.w     [w14+2], w1
    267c:	21 07 98    	mov.w     w1, [w14+4]
    267e:	be 00 90    	mov.w     [w14+6], w1
    2680:	01 0f 78    	mov.w     w1, [w14]
    2682:	36 00 37    	bra       0x26f0 <.L39>

00002684 <.L38>:
    2684:	2e 00 90    	mov.w     [w14+4], w0
    2686:	10 40 78    	mov.b     [w0], w0
    2688:	e8 4f 50    	sub.b     w0, #0x8, [w15]
    268a:	05 00 32    	bra       Z, 0x2696 <.L40>
    268c:	2e 00 90    	mov.w     [w14+4], w0
    268e:	90 40 78    	mov.b     [w0], w1
    2690:	f0 c7 b3    	mov.b     #0x7f, w0
    2692:	80 cf 50    	sub.b     w1, w0, [w15]
    2694:	14 00 3a    	bra       NZ, 0x26be <.L41>

00002696 <.L40>:
    2696:	ae 00 90    	mov.w     [w14+4], w1
    2698:	1e 00 90    	mov.w     [w14+2], w0
    269a:	80 8f 50    	sub.w     w1, w0, [w15]
    269c:	0c 00 36    	bra       LEU, 0x26b6 <.L42>
    269e:	80 c0 b3    	mov.b     #0x8, w0
    26a0:	48 ff 07    	rcall     0x2532 <_U1_putc> <.LFB5> <.LFE4>
    26a2:	00 c2 b3    	mov.b     #0x20, w0
    26a4:	46 ff 07    	rcall     0x2532 <_U1_putc> <.LFB5> <.LFE4>
    26a6:	80 c0 b3    	mov.b     #0x8, w0
    26a8:	44 ff 07    	rcall     0x2532 <_U1_putc> <.LFB5> <.LFE4>
    26aa:	3a ff 07    	rcall     0x2520 <_U1_flush_tx_buffer> <.LFB4> <.LFE3>
    26ac:	2e 00 90    	mov.w     [w14+4], w0
    26ae:	00 00 e9    	dec.w     w0, w0
    26b0:	20 07 98    	mov.w     w0, [w14+4]
    26b2:	1e 0f e8    	inc.w     [w14], [w14]
    26b4:	03 00 37    	bra       0x26bc <.L43>

000026b6 <.L42>:
    26b6:	70 c0 b3    	mov.b     #0x7, w0
    26b8:	3c ff 07    	rcall     0x2532 <_U1_putc> <.LFB5> <.LFE4>
    26ba:	32 ff 07    	rcall     0x2520 <_U1_flush_tx_buffer> <.LFB4> <.LFE3>

000026bc <.L43>:
    26bc:	19 00 37    	bra       0x26f0 <.L39>

000026be <.L41>:
    26be:	1e 00 78    	mov.w     [w14], w0
    26c0:	e1 0f 50    	sub.w     w0, #0x1, [w15]
    26c2:	04 00 3a    	bra       NZ, 0x26cc <.L44>
    26c4:	70 c0 b3    	mov.b     #0x7, w0
    26c6:	35 ff 07    	rcall     0x2532 <_U1_putc> <.LFB5> <.LFE4>
    26c8:	2b ff 07    	rcall     0x2520 <_U1_flush_tx_buffer> <.LFB4> <.LFE3>
    26ca:	12 00 37    	bra       0x26f0 <.L39>

000026cc <.L44>:
    26cc:	2e 00 90    	mov.w     [w14+4], w0
    26ce:	10 40 78    	mov.b     [w0], w0
    26d0:	ff 4f 50    	sub.b     w0, #0x1f, [w15]
    26d2:	b1 ff 36    	bra       LEU, 0x2636 <.L47>
    26d4:	2e 00 90    	mov.w     [w14+4], w0
    26d6:	90 40 78    	mov.b     [w0], w1
    26d8:	e0 c7 b3    	mov.b     #0x7e, w0
    26da:	80 cf 50    	sub.b     w1, w0, [w15]
    26dc:	ae ff 3e    	bra       GTU, 0x263a <.L48>
    26de:	2e 00 90    	mov.w     [w14+4], w0
    26e0:	10 40 78    	mov.b     [w0], w0
    26e2:	27 ff 07    	rcall     0x2532 <_U1_putc> <.LFB5> <.LFE4>
    26e4:	1d ff 07    	rcall     0x2520 <_U1_flush_tx_buffer> <.LFB4> <.LFE3>
    26e6:	2e 00 90    	mov.w     [w14+4], w0
    26e8:	00 00 e8    	inc.w     w0, w0
    26ea:	20 07 98    	mov.w     w0, [w14+4]
    26ec:	1e 0f e9    	dec.w     [w14], [w14]
    26ee:	a6 ff 37    	bra       0x263c <.L45>

000026f0 <.L39>:
    26f0:	a5 ff 37    	bra       0x263c <.L45>

000026f2 <.L46>:
    26f2:	00 00 00    	nop       

000026f4 <.L33>:
}
    26f4:	00 80 fa    	ulnk      
    26f6:	00 00 06    	return    

000026f8 <_write>:

int16_t write(int16_t handle, void *buffer, uint16_t len) {
    26f8:	08 00 fa    	lnk       #0x8
    26fa:	10 07 98    	mov.w     w0, [w14+2]
    26fc:	21 07 98    	mov.w     w1, [w14+4]
    26fe:	32 07 98    	mov.w     w2, [w14+6]
    int16_t i;

    switch (handle) {
    2700:	1e 00 90    	mov.w     [w14+2], w0
    2702:	60 00 40    	add.w     w0, #0x0, w0
    2704:	e2 0f 50    	sub.w     w0, #0x2, [w15]
    2706:	10 00 3e    	bra       GTU, 0x2728 <.L55>
        case 0:
        case 1:
        case 2:
            for (i = 0; i < len; i++)
    2708:	00 00 eb    	clr.w     w0
    270a:	00 0f 78    	mov.w     w0, [w14]
    270c:	07 00 37    	bra       0x271c <.L52>

0000270e <.L53>:
                U1_putc(*(uint8_t *)buffer++);
    270e:	2e 00 90    	mov.w     [w14+4], w0
    2710:	10 40 78    	mov.b     [w0], w0
    2712:	ae 00 90    	mov.w     [w14+4], w1
    2714:	81 00 e8    	inc.w     w1, w1
    2716:	21 07 98    	mov.w     w1, [w14+4]
    2718:	0c ff 07    	rcall     0x2532 <_U1_putc> <.LFB5> <.LFE4>
    271a:	1e 0f e8    	inc.w     [w14], [w14]

0000271c <.L52>:
    271c:	9e 00 78    	mov.w     [w14], w1
    271e:	3e 00 90    	mov.w     [w14+6], w0
    2720:	80 8f 50    	sub.w     w1, w0, [w15]
    2722:	f5 ff 39    	bra       NC, 0x270e <.L53>
            U1_flush_tx_buffer();
    2724:	fd fe 07    	rcall     0x2520 <_U1_flush_tx_buffer> <.LFB4> <.LFE3>
            break;
    2726:	01 00 37    	bra       0x272a <.L54>

00002728 <.L55>:
        default:
            break;
    2728:	00 00 00    	nop       

0000272a <.L54>:
    }
    return len;
    272a:	3e 00 90    	mov.w     [w14+6], w0
}
    272c:	00 80 fa    	ulnk      
    272e:	00 00 06    	return    
Disassembly of section .isr.text:

00002730 <__CNInterrupt>:
    2730:	32 00 f8    	push      0x32
    2732:	34 00 f8    	push      0x34
    2734:	88 1f 78    	mov.w     w8, [w15++]
    2736:	18 00 20    	mov.w     #0x1, w8
    2738:	a8 01 88    	mov.w     w8, 0x34
    273a:	08 20 20    	mov.w     #0x200, w8
    273c:	98 01 88    	mov.w     w8, 0x32
    273e:	4f 04 78    	mov.w     [--w15], w8
    2740:	00 00 fa    	lnk       #0x0
    2742:	86 60 a9    	bclr.b    0x86, #0x3
    2744:	06 21 ef    	clr.w     0x106
    2746:	84 e0 a9    	bclr.b    0x84, #0x7
    2748:	11 e1 a8    	bset.b    0x111, #0x7
    274a:	dc e2 a8    	bset.b    0x2dc, #0x7
    274c:	00 80 fa    	ulnk      
    274e:	34 00 f9    	pop       0x34
    2750:	32 00 f9    	pop       0x32
    2752:	00 40 06    	retfie    

00002754 <__T2Interrupt>:
    2754:	36 00 f8    	push      0x36
    2756:	80 9f be    	mov.d     w0, [w15++]
    2758:	82 9f be    	mov.d     w2, [w15++]
    275a:	84 9f be    	mov.d     w4, [w15++]
    275c:	86 9f be    	mov.d     w6, [w15++]
    275e:	32 00 f8    	push      0x32
    2760:	34 00 f8    	push      0x34
    2762:	10 00 20    	mov.w     #0x1, w0
    2764:	a0 01 88    	mov.w     w0, 0x34
    2766:	00 20 20    	mov.w     #0x200, w0
    2768:	90 01 88    	mov.w     w0, 0x32
    276a:	00 00 fa    	lnk       #0x0
    276c:	84 e0 a9    	bclr.b    0x84, #0x7
    276e:	11 e1 a9    	bclr.b    0x111, #0x7
    2770:	dc e2 a9    	bclr.b    0x2dc, #0x7
    2772:	d1 16 80    	mov.w     0x2da, w1
    2774:	00 02 20    	mov.w     #0x20, w0
    2776:	00 80 60    	and.w     w1, w0, w0
    2778:	00 00 e0    	cp0.w     w0
    277a:	0b 00 3a    	bra       NZ, 0x2792 <.L47>
    277c:	10 c8 bf    	mov.b     0x810, WREG
    277e:	00 80 fb    	ze        w0, w0
    2780:	80 00 e8    	inc.w     w0, w1
    2782:	60 00 20    	mov.w     #0x6, w0
    2784:	00 01 78    	mov.w     w0, w2
    2786:	11 00 09    	repeat    #0x11
    2788:	82 00 d8    	div.sw    w1, w2
    278a:	80 00 fd    	exch      w0, w1
    278c:	00 40 78    	mov.b     w0, w0
    278e:	10 e8 b7    	mov.b     WREG, 0x810
    2790:	0c 00 37    	bra       0x27aa <.L48>

00002792 <.L47>:
    2792:	d0 16 80    	mov.w     0x2da, w0
    2794:	70 00 60    	and.w     w0, #0x10, w0
    2796:	00 00 e0    	cp0.w     w0
    2798:	08 00 3a    	bra       NZ, 0x27aa <.L48>
    279a:	10 c8 bf    	mov.b     0x810, WREG
    279c:	00 40 e9    	dec.b     w0, w0
    279e:	10 e8 b7    	mov.b     WREG, 0x810
    27a0:	10 c8 bf    	mov.b     0x810, WREG
    27a2:	e5 4f 50    	sub.b     w0, #0x5, [w15]
    27a4:	02 00 36    	bra       LEU, 0x27aa <.L48>
    27a6:	50 c0 b3    	mov.b     #0x5, w0
    27a8:	10 e8 b7    	mov.b     WREG, 0x810

000027aa <.L48>:
    27aa:	d0 16 80    	mov.w     0x2da, w0
    27ac:	64 00 60    	and.w     w0, #0x4, w0
    27ae:	00 00 e0    	cp0.w     w0
    27b0:	0b 00 3a    	bra       NZ, 0x27c8 <.L49>
    27b2:	11 c8 bf    	mov.b     0x811, WREG
    27b4:	00 80 fb    	ze        w0, w0
    27b6:	80 00 e8    	inc.w     w0, w1
    27b8:	60 00 20    	mov.w     #0x6, w0
    27ba:	00 01 78    	mov.w     w0, w2
    27bc:	11 00 09    	repeat    #0x11
    27be:	82 00 d8    	div.sw    w1, w2
    27c0:	80 00 fd    	exch      w0, w1
    27c2:	00 40 78    	mov.b     w0, w0
    27c4:	11 e8 b7    	mov.b     WREG, 0x811
    27c6:	07 00 37    	bra       0x27d6 <.L50>

000027c8 <.L49>:
    27c8:	d0 16 80    	mov.w     0x2da, w0
    27ca:	68 00 60    	and.w     w0, #0x8, w0
    27cc:	00 00 e0    	cp0.w     w0
    27ce:	03 00 3a    	bra       NZ, 0x27d6 <.L50>
    27d0:	11 c8 bf    	mov.b     0x811, WREG
    27d2:	00 40 e9    	dec.b     w0, w0
    27d4:	11 e8 b7    	mov.b     WREG, 0x811

000027d6 <.L50>:
    27d6:	11 c8 bf    	mov.b     0x811, WREG
    27d8:	e5 4f 50    	sub.b     w0, #0x5, [w15]
    27da:	03 00 36    	bra       LEU, 0x27e2 <.L51>
    27dc:	11 c8 bf    	mov.b     0x811, WREG
    27de:	66 40 40    	add.b     w0, #0x6, w0
    27e0:	11 e8 b7    	mov.b     WREG, 0x811

000027e2 <.L51>:
    27e2:	51 16 80    	mov.w     0x2ca, w1
    27e4:	00 00 28    	mov.w     #0x8000, w0
    27e6:	00 80 60    	and.w     w1, w0, w0
    27e8:	00 00 e0    	cp0.w     w0
    27ea:	0b 00 3a    	bra       NZ, 0x2802 <.L52>
    27ec:	12 c8 bf    	mov.b     0x812, WREG
    27ee:	00 80 fb    	ze        w0, w0
    27f0:	80 00 e8    	inc.w     w0, w1
    27f2:	60 00 20    	mov.w     #0x6, w0
    27f4:	00 01 78    	mov.w     w0, w2
    27f6:	11 00 09    	repeat    #0x11
    27f8:	82 00 d8    	div.sw    w1, w2
    27fa:	80 00 fd    	exch      w0, w1
    27fc:	00 40 78    	mov.b     w0, w0
    27fe:	12 e8 b7    	mov.b     WREG, 0x812
    2800:	07 00 37    	bra       0x2810 <.L53>

00002802 <.L52>:
    2802:	50 17 80    	mov.w     0x2ea, w0
    2804:	68 00 60    	and.w     w0, #0x8, w0
    2806:	00 00 e0    	cp0.w     w0
    2808:	03 00 3a    	bra       NZ, 0x2810 <.L53>
    280a:	12 c8 bf    	mov.b     0x812, WREG
    280c:	00 40 e9    	dec.b     w0, w0
    280e:	12 e8 b7    	mov.b     WREG, 0x812

00002810 <.L53>:
    2810:	12 c8 bf    	mov.b     0x812, WREG
    2812:	e5 4f 50    	sub.b     w0, #0x5, [w15]
    2814:	03 00 36    	bra       LEU, 0x281c <.L54>
    2816:	12 c8 bf    	mov.b     0x812, WREG
    2818:	66 40 40    	add.b     w0, #0x6, w0
    281a:	12 e8 b7    	mov.b     WREG, 0x812

0000281c <.L54>:
    281c:	d1 16 80    	mov.w     0x2da, w1
    281e:	00 10 20    	mov.w     #0x100, w0
    2820:	00 80 60    	and.w     w1, w0, w0
    2822:	00 00 e0    	cp0.w     w0
    2824:	0b 00 3a    	bra       NZ, 0x283c <.L55>
    2826:	13 c8 bf    	mov.b     0x813, WREG
    2828:	00 80 fb    	ze        w0, w0
    282a:	80 00 e8    	inc.w     w0, w1
    282c:	60 00 20    	mov.w     #0x6, w0
    282e:	00 01 78    	mov.w     w0, w2
    2830:	11 00 09    	repeat    #0x11
    2832:	82 00 d8    	div.sw    w1, w2
    2834:	80 00 fd    	exch      w0, w1
    2836:	00 40 78    	mov.b     w0, w0
    2838:	13 e8 b7    	mov.b     WREG, 0x813
    283a:	08 00 37    	bra       0x284c <.L56>

0000283c <.L55>:
    283c:	d1 16 80    	mov.w     0x2da, w1
    283e:	00 80 20    	mov.w     #0x800, w0
    2840:	00 80 60    	and.w     w1, w0, w0
    2842:	00 00 e0    	cp0.w     w0
    2844:	03 00 3a    	bra       NZ, 0x284c <.L56>
    2846:	13 c8 bf    	mov.b     0x813, WREG
    2848:	00 40 e9    	dec.b     w0, w0
    284a:	13 e8 b7    	mov.b     WREG, 0x813

0000284c <.L56>:
    284c:	13 c8 bf    	mov.b     0x813, WREG
    284e:	e5 4f 50    	sub.b     w0, #0x5, [w15]
    2850:	03 00 36    	bra       LEU, 0x2858 <.L57>
    2852:	13 c8 bf    	mov.b     0x813, WREG
    2854:	66 40 40    	add.b     w0, #0x6, w0
    2856:	13 e8 b7    	mov.b     WREG, 0x813

00002858 <.L57>:
    2858:	d1 16 80    	mov.w     0x2da, w1
    285a:	00 20 20    	mov.w     #0x200, w0
    285c:	00 80 60    	and.w     w1, w0, w0
    285e:	00 00 e0    	cp0.w     w0
    2860:	0b 00 3a    	bra       NZ, 0x2878 <.L58>
    2862:	14 c8 bf    	mov.b     0x814, WREG
    2864:	00 80 fb    	ze        w0, w0
    2866:	80 00 e8    	inc.w     w0, w1
    2868:	60 00 20    	mov.w     #0x6, w0
    286a:	00 01 78    	mov.w     w0, w2
    286c:	11 00 09    	repeat    #0x11
    286e:	82 00 d8    	div.sw    w1, w2
    2870:	80 00 fd    	exch      w0, w1
    2872:	00 40 78    	mov.b     w0, w0
    2874:	14 e8 b7    	mov.b     WREG, 0x814
    2876:	08 00 37    	bra       0x2888 <.L59>

00002878 <.L58>:
    2878:	d1 16 80    	mov.w     0x2da, w1
    287a:	00 40 20    	mov.w     #0x400, w0
    287c:	00 80 60    	and.w     w1, w0, w0
    287e:	00 00 e0    	cp0.w     w0
    2880:	03 00 3a    	bra       NZ, 0x2888 <.L59>
    2882:	14 c8 bf    	mov.b     0x814, WREG
    2884:	00 40 e9    	dec.b     w0, w0
    2886:	14 e8 b7    	mov.b     WREG, 0x814

00002888 <.L59>:
    2888:	14 c8 bf    	mov.b     0x814, WREG
    288a:	e5 4f 50    	sub.b     w0, #0x5, [w15]
    288c:	03 00 36    	bra       LEU, 0x2894 <.L60>
    288e:	14 c8 bf    	mov.b     0x814, WREG
    2890:	66 40 40    	add.b     w0, #0x6, w0
    2892:	14 e8 b7    	mov.b     WREG, 0x814

00002894 <.L60>:
    2894:	d8 f8 07    	rcall     0x1a46 <_updateDisplay> <.LFB8> <.LFE5>
    2896:	00 80 fa    	ulnk      
    2898:	34 00 f9    	pop       0x34
    289a:	32 00 f9    	pop       0x32
    289c:	4f 03 be    	mov.d     [--w15], w6
    289e:	4f 02 be    	mov.d     [--w15], w4
    28a0:	4f 01 be    	mov.d     [--w15], w2
    28a2:	4f 00 be    	mov.d     [--w15], w0
    28a4:	36 00 f9    	pop       0x36
    28a6:	00 40 06    	retfie    

000028a8 <__SI2C2Interrupt>:
    28a8:	80 9f be    	mov.d     w0, [w15++]
    28aa:	32 00 f8    	push      0x32
    28ac:	34 00 f8    	push      0x34
    28ae:	10 00 20    	mov.w     #0x1, w0
    28b0:	a0 01 88    	mov.w     w0, 0x34
    28b2:	00 20 20    	mov.w     #0x200, w0
    28b4:	90 01 88    	mov.w     w0, 0x32
    28b6:	02 00 fa    	lnk       #0x2
    28b8:	8a 20 a9    	bclr.b    0x8a, #0x1
    28ba:	50 41 80    	mov.w     0x82a, w0
    28bc:	e1 0f 50    	sub.w     w0, #0x1, [w15]
    28be:	23 00 32    	bra       Z, 0x2906 <.L4>
    28c0:	e1 0f 50    	sub.w     w0, #0x1, [w15]
    28c2:	03 00 39    	bra       NC, 0x28ca <.L3>
    28c4:	e2 0f 50    	sub.w     w0, #0x2, [w15]
    28c6:	62 00 32    	bra       Z, 0x298c <.L5>
    28c8:	63 00 37    	bra       0x2990 <.L19>

000028ca <.L3>:
    28ca:	80 10 80    	mov.w     0x210, w0
    28cc:	00 4f 78    	mov.b     w0, [w14]
    28ce:	c0 10 80    	mov.w     0x218, w0
    28d0:	64 00 60    	and.w     w0, #0x4, w0
    28d2:	00 00 e0    	cp0.w     w0
    28d4:	15 00 32    	bra       Z, 0x2900 <.L6>
    28d6:	24 c8 bf    	mov.b     0x824, WREG
    28d8:	00 80 fb    	ze        w0, w0
    28da:	47 00 dd    	sl.w      w0, #0x7, w0
    28dc:	80 40 78    	mov.b     w0, w1
    28de:	25 c8 bf    	mov.b     0x825, WREG
    28e0:	00 80 fb    	ze        w0, w0
    28e2:	67 00 60    	and.w     w0, #0x7, w0
    28e4:	44 00 dd    	sl.w      w0, #0x4, w0
    28e6:	00 40 78    	mov.b     w0, w0
    28e8:	80 c0 70    	ior.b     w1, w0, w1
    28ea:	26 c8 bf    	mov.b     0x826, WREG
    28ec:	6f 40 60    	and.b     w0, #0xf, w0
    28ee:	00 c0 70    	ior.b     w1, w0, w0
    28f0:	1e e8 b7    	mov.b     WREG, 0x81e
    28f2:	1e c8 bf    	mov.b     0x81e, WREG
    28f4:	00 80 fb    	ze        w0, w0
    28f6:	90 10 88    	mov.w     w0, 0x212
    28f8:	17 82 a8    	bset.b    0x217, #0x4
    28fa:	20 00 20    	mov.w     #0x2, w0
    28fc:	50 41 88    	mov.w     w0, 0x82a
    28fe:	49 00 37    	bra       0x2992 <.L1>

00002900 <.L6>:
    2900:	10 00 20    	mov.w     #0x1, w0
    2902:	50 41 88    	mov.w     w0, 0x82a
    2904:	46 00 37    	bra       0x2992 <.L1>

00002906 <.L4>:
    2906:	80 10 80    	mov.w     0x210, w0
    2908:	00 40 78    	mov.b     w0, w0
    290a:	1f e8 b7    	mov.b     WREG, 0x81f
    290c:	1f c8 bf    	mov.b     0x81f, WREG
    290e:	00 80 fb    	ze        w0, w0
    2910:	45 00 de    	lsr.w     w0, #0x5, w0
    2912:	00 40 78    	mov.b     w0, w0
    2914:	00 80 fb    	ze        w0, w0
    2916:	e4 0f 50    	sub.w     w0, #0x4, [w15]
    2918:	11 00 32    	bra       Z, 0x293c <.L13>
    291a:	e4 0f 50    	sub.w     w0, #0x4, [w15]
    291c:	07 00 3c    	bra       GT, 0x292c <.L17>
    291e:	e2 0f 50    	sub.w     w0, #0x2, [w15]
    2920:	2b 00 32    	bra       Z, 0x2978 <.L11>
    2922:	e2 0f 50    	sub.w     w0, #0x2, [w15]
    2924:	0f 00 3c    	bra       GT, 0x2944 <.L12>
    2926:	e1 0f 50    	sub.w     w0, #0x1, [w15]
    2928:	24 00 32    	bra       Z, 0x2972 <.L10>
    292a:	29 00 37    	bra       0x297e <.L9>

0000292c <.L17>:
    292c:	e7 0f 50    	sub.w     w0, #0x7, [w15]
    292e:	1a 00 32    	bra       Z, 0x2964 <.L15>
    2930:	11 10 20    	mov.w     #0x101, w1
    2932:	81 0f 50    	sub.w     w0, w1, [w15]
    2934:	28 00 32    	bra       Z, 0x2986 <.L20>
    2936:	e6 0f 50    	sub.w     w0, #0x6, [w15]
    2938:	19 00 32    	bra       Z, 0x296c <.L14>
    293a:	21 00 37    	bra       0x297e <.L9>

0000293c <.L13>:
    293c:	1f c8 bf    	mov.b     0x81f, WREG
    293e:	7f 40 60    	and.b     w0, #0x1f, w0
    2940:	20 e8 b7    	mov.b     WREG, 0x820
    2942:	22 00 37    	bra       0x2988 <.L18>

00002944 <.L12>:
    2944:	1f c8 bf    	mov.b     0x81f, WREG
    2946:	00 80 fb    	ze        w0, w0
    2948:	64 00 60    	and.w     w0, #0x4, w0
    294a:	42 80 de    	asr.w     w0, #0x2, w0
    294c:	00 40 78    	mov.b     w0, w0
    294e:	21 e8 b7    	mov.b     WREG, 0x821
    2950:	1f c8 bf    	mov.b     0x81f, WREG
    2952:	00 80 fb    	ze        w0, w0
    2954:	62 00 60    	and.w     w0, #0x2, w0
    2956:	00 80 d1    	asr.w     w0, w0
    2958:	00 40 78    	mov.b     w0, w0
    295a:	22 e8 b7    	mov.b     WREG, 0x822
    295c:	1f c8 bf    	mov.b     0x81f, WREG
    295e:	61 40 60    	and.b     w0, #0x1, w0
    2960:	23 e8 b7    	mov.b     WREG, 0x823
    2962:	12 00 37    	bra       0x2988 <.L18>

00002964 <.L15>:
    2964:	1f c8 bf    	mov.b     0x81f, WREG
    2966:	7f 40 60    	and.b     w0, #0x1f, w0
    2968:	25 e8 b7    	mov.b     WREG, 0x825
    296a:	0e 00 37    	bra       0x2988 <.L18>

0000296c <.L14>:
    296c:	10 c0 b3    	mov.b     #0x1, w0
    296e:	27 e8 b7    	mov.b     WREG, 0x827
    2970:	0b 00 37    	bra       0x2988 <.L18>

00002972 <.L10>:
    2972:	10 c0 b3    	mov.b     #0x1, w0
    2974:	28 e8 b7    	mov.b     WREG, 0x828
    2976:	08 00 37    	bra       0x2988 <.L18>

00002978 <.L11>:
    2978:	10 c0 b3    	mov.b     #0x1, w0
    297a:	29 e8 b7    	mov.b     WREG, 0x829
    297c:	05 00 37    	bra       0x2988 <.L18>

0000297e <.L9>:
    297e:	26 c8 bf    	mov.b     0x826, WREG
    2980:	00 40 e8    	inc.b     w0, w0
    2982:	26 e8 b7    	mov.b     WREG, 0x826
    2984:	01 00 37    	bra       0x2988 <.L18>

00002986 <.L20>:
    2986:	00 00 00    	nop       

00002988 <.L18>:
    2988:	2a 28 ef    	clr.w     0x82a
    298a:	03 00 37    	bra       0x2992 <.L1>

0000298c <.L5>:
    298c:	2a 28 ef    	clr.w     0x82a
    298e:	01 00 37    	bra       0x2992 <.L1>

00002990 <.L19>:
    2990:	2a 28 ef    	clr.w     0x82a

00002992 <.L1>:
    2992:	00 80 fa    	ulnk      
    2994:	34 00 f9    	pop       0x34
    2996:	32 00 f9    	pop       0x32
    2998:	4f 00 be    	mov.d     [--w15], w0
    299a:	00 40 06    	retfie    

0000299c <__U1TXInterrupt>:
    299c:	80 9f be    	mov.d     w0, [w15++]
    299e:	32 00 f8    	push      0x32
    29a0:	34 00 f8    	push      0x34
    29a2:	10 00 20    	mov.w     #0x1, w0
    29a4:	a0 01 88    	mov.w     w0, 0x34
    29a6:	00 20 20    	mov.w     #0x200, w0
    29a8:	90 01 88    	mov.w     w0, 0x32
    29aa:	02 00 fa    	lnk       #0x2
    29ac:	85 80 a9    	bclr.b    0x85, #0x4
    29ae:	b0 41 80    	mov.w     0x836, w0
    29b0:	00 00 e0    	cp0.w     w0
    29b2:	17 00 3a    	bra       NZ, 0x29e2 <.L8>
    29b4:	23 42 a9    	bclr.b    0x223, #0x2
    29b6:	16 00 37    	bra       0x29e4 <.L4>

000029b8 <.L7>:
    29b8:	ff 3f fc    	disi      #0x3fff
    29ba:	71 41 80    	mov.w     0x82e, w1
    29bc:	90 41 80    	mov.w     0x832, w0
    29be:	00 80 40    	add.w     w1, w0, w0
    29c0:	10 4f 78    	mov.b     [w0], [w14]
    29c2:	90 41 80    	mov.w     0x832, w0
    29c4:	00 00 e8    	inc.w     w0, w0
    29c6:	90 41 88    	mov.w     w0, 0x832
    29c8:	91 41 80    	mov.w     0x832, w1
    29ca:	80 41 80    	mov.w     0x830, w0
    29cc:	80 8f 50    	sub.w     w1, w0, [w15]
    29ce:	02 00 3a    	bra       NZ, 0x29d4 <.L5>
    29d0:	00 00 eb    	clr.w     w0
    29d2:	90 41 88    	mov.w     w0, 0x832

000029d4 <.L5>:
    29d4:	b0 41 80    	mov.w     0x836, w0
    29d6:	00 00 e9    	dec.w     w0, w0
    29d8:	b0 41 88    	mov.w     w0, 0x836
    29da:	52 20 ef    	clr.w     0x52
    29dc:	1e 80 fb    	ze        [w14], w0
    29de:	20 11 88    	mov.w     w0, 0x224
    29e0:	01 00 37    	bra       0x29e4 <.L4>

000029e2 <.L8>:
    29e2:	00 00 00    	nop       

000029e4 <.L4>:
    29e4:	11 11 80    	mov.w     0x222, w1
    29e6:	00 20 20    	mov.w     #0x200, w0
    29e8:	00 80 60    	and.w     w1, w0, w0
    29ea:	00 00 e0    	cp0.w     w0
    29ec:	03 00 3a    	bra       NZ, 0x29f4 <.L2>
    29ee:	b0 41 80    	mov.w     0x836, w0
    29f0:	00 00 e0    	cp0.w     w0
    29f2:	e2 ff 3a    	bra       NZ, 0x29b8 <.L7>

000029f4 <.L2>:
    29f4:	00 80 fa    	ulnk      
    29f6:	34 00 f9    	pop       0x34
    29f8:	32 00 f9    	pop       0x32
    29fa:	4f 00 be    	mov.d     [--w15], w0
    29fc:	00 40 06    	retfie    

000029fe <__U1RXInterrupt>:
    29fe:	80 9f be    	mov.d     w0, [w15++]
    2a00:	32 00 f8    	push      0x32
    2a02:	34 00 f8    	push      0x34
    2a04:	10 00 20    	mov.w     #0x1, w0
    2a06:	a0 01 88    	mov.w     w0, 0x34
    2a08:	00 20 20    	mov.w     #0x200, w0
    2a0a:	90 01 88    	mov.w     w0, 0x32
    2a0c:	00 00 fa    	lnk       #0x0
    2a0e:	85 60 a9    	bclr.b    0x85, #0x3
    2a10:	14 00 37    	bra       0x2a3a <.L10>

00002a12 <.L13>:
    2a12:	ff 3f fc    	disi      #0x3fff
    2a14:	c1 41 80    	mov.w     0x838, w1
    2a16:	f0 41 80    	mov.w     0x83e, w0
    2a18:	00 80 40    	add.w     w1, w0, w0
    2a1a:	31 11 80    	mov.w     0x226, w1
    2a1c:	81 40 78    	mov.b     w1, w1
    2a1e:	01 48 78    	mov.b     w1, [w0]
    2a20:	f0 41 80    	mov.w     0x83e, w0
    2a22:	00 00 e8    	inc.w     w0, w0
    2a24:	f0 41 88    	mov.w     w0, 0x83e
    2a26:	f1 41 80    	mov.w     0x83e, w1
    2a28:	d0 41 80    	mov.w     0x83a, w0
    2a2a:	80 8f 50    	sub.w     w1, w0, [w15]
    2a2c:	02 00 3a    	bra       NZ, 0x2a32 <.L11>
    2a2e:	00 00 eb    	clr.w     w0
    2a30:	f0 41 88    	mov.w     w0, 0x83e

00002a32 <.L11>:
    2a32:	00 42 80    	mov.w     0x840, w0
    2a34:	00 00 e8    	inc.w     w0, w0
    2a36:	00 42 88    	mov.w     w0, 0x840
    2a38:	52 20 ef    	clr.w     0x52

00002a3a <.L10>:
    2a3a:	10 11 80    	mov.w     0x222, w0
    2a3c:	61 00 60    	and.w     w0, #0x1, w0
    2a3e:	00 00 e0    	cp0.w     w0
    2a40:	04 00 32    	bra       Z, 0x2a4a <.L9>
    2a42:	01 42 80    	mov.w     0x840, w1
    2a44:	d0 41 80    	mov.w     0x83a, w0
    2a46:	80 8f 50    	sub.w     w1, w0, [w15]
    2a48:	e4 ff 3a    	bra       NZ, 0x2a12 <.L13>

00002a4a <.L9>:
    2a4a:	00 80 fa    	ulnk      
    2a4c:	34 00 f9    	pop       0x34
    2a4e:	32 00 f9    	pop       0x32
    2a50:	4f 00 be    	mov.d     [--w15], w0
    2a52:	00 40 06    	retfie    
Disassembly of section .text:

00002a54 <_init_elecanisms>:
            U1_rx_buffer.tail = 0;
        U1_rx_buffer.count++;
        enable_interrupts();
    }
}
    2a54:	00 00 fa    	lnk       #0x0
    2a56:	00 10 20    	mov.w     #0x100, w0
    2a58:	20 3a 88    	mov.w     w0, 0x744
    2a5a:	d8 a2 a8    	bset.b    0x2d8, #0x5
    2a5c:	d8 82 a8    	bset.b    0x2d8, #0x4
    2a5e:	e8 82 a8    	bset.b    0x2e8, #0x4
    2a60:	e8 a2 a8    	bset.b    0x2e8, #0x5
    2a62:	c9 e2 a8    	bset.b    0x2c9, #0x7
    2a64:	e8 62 a8    	bset.b    0x2e8, #0x3
    2a66:	d9 02 a8    	bset.b    0x2d9, #0x0
    2a68:	d9 62 a8    	bset.b    0x2d9, #0x3
    2a6a:	d9 22 a8    	bset.b    0x2d9, #0x1
    2a6c:	d9 42 a8    	bset.b    0x2d9, #0x2
    2a6e:	d8 02 a8    	bset.b    0x2d8, #0x0
    2a70:	d8 22 a8    	bset.b    0x2d8, #0x1
    2a72:	d8 42 a8    	bset.b    0x2d8, #0x2
    2a74:	d8 62 a8    	bset.b    0x2d8, #0x3
    2a76:	c8 a2 a8    	bset.b    0x2c8, #0x5
    2a78:	c8 82 a8    	bset.b    0x2c8, #0x4
    2a7a:	c8 62 a8    	bset.b    0x2c8, #0x3
    2a7c:	c8 42 a8    	bset.b    0x2c8, #0x2
    2a7e:	c8 22 a8    	bset.b    0x2c8, #0x1
    2a80:	c8 02 a8    	bset.b    0x2c8, #0x0
    2a82:	f0 03 20    	mov.w     #0x3f, w0
    2a84:	10 27 88    	mov.w     w0, 0x4e2
    2a86:	e4 24 ef    	clr.w     0x4e4
    2a88:	e6 24 ef    	clr.w     0x4e6
    2a8a:	ea 24 ef    	clr.w     0x4ea
    2a8c:	ec 24 ef    	clr.w     0x4ec
    2a8e:	00 0e 20    	mov.w     #0xe0, w0
    2a90:	00 19 88    	mov.w     w0, 0x320
    2a92:	22 23 ef    	clr.w     0x322
    2a94:	00 c4 20    	mov.w     #0xc40, w0
    2a96:	20 19 88    	mov.w     w0, 0x324
    2a98:	50 00 20    	mov.w     #0x5, w0
    2a9a:	40 19 88    	mov.w     w0, 0x328
    2a9c:	21 e3 a8    	bset.b    0x321, #0x7
    2a9e:	d8 e2 a9    	bclr.b    0x2d8, #0x7
    2aa0:	dc e2 a9    	bclr.b    0x2dc, #0x7
    2aa2:	e8 02 a9    	bclr.b    0x2e8, #0x0
    2aa4:	ec 02 a9    	bclr.b    0x2ec, #0x0
    2aa6:	e8 22 a9    	bclr.b    0x2e8, #0x1
    2aa8:	ec 22 a9    	bclr.b    0x2ec, #0x1
    2aaa:	d1 e2 a8    	bset.b    0x2d1, #0x7
    2aac:	d1 82 a8    	bset.b    0x2d1, #0x4
    2aae:	c9 82 a8    	bset.b    0x2c9, #0x4
    2ab0:	00 80 fa    	ulnk      
    2ab2:	00 00 06    	return    

00002ab4 <_read_analog>:
    2ab4:	02 00 fa    	lnk       #0x2
    2ab6:	00 0f 78    	mov.w     w0, [w14]
    2ab8:	9e 00 78    	mov.w     [w14], w1
    2aba:	41 19 88    	mov.w     w1, 0x328
    2abc:	20 23 a8    	bset.b    0x320, #0x1
    2abe:	00 00 00    	nop       

00002ac0 <.L3>:
    2ac0:	00 19 80    	mov.w     0x320, w0
    2ac2:	61 00 60    	and.w     w0, #0x1, w0
    2ac4:	00 00 e0    	cp0.w     w0
    2ac6:	fc ff 32    	bra       Z, 0x2ac0 <.L3>
    2ac8:	00 18 80    	mov.w     0x300, w0
    2aca:	00 80 fa    	ulnk      
    2acc:	00 00 06    	return    

00002ace <_parity>:

#include "common.h"

uint8_t parity(uint16_t v)
{
    2ace:	02 00 fa    	lnk       #0x2
    2ad0:	00 0f 78    	mov.w     w0, [w14]
    v ^= v >> 8;
    2ad2:	1e 00 78    	mov.w     [w14], w0
    2ad4:	48 00 de    	lsr.w     w0, #0x8, w0
    2ad6:	1e 0f 68    	xor.w     w0, [w14], [w14]
    v ^= v >> 4;
    2ad8:	1e 00 78    	mov.w     [w14], w0
    2ada:	44 00 de    	lsr.w     w0, #0x4, w0
    2adc:	1e 0f 68    	xor.w     w0, [w14], [w14]
    v ^= v >> 2;
    2ade:	1e 00 78    	mov.w     [w14], w0
    2ae0:	42 00 de    	lsr.w     w0, #0x2, w0
    2ae2:	1e 0f 68    	xor.w     w0, [w14], [w14]
    v ^= v >> 1;
    2ae4:	1e 00 78    	mov.w     [w14], w0
    2ae6:	00 00 d1    	lsr.w     w0, w0
    2ae8:	1e 0f 68    	xor.w     w0, [w14], [w14]
    return v & 1;
    2aea:	1e 00 78    	mov.w     [w14], w0
    2aec:	00 40 78    	mov.b     w0, w0
    2aee:	61 40 60    	and.b     w0, #0x1, w0
}
    2af0:	00 80 fa    	ulnk      
    2af2:	00 00 06    	return    
Disassembly of section .dinit:

00002af4 <.dinit>:
    2af4:	52 10 00    	nop       
    2af6:	06 00 00    	nop       
    2af8:	80 00 00    	nop       
    2afa:	00 08 00    	nop       
    2afc:	1e 00 00    	nop       
    2afe:	80 00 00    	nop       
    2b00:	42 10 00    	nop       
    2b02:	10 00 00    	nop       
    2b04:	80 00 00    	nop       
    2b06:	1e 08 00    	nop       
    2b08:	0e 00 00    	nop       
    2b0a:	80 00 00    	nop       
    2b0c:	2e 08 00    	nop       
    2b0e:	14 08 00    	nop       
    2b10:	80 00 00    	nop       
    2b12:	2c 08 00    	nop       
    2b14:	02 00 00    	nop       
    2b16:	80 00 00    	nop       
    2b18:	00 00 00    	nop       
Disassembly of section .isr:

00002b1a <__DefaultInterrupt>:
    2b1a:	00 40 da    	break     
    2b1c:	00 00 fe    	reset     
