
codeword.elf:     file format elf32-pic30

Disassembly of section .aivt._AltADC1Interrupt:

0000012e <.aivt._AltADC1Interrupt>:
 12e:	ba 2a 00    	nop       
Disassembly of section .aivt._AltAddressError:

00000108 <.aivt._AltAddressError>:
 108:	ba 2a 00    	nop       
Disassembly of section .aivt._AltCNInterrupt:

0000013a <.aivt._AltCNInterrupt>:
 13a:	ba 2a 00    	nop       
Disassembly of section .aivt._AltCRCInterrupt:

0000019a <.aivt._AltCRCInterrupt>:
 19a:	ba 2a 00    	nop       
Disassembly of section .aivt._AltCTMUInterrupt:

000001ae <.aivt._AltCTMUInterrupt>:
 1ae:	ba 2a 00    	nop       
Disassembly of section .aivt._AltCompInterrupt:

00000138 <.aivt._AltCompInterrupt>:
 138:	ba 2a 00    	nop       
Disassembly of section .aivt._AltIC1Interrupt:

00000116 <.aivt._AltIC1Interrupt>:
 116:	ba 2a 00    	nop       
Disassembly of section .aivt._AltIC2Interrupt:

0000011e <.aivt._AltIC2Interrupt>:
 11e:	ba 2a 00    	nop       
Disassembly of section .aivt._AltIC3Interrupt:

0000015e <.aivt._AltIC3Interrupt>:
 15e:	ba 2a 00    	nop       
Disassembly of section .aivt._AltIC4Interrupt:

00000160 <.aivt._AltIC4Interrupt>:
 160:	ba 2a 00    	nop       
Disassembly of section .aivt._AltIC5Interrupt:

00000162 <.aivt._AltIC5Interrupt>:
 162:	ba 2a 00    	nop       
Disassembly of section .aivt._AltIC6Interrupt:

00000164 <.aivt._AltIC6Interrupt>:
 164:	ba 2a 00    	nop       
Disassembly of section .aivt._AltIC7Interrupt:

00000140 <.aivt._AltIC7Interrupt>:
 140:	ba 2a 00    	nop       
Disassembly of section .aivt._AltIC8Interrupt:

00000142 <.aivt._AltIC8Interrupt>:
 142:	ba 2a 00    	nop       
Disassembly of section .aivt._AltIC9Interrupt:

000001ce <.aivt._AltIC9Interrupt>:
 1ce:	ba 2a 00    	nop       
Disassembly of section .aivt._AltINT0Interrupt:

00000114 <.aivt._AltINT0Interrupt>:
 114:	ba 2a 00    	nop       
Disassembly of section .aivt._AltINT1Interrupt:

0000013c <.aivt._AltINT1Interrupt>:
 13c:	ba 2a 00    	nop       
Disassembly of section .aivt._AltINT2Interrupt:

0000014e <.aivt._AltINT2Interrupt>:
 14e:	ba 2a 00    	nop       
Disassembly of section .aivt._AltINT3Interrupt:

0000017e <.aivt._AltINT3Interrupt>:
 17e:	ba 2a 00    	nop       
Disassembly of section .aivt._AltINT4Interrupt:

00000180 <.aivt._AltINT4Interrupt>:
 180:	ba 2a 00    	nop       
Disassembly of section .aivt._AltInterrupt14:

00000130 <.aivt._AltInterrupt14>:
 130:	ba 2a 00    	nop       
Disassembly of section .aivt._AltInterrupt15:

00000132 <.aivt._AltInterrupt15>:
 132:	ba 2a 00    	nop       
Disassembly of section .aivt._AltInterrupt21:

0000013e <.aivt._AltInterrupt21>:
 13e:	ba 2a 00    	nop       
Disassembly of section .aivt._AltInterrupt24:

00000144 <.aivt._AltInterrupt24>:
 144:	ba 2a 00    	nop       
Disassembly of section .aivt._AltInterrupt34:

00000158 <.aivt._AltInterrupt34>:
 158:	ba 2a 00    	nop       
Disassembly of section .aivt._AltInterrupt35:

0000015a <.aivt._AltInterrupt35>:
 15a:	ba 2a 00    	nop       
Disassembly of section .aivt._AltInterrupt36:

0000015c <.aivt._AltInterrupt36>:
 15c:	ba 2a 00    	nop       
Disassembly of section .aivt._AltInterrupt4:

0000011c <.aivt._AltInterrupt4>:
 11c:	ba 2a 00    	nop       
Disassembly of section .aivt._AltInterrupt46:

00000170 <.aivt._AltInterrupt46>:
 170:	ba 2a 00    	nop       
Disassembly of section .aivt._AltInterrupt47:

00000172 <.aivt._AltInterrupt47>:
 172:	ba 2a 00    	nop       
Disassembly of section .aivt._AltInterrupt48:

00000174 <.aivt._AltInterrupt48>:
 174:	ba 2a 00    	nop       
Disassembly of section .aivt._AltInterrupt51:

0000017a <.aivt._AltInterrupt51>:
 17a:	ba 2a 00    	nop       
Disassembly of section .aivt._AltInterrupt52:

0000017c <.aivt._AltInterrupt52>:
 17c:	ba 2a 00    	nop       
Disassembly of section .aivt._AltInterrupt55:

00000182 <.aivt._AltInterrupt55>:
 182:	ba 2a 00    	nop       
Disassembly of section .aivt._AltInterrupt56:

00000184 <.aivt._AltInterrupt56>:
 184:	ba 2a 00    	nop       
Disassembly of section .aivt._AltInterrupt57:

00000186 <.aivt._AltInterrupt57>:
 186:	ba 2a 00    	nop       
Disassembly of section .aivt._AltInterrupt58:

00000188 <.aivt._AltInterrupt58>:
 188:	ba 2a 00    	nop       
Disassembly of section .aivt._AltInterrupt59:

0000018a <.aivt._AltInterrupt59>:
 18a:	ba 2a 00    	nop       
Disassembly of section .aivt._AltInterrupt60:

0000018c <.aivt._AltInterrupt60>:
 18c:	ba 2a 00    	nop       
Disassembly of section .aivt._AltInterrupt61:

0000018e <.aivt._AltInterrupt61>:
 18e:	ba 2a 00    	nop       
Disassembly of section .aivt._AltInterrupt63:

00000192 <.aivt._AltInterrupt63>:
 192:	ba 2a 00    	nop       
Disassembly of section .aivt._AltInterrupt64:

00000194 <.aivt._AltInterrupt64>:
 194:	ba 2a 00    	nop       
Disassembly of section .aivt._AltInterrupt68:

0000019c <.aivt._AltInterrupt68>:
 19c:	ba 2a 00    	nop       
Disassembly of section .aivt._AltInterrupt69:

0000019e <.aivt._AltInterrupt69>:
 19e:	ba 2a 00    	nop       
Disassembly of section .aivt._AltInterrupt70:

000001a0 <.aivt._AltInterrupt70>:
 1a0:	ba 2a 00    	nop       
Disassembly of section .aivt._AltInterrupt71:

000001a2 <.aivt._AltInterrupt71>:
 1a2:	ba 2a 00    	nop       
Disassembly of section .aivt._AltInterrupt73:

000001a6 <.aivt._AltInterrupt73>:
 1a6:	ba 2a 00    	nop       
Disassembly of section .aivt._AltInterrupt74:

000001a8 <.aivt._AltInterrupt74>:
 1a8:	ba 2a 00    	nop       
Disassembly of section .aivt._AltInterrupt75:

000001aa <.aivt._AltInterrupt75>:
 1aa:	ba 2a 00    	nop       
Disassembly of section .aivt._AltInterrupt76:

000001ac <.aivt._AltInterrupt76>:
 1ac:	ba 2a 00    	nop       
Disassembly of section .aivt._AltInterrupt78:

000001b0 <.aivt._AltInterrupt78>:
 1b0:	ba 2a 00    	nop       
Disassembly of section .aivt._AltInterrupt79:

000001b2 <.aivt._AltInterrupt79>:
 1b2:	ba 2a 00    	nop       
Disassembly of section .aivt._AltInterrupt80:

000001b4 <.aivt._AltInterrupt80>:
 1b4:	ba 2a 00    	nop       
Disassembly of section .aivt._AltLVDInterrupt:

000001a4 <.aivt._AltLVDInterrupt>:
 1a4:	ba 2a 00    	nop       
Disassembly of section .aivt._AltMI2C1Interrupt:

00000136 <.aivt._AltMI2C1Interrupt>:
 136:	ba 2a 00    	nop       
Disassembly of section .aivt._AltMI2C2Interrupt:

00000178 <.aivt._AltMI2C2Interrupt>:
 178:	ba 2a 00    	nop       
Disassembly of section .aivt._AltMI2C3Interrupt:

000001be <.aivt._AltMI2C3Interrupt>:
 1be:	ba 2a 00    	nop       
Disassembly of section .aivt._AltMathError:

0000010c <.aivt._AltMathError>:
 10c:	ba 2a 00    	nop       
Disassembly of section .aivt._AltOC1Interrupt:

00000118 <.aivt._AltOC1Interrupt>:
 118:	ba 2a 00    	nop       
Disassembly of section .aivt._AltOC2Interrupt:

00000120 <.aivt._AltOC2Interrupt>:
 120:	ba 2a 00    	nop       
Disassembly of section .aivt._AltOC3Interrupt:

00000146 <.aivt._AltOC3Interrupt>:
 146:	ba 2a 00    	nop       
Disassembly of section .aivt._AltOC4Interrupt:

00000148 <.aivt._AltOC4Interrupt>:
 148:	ba 2a 00    	nop       
Disassembly of section .aivt._AltOC5Interrupt:

00000166 <.aivt._AltOC5Interrupt>:
 166:	ba 2a 00    	nop       
Disassembly of section .aivt._AltOC6Interrupt:

00000168 <.aivt._AltOC6Interrupt>:
 168:	ba 2a 00    	nop       
Disassembly of section .aivt._AltOC7Interrupt:

0000016a <.aivt._AltOC7Interrupt>:
 16a:	ba 2a 00    	nop       
Disassembly of section .aivt._AltOC8Interrupt:

0000016c <.aivt._AltOC8Interrupt>:
 16c:	ba 2a 00    	nop       
Disassembly of section .aivt._AltOC9Interrupt:

000001cc <.aivt._AltOC9Interrupt>:
 1cc:	ba 2a 00    	nop       
Disassembly of section .aivt._AltOscillatorFail:

00000106 <.aivt._AltOscillatorFail>:
 106:	ba 2a 00    	nop       
Disassembly of section .aivt._AltPMPInterrupt:

0000016e <.aivt._AltPMPInterrupt>:
 16e:	ba 2a 00    	nop       
Disassembly of section .aivt._AltRTCCInterrupt:

00000190 <.aivt._AltRTCCInterrupt>:
 190:	ba 2a 00    	nop       
Disassembly of section .aivt._AltReservedTrap0:

00000104 <.aivt._AltReservedTrap0>:
 104:	ba 2a 00    	nop       
Disassembly of section .aivt._AltReservedTrap5:

0000010e <.aivt._AltReservedTrap5>:
 10e:	ba 2a 00    	nop       
Disassembly of section .aivt._AltReservedTrap6:

00000110 <.aivt._AltReservedTrap6>:
 110:	ba 2a 00    	nop       
Disassembly of section .aivt._AltReservedTrap7:

00000112 <.aivt._AltReservedTrap7>:
 112:	ba 2a 00    	nop       
Disassembly of section .aivt._AltSI2C1Interrupt:

00000134 <.aivt._AltSI2C1Interrupt>:
 134:	ba 2a 00    	nop       
Disassembly of section .aivt._AltSI2C2Interrupt:

00000176 <.aivt._AltSI2C2Interrupt>:
 176:	ba 2a 00    	nop       
Disassembly of section .aivt._AltSI2C3Interrupt:

000001bc <.aivt._AltSI2C3Interrupt>:
 1bc:	ba 2a 00    	nop       
Disassembly of section .aivt._AltSPI1ErrInterrupt:

00000126 <.aivt._AltSPI1ErrInterrupt>:
 126:	ba 2a 00    	nop       
Disassembly of section .aivt._AltSPI1Interrupt:

00000128 <.aivt._AltSPI1Interrupt>:
 128:	ba 2a 00    	nop       
Disassembly of section .aivt._AltSPI2ErrInterrupt:

00000154 <.aivt._AltSPI2ErrInterrupt>:
 154:	ba 2a 00    	nop       
Disassembly of section .aivt._AltSPI2Interrupt:

00000156 <.aivt._AltSPI2Interrupt>:
 156:	ba 2a 00    	nop       
Disassembly of section .aivt._AltSPI3ErrInterrupt:

000001c8 <.aivt._AltSPI3ErrInterrupt>:
 1c8:	ba 2a 00    	nop       
Disassembly of section .aivt._AltSPI3Interrupt:

000001ca <.aivt._AltSPI3Interrupt>:
 1ca:	ba 2a 00    	nop       
Disassembly of section .aivt._AltStackError:

0000010a <.aivt._AltStackError>:
 10a:	ba 2a 00    	nop       
Disassembly of section .aivt._AltT1Interrupt:

0000011a <.aivt._AltT1Interrupt>:
 11a:	ba 2a 00    	nop       
Disassembly of section .aivt._AltT2Interrupt:

00000122 <.aivt._AltT2Interrupt>:
 122:	ba 2a 00    	nop       
Disassembly of section .aivt._AltT3Interrupt:

00000124 <.aivt._AltT3Interrupt>:
 124:	ba 2a 00    	nop       
Disassembly of section .aivt._AltT4Interrupt:

0000014a <.aivt._AltT4Interrupt>:
 14a:	ba 2a 00    	nop       
Disassembly of section .aivt._AltT5Interrupt:

0000014c <.aivt._AltT5Interrupt>:
 14c:	ba 2a 00    	nop       
Disassembly of section .aivt._AltU1ErrInterrupt:

00000196 <.aivt._AltU1ErrInterrupt>:
 196:	ba 2a 00    	nop       
Disassembly of section .aivt._AltU1RXInterrupt:

0000012a <.aivt._AltU1RXInterrupt>:
 12a:	ba 2a 00    	nop       
Disassembly of section .aivt._AltU1TXInterrupt:

0000012c <.aivt._AltU1TXInterrupt>:
 12c:	ba 2a 00    	nop       
Disassembly of section .aivt._AltU2ErrInterrupt:

00000198 <.aivt._AltU2ErrInterrupt>:
 198:	ba 2a 00    	nop       
Disassembly of section .aivt._AltU2RXInterrupt:

00000150 <.aivt._AltU2RXInterrupt>:
 150:	ba 2a 00    	nop       
Disassembly of section .aivt._AltU2TXInterrupt:

00000152 <.aivt._AltU2TXInterrupt>:
 152:	ba 2a 00    	nop       
Disassembly of section .aivt._AltU3ErrInterrupt:

000001b6 <.aivt._AltU3ErrInterrupt>:
 1b6:	ba 2a 00    	nop       
Disassembly of section .aivt._AltU3RXInterrupt:

000001b8 <.aivt._AltU3RXInterrupt>:
 1b8:	ba 2a 00    	nop       
Disassembly of section .aivt._AltU3TXInterrupt:

000001ba <.aivt._AltU3TXInterrupt>:
 1ba:	ba 2a 00    	nop       
Disassembly of section .aivt._AltU4ErrInterrupt:

000001c2 <.aivt._AltU4ErrInterrupt>:
 1c2:	ba 2a 00    	nop       
Disassembly of section .aivt._AltU4RXInterrupt:

000001c4 <.aivt._AltU4RXInterrupt>:
 1c4:	ba 2a 00    	nop       
Disassembly of section .aivt._AltU4TXInterrupt:

000001c6 <.aivt._AltU4TXInterrupt>:
 1c6:	ba 2a 00    	nop       
Disassembly of section .aivt._AltUSB1Interrupt:

000001c0 <.aivt._AltUSB1Interrupt>:
 1c0:	ba 2a 00    	nop       
Disassembly of section .reset:

00000000 <.reset>:
   0:	10 11 04    	goto      0x1110 <__reset>
   2:	00 00 00 
Disassembly of section .text:

00001110 <__reset>:
    1110:	6f 05 21    	mov.w     #0x1056, w15
    1112:	0e ff 27    	mov.w     #0x7ff0, w14
    1114:	0e 01 88    	mov.w     w14, 0x20
    1116:	00 00 00    	nop       
    1118:	00 00 20    	mov.w     #0x0, w0
    111a:	00 00 e0    	cp0.w     w0
    111c:	02 00 32    	bra       Z, 0x1122 <CORCON_RESET>
    111e:	00 01 20    	mov.w     #0x10, w0
    1120:	20 02 88    	mov.w     w0, 0x44

00001122 <CORCON_RESET>:
    1122:	14 00 07    	rcall     0x114c <__psv_init>
    1124:	81 00 07    	rcall     0x1228 <__crt_start_mode> <__crt_start_mode_normal>
    1126:	00 00 e0    	cp0.w     w0
    1128:	03 00 3a    	bra       NZ, 0x1130 <L11>
    112a:	40 a9 22    	mov.w     #0x2a94, w0
    112c:	01 00 20    	mov.w     #0x0, w1
    112e:	02 00 37    	bra       0x1134 <L21>

00001130 <L11>:
    1130:	00 00 20    	mov.w     #0x0, w0
    1132:	01 00 20    	mov.w     #0x0, w1

00001134 <L21>:
    1134:	81 0f 70    	ior.w     w0, w1, [w15]
    1136:	01 00 32    	bra       Z, 0x113a <L12>
    1138:	14 00 07    	rcall     0x1162 <__data_init> <__data_init_da>

0000113a <L12>:
    113a:	00 00 20    	mov.w     #0x0, w0
    113c:	00 00 e0    	cp0.w     w0
    113e:	02 00 32    	bra       Z, 0x1144 <L13>
    1140:	00 00 02    	call      0x0 <__DEFAULT_VECTOR-0x110c>
    1142:	00 00 00 

00001144 <L13>:
    1144:	d4 15 02    	call      0x15d4 <_main>
    1146:	00 00 00 
    1148:	00 40 da    	break     
    114a:	00 00 fe    	reset     

0000114c <__psv_init>:
    114c:	44 40 a9    	bclr.b    0x44, #0x2
    114e:	a0 3a 20    	mov.w     #0x3aa, w0
    1150:	00 00 e0    	cp0.w     w0
    1152:	03 00 32    	bra       Z, 0x115a <L14>
    1154:	00 20 20    	mov.w     #0x200, w0
    1156:	90 01 88    	mov.w     w0, 0x32
    1158:	44 40 a8    	bset.b    0x44, #0x2

0000115a <L14>:
    115a:	00 00 06    	return    

0000115c <__long_indirect_call>:
    115c:	8a 1f 78    	mov.w     w10, [w15++]
    115e:	8b 1f 78    	mov.w     w11, [w15++]
    1160:	00 00 06    	return    

00001162 <__data_init>:
    1162:	a1 02 88    	mov.w     w1, 0x54
    1164:	80 04 78    	mov.w     w0, w9
    1166:	00 00 eb    	clr.w     w0
    1168:	1f 00 37    	bra       0x11a8 <L41>

0000116a <L11>:
    116a:	e2 84 44    	add.w     w9, #0x2, w9
    116c:	54 a0 b4    	addc.w    0x54
    116e:	99 05 ba    	tblrdl.w  [w9], w11
    1170:	e2 84 44    	add.w     w9, #0x2, w9
    1172:	54 a0 b4    	addc.w    0x54
    1174:	99 06 ba    	tblrdl.w  [w9], w13
    1176:	e2 84 44    	add.w     w9, #0x2, w9
    1178:	54 a0 b4    	addc.w    0x54
    117a:	00 06 eb    	clr.w     w12
    117c:	47 6f de    	lsr.w     w13, #0x7, w14
    117e:	fd 07 b2    	and.w     #0x7f, w13
    1180:	ae 01 88    	mov.w     w14, 0x34
    1182:	63 6c e1    	cp.b      w13, #0x3
    1184:	03 00 3a    	bra       NZ, 0x118c <L21>
    1186:	ea ff 07    	rcall     0x115c <__long_indirect_call>
    1188:	00 00 eb    	clr.w     w0
    118a:	0e 00 37    	bra       0x11a8 <L41>

0000118c <L21>:
    118c:	60 6c e1    	cp.b      w13, #0x0
    118e:	08 00 3a    	bra       NZ, 0x11a0 <L22>

00001190 <L91>:
    1190:	00 4d eb    	clr.b     [w10]
    1192:	0a 05 e8    	inc.w     w10, w10
    1194:	02 00 39    	bra       NC, 0x119a <L81>
    1196:	34 20 ec    	inc.w     0x34
    1198:	0a f0 a0    	bset.w    w10, #0xf

0000119a <L81>:
    119a:	8b 05 e9    	dec.w     w11, w11
    119c:	f9 ff 3e    	bra       GTU, 0x1190 <L91>
    119e:	04 00 37    	bra       0x11a8 <L41>

000011a0 <L22>:
    11a0:	61 68 e1    	cp.w      w13, #0x1
    11a2:	01 00 32    	bra       Z, 0x11a6 <L31>
    11a4:	00 86 eb    	setm.w    w12

000011a6 <L31>:
    11a6:	0b 00 07    	rcall     0x11be <L13> <__memcpyd3extended>

000011a8 <L41>:
    11a8:	19 c7 ba    	tblrdh.b  [w9], w14
    11aa:	19 05 ba    	tblrdl.w  [w9], w10
    11ac:	0e 04 e0    	cp0.b     w14
    11ae:	03 00 3a    	bra       NZ, 0x11b6 <L12>
    11b0:	0a 00 e0    	cp0.w     w10
    11b2:	db ff 3a    	bra       NZ, 0x116a <L11>
    11b4:	00 00 06    	return    

000011b6 <L12>:
    11b6:	fe 07 b2    	and.w     #0x7f, w14
    11b8:	ae 02 88    	mov.w     w14, 0x54
    11ba:	8a 04 78    	mov.w     w10, w9
    11bc:	f5 ff 37    	bra       0x11a8 <L41>

000011be <L13>:
    11be:	0c d0 a3    	btst.c    w12, #0xd
    11c0:	e2 0f 4d    	addc.w    w10, #0x2, [w15]
    11c2:	1c 00 39    	bra       NC, 0x11fc <L23>
    11c4:	89 02 78    	mov.w     w9, w5
    11c6:	35 4d ba    	tblrdl.b  [w5++], [w10]
    11c8:	0a 05 e8    	inc.w     w10, w10
    11ca:	02 00 39    	bra       NC, 0x11d0 <L32>
    11cc:	34 20 ec    	inc.w     0x34
    11ce:	0a f0 a0    	bset.w    w10, #0xf

000011d0 <L32>:
    11d0:	8b 05 e9    	dec.w     w11, w11
    11d2:	0f 00 32    	bra       Z, 0x11f2 <L42>
    11d4:	25 4d ba    	tblrdl.b  [w5--], [w10]
    11d6:	0a 05 e8    	inc.w     w10, w10
    11d8:	02 00 39    	bra       NC, 0x11de <L33>
    11da:	34 20 ec    	inc.w     0x34
    11dc:	0a f0 a0    	bset.w    w10, #0xf

000011de <L33>:
    11de:	8b 05 e9    	dec.w     w11, w11
    11e0:	08 00 32    	bra       Z, 0x11f2 <L42>
    11e2:	0c 00 e0    	cp0.w     w12
    11e4:	06 00 32    	bra       Z, 0x11f2 <L42>
    11e6:	15 cd ba    	tblrdh.b  [w5], [w10]
    11e8:	0a 05 e8    	inc.w     w10, w10
    11ea:	02 00 39    	bra       NC, 0x11f0 <L34>
    11ec:	34 20 ec    	inc.w     0x34
    11ee:	0a f0 a0    	bset.w    w10, #0xf

000011f0 <L34>:
    11f0:	8b 05 e9    	dec.w     w11, w11

000011f2 <L42>:
    11f2:	89 84 e8    	inc2.w    w9, w9
    11f4:	54 a0 b4    	addc.w    0x54
    11f6:	0b 00 e0    	cp0.w     w11
    11f8:	e2 ff 3a    	bra       NZ, 0x11be <L13> <__memcpyd3extended>
    11fa:	00 00 06    	return    

000011fc <L23>:
    11fc:	99 02 ba    	tblrdl.w  [w9], w5
    11fe:	05 5d 78    	mov.b     w5, [w10++]
    1200:	8b 05 e9    	dec.w     w11, w11
    1202:	f7 ff 32    	bra       Z, 0x11f2 <L42>
    1204:	c8 2a de    	lsr.w     w5, #0x8, w5
    1206:	05 5d 78    	mov.b     w5, [w10++]
    1208:	8b 05 e9    	dec.w     w11, w11
    120a:	f3 ff 32    	bra       Z, 0x11f2 <L42>
    120c:	0c 00 e0    	cp0.w     w12
    120e:	f1 ff 32    	bra       Z, 0x11f2 <L42>
    1210:	19 dd ba    	tblrdh.b  [w9], [w10++]
    1212:	ee ff 37    	bra       0x11f0 <L34>

00001214 <.handle>:
    1214:	72 18 04    	goto      0x1872 <_setup>
    1216:	00 00 00 
    1218:	ac 18 04    	goto      0x18ac <_run>
    121a:	00 00 00 
    121c:	6c 19 04    	goto      0x196c <_solved>
    121e:	00 00 00 
    1220:	ba 19 04    	goto      0x19ba <_end_win>
    1222:	00 00 00 
    1224:	e2 19 04    	goto      0x19e2 <_end_fail>
    1226:	00 00 00 

00001228 <__crt_start_mode>:
    1228:	00 00 05    	retlw.w   #0x0, w0
Disassembly of section .application_ivt:

00001000 <__DEFAULT_VECTOR-0x10c>:
    1000:	10 11 04    	goto      0x1110 <__reset>
    1002:	00 00 00 
    1004:	ba 2a 04    	goto      0x2aba <__DefaultInterrupt>
    1006:	00 00 00 
    1008:	ba 2a 04    	goto      0x2aba <__DefaultInterrupt>
    100a:	00 00 00 
    100c:	ba 2a 04    	goto      0x2aba <__DefaultInterrupt>
    100e:	00 00 00 
    1010:	ba 2a 04    	goto      0x2aba <__DefaultInterrupt>
    1012:	00 00 00 
    1014:	ba 2a 04    	goto      0x2aba <__DefaultInterrupt>
    1016:	00 00 00 
    1018:	ba 2a 04    	goto      0x2aba <__DefaultInterrupt>
    101a:	00 00 00 
    101c:	ba 2a 04    	goto      0x2aba <__DefaultInterrupt>
    101e:	00 00 00 
    1020:	ba 2a 04    	goto      0x2aba <__DefaultInterrupt>
    1022:	00 00 00 
    1024:	ba 2a 04    	goto      0x2aba <__DefaultInterrupt>
    1026:	00 00 00 
    1028:	ba 2a 04    	goto      0x2aba <__DefaultInterrupt>
    102a:	00 00 00 
    102c:	ba 2a 04    	goto      0x2aba <__DefaultInterrupt>
    102e:	00 00 00 
    1030:	18 27 04    	goto      0x2718 <__T2Interrupt>
    1032:	00 00 00 
    1034:	ba 2a 04    	goto      0x2aba <__DefaultInterrupt>
    1036:	00 00 00 
    1038:	ba 2a 04    	goto      0x2aba <__DefaultInterrupt>
    103a:	00 00 00 
    103c:	ba 2a 04    	goto      0x2aba <__DefaultInterrupt>
    103e:	00 00 00 
    1040:	9e 29 04    	goto      0x299e <__U1RXInterrupt>
    1042:	00 00 00 
    1044:	3c 29 04    	goto      0x293c <__U1TXInterrupt>
    1046:	00 00 00 
    1048:	ba 2a 04    	goto      0x2aba <__DefaultInterrupt>
    104a:	00 00 00 
    104c:	ba 2a 04    	goto      0x2aba <__DefaultInterrupt>
    104e:	00 00 00 
    1050:	ba 2a 04    	goto      0x2aba <__DefaultInterrupt>
    1052:	00 00 00 
    1054:	ba 2a 04    	goto      0x2aba <__DefaultInterrupt>
    1056:	00 00 00 
    1058:	f4 26 04    	goto      0x26f4 <__CNInterrupt>
    105a:	00 00 00 
    105c:	ba 2a 04    	goto      0x2aba <__DefaultInterrupt>
    105e:	00 00 00 
    1060:	ba 2a 04    	goto      0x2aba <__DefaultInterrupt>
    1062:	00 00 00 
    1064:	ba 2a 04    	goto      0x2aba <__DefaultInterrupt>
    1066:	00 00 00 
    1068:	ba 2a 04    	goto      0x2aba <__DefaultInterrupt>
    106a:	00 00 00 
    106c:	ba 2a 04    	goto      0x2aba <__DefaultInterrupt>
    106e:	00 00 00 
    1070:	ba 2a 04    	goto      0x2aba <__DefaultInterrupt>
    1072:	00 00 00 
    1074:	ba 2a 04    	goto      0x2aba <__DefaultInterrupt>
    1076:	00 00 00 
    1078:	ba 2a 04    	goto      0x2aba <__DefaultInterrupt>
    107a:	00 00 00 
    107c:	ba 2a 04    	goto      0x2aba <__DefaultInterrupt>
    107e:	00 00 00 
    1080:	ba 2a 04    	goto      0x2aba <__DefaultInterrupt>
    1082:	00 00 00 
    1084:	ba 2a 04    	goto      0x2aba <__DefaultInterrupt>
    1086:	00 00 00 
    1088:	ba 2a 04    	goto      0x2aba <__DefaultInterrupt>
    108a:	00 00 00 
    108c:	ba 2a 04    	goto      0x2aba <__DefaultInterrupt>
    108e:	00 00 00 
    1090:	ba 2a 04    	goto      0x2aba <__DefaultInterrupt>
    1092:	00 00 00 
    1094:	ba 2a 04    	goto      0x2aba <__DefaultInterrupt>
    1096:	00 00 00 
    1098:	ba 2a 04    	goto      0x2aba <__DefaultInterrupt>
    109a:	00 00 00 
    109c:	ba 2a 04    	goto      0x2aba <__DefaultInterrupt>
    109e:	00 00 00 
    10a0:	ba 2a 04    	goto      0x2aba <__DefaultInterrupt>
    10a2:	00 00 00 
    10a4:	ba 2a 04    	goto      0x2aba <__DefaultInterrupt>
    10a6:	00 00 00 
    10a8:	ba 2a 04    	goto      0x2aba <__DefaultInterrupt>
    10aa:	00 00 00 
    10ac:	ba 2a 04    	goto      0x2aba <__DefaultInterrupt>
    10ae:	00 00 00 
    10b0:	6c 28 04    	goto      0x286c <__SI2C2Interrupt>
    10b2:	00 00 00 
    10b4:	ba 2a 04    	goto      0x2aba <__DefaultInterrupt>
    10b6:	00 00 00 
    10b8:	ba 2a 04    	goto      0x2aba <__DefaultInterrupt>
    10ba:	00 00 00 
    10bc:	ba 2a 04    	goto      0x2aba <__DefaultInterrupt>
    10be:	00 00 00 
    10c0:	ba 2a 04    	goto      0x2aba <__DefaultInterrupt>
    10c2:	00 00 00 
    10c4:	ba 2a 04    	goto      0x2aba <__DefaultInterrupt>
    10c6:	00 00 00 
    10c8:	ba 2a 04    	goto      0x2aba <__DefaultInterrupt>
    10ca:	00 00 00 
    10cc:	ba 2a 04    	goto      0x2aba <__DefaultInterrupt>
    10ce:	00 00 00 
    10d0:	ba 2a 04    	goto      0x2aba <__DefaultInterrupt>
    10d2:	00 00 00 
    10d4:	ba 2a 04    	goto      0x2aba <__DefaultInterrupt>
    10d6:	00 00 00 
    10d8:	ba 2a 04    	goto      0x2aba <__DefaultInterrupt>
    10da:	00 00 00 
    10dc:	ba 2a 04    	goto      0x2aba <__DefaultInterrupt>
    10de:	00 00 00 
    10e0:	ba 2a 04    	goto      0x2aba <__DefaultInterrupt>
    10e2:	00 00 00 
    10e4:	ba 2a 04    	goto      0x2aba <__DefaultInterrupt>
    10e6:	00 00 00 
    10e8:	ba 2a 04    	goto      0x2aba <__DefaultInterrupt>
    10ea:	00 00 00 
    10ec:	ba 2a 04    	goto      0x2aba <__DefaultInterrupt>
    10ee:	00 00 00 
    10f0:	ba 2a 04    	goto      0x2aba <__DefaultInterrupt>
    10f2:	00 00 00 
    10f4:	ba 2a 04    	goto      0x2aba <__DefaultInterrupt>
    10f6:	00 00 00 
    10f8:	ba 2a 04    	goto      0x2aba <__DefaultInterrupt>
    10fa:	00 00 00 
    10fc:	ba 2a 04    	goto      0x2aba <__DefaultInterrupt>
    10fe:	00 00 00 
    1100:	ba 2a 04    	goto      0x2aba <__DefaultInterrupt>
    1102:	00 00 00 
    1104:	ba 2a 04    	goto      0x2aba <__DefaultInterrupt>
    1106:	00 00 00 
    1108:	ba 2a 04    	goto      0x2aba <__DefaultInterrupt>
    110a:	00 00 00 

0000110c <__DEFAULT_VECTOR>:
    110c:	ba 2a 04    	goto      0x2aba <__DefaultInterrupt>
    110e:	00 00 00 
Disassembly of section .ivt:

00000004 <.ivt>:
   4:	04 10 00    	nop       
   6:	08 10 00    	nop       
   8:	0c 10 00    	nop       
   a:	10 10 00    	nop       
   c:	14 10 00    	nop       
   e:	0c 11 00    	nop       
  10:	0c 11 00    	nop       
  12:	0c 11 00    	nop       
  14:	18 10 00    	nop       
  16:	1c 10 00    	nop       
  18:	20 10 00    	nop       
  1a:	24 10 00    	nop       
  1c:	0c 11 00    	nop       
  1e:	28 10 00    	nop       
  20:	2c 10 00    	nop       
  22:	30 10 00    	nop       
  24:	34 10 00    	nop       
  26:	38 10 00    	nop       
  28:	3c 10 00    	nop       
  2a:	40 10 00    	nop       
  2c:	44 10 00    	nop       
  2e:	48 10 00    	nop       
  30:	0c 11 00    	nop       
  32:	0c 11 00    	nop       
  34:	4c 10 00    	nop       
  36:	50 10 00    	nop       
  38:	54 10 00    	nop       
  3a:	58 10 00    	nop       
  3c:	5c 10 00    	nop       
  3e:	0c 11 00    	nop       
  40:	60 10 00    	nop       
  42:	64 10 00    	nop       
  44:	0c 11 00    	nop       
  46:	68 10 00    	nop       
  48:	6c 10 00    	nop       
  4a:	70 10 00    	nop       
  4c:	74 10 00    	nop       
  4e:	78 10 00    	nop       
  50:	7c 10 00    	nop       
  52:	80 10 00    	nop       
  54:	84 10 00    	nop       
  56:	88 10 00    	nop       
  58:	0c 11 00    	nop       
  5a:	0c 11 00    	nop       
  5c:	0c 11 00    	nop       
  5e:	8c 10 00    	nop       
  60:	90 10 00    	nop       
  62:	94 10 00    	nop       
  64:	98 10 00    	nop       
  66:	9c 10 00    	nop       
  68:	a0 10 00    	nop       
  6a:	a4 10 00    	nop       
  6c:	a8 10 00    	nop       
  6e:	ac 10 00    	nop       
  70:	0c 11 00    	nop       
  72:	0c 11 00    	nop       
  74:	0c 11 00    	nop       
  76:	b0 10 00    	nop       
  78:	b4 10 00    	nop       
  7a:	0c 11 00    	nop       
  7c:	0c 11 00    	nop       
  7e:	b8 10 00    	nop       
  80:	bc 10 00    	nop       
  82:	0c 11 00    	nop       
  84:	0c 11 00    	nop       
  86:	0c 11 00    	nop       
  88:	0c 11 00    	nop       
  8a:	0c 11 00    	nop       
  8c:	0c 11 00    	nop       
  8e:	0c 11 00    	nop       
  90:	c0 10 00    	nop       
  92:	0c 11 00    	nop       
  94:	0c 11 00    	nop       
  96:	c4 10 00    	nop       
  98:	c8 10 00    	nop       
  9a:	cc 10 00    	nop       
  9c:	0c 11 00    	nop       
  9e:	0c 11 00    	nop       
  a0:	0c 11 00    	nop       
  a2:	0c 11 00    	nop       
  a4:	d0 10 00    	nop       
  a6:	0c 11 00    	nop       
  a8:	0c 11 00    	nop       
  aa:	0c 11 00    	nop       
  ac:	0c 11 00    	nop       
  ae:	d4 10 00    	nop       
  b0:	0c 11 00    	nop       
  b2:	0c 11 00    	nop       
  b4:	0c 11 00    	nop       
  b6:	d8 10 00    	nop       
  b8:	dc 10 00    	nop       
  ba:	e0 10 00    	nop       
  bc:	e4 10 00    	nop       
  be:	e8 10 00    	nop       
  c0:	ec 10 00    	nop       
  c2:	f0 10 00    	nop       
  c4:	f4 10 00    	nop       
  c6:	f8 10 00    	nop       
  c8:	fc 10 00    	nop       
  ca:	00 11 00    	nop       
  cc:	04 11 00    	nop       
  ce:	08 11 00    	nop       
  d0:	0c 11 00    	nop       
  d2:	0c 11 00    	nop       
  d4:	0c 11 00    	nop       
  d6:	0c 11 00    	nop       
  d8:	0c 11 00    	nop       
  da:	0c 11 00    	nop       
  dc:	0c 11 00    	nop       
  de:	0c 11 00    	nop       
  e0:	0c 11 00    	nop       
  e2:	0c 11 00    	nop       
  e4:	0c 11 00    	nop       
  e6:	0c 11 00    	nop       
  e8:	0c 11 00    	nop       
  ea:	0c 11 00    	nop       
  ec:	0c 11 00    	nop       
  ee:	0c 11 00    	nop       
  f0:	0c 11 00    	nop       
  f2:	0c 11 00    	nop       
  f4:	0c 11 00    	nop       
  f6:	0c 11 00    	nop       
  f8:	0c 11 00    	nop       
  fa:	0c 11 00    	nop       
  fc:	0c 11 00    	nop       
  fe:	0c 11 00    	nop       
Disassembly of section .const:

0000922a <.LC2-0x2ee>:
    922a:	61 62       	.word 0x6261
    922c:	6f 75       	.word 0x756f
    922e:	74 00       	.word 0x74
    9230:	65 76       	.word 0x7665
    9232:	65 72       	.word 0x7265
    9234:	79 00       	.word 0x79
    9236:	6c 61       	.word 0x616c
    9238:	72 67       	.word 0x6772
    923a:	65 00       	.word 0x65
    923c:	70 6c       	.word 0x6c70
    923e:	61 6e       	.word 0x6e61
    9240:	74 00       	.word 0x74
    9242:	73 70       	.word 0x7073
    9244:	65 6c       	.word 0x6c65
    9246:	6c 00       	.word 0x6c
    9248:	74 68       	.word 0x6874
    924a:	65 73       	.word 0x7365
    924c:	65 00       	.word 0x65
    924e:	77 68       	.word 0x6877
    9250:	65 72       	.word 0x7265
    9252:	65 00       	.word 0x65
    9254:	61 66       	.word 0x6661
    9256:	74 65       	.word 0x6574
    9258:	72 00       	.word 0x72
    925a:	66 69       	.word 0x6966
    925c:	72 73       	.word 0x7372
    925e:	74 00       	.word 0x74
    9260:	6c 65       	.word 0x656c
    9262:	61 72       	.word 0x7261
    9264:	6e 00       	.word 0x6e
    9266:	70 6f       	.word 0x6f70
    9268:	69 6e       	.word 0x6e69
    926a:	74 00       	.word 0x74
    926c:	73 74       	.word 0x7473
    926e:	69 6c       	.word 0x6c69
    9270:	6c 00       	.word 0x6c
    9272:	74 68       	.word 0x6874
    9274:	69 6e       	.word 0x6e69
    9276:	67 00       	.word 0x67
    9278:	77 68       	.word 0x6877
    927a:	69 63       	.word 0x6369
    927c:	68 00       	.word 0x68
    927e:	61 67       	.word 0x6761
    9280:	61 69       	.word 0x6961
    9282:	6e 00       	.word 0x6e
    9284:	66 6f       	.word 0x6f66
    9286:	75 6e       	.word 0x6e75
    9288:	64 00       	.word 0x64
    928a:	6e 65       	.word 0x656e
    928c:	76 65       	.word 0x6576
    928e:	72 00       	.word 0x72
    9290:	72 69       	.word 0x6972
    9292:	67 68       	.word 0x6867
    9294:	74 00       	.word 0x74
    9296:	73 74       	.word 0x7473
    9298:	75 64       	.word 0x6475
    929a:	79 00       	.word 0x79
    929c:	74 68       	.word 0x6874
    929e:	69 6e       	.word 0x6e69
    92a0:	6b 00       	.word 0x6b
    92a2:	77 6f       	.word 0x6f77
    92a4:	72 6c       	.word 0x6c72
    92a6:	64 00       	.word 0x64
    92a8:	62 65       	.word 0x6562
    92aa:	6c 6f       	.word 0x6f6c
    92ac:	77 00       	.word 0x77
    92ae:	67 72       	.word 0x7267
    92b0:	65 61       	.word 0x6165
    92b2:	74 00       	.word 0x74
    92b4:	6f 74       	.word 0x746f
    92b6:	68 65       	.word 0x6568
    92b8:	72 00       	.word 0x72
    92ba:	73 6d       	.word 0x6d73
    92bc:	61 6c       	.word 0x6c61
    92be:	6c 00       	.word 0x6c
    92c0:	74 68       	.word 0x6874
    92c2:	65 69       	.word 0x6965
    92c4:	72 00       	.word 0x72
    92c6:	74 68       	.word 0x6874
    92c8:	72 65       	.word 0x6572
    92ca:	65 00       	.word 0x65
    92cc:	77 6f       	.word 0x6f77
    92ce:	75 6c       	.word 0x6c75
    92d0:	64 00       	.word 0x64
    92d2:	63 6f       	.word 0x6f63
    92d4:	75 6c       	.word 0x6c75
    92d6:	64 00       	.word 0x64
    92d8:	68 6f       	.word 0x6f68
    92da:	75 73       	.word 0x7375
    92dc:	65 00       	.word 0x65
    92de:	70 6c       	.word 0x6c70
    92e0:	61 63       	.word 0x6361
    92e2:	65 00       	.word 0x65
    92e4:	73 6f       	.word 0x6f73
    92e6:	75 6e       	.word 0x6e75
    92e8:	64 00       	.word 0x64
    92ea:	74 68       	.word 0x6874
    92ec:	65 72       	.word 0x7265
    92ee:	65 00       	.word 0x65
    92f0:	77 61       	.word 0x6177
    92f2:	74 65       	.word 0x6574
    92f4:	72 00       	.word 0x72
    92f6:	77 72       	.word 0x7277
    92f8:	69 74       	.word 0x7469
    92fa:	65 00       	.word 0x65
    92fc:	57 52       	.word 0x5257
    92fe:	49 54       	.word 0x5449
    9300:	45 47       	.word 0x4745
    9302:	59 51       	.word 0x5159
    9304:	57 56       	.word 0x5657
    9306:	4d 52       	.word 0x524d
    9308:	54 45       	.word 0x4554
    930a:	50 49       	.word 0x4950
    930c:	58 5a       	.word 0x5a58
    930e:	46 4d       	.word 0x4d46
    9310:	49 4a       	.word 0x4a49
    9312:	59 4a       	.word 0x4a59
    9314:	54 46       	.word 0x4654
    9316:	50 42       	.word 0x4250
    9318:	41 4d       	.word 0x4d41
    931a:	45 51       	.word 0x5145
    931c:	50 47       	.word 0x4750
    931e:	58 00       	.word 0x58
    9320:	53 54       	.word 0x5453
    9322:	49 4c       	.word 0x4c49
    9324:	4c 53       	.word 0x534c
    9326:	47 43       	.word 0x4347
    9328:	42 57       	.word 0x5742
    932a:	54 52       	.word 0x5254
    932c:	54 56       	.word 0x5654
    932e:	5a 53       	.word 0x535a
    9330:	4a 56       	.word 0x564a
    9332:	49 44       	.word 0x4449
    9334:	52 46       	.word 0x4652
    9336:	50 4c       	.word 0x4c50
    9338:	4a 4f       	.word 0x4f4a
    933a:	4b 55       	.word 0x554b
    933c:	53 49       	.word 0x4953
    933e:	4a 4c       	.word 0x4c4a
    9340:	41 46       	.word 0x4641
    9342:	5a 00       	.word 0x5a
    9344:	45 56       	.word 0x5645
    9346:	45 52       	.word 0x5245
    9348:	59 4b       	.word 0x4b59
    934a:	45 58       	.word 0x5845
    934c:	4d 59       	.word 0x594d
    934e:	5a 4d       	.word 0x4d5a
    9350:	53 43       	.word 0x4353
    9352:	54 56       	.word 0x5654
    9354:	50 41       	.word 0x4150
    9356:	47 4e       	.word 0x4e47
    9358:	44 45       	.word 0x4544
    935a:	46 44       	.word 0x4446
    935c:	48 45       	.word 0x4548
    935e:	52 51       	.word 0x5152
    9360:	4a 48       	.word 0x484a
    9362:	4d 57       	.word 0x574d
    9364:	4e 59       	.word 0x594e
    9366:	58 00       	.word 0x58
    9368:	57 4f       	.word 0x4f57
    936a:	52 4c       	.word 0x4c52
    936c:	44 47       	.word 0x4744
    936e:	57 51       	.word 0x5157
    9370:	41 50       	.word 0x5041
    9372:	4e 57       	.word 0x574e
    9374:	45 4f       	.word 0x4f45
    9376:	4b 4d       	.word 0x4d4b
    9378:	51 51       	.word 0x5151
    937a:	57 52       	.word 0x5257
    937c:	5a 59       	.word 0x595a
    937e:	4a 50       	.word 0x504a
    9380:	44 4c       	.word 0x4c44
    9382:	4a 42       	.word 0x424a
    9384:	49 4e       	.word 0x4e49
    9386:	53 49       	.word 0x4953
    9388:	43 44       	.word 0x4443
    938a:	48 00       	.word 0x48
    938c:	57 52       	.word 0x5257
    938e:	49 54       	.word 0x5449
    9390:	45 47       	.word 0x4745
    9392:	57 4a       	.word 0x4a57
    9394:	58 44       	.word 0x4458
    9396:	4c 5a       	.word 0x5a4c
    9398:	50 4c       	.word 0x4c50
    939a:	58 49       	.word 0x4958
    939c:	52 4a       	.word 0x4a52
    939e:	54 43       	.word 0x4354
    93a0:	49 46       	.word 0x4649
    93a2:	53 54       	.word 0x5453
    93a4:	46 48       	.word 0x4846
    93a6:	42 49       	.word 0x4942
    93a8:	4f 53       	.word 0x534f
    93aa:	51 58       	.word 0x5851
    93ac:	55 4a       	.word 0x4a55
    93ae:	45 00       	.word 0x45
    93b0:	46 4f       	.word 0x4f46
    93b2:	55 4e       	.word 0x4e55
    93b4:	44 5a       	.word 0x5a44
    93b6:	49 4a       	.word 0x4a49
    93b8:	43 45       	.word 0x4543
    93ba:	46 4f       	.word 0x4f46
    93bc:	47 4d       	.word 0x4d47
    93be:	51 59       	.word 0x5951
    93c0:	4e 51       	.word 0x514e
    93c2:	42 56       	.word 0x5642
    93c4:	45 55       	.word 0x5545
    93c6:	4a 5a       	.word 0x5a4a
    93c8:	4e 4f       	.word 0x4f4e
    93ca:	55 57       	.word 0x5755
    93cc:	4a 51       	.word 0x514a
    93ce:	47 4c       	.word 0x4c47
    93d0:	49 44       	.word 0x4449
    93d2:	50 00       	.word 0x50
    93d4:	43 4f       	.word 0x4f43
    93d6:	55 4c       	.word 0x4c55
    93d8:	44 44       	.word 0x4444
    93da:	58 43       	.word 0x4358
    93dc:	55 4a       	.word 0x4a55
    93de:	54 4f       	.word 0x4f54
    93e0:	5a 55       	.word 0x555a
    93e2:	50 51       	.word 0x5150
    93e4:	59 4d       	.word 0x4d59
    93e6:	4b 58       	.word 0x584b
    93e8:	56 55       	.word 0x5556
    93ea:	53 4c       	.word 0x4c53
    93ec:	4b 52       	.word 0x524b
    93ee:	51 56       	.word 0x5651
    93f0:	57 4d       	.word 0x4d57
    93f2:	48 44       	.word 0x4448
    93f4:	56 51       	.word 0x5156
    93f6:	4a 00       	.word 0x4a
    93f8:	54 48       	.word 0x4854
    93fa:	45 53       	.word 0x5345
    93fc:	45 58       	.word 0x5845
    93fe:	54 4b       	.word 0x4b54
    9400:	44 4c       	.word 0x4c44
    9402:	56 47       	.word 0x4756
    9404:	48 49       	.word 0x4948
    9406:	54 50       	.word 0x5054
    9408:	53 45       	.word 0x4553
    940a:	51 49       	.word 0x4951
    940c:	56 54       	.word 0x5456
    940e:	4d 45       	.word 0x454d
    9410:	48 44       	.word 0x4448
    9412:	4f 4e       	.word 0x4e4f
    9414:	53 56       	.word 0x5653
    9416:	59 4d       	.word 0x4d59
    9418:	45 46       	.word 0x4645
    941a:	42 00       	.word 0x42
    941c:	4f 54       	.word 0x544f
    941e:	48 45       	.word 0x4548
    9420:	52 52       	.word 0x5252
    9422:	49 42       	.word 0x4249
    9424:	4f 43       	.word 0x434f
    9426:	45 54       	.word 0x5445
    9428:	4e 52       	.word 0x524e
    942a:	4b 4a       	.word 0x4a4b
    942c:	42 4e       	.word 0x4e42
    942e:	4a 55       	.word 0x554a
    9430:	48 47       	.word 0x4748
    9432:	45 47       	.word 0x4745
    9434:	4a 56       	.word 0x564a
    9436:	57 4b       	.word 0x4b57
    9438:	45 4b       	.word 0x4b45
    943a:	44 56       	.word 0x5644
    943c:	52 50       	.word 0x5052
    943e:	4d 00       	.word 0x4d
    9440:	57 4f       	.word 0x4f57
    9442:	52 4c       	.word 0x4c52
    9444:	44 54       	.word 0x5444
    9446:	58 53       	.word 0x5358
    9448:	55 52       	.word 0x5255
    944a:	57 46       	.word 0x4657
    944c:	57 4f       	.word 0x4f57
    944e:	51 59       	.word 0x5951
    9450:	52 56       	.word 0x5652
    9452:	52 51       	.word 0x5152
    9454:	47 4e       	.word 0x4e47
    9456:	4a 59       	.word 0x594a
    9458:	42 4b       	.word 0x4b42
    945a:	4c 51       	.word 0x514c
    945c:	4f 48       	.word 0x484f
    945e:	58 44       	.word 0x4458
    9460:	45 49       	.word 0x4945
    9462:	51 00       	.word 0x51
    9464:	53 4d       	.word 0x4d53
    9466:	41 4c       	.word 0x4c41
    9468:	4c 49       	.word 0x494c
    946a:	56 52       	.word 0x5256
    946c:	58 53       	.word 0x5358
    946e:	55 58       	.word 0x5855
    9470:	44 43       	.word 0x4344
    9472:	4d 52       	.word 0x524d
    9474:	59 41       	.word 0x4159
    9476:	51 54       	.word 0x5451
    9478:	46 50       	.word 0x5046
    947a:	4a 56       	.word 0x564a
    947c:	50 48       	.word 0x4850
    947e:	46 4c       	.word 0x4c46
    9480:	58 51       	.word 0x5158
    9482:	4c 52       	.word 0x524c
    9484:	4f 42       	.word 0x424f
    9486:	48 00       	.word 0x48
    9488:	54 48       	.word 0x4854
    948a:	45 53       	.word 0x5345
    948c:	45 4b       	.word 0x4b45
    948e:	50 54       	.word 0x5450
    9490:	52 4c       	.word 0x4c52
    9492:	42 48       	.word 0x4842
    9494:	4b 56       	.word 0x564b
    9496:	55 4e       	.word 0x4e55
    9498:	44 51       	.word 0x5144
    949a:	47 4c       	.word 0x4c47
    949c:	45 4a       	.word 0x4a45
    949e:	53 58       	.word 0x5853
    94a0:	41 4d       	.word 0x4d41
    94a2:	53 56       	.word 0x5653
    94a4:	44 57       	.word 0x5744
    94a6:	41 4f       	.word 0x4f41
    94a8:	45 46       	.word 0x4645
    94aa:	4e 00       	.word 0x4e
    94ac:	57 52       	.word 0x5257
    94ae:	49 54       	.word 0x5449
    94b0:	45 56       	.word 0x5645
    94b2:	57 49       	.word 0x4957
    94b4:	58 59       	.word 0x5958
    94b6:	48 57       	.word 0x5748
    94b8:	4b 58       	.word 0x584b
    94ba:	42 47       	.word 0x4742
    94bc:	52 46       	.word 0x4652
    94be:	45 4c       	.word 0x4c45
    94c0:	59 49       	.word 0x4959
    94c2:	50 55       	.word 0x5550
    94c4:	41 44       	.word 0x4441
    94c6:	54 52       	.word 0x5254
    94c8:	4e 4c       	.word 0x4c4e
    94ca:	56 45       	.word 0x4556
    94cc:	41 51       	.word 0x5141
    94ce:	55 00       	.word 0x55
    94d0:	47 52       	.word 0x5247
    94d2:	45 41       	.word 0x4145
    94d4:	54 4c       	.word 0x4c54
    94d6:	4f 47       	.word 0x474f
    94d8:	4d 58       	.word 0x584d
    94da:	56 59       	.word 0x5956
    94dc:	43 4e       	.word 0x4e43
    94de:	52 57       	.word 0x5752
    94e0:	4b 48       	.word 0x484b
    94e2:	56 50       	.word 0x5056
    94e4:	45 42       	.word 0x4245
    94e6:	49 5a       	.word 0x5a49
    94e8:	41 50       	.word 0x5041
    94ea:	57 56       	.word 0x5657
    94ec:	46 57       	.word 0x5746
    94ee:	48 46       	.word 0x4648
    94f0:	53 54       	.word 0x5453
    94f2:	51 00       	.word 0x51
    94f4:	4f 54       	.word 0x544f
    94f6:	48 45       	.word 0x4548
    94f8:	52 46       	.word 0x4652
    94fa:	47 49       	.word 0x4947
    94fc:	4f 44       	.word 0x444f
    94fe:	48 42       	.word 0x4248
    9500:	54 50       	.word 0x5054
    9502:	58 53       	.word 0x5358
    9504:	49 43       	.word 0x4349
    9506:	47 45       	.word 0x4547
    9508:	4c 50       	.word 0x504c
    950a:	48 41       	.word 0x4148
    950c:	44 45       	.word 0x4544
    950e:	4a 49       	.word 0x494a
    9510:	5a 4e       	.word 0x4e5a
    9512:	41 50       	.word 0x5041
    9514:	4b 49       	.word 0x494b
    9516:	52 00       	.word 0x52

00009518 <.LC2>:
    9518:	00 20       	.word 0x2000

00009519 <.LC0>:
	...

00009520 <.LC1>:
    9520:	20 6f       	.word 0x6f20
    9522:	20 20       	.word 0x2020
    9524:	6f 20       	.word 0x206f
    9526:	20 6f       	.word 0x6f20
    9528:	20 20       	.word 0x2020
    952a:	6f 20       	.word 0x206f
    952c:	20 6f       	.word 0x6f20
    952e:	20 00       	.word 0x20
    9530:	00 20       	.word 0x2000

00009531 <.LC3>:
    9531:	00 00       	.word 0
    9533:	00 00       	.word 0
    9535:	00 00       	.word 0
    9537:	00 00       	.word 0
    9539:	00 00       	.word 0
    953b:	00 00       	.word 0
    953d:	00 00       	.word 0
    953f:	00 00       	.word 0
	...

00009542 <.LC0>:
    9542:	20 20       	.word 0x2020
    9544:	20 20       	.word 0x2020
    9546:	20 20       	.word 0x2020
    9548:	20 20       	.word 0x2020
    954a:	20 20       	.word 0x2020
    954c:	20 20       	.word 0x2020
    954e:	20 20       	.word 0x2020
    9550:	20 20       	.word 0x2020
    9552:	20 20       	.word 0x2020
    9554:	20 20       	.word 0x2020
    9556:	20 20       	.word 0x2020
    9558:	20 20       	.word 0x2020
    955a:	20 20       	.word 0x2020
    955c:	20 20       	.word 0x2020
    955e:	20 20       	.word 0x2020
    9560:	20 20       	.word 0x2020
    9562:	20 20       	.word 0x2020
    9564:	20 20       	.word 0x2020
    9566:	20 20       	.word 0x2020
    9568:	20 20       	.word 0x2020
    956a:	20 20       	.word 0x2020
    956c:	20 20       	.word 0x2020
    956e:	20 20       	.word 0x2020
    9570:	20 20       	.word 0x2020
    9572:	20 20       	.word 0x2020
    9574:	20 20       	.word 0x2020
    9576:	20 20       	.word 0x2020
    9578:	20 20       	.word 0x2020
    957a:	00 20       	.word 0x2000

0000957b <.LC1>:
    957b:	00 00       	.word 0
    957d:	00 00       	.word 0
    957f:	00 00       	.word 0
    9581:	00 00       	.word 0
    9583:	00 00       	.word 0
    9585:	00 00       	.word 0
    9587:	00 00       	.word 0
    9589:	00 00       	.word 0
	...

0000958c <.LC2>:
    958c:	7a 79       	.word 0x797a
    958e:	78 77       	.word 0x7778
    9590:	76 75       	.word 0x7576
    9592:	74 73       	.word 0x7374
    9594:	72 71       	.word 0x7172
    9596:	70 6f       	.word 0x6f70
    9598:	6e 6d       	.word 0x6d6e
    959a:	6c 6b       	.word 0x6b6c
    959c:	6a 69       	.word 0x696a
    959e:	68 67       	.word 0x6768
    95a0:	66 65       	.word 0x6566
    95a2:	64 63       	.word 0x6364
    95a4:	62 61       	.word 0x6162
    95a6:	39 38       	.word 0x3839
    95a8:	37 36       	.word 0x3637
    95aa:	35 34       	.word 0x3435
    95ac:	33 32       	.word 0x3233
    95ae:	31 30       	.word 0x3031
    95b0:	31 32       	.word 0x3231
    95b2:	33 34       	.word 0x3433
    95b4:	35 36       	.word 0x3635
    95b6:	37 38       	.word 0x3837
    95b8:	39 61       	.word 0x6139
    95ba:	62 63       	.word 0x6362
    95bc:	64 65       	.word 0x6564
    95be:	66 67       	.word 0x6766
    95c0:	68 69       	.word 0x6968
    95c2:	6a 6b       	.word 0x6b6a
    95c4:	6c 6d       	.word 0x6d6c
    95c6:	6e 6f       	.word 0x6f6e
    95c8:	70 71       	.word 0x7170
    95ca:	72 73       	.word 0x7372
    95cc:	74 75       	.word 0x7574
    95ce:	76 77       	.word 0x7776
    95d0:	78 79       	.word 0x7978
    95d2:	7a 00       	.word 0x7a
Disassembly of section .text:

000015d4 <_main>:
uint16_t counter;

_LCD lcd1;

void main(void) {
    15d4:	62 00 fa    	lnk       #0x62
    15d6:	88 1f 78    	mov.w     w8, [w15++]
    init_elecanisms();
    15d8:	0d 0a 07    	rcall     0x29f4 <.LFE2> <_init_elecanisms> <.L0> <.LFB0> <.Ltext0>
    init_ajuart();
    15da:	3a 07 07    	rcall     0x2450 <_init_ajuart> <.L0> <.LFB0> <.LFE21> <.Letext0> <.Ltext0>
    // Setup rocker pins as inputs and set pull-up resistors
    toggleSwitchSetup();
    15dc:	46 02 07    	rcall     0x1a6a <_toggleSwitchSetup> <.LFB9> <.LFE8>

    i2c_init(1e3);
    15de:	80 3e 20    	mov.w     #0x3e8, w0
    15e0:	08 05 07    	rcall     0x1ff2 <_i2c_init> <.LFB1> <.LFE0>
    lcd_init(&lcd1, 0x06, 'A'); //Setup LCD screen (type A i/o extender)
    15e2:	12 c4 b3    	mov.b     #0x41, w2
    15e4:	61 c0 b3    	mov.b     #0x6, w1
    15e6:	00 05 21    	mov.w     #0x1050, w0
    15e8:	28 03 07    	rcall     0x1c3a <_lcd_init> <.LFB5> <.LFE4>
    lcd_clear(&lcd1);  // Clears _LCD objects from previous array
    15ea:	00 05 21    	mov.w     #0x1050, w0
    15ec:	ba 03 07    	rcall     0x1d62 <_lcd_clear> <.LFB8> <.LFE7>

    i2c2_init(157);                      // Initializes I2C on I2C2
    15ee:	d0 09 20    	mov.w     #0x9d, w0
    15f0:	40 06 07    	rcall     0x2272 <_i2c2_init> <.LFB13> <.LFE12>
    I2C2ADD = MODULE_CODEWORD_ADDR>>1;   // Set the device address (7-bit register)
    15f2:	00 01 20    	mov.w     #0x10, w0
    15f4:	d0 10 88    	mov.w     w0, 0x21a
    I2C2MSK = 0;                         // Set mask to 0 (only this address matters)
    15f6:	1c 22 ef    	clr.w     0x21c
    _SI2C2IE = 1;                        // Enable i2c slave interrupt
    15f8:	9a 20 a8    	bset.b    0x9a, #0x1

    rand_val = read_analog(A0); // Set up the seed
    15fa:	50 16 80    	mov.w     0x2ca, w0
    15fc:	45 00 de    	lsr.w     w0, #0x5, w0
    15fe:	61 40 60    	and.b     w0, #0x1, w0
    1600:	00 80 fb    	ze        w0, w0
    1602:	28 0a 07    	rcall     0x2a54 <_read_analog> <.LFB1> <.LFE0>
    1604:	b0 40 88    	mov.w     w0, 0x816

    // Add more random noise
    uint8_t i, j;
    for (i=0; i<20; i++) {
    1606:	00 40 eb    	clr.b     w0
    1608:	00 4f 78    	mov.b     w0, [w14]
    160a:	18 00 37    	bra       0x163c <.L2>

0000160c <.L5>:
        for (j=0; j<read_analog(A0); j++) {
    160c:	00 40 eb    	clr.b     w0
    160e:	10 47 98    	mov.b     w0, [w14+1]
    1610:	0b 00 37    	bra       0x1628 <.L3>

00001612 <.L4>:
            rand_next();
    1612:	50 02 07    	rcall     0x1ab4 <_rand_next> <.LFB10> <.LFE9>
            delay_by_nop(read_analog(A0));
    1614:	50 16 80    	mov.w     0x2ca, w0
    1616:	45 00 de    	lsr.w     w0, #0x5, w0
    1618:	61 40 60    	and.b     w0, #0x1, w0
    161a:	00 80 fb    	ze        w0, w0
    161c:	1b 0a 07    	rcall     0x2a54 <_read_analog> <.LFB1> <.LFE0>
    161e:	80 00 eb    	clr.w     w1
    1620:	d5 04 07    	rcall     0x1fcc <_delay_by_nop> <.L0> <.LFB0> <.LFE16> <.Letext0> <.Ltext0>
    1622:	1e 40 90    	mov.b     [w14+1], w0
    1624:	00 40 e8    	inc.b     w0, w0
    1626:	10 47 98    	mov.b     w0, [w14+1]

00001628 <.L3>:
    1628:	1e 40 90    	mov.b     [w14+1], w0
    162a:	00 84 fb    	ze        w0, w8
    162c:	50 16 80    	mov.w     0x2ca, w0
    162e:	45 00 de    	lsr.w     w0, #0x5, w0
    1630:	61 40 60    	and.b     w0, #0x1, w0
    1632:	00 80 fb    	ze        w0, w0
    1634:	0f 0a 07    	rcall     0x2a54 <_read_analog> <.LFB1> <.LFE0>
    1636:	80 0f 54    	sub.w     w8, w0, [w15]
    1638:	ec ff 39    	bra       NC, 0x1612 <.L4>
    163a:	1e 4f e8    	inc.b     [w14], [w14]

0000163c <.L2>:
    163c:	1e 40 78    	mov.b     [w14], w0
    163e:	f3 4f 50    	sub.b     w0, #0x13, [w15]
    1640:	e5 ff 36    	bra       LEU, 0x160c <.L5>
        }
    }

    U1_putc((uint8_t)rand_val >> 8);
    1642:	b0 40 80    	mov.w     0x816, w0
    1644:	00 40 78    	mov.b     w0, w0
    1646:	00 80 fb    	ze        w0, w0
    1648:	48 80 de    	asr.w     w0, #0x8, w0
    164a:	00 40 78    	mov.b     w0, w0
    164c:	54 07 07    	rcall     0x24f6 <_U1_putc> <.LFB5> <.LFE4>
    U1_putc((uint8_t)rand_val);
    164e:	b0 40 80    	mov.w     0x816, w0
    1650:	00 40 78    	mov.b     w0, w0
    1652:	51 07 07    	rcall     0x24f6 <_U1_putc> <.LFB5> <.LFE4>
    U1_putc('\r');
    1654:	d0 c0 b3    	mov.b     #0xd, w0
    1656:	4f 07 07    	rcall     0x24f6 <_U1_putc> <.LFB5> <.LFE4>
    U1_putc('\n');
    1658:	a0 c0 b3    	mov.b     #0xa, w0
    165a:	4d 07 07    	rcall     0x24f6 <_U1_putc> <.LFB5> <.LFE4>
    U1_flush_tx_buffer();
    165c:	43 07 07    	rcall     0x24e4 <_U1_flush_tx_buffer> <.LFB4> <.LFE3>

    // set codeword and set of letters
    char _codeSet[36];
    for(i=0; i < 36; i++) {
    165e:	00 40 eb    	clr.b     w0
    1660:	00 4f 78    	mov.b     w0, [w14]
    1662:	12 00 37    	bra       0x1688 <.L6>

00001664 <.L7>:
        _codeSet[i] = letterSets[rand_val%15][i];
    1664:	9e 81 fb    	ze        [w14], w3
    1666:	b2 40 80    	mov.w     0x816, w2
    1668:	90 88 28    	mov.w     #0x8889, w0
    166a:	00 10 b8    	mul.uu    w2, w0, w0
    166c:	43 08 de    	lsr.w     w1, #0x3, w0
    166e:	6f 00 b9    	mul.su    w0, #0xf, w0
    1670:	00 00 78    	mov.w     w0, w0
    1672:	00 00 51    	sub.w     w2, w0, w0
    1674:	1e 81 fb    	ze        [w14], w2
    1676:	41 02 20    	mov.w     #0x24, w1
    1678:	01 80 b9    	mul.ss    w0, w1, w0
    167a:	00 00 78    	mov.w     w0, w0
    167c:	02 00 40    	add.w     w0, w2, w0
    167e:	c1 2f 29    	mov.w     #0x92fc, w1
    1680:	e1 40 78    	mov.b     [w1+w0], w1
    1682:	03 00 47    	add.w     w14, w3, w0
    1684:	21 40 98    	mov.b     w1, [w0+2]
    1686:	1e 4f e8    	inc.b     [w14], [w14]

00001688 <.L6>:
    1688:	30 c2 b3    	mov.b     #0x23, w0
    168a:	9e 40 78    	mov.b     [w14], w1
    168c:	80 cf 50    	sub.b     w1, w0, [w15]
    168e:	ea ff 36    	bra       LEU, 0x1664 <.L7>
    }
    codeSet = _codeSet;
    1690:	0e 80 e8    	inc2.w    w14, w0
    1692:	10 40 88    	mov.w     w0, 0x802

    char tmp[7] = " ";
    1694:	00 02 20    	mov.w     #0x20, w0
    1696:	01 00 20    	mov.w     #0x0, w1
    1698:	30 17 98    	mov.w     w0, [w14+38]
    169a:	41 17 98    	mov.w     w1, [w14+40]
    169c:	8e 00 78    	mov.w     w14, w1
    169e:	a1 02 b0    	add.w     #0x2a, w1
    16a0:	00 00 09    	repeat    #0x0
    16a2:	80 18 eb    	clr.w     [w1++]
    16a4:	80 58 eb    	clr.b     [w1++]
    for (i=0; i<5; i++){
    16a6:	00 40 eb    	clr.b     w0
    16a8:	00 4f 78    	mov.b     w0, [w14]
    16aa:	08 00 37    	bra       0x16bc <.L8>

000016ac <.L9>:
        tmp[i] = codeSet[i];
    16ac:	1e 80 fb    	ze        [w14], w0
    16ae:	12 40 80    	mov.w     0x802, w2
    16b0:	9e 80 fb    	ze        [w14], w1
    16b2:	81 00 41    	add.w     w2, w1, w1
    16b4:	91 40 78    	mov.b     [w1], w1
    16b6:	00 00 47    	add.w     w14, w0, w0
    16b8:	61 60 98    	mov.b     w1, [w0+38]
    16ba:	1e 4f e8    	inc.b     [w14], [w14]

000016bc <.L8>:
    16bc:	1e 40 78    	mov.b     [w14], w0
    16be:	e4 4f 50    	sub.b     w0, #0x4, [w15]
    16c0:	f5 ff 36    	bra       LEU, 0x16ac <.L9>
    }
    codeword = tmp;
    16c2:	60 02 20    	mov.w     #0x26, w0
    16c4:	0e 00 40    	add.w     w0, w14, w0
    16c6:	70 40 88    	mov.w     w0, 0x80e

    // setup column sets of letters
    char _set0[7] = " ";
    16c8:	90 51 29    	mov.w     #0x9519, w0
    16ca:	90 40 78    	mov.b     [w0], w1
    16cc:	51 6f 98    	mov.b     w1, [w14+45]
    16ce:	90 40 90    	mov.b     [w0+1], w1
    16d0:	61 6f 98    	mov.b     w1, [w14+46]
    16d2:	8e 00 78    	mov.w     w14, w1
    16d4:	f1 02 b0    	add.w     #0x2f, w1
    16d6:	04 00 09    	repeat    #0x4
    16d8:	80 58 eb    	clr.b     [w1++]
    for (i=0; i<6; i++){
    16da:	00 40 eb    	clr.b     w0
    16dc:	00 4f 78    	mov.b     w0, [w14]
    16de:	09 00 37    	bra       0x16f2 <.L10>

000016e0 <.L11>:
        _set0[i] = codeSet[i+5];
    16e0:	1e 80 fb    	ze        [w14], w0
    16e2:	12 40 80    	mov.w     0x802, w2
    16e4:	9e 80 fb    	ze        [w14], w1
    16e6:	e5 80 40    	add.w     w1, #0x5, w1
    16e8:	81 00 41    	add.w     w2, w1, w1
    16ea:	91 40 78    	mov.b     [w1], w1
    16ec:	00 00 47    	add.w     w14, w0, w0
    16ee:	51 68 98    	mov.b     w1, [w0+45]
    16f0:	1e 4f e8    	inc.b     [w14], [w14]

000016f2 <.L10>:
    16f2:	1e 40 78    	mov.b     [w14], w0
    16f4:	e5 4f 50    	sub.b     w0, #0x5, [w15]
    16f6:	f4 ff 36    	bra       LEU, 0x16e0 <.L11>
    }
    set0 = _set0;
    16f8:	d0 02 20    	mov.w     #0x2d, w0
    16fa:	0e 00 40    	add.w     w0, w14, w0
    16fc:	20 40 88    	mov.w     w0, 0x804

    char _set1[7] = " ";
    16fe:	00 02 20    	mov.w     #0x20, w0
    1700:	01 00 20    	mov.w     #0x0, w1
    1702:	20 1f 98    	mov.w     w0, [w14+52]
    1704:	31 1f 98    	mov.w     w1, [w14+54]
    1706:	8e 00 78    	mov.w     w14, w1
    1708:	81 03 b0    	add.w     #0x38, w1
    170a:	00 00 09    	repeat    #0x0
    170c:	80 18 eb    	clr.w     [w1++]
    170e:	80 58 eb    	clr.b     [w1++]
    for (i=0; i<6; i++){
    1710:	00 40 eb    	clr.b     w0
    1712:	00 4f 78    	mov.b     w0, [w14]
    1714:	09 00 37    	bra       0x1728 <.L12>

00001716 <.L13>:
        _set1[i] = codeSet[i+11];
    1716:	1e 80 fb    	ze        [w14], w0
    1718:	12 40 80    	mov.w     0x802, w2
    171a:	9e 80 fb    	ze        [w14], w1
    171c:	eb 80 40    	add.w     w1, #0xb, w1
    171e:	81 00 41    	add.w     w2, w1, w1
    1720:	91 40 78    	mov.b     [w1], w1
    1722:	00 00 47    	add.w     w14, w0, w0
    1724:	41 70 98    	mov.b     w1, [w0+52]
    1726:	1e 4f e8    	inc.b     [w14], [w14]

00001728 <.L12>:
    1728:	1e 40 78    	mov.b     [w14], w0
    172a:	e5 4f 50    	sub.b     w0, #0x5, [w15]
    172c:	f4 ff 36    	bra       LEU, 0x1716 <.L13>
    }
    set1 = _set1;
    172e:	40 03 20    	mov.w     #0x34, w0
    1730:	0e 00 40    	add.w     w0, w14, w0
    1732:	30 40 88    	mov.w     w0, 0x806

    char _set2[7] = " ";
    1734:	90 51 29    	mov.w     #0x9519, w0
    1736:	90 40 78    	mov.b     [w0], w1
    1738:	31 7f 98    	mov.b     w1, [w14+59]
    173a:	90 40 90    	mov.b     [w0+1], w1
    173c:	41 7f 98    	mov.b     w1, [w14+60]
    173e:	8e 00 78    	mov.w     w14, w1
    1740:	d1 03 b0    	add.w     #0x3d, w1
    1742:	04 00 09    	repeat    #0x4
    1744:	80 58 eb    	clr.b     [w1++]
    for (i=0; i<6; i++){
    1746:	00 40 eb    	clr.b     w0
    1748:	00 4f 78    	mov.b     w0, [w14]
    174a:	09 00 37    	bra       0x175e <.L14>

0000174c <.L15>:
        _set2[i] = codeSet[i+17];
    174c:	1e 80 fb    	ze        [w14], w0
    174e:	12 40 80    	mov.w     0x802, w2
    1750:	9e 80 fb    	ze        [w14], w1
    1752:	f1 80 40    	add.w     w1, #0x11, w1
    1754:	81 00 41    	add.w     w2, w1, w1
    1756:	91 40 78    	mov.b     [w1], w1
    1758:	00 00 47    	add.w     w14, w0, w0
    175a:	31 78 98    	mov.b     w1, [w0+59]
    175c:	1e 4f e8    	inc.b     [w14], [w14]

0000175e <.L14>:
    175e:	1e 40 78    	mov.b     [w14], w0
    1760:	e5 4f 50    	sub.b     w0, #0x5, [w15]
    1762:	f4 ff 36    	bra       LEU, 0x174c <.L15>
    }
    set2 = _set2;
    1764:	b0 03 20    	mov.w     #0x3b, w0
    1766:	0e 00 40    	add.w     w0, w14, w0
    1768:	40 40 88    	mov.w     w0, 0x808

    char _set3[7] = " ";
    176a:	00 02 20    	mov.w     #0x20, w0
    176c:	01 00 20    	mov.w     #0x0, w1
    176e:	10 27 98    	mov.w     w0, [w14+66]
    1770:	21 27 98    	mov.w     w1, [w14+68]
    1772:	8e 00 78    	mov.w     w14, w1
    1774:	61 04 b0    	add.w     #0x46, w1
    1776:	00 00 09    	repeat    #0x0
    1778:	80 18 eb    	clr.w     [w1++]
    177a:	80 58 eb    	clr.b     [w1++]
    for (i=0; i<6; i++){
    177c:	00 40 eb    	clr.b     w0
    177e:	00 4f 78    	mov.b     w0, [w14]
    1780:	09 00 37    	bra       0x1794 <.L16>

00001782 <.L17>:
        _set3[i] = codeSet[i+23];
    1782:	1e 80 fb    	ze        [w14], w0
    1784:	12 40 80    	mov.w     0x802, w2
    1786:	9e 80 fb    	ze        [w14], w1
    1788:	f7 80 40    	add.w     w1, #0x17, w1
    178a:	81 00 41    	add.w     w2, w1, w1
    178c:	91 40 78    	mov.b     [w1], w1
    178e:	00 00 47    	add.w     w14, w0, w0
    1790:	21 c0 98    	mov.b     w1, [w0+66]
    1792:	1e 4f e8    	inc.b     [w14], [w14]

00001794 <.L16>:
    1794:	1e 40 78    	mov.b     [w14], w0
    1796:	e5 4f 50    	sub.b     w0, #0x5, [w15]
    1798:	f4 ff 36    	bra       LEU, 0x1782 <.L17>
    }
    set3 = _set3;
    179a:	20 04 20    	mov.w     #0x42, w0
    179c:	0e 00 40    	add.w     w0, w14, w0
    179e:	50 40 88    	mov.w     w0, 0x80a

    char _set4[7] = " ";
    17a0:	90 51 29    	mov.w     #0x9519, w0
    17a2:	90 40 78    	mov.b     [w0], w1
    17a4:	11 cf 98    	mov.b     w1, [w14+73]
    17a6:	90 40 90    	mov.b     [w0+1], w1
    17a8:	21 cf 98    	mov.b     w1, [w14+74]
    17aa:	8e 00 78    	mov.w     w14, w1
    17ac:	b1 04 b0    	add.w     #0x4b, w1
    17ae:	04 00 09    	repeat    #0x4
    17b0:	80 58 eb    	clr.b     [w1++]
    for (i=0; i<6; i++){
    17b2:	00 40 eb    	clr.b     w0
    17b4:	00 4f 78    	mov.b     w0, [w14]
    17b6:	09 00 37    	bra       0x17ca <.L18>

000017b8 <.L19>:
        _set4[i] = codeSet[i+29];
    17b8:	1e 80 fb    	ze        [w14], w0
    17ba:	12 40 80    	mov.w     0x802, w2
    17bc:	9e 80 fb    	ze        [w14], w1
    17be:	fd 80 40    	add.w     w1, #0x1d, w1
    17c0:	81 00 41    	add.w     w2, w1, w1
    17c2:	91 40 78    	mov.b     [w1], w1
    17c4:	00 00 47    	add.w     w14, w0, w0
    17c6:	11 c8 98    	mov.b     w1, [w0+73]
    17c8:	1e 4f e8    	inc.b     [w14], [w14]

000017ca <.L18>:
    17ca:	1e 40 78    	mov.b     [w14], w0
    17cc:	e5 4f 50    	sub.b     w0, #0x5, [w15]
    17ce:	f4 ff 36    	bra       LEU, 0x17b8 <.L19>
    }
    set4 = _set4;
    17d0:	90 04 20    	mov.w     #0x49, w0
    17d2:	0e 00 40    	add.w     w0, w14, w0
    17d4:	60 40 88    	mov.w     w0, 0x80c

    // initialize indices of each column
    i0 = rand_val%5;
    17d6:	b2 40 80    	mov.w     0x816, w2
    17d8:	d0 cc 2c    	mov.w     #0xcccd, w0
    17da:	00 10 b8    	mul.uu    w2, w0, w0
    17dc:	42 08 de    	lsr.w     w1, #0x2, w0
    17de:	65 00 b9    	mul.su    w0, #0x5, w0
    17e0:	00 00 78    	mov.w     w0, w0
    17e2:	00 00 51    	sub.w     w2, w0, w0
    17e4:	00 40 78    	mov.b     w0, w0
    17e6:	10 e8 b7    	mov.b     WREG, 0x810
    rand_next();
    17e8:	65 01 07    	rcall     0x1ab4 <_rand_next> <.LFB10> <.LFE9>
    i1 = rand_val%5;
    17ea:	b2 40 80    	mov.w     0x816, w2
    17ec:	d0 cc 2c    	mov.w     #0xcccd, w0
    17ee:	00 10 b8    	mul.uu    w2, w0, w0
    17f0:	42 08 de    	lsr.w     w1, #0x2, w0
    17f2:	65 00 b9    	mul.su    w0, #0x5, w0
    17f4:	00 00 78    	mov.w     w0, w0
    17f6:	00 00 51    	sub.w     w2, w0, w0
    17f8:	00 40 78    	mov.b     w0, w0
    17fa:	11 e8 b7    	mov.b     WREG, 0x811
    rand_next();
    17fc:	5b 01 07    	rcall     0x1ab4 <_rand_next> <.LFB10> <.LFE9>
    i2 = rand_val%5;
    17fe:	b2 40 80    	mov.w     0x816, w2
    1800:	d0 cc 2c    	mov.w     #0xcccd, w0
    1802:	00 10 b8    	mul.uu    w2, w0, w0
    1804:	42 08 de    	lsr.w     w1, #0x2, w0
    1806:	65 00 b9    	mul.su    w0, #0x5, w0
    1808:	00 00 78    	mov.w     w0, w0
    180a:	00 00 51    	sub.w     w2, w0, w0
    180c:	00 40 78    	mov.b     w0, w0
    180e:	12 e8 b7    	mov.b     WREG, 0x812
    rand_next();
    1810:	51 01 07    	rcall     0x1ab4 <_rand_next> <.LFB10> <.LFE9>
    i3 = rand_val%5;
    1812:	b2 40 80    	mov.w     0x816, w2
    1814:	d0 cc 2c    	mov.w     #0xcccd, w0
    1816:	00 10 b8    	mul.uu    w2, w0, w0
    1818:	42 08 de    	lsr.w     w1, #0x2, w0
    181a:	65 00 b9    	mul.su    w0, #0x5, w0
    181c:	00 00 78    	mov.w     w0, w0
    181e:	00 00 51    	sub.w     w2, w0, w0
    1820:	00 40 78    	mov.b     w0, w0
    1822:	13 e8 b7    	mov.b     WREG, 0x813
    rand_next();
    1824:	47 01 07    	rcall     0x1ab4 <_rand_next> <.LFB10> <.LFE9>
    i4 = rand_val%5;
    1826:	b2 40 80    	mov.w     0x816, w2
    1828:	d0 cc 2c    	mov.w     #0xcccd, w0
    182a:	00 10 b8    	mul.uu    w2, w0, w0
    182c:	42 08 de    	lsr.w     w1, #0x2, w0
    182e:	65 00 b9    	mul.su    w0, #0x5, w0
    1830:	00 00 78    	mov.w     w0, w0
    1832:	00 00 51    	sub.w     w2, w0, w0
    1834:	00 40 78    	mov.b     w0, w0
    1836:	14 e8 b7    	mov.b     WREG, 0x814

    char dispstring[17] = " o  o  o  o  o ";
    1838:	00 52 29    	mov.w     #0x9520, w0
    183a:	01 05 20    	mov.w     #0x50, w1
    183c:	81 00 47    	add.w     w14, w1, w1
    183e:	0f 00 09    	repeat    #0xf
    1840:	b0 58 78    	mov.b     [w0++], [w1++]
    1842:	00 01 b1    	sub.w     #0x10, w0
    1844:	00 40 eb    	clr.b     w0
    1846:	00 e7 98    	mov.b     w0, [w14+96]
    dispptr = dispstring;
    1848:	00 05 20    	mov.w     #0x50, w0
    184a:	0e 00 40    	add.w     w0, w14, w0
    184c:	00 40 88    	mov.w     w0, 0x800
    lcd_print2(&lcd1, dispptr, "");
    184e:	00 40 80    	mov.w     0x800, w0
    1850:	82 51 29    	mov.w     #0x9518, w2
    1852:	80 00 78    	mov.w     w0, w1
    1854:	00 05 21    	mov.w     #0x1050, w0
    1856:	e2 02 07    	rcall     0x1e1c <_lcd_print2> <.LFB13> <.LFE12>

    // Timer 2 Setup
    T2CON = 0x0020;         // set Timer2 period to 10 ms for debounce
    1858:	00 02 20    	mov.w     #0x20, w0
    185a:	80 08 88    	mov.w     w0, 0x110
    PR2 = 0x2710;           // prescaler 16, match value 10000
    185c:	00 71 22    	mov.w     #0x2710, w0
    185e:	60 08 88    	mov.w     w0, 0x10c

    TMR2 = 0;               // set Timer2 to 0
    1860:	06 21 ef    	clr.w     0x106
    IFS0bits.T2IF = 0;      // lower T2 interrupt flag
    1862:	84 e0 a9    	bclr.b    0x84, #0x7
    IEC0bits.T2IE = 1;      // enable T2 interrupt
    1864:	94 e0 a8    	bset.b    0x94, #0x7
    T2CONbits.TON = 0;      // make sure T2 isn't on
    1866:	11 e1 a9    	bclr.b    0x111, #0x7

    state = setup;
    1868:	20 87 21    	mov.w     #0x1872, w0
    186a:	c0 40 88    	mov.w     w0, 0x818

0000186c <.L20>:

    while (1) {
        state();
    186c:	c0 40 80    	mov.w     0x818, w0
    186e:	00 00 01    	call      w0
    }
    1870:	fd ff 37    	bra       0x186c <.L20>

00001872 <_setup>:
}

// STATE MACHINE FUNCTIONS /////////////////////////////////////////////////////

void setup(void) { // Waits for master module to start the game
    1872:	00 00 fa    	lnk       #0x0
    // State Setup
    if (state != last_state) {
    1874:	c1 40 80    	mov.w     0x818, w1
    1876:	d0 40 80    	mov.w     0x81a, w0
    1878:	80 8f 50    	sub.w     w1, w0, [w15]
    187a:	08 00 32    	bra       Z, 0x188c <.L22>
        last_state = state;
    187c:	c0 40 80    	mov.w     0x818, w0
    187e:	d0 40 88    	mov.w     w0, 0x81a
        MODULE_LED_GREEN = ON; delay_by_nop(1);
    1880:	da 22 a8    	bset.b    0x2da, #0x1
    1882:	10 00 20    	mov.w     #0x1, w0
    1884:	01 00 20    	mov.w     #0x0, w1
    1886:	a2 03 07    	rcall     0x1fcc <_delay_by_nop> <.L0> <.LFB0> <.LFE16> <.Letext0> <.Ltext0>
        MODULE_LED_RED = ON;
    1888:	da 02 a8    	bset.b    0x2da, #0x0
        complete_flag = 0;
    188a:	21 68 ef    	clr.b     0x821

0000188c <.L22>:
        // setup state here
    }

    // Perform state tasks

    // Check for state transitions
    // if ((start_flag == 1) || (SW2 == 0)){
    //     state = run;
    // }

    if (start_flag == 1) {
    188c:	24 c8 bf    	mov.b     0x824, WREG
    188e:	e1 4f 50    	sub.b     w0, #0x1, [w15]
    1890:	02 00 3a    	bra       NZ, 0x1896 <.L23>
        state = run;
    1892:	c0 8a 21    	mov.w     #0x18ac, w0
    1894:	c0 40 88    	mov.w     w0, 0x818

00001896 <.L23>:
    }

    // State Cleanup
    if (state != last_state) {
    1896:	c1 40 80    	mov.w     0x818, w1
    1898:	d0 40 80    	mov.w     0x81a, w0
    189a:	80 8f 50    	sub.w     w1, w0, [w15]
    189c:	05 00 32    	bra       Z, 0x18a8 <.L21>
        // cleanup state here
        MODULE_LED_GREEN = OFF; delay_by_nop(1);
    189e:	da 22 a9    	bclr.b    0x2da, #0x1
    18a0:	10 00 20    	mov.w     #0x1, w0
    18a2:	01 00 20    	mov.w     #0x0, w1
    18a4:	93 03 07    	rcall     0x1fcc <_delay_by_nop> <.L0> <.LFB0> <.LFE16> <.Letext0> <.Ltext0>
        MODULE_LED_RED = ON;
    18a6:	da 02 a8    	bset.b    0x2da, #0x0

000018a8 <.L21>:
    }
}
    18a8:	00 80 fa    	ulnk      
    18aa:	00 00 06    	return    

000018ac <_run>:

void run(void) { // Plays the game
    18ac:	00 00 fa    	lnk       #0x0
    // State Setup
    if (state != last_state) {
    18ae:	c1 40 80    	mov.w     0x818, w1
    18b0:	d0 40 80    	mov.w     0x81a, w0
    18b2:	80 8f 50    	sub.w     w1, w0, [w15]
    18b4:	07 00 32    	bra       Z, 0x18c4 <.L26>
        last_state = state;
    18b6:	c0 40 80    	mov.w     0x818, w0
    18b8:	d0 40 88    	mov.w     w0, 0x81a
        // setup state here
        LED1 = ON; delay_by_nop(1);
    18ba:	dc e2 a8    	bset.b    0x2dc, #0x7
    18bc:	10 00 20    	mov.w     #0x1, w0
    18be:	01 00 20    	mov.w     #0x0, w1
    18c0:	85 03 07    	rcall     0x1fcc <_delay_by_nop> <.L0> <.LFB0> <.LFE16> <.Letext0> <.Ltext0>
        MODULE_LED_RED = ON;
    18c2:	da 02 a8    	bset.b    0x2da, #0x0

000018c4 <.L26>:
    }

    // Perform state tasks
    updateDisplay();
    18c4:	a2 00 07    	rcall     0x1a0a <_updateDisplay> <.LFB8> <.LFE5>
    if ((set0[i0] == codeword[0]) &&
    18c6:	21 40 80    	mov.w     0x804, w1
    18c8:	10 c8 bf    	mov.b     0x810, WREG
    18ca:	00 80 fb    	ze        w0, w0
    18cc:	00 80 40    	add.w     w1, w0, w0
    18ce:	90 40 78    	mov.b     [w0], w1
    18d0:	70 40 80    	mov.w     0x80e, w0
    18d2:	10 40 78    	mov.b     [w0], w0
    18d4:	80 cf 50    	sub.b     w1, w0, [w15]
    18d6:	2b 00 3a    	bra       NZ, 0x192e <.L27>
        (set1[i1] == codeword[1]) &&
    18d8:	31 40 80    	mov.w     0x806, w1
    18da:	11 c8 bf    	mov.b     0x811, WREG
    18dc:	00 80 fb    	ze        w0, w0
    18de:	00 80 40    	add.w     w1, w0, w0
    18e0:	90 40 78    	mov.b     [w0], w1
    18e2:	70 40 80    	mov.w     0x80e, w0
    18e4:	00 00 e8    	inc.w     w0, w0
    18e6:	10 40 78    	mov.b     [w0], w0
    18e8:	80 cf 50    	sub.b     w1, w0, [w15]
    18ea:	21 00 3a    	bra       NZ, 0x192e <.L27>
        (set2[i2] == codeword[2]) &&
    18ec:	41 40 80    	mov.w     0x808, w1
    18ee:	12 c8 bf    	mov.b     0x812, WREG
    18f0:	00 80 fb    	ze        w0, w0
    18f2:	00 80 40    	add.w     w1, w0, w0
    18f4:	90 40 78    	mov.b     [w0], w1
    18f6:	70 40 80    	mov.w     0x80e, w0
    18f8:	00 80 e8    	inc2.w    w0, w0
    18fa:	10 40 78    	mov.b     [w0], w0
    18fc:	80 cf 50    	sub.b     w1, w0, [w15]
    18fe:	17 00 3a    	bra       NZ, 0x192e <.L27>
        (set3[i3] == codeword[3]) &&
    1900:	51 40 80    	mov.w     0x80a, w1
    1902:	13 c8 bf    	mov.b     0x813, WREG
    1904:	00 80 fb    	ze        w0, w0
    1906:	00 80 40    	add.w     w1, w0, w0
    1908:	90 40 78    	mov.b     [w0], w1
    190a:	70 40 80    	mov.w     0x80e, w0
    190c:	63 00 40    	add.w     w0, #0x3, w0
    190e:	10 40 78    	mov.b     [w0], w0
    1910:	80 cf 50    	sub.b     w1, w0, [w15]
    1912:	0d 00 3a    	bra       NZ, 0x192e <.L27>
        (set4[i4] == codeword[4])) {
    1914:	61 40 80    	mov.w     0x80c, w1
    1916:	14 c8 bf    	mov.b     0x814, WREG
    1918:	00 80 fb    	ze        w0, w0
    191a:	00 80 40    	add.w     w1, w0, w0
    191c:	90 40 78    	mov.b     [w0], w1
    191e:	70 40 80    	mov.w     0x80e, w0
    1920:	64 00 40    	add.w     w0, #0x4, w0
    1922:	10 40 78    	mov.b     [w0], w0
    1924:	80 cf 50    	sub.b     w1, w0, [w15]
    1926:	03 00 3a    	bra       NZ, 0x192e <.L27>
        state = solved;
    1928:	c0 96 21    	mov.w     #0x196c, w0
    192a:	c0 40 88    	mov.w     w0, 0x818
    192c:	06 00 37    	bra       0x193a <.L28>

0000192e <.L27>:
    } else {
        LED3 = OFF;
    192e:	ec 22 a9    	bclr.b    0x2ec, #0x1
        lcd_print2(&lcd1, dispptr, "");
    1930:	00 40 80    	mov.w     0x800, w0
    1932:	82 51 29    	mov.w     #0x9518, w2
    1934:	80 00 78    	mov.w     w0, w1
    1936:	00 05 21    	mov.w     #0x1050, w0
    1938:	71 02 07    	rcall     0x1e1c <_lcd_print2> <.LFB13> <.LFE12>

0000193a <.L28>:
    }
    delay_by_nop(30000);
    193a:	00 53 27    	mov.w     #0x7530, w0
    193c:	01 00 20    	mov.w     #0x0, w1
    193e:	46 03 07    	rcall     0x1fcc <_delay_by_nop> <.L0> <.LFB0> <.LFE16> <.Letext0> <.Ltext0>

    // Check for state transitions
    if (win_flag == 1) {
    1940:	25 c8 bf    	mov.b     0x825, WREG
    1942:	e1 4f 50    	sub.b     w0, #0x1, [w15]
    1944:	03 00 3a    	bra       NZ, 0x194c <.L29>
        state = end_win;
    1946:	a0 9b 21    	mov.w     #0x19ba, w0
    1948:	c0 40 88    	mov.w     w0, 0x818
    194a:	05 00 37    	bra       0x1956 <.L30>

0000194c <.L29>:
    } else if (lose_flag == 1) {
    194c:	26 c8 bf    	mov.b     0x826, WREG
    194e:	e1 4f 50    	sub.b     w0, #0x1, [w15]
    1950:	02 00 3a    	bra       NZ, 0x1956 <.L30>
        state = end_fail;
    1952:	20 9e 21    	mov.w     #0x19e2, w0
    1954:	c0 40 88    	mov.w     w0, 0x818

00001956 <.L30>:
    }

    // State Cleanup
    if (state != last_state) {
    1956:	c1 40 80    	mov.w     0x818, w1
    1958:	d0 40 80    	mov.w     0x81a, w0
    195a:	80 8f 50    	sub.w     w1, w0, [w15]
    195c:	05 00 32    	bra       Z, 0x1968 <.L25>
        // cleanup state here
        LED1=OFF; delay_by_nop(1);
    195e:	dc e2 a9    	bclr.b    0x2dc, #0x7
    1960:	10 00 20    	mov.w     #0x1, w0
    1962:	01 00 20    	mov.w     #0x0, w1
    1964:	33 03 07    	rcall     0x1fcc <_delay_by_nop> <.L0> <.LFB0> <.LFE16> <.Letext0> <.Ltext0>
        MODULE_LED_RED = OFF;
    1966:	da 02 a9    	bclr.b    0x2da, #0x0

00001968 <.L25>:
    }
}
    1968:	00 80 fa    	ulnk      
    196a:	00 00 06    	return    

0000196c <_solved>:

void solved(void) { // The puzzle on this module is finished
    196c:	00 00 fa    	lnk       #0x0
    // State Setup
    if (state != last_state) {
    196e:	c1 40 80    	mov.w     0x818, w1
    1970:	d0 40 80    	mov.w     0x81a, w0
    1972:	80 8f 50    	sub.w     w1, w0, [w15]
    1974:	06 00 32    	bra       Z, 0x1982 <.L33>
        // setup state here
        last_state = state;
    1976:	c0 40 80    	mov.w     0x818, w0
    1978:	d0 40 88    	mov.w     w0, 0x81a
        LED3 = ON;
    197a:	ec 22 a8    	bset.b    0x2ec, #0x1
        complete_flag = 1;
    197c:	10 c0 b3    	mov.b     #0x1, w0
    197e:	21 e8 b7    	mov.b     WREG, 0x821
        MODULE_LED_GREEN = ON;
    1980:	da 22 a8    	bset.b    0x2da, #0x1

00001982 <.L33>:
    }

    // Perform state tasks
    lcd_print2(&lcd1, dispptr, "  --CORRECT--  ");
    1982:	00 40 80    	mov.w     0x800, w0
    1984:	12 53 29    	mov.w     #0x9531, w2
    1986:	80 00 78    	mov.w     w0, w1
    1988:	00 05 21    	mov.w     #0x1050, w0
    198a:	48 02 07    	rcall     0x1e1c <_lcd_print2> <.LFB13> <.LFE12>
    delay_by_nop(30000);
    198c:	00 53 27    	mov.w     #0x7530, w0
    198e:	01 00 20    	mov.w     #0x0, w1
    1990:	1d 03 07    	rcall     0x1fcc <_delay_by_nop> <.L0> <.LFB0> <.LFE16> <.Letext0> <.Ltext0>

    // Check for state transitions
    if (win_flag == 1) {
    1992:	25 c8 bf    	mov.b     0x825, WREG
    1994:	e1 4f 50    	sub.b     w0, #0x1, [w15]
    1996:	03 00 3a    	bra       NZ, 0x199e <.L34>
        state = end_win;
    1998:	a0 9b 21    	mov.w     #0x19ba, w0
    199a:	c0 40 88    	mov.w     w0, 0x818
    199c:	05 00 37    	bra       0x19a8 <.L35>

0000199e <.L34>:
    } else if (lose_flag == 1) {
    199e:	26 c8 bf    	mov.b     0x826, WREG
    19a0:	e1 4f 50    	sub.b     w0, #0x1, [w15]
    19a2:	02 00 3a    	bra       NZ, 0x19a8 <.L35>
        state = end_fail;
    19a4:	20 9e 21    	mov.w     #0x19e2, w0
    19a6:	c0 40 88    	mov.w     w0, 0x818

000019a8 <.L35>:
    }

    // State Cleanup
    if (state != last_state) {
    19a8:	c1 40 80    	mov.w     0x818, w1
    19aa:	d0 40 80    	mov.w     0x81a, w0
    19ac:	80 8f 50    	sub.w     w1, w0, [w15]
    19ae:	03 00 32    	bra       Z, 0x19b6 <.L32>
        // cleanup state here
        LED3 = OFF;
    19b0:	ec 22 a9    	bclr.b    0x2ec, #0x1
        complete_flag = 0;
    19b2:	21 68 ef    	clr.b     0x821
        MODULE_LED_GREEN = OFF;
    19b4:	da 22 a9    	bclr.b    0x2da, #0x1

000019b6 <.L32>:
    }
}
    19b6:	00 80 fa    	ulnk      
    19b8:	00 00 06    	return    

000019ba <_end_win>:

void end_win(void) { // The master module said the game was won
    19ba:	00 00 fa    	lnk       #0x0
    // State Setup
    if (state != last_state) {
    19bc:	c1 40 80    	mov.w     0x818, w1
    19be:	d0 40 80    	mov.w     0x81a, w0
    19c0:	80 8f 50    	sub.w     w1, w0, [w15]
    19c2:	03 00 32    	bra       Z, 0x19ca <.L38>
        last_state = state;
    19c4:	c0 40 80    	mov.w     0x818, w0
    19c6:	d0 40 88    	mov.w     w0, 0x81a
        MODULE_LED_GREEN = ON;
    19c8:	da 22 a8    	bset.b    0x2da, #0x1

000019ca <.L38>:
        // setup state here
    }

    // Perform state tasks

    // Check for state transitions
    if (start_flag == 1) {
    19ca:	24 c8 bf    	mov.b     0x824, WREG
    19cc:	e1 4f 50    	sub.b     w0, #0x1, [w15]
    19ce:	02 00 3a    	bra       NZ, 0x19d4 <.L39>
        state = run;
    19d0:	c0 8a 21    	mov.w     #0x18ac, w0
    19d2:	c0 40 88    	mov.w     w0, 0x818

000019d4 <.L39>:
    }

    // State Cleanup
    if (state != last_state) {
    19d4:	c1 40 80    	mov.w     0x818, w1
    19d6:	d0 40 80    	mov.w     0x81a, w0
    19d8:	80 8f 50    	sub.w     w1, w0, [w15]
    19da:	01 00 32    	bra       Z, 0x19de <.L37>
        // cleanup state here
        MODULE_LED_GREEN = OFF;
    19dc:	da 22 a9    	bclr.b    0x2da, #0x1

000019de <.L37>:
    }
}
    19de:	00 80 fa    	ulnk      
    19e0:	00 00 06    	return    

000019e2 <_end_fail>:

void end_fail(void) { // The master module said the game was lost
    19e2:	00 00 fa    	lnk       #0x0
    // State Setup
    if (state != last_state) {
    19e4:	c1 40 80    	mov.w     0x818, w1
    19e6:	d0 40 80    	mov.w     0x81a, w0
    19e8:	80 8f 50    	sub.w     w1, w0, [w15]
    19ea:	03 00 32    	bra       Z, 0x19f2 <.L42>
        // setup state here
        last_state = state;
    19ec:	c0 40 80    	mov.w     0x818, w0
    19ee:	d0 40 88    	mov.w     w0, 0x81a
        MODULE_LED_RED = ON;
    19f0:	da 02 a8    	bset.b    0x2da, #0x0

000019f2 <.L42>:
    }

    // Perform state tasks

    // Check for state transitions
    if (start_flag == 1) {
    19f2:	24 c8 bf    	mov.b     0x824, WREG
    19f4:	e1 4f 50    	sub.b     w0, #0x1, [w15]
    19f6:	02 00 3a    	bra       NZ, 0x19fc <.L43>
        state = run;
    19f8:	c0 8a 21    	mov.w     #0x18ac, w0
    19fa:	c0 40 88    	mov.w     w0, 0x818

000019fc <.L43>:
    }

    // State Cleanup
    if (state != last_state) {
    19fc:	c1 40 80    	mov.w     0x818, w1
    19fe:	d0 40 80    	mov.w     0x81a, w0
    1a00:	80 8f 50    	sub.w     w1, w0, [w15]
    1a02:	01 00 32    	bra       Z, 0x1a06 <.L41>
        // cleanup state here
        MODULE_LED_RED = OFF;
    1a04:	da 02 a9    	bclr.b    0x2da, #0x0

00001a06 <.L41>:
    }
}
    1a06:	00 80 fa    	ulnk      
    1a08:	00 00 06    	return    

00001a0a <_updateDisplay>:

// ISRs ////////////////////////////////////////////////////////////////////////

void __attribute__((interrupt, auto_psv)) _CNInterrupt(void) {
    IFS1bits.CNIF = 0;      // lower INT3 interrupt flag
    TMR2 = 0;                 // reset debounce Timer2
    IFS0bits.T2IF = 0;        // lower Timer2 Interrupt flag
    T2CONbits.TON = 1;        // start Timer2
    LED1 = ON;
}

void __attribute__((interrupt, auto_psv)) _T2Interrupt(void) {
    IFS0bits.T2IF = 0;      // lower Timer2 interrupt flag
    T2CONbits.TON = 0;      // turn off timer
    LED1 = OFF;

    // Sample pins and increment/decrement index of character displayed
    if(!D0) {i0 = (i0+1)% LETTERS_PER_COLUMN;} else
    if(!D1) {i0 = (i0 - 1);
        if(i0 > 5) {i0 = LETTERS_PER_COLUMN - 1;}
    }

    if(!D12) {i1 = (i1+1)% LETTERS_PER_COLUMN;} else
    if(!D13) {i1 = (i1 - 1);}
    if(i1 > 5) {i1 += LETTERS_PER_COLUMN;}

    if(!D4) {i2 = (i2+1)% LETTERS_PER_COLUMN;} else
    if(!D5) {i2 = (i2 - 1);}
    if(i2 > 5) {i2 += LETTERS_PER_COLUMN;}

    if(!D6) {i3 = (i3+1)% LETTERS_PER_COLUMN;} else
    if(!D7) {i3 = (i3 - 1);}
    if(i3 > 5) {i3 += LETTERS_PER_COLUMN;}

    if(!D8) {i4 = (i4+1)% LETTERS_PER_COLUMN;} else
    if(!D9) {i4 = (i4 - 1);}
    if(i4 > 5) {i4 += LETTERS_PER_COLUMN;}

    updateDisplay();
}


// HELPER FUNCTIONS ////////////////////////////////////////////////////////////

void updateDisplay(void) {
    1a0a:	00 00 fa    	lnk       #0x0
    dispptr[1] = set0[i0];
    1a0c:	00 40 80    	mov.w     0x800, w0
    1a0e:	00 00 e8    	inc.w     w0, w0
    1a10:	22 40 80    	mov.w     0x804, w2
    1a12:	01 81 20    	mov.w     #0x810, w1
    1a14:	91 40 78    	mov.b     [w1], w1
    1a16:	81 80 fb    	ze        w1, w1
    1a18:	81 00 41    	add.w     w2, w1, w1
    1a1a:	91 40 78    	mov.b     [w1], w1
    1a1c:	01 48 78    	mov.b     w1, [w0]
    dispptr[4] = set1[i1];
    1a1e:	00 40 80    	mov.w     0x800, w0
    1a20:	64 00 40    	add.w     w0, #0x4, w0
    1a22:	32 40 80    	mov.w     0x806, w2
    1a24:	11 81 20    	mov.w     #0x811, w1
    1a26:	91 40 78    	mov.b     [w1], w1
    1a28:	81 80 fb    	ze        w1, w1
    1a2a:	81 00 41    	add.w     w2, w1, w1
    1a2c:	91 40 78    	mov.b     [w1], w1
    1a2e:	01 48 78    	mov.b     w1, [w0]
    dispptr[7] = set2[i2];
    1a30:	00 40 80    	mov.w     0x800, w0
    1a32:	67 00 40    	add.w     w0, #0x7, w0
    1a34:	42 40 80    	mov.w     0x808, w2
    1a36:	21 81 20    	mov.w     #0x812, w1
    1a38:	91 40 78    	mov.b     [w1], w1
    1a3a:	81 80 fb    	ze        w1, w1
    1a3c:	81 00 41    	add.w     w2, w1, w1
    1a3e:	91 40 78    	mov.b     [w1], w1
    1a40:	01 48 78    	mov.b     w1, [w0]
    dispptr[10] = set3[i3];
    1a42:	00 40 80    	mov.w     0x800, w0
    1a44:	6a 00 40    	add.w     w0, #0xa, w0
    1a46:	52 40 80    	mov.w     0x80a, w2
    1a48:	31 81 20    	mov.w     #0x813, w1
    1a4a:	91 40 78    	mov.b     [w1], w1
    1a4c:	81 80 fb    	ze        w1, w1
    1a4e:	81 00 41    	add.w     w2, w1, w1
    1a50:	91 40 78    	mov.b     [w1], w1
    1a52:	01 48 78    	mov.b     w1, [w0]
    dispptr[13] = set4[i4];
    1a54:	00 40 80    	mov.w     0x800, w0
    1a56:	6d 00 40    	add.w     w0, #0xd, w0
    1a58:	62 40 80    	mov.w     0x80c, w2
    1a5a:	41 81 20    	mov.w     #0x814, w1
    1a5c:	91 40 78    	mov.b     [w1], w1
    1a5e:	81 80 fb    	ze        w1, w1
    1a60:	81 00 41    	add.w     w2, w1, w1
    1a62:	91 40 78    	mov.b     [w1], w1
    1a64:	01 48 78    	mov.b     w1, [w0]
}
    1a66:	00 80 fa    	ulnk      
    1a68:	00 00 06    	return    

00001a6a <_toggleSwitchSetup>:

void toggleSwitchSetup(void) {
    1a6a:	00 00 fa    	lnk       #0x0
    // Initialize pins as inputs
    D0_DIR = 1; //D0 as input
    1a6c:	d8 a2 a8    	bset.b    0x2d8, #0x5
    D1_DIR = 1; //D1 as input
    1a6e:	d8 82 a8    	bset.b    0x2d8, #0x4

    D4_DIR = 1; //D4 as input
    1a70:	c9 e2 a8    	bset.b    0x2c9, #0x7
    D5_DIR = 1; //D5 as input
    1a72:	e8 62 a8    	bset.b    0x2e8, #0x3
    D6_DIR = 1; //D6 as input
    1a74:	d9 02 a8    	bset.b    0x2d9, #0x0
    D7_DIR = 1; //D7 as input
    1a76:	d9 62 a8    	bset.b    0x2d9, #0x3
    D8_DIR = 1; //D8 as input
    1a78:	d9 22 a8    	bset.b    0x2d9, #0x1
    D9_DIR = 1; //D9 as input
    1a7a:	d9 42 a8    	bset.b    0x2d9, #0x2
    D10_DIR = 0; // D10 and D11 are module LEDs
    1a7c:	d8 02 a9    	bclr.b    0x2d8, #0x0
    D11_DIR = 0;
    1a7e:	d8 22 a9    	bclr.b    0x2d8, #0x1
    D12_DIR = 1;//D12 as input
    1a80:	d8 42 a8    	bset.b    0x2d8, #0x2
    D13_DIR = 1;//D13 as input
    1a82:	d8 62 a8    	bset.b    0x2d8, #0x3

    D0_PUE = 1; //D0 pullup enable
    1a84:	6f c0 a8    	bset.b    0x6f, #0x6
    D1_PUE = 1; //D1 pullup enable
    1a86:	6f a0 a8    	bset.b    0x6f, #0x5

    D4_PUE = 1; //D4 pullup enable
    1a88:	6f 80 a8    	bset.b    0x6f, #0x4
    D5_PUE = 1; //D5 pullup enable
    1a8a:	76 e0 a8    	bset.b    0x76, #0x7
    D6_PUE = 1; //D6 pullup enable
    1a8c:	74 a0 a8    	bset.b    0x74, #0x5
    D7_PUE = 1; //D7 pullup enable
    1a8e:	75 00 a8    	bset.b    0x75, #0x0
    D8_PUE = 1; //D8 pullup enable
    1a90:	74 c0 a8    	bset.b    0x74, #0x6
    D9_PUE = 1; //D9 pullup enable
    1a92:	74 e0 a8    	bset.b    0x74, #0x7
    D12_PUE = 1;//D12 pullup enable
    1a94:	74 60 a8    	bset.b    0x74, #0x3
    D13_PUE = 1;//D13 pullup enable
    1a96:	74 80 a8    	bset.b    0x74, #0x4

    D0_CNEN = 1; //D0 interrupt enable
    1a98:	63 c0 a8    	bset.b    0x63, #0x6
    D1_CNEN = 1; //D1 interrupt enable
    1a9a:	63 a0 a8    	bset.b    0x63, #0x5

    D4_CNEN = 1; //D4 interrupt enable
    1a9c:	63 80 a8    	bset.b    0x63, #0x4
    D5_CNEN = 1; //D5 interrupt enable
    1a9e:	6a e0 a8    	bset.b    0x6a, #0x7
    D6_CNEN = 1; //D6 interrupt enable
    1aa0:	68 a0 a8    	bset.b    0x68, #0x5
    D7_CNEN = 1; //D7 interrupt enable
    1aa2:	69 00 a8    	bset.b    0x69, #0x0
    D8_CNEN = 1; //D8 interrupt enable
    1aa4:	68 c0 a8    	bset.b    0x68, #0x6
    D9_CNEN = 1; //D9 interrupt enable
    1aa6:	68 e0 a8    	bset.b    0x68, #0x7
    D12_CNEN = 1;//D12 interrupt enable
    1aa8:	68 60 a8    	bset.b    0x68, #0x3
    D13_CNEN = 1;//D13 interrupt enable
    1aaa:	68 80 a8    	bset.b    0x68, #0x4

    IFS1bits.CNIF = 0; // lower CN interrupt flag
    1aac:	86 60 a9    	bclr.b    0x86, #0x3
    IEC1bits.CNIE = 1; // Enable CN interrupt module
    1aae:	96 60 a8    	bset.b    0x96, #0x3
}
    1ab0:	00 80 fa    	ulnk      
    1ab2:	00 00 06    	return    

00001ab4 <_rand_next>:

void rand_next(void) {
    1ab4:	02 00 fa    	lnk       #0x2
    uint16_t val;

    // See "A List of Maximum Period NLFSRs" by Elena Dubrova, p. 7
    val = (rand_val ^ (rand_val >> 2) ^ (rand_val >> 13) ^ ((rand_val >> 2) & (rand_val >> 3))) & 1;
    1ab6:	b0 40 80    	mov.w     0x816, w0
    1ab8:	c2 00 de    	lsr.w     w0, #0x2, w1
    1aba:	b0 40 80    	mov.w     0x816, w0
    1abc:	80 80 68    	xor.w     w1, w0, w1
    1abe:	b0 40 80    	mov.w     0x816, w0
    1ac0:	4d 00 de    	lsr.w     w0, #0xd, w0
    1ac2:	80 80 68    	xor.w     w1, w0, w1
    1ac4:	b0 40 80    	mov.w     0x816, w0
    1ac6:	42 01 de    	lsr.w     w0, #0x2, w2
    1ac8:	b0 40 80    	mov.w     0x816, w0
    1aca:	43 00 de    	lsr.w     w0, #0x3, w0
    1acc:	00 00 61    	and.w     w2, w0, w0
    1ace:	00 80 68    	xor.w     w1, w0, w0
    1ad0:	61 0f 60    	and.w     w0, #0x1, [w14]
    rand_val = (rand_val >> 1) | (val << 15);
    1ad2:	b0 40 80    	mov.w     0x816, w0
    1ad4:	80 00 d1    	lsr.w     w0, w1
    1ad6:	1e 00 78    	mov.w     [w14], w0
    1ad8:	4f 00 dd    	sl.w      w0, #0xf, w0
    1ada:	01 00 70    	ior.w     w0, w1, w0
    1adc:	b0 40 88    	mov.w     w0, 0x816
}
    1ade:	00 80 fa    	ulnk      
    1ae0:	00 00 06    	return    

00001ae2 <___lcd_i2c_write>:
#define DR_READ 0x0B

_LCD lcd[3];

void __lcd_i2c_write(_LCD *self, uint8_t ch) {
    1ae2:	04 00 fa    	lnk       #0x4
    1ae4:	00 0f 78    	mov.w     w0, [w14]
    1ae6:	21 47 98    	mov.b     w1, [w14+2]
    i2c_start();
    1ae8:	91 02 07    	rcall     0x200c <_i2c_start> <.LFB2> <.LFE1>
    send_i2c_byte(self->addr_write);
    1aea:	1e 00 78    	mov.w     [w14], w0
    1aec:	10 40 78    	mov.b     [w0], w0
    1aee:	00 80 fb    	ze        w0, w0
    1af0:	dc 02 07    	rcall     0x20aa <_send_i2c_byte> <.LFB5> <.LFE4>
    send_i2c_byte(ch);
    1af2:	2e 40 90    	mov.b     [w14+2], w0
    1af4:	00 80 fb    	ze        w0, w0
    1af6:	d9 02 07    	rcall     0x20aa <_send_i2c_byte> <.LFB5> <.LFE4>
    reset_i2c_bus();
    1af8:	bd 02 07    	rcall     0x2074 <_reset_i2c_bus> <.LFB4> <.LFE3>
}
    1afa:	00 80 fa    	ulnk      
    1afc:	00 00 06    	return    

00001afe <___lcd_enablePulse>:

// Pulse enable pin high and then low to shift in 4 bits of data
void __lcd_enablePulse(_LCD *self) {
    1afe:	02 00 fa    	lnk       #0x2
    1b00:	00 0f 78    	mov.w     w0, [w14]
    self->io_write_val ^= ENABLE_TOGGLE;
    1b02:	1e 00 78    	mov.w     [w14], w0
    1b04:	20 40 90    	mov.b     [w0+2], w0
    1b06:	80 40 78    	mov.b     w0, w1
    1b08:	01 24 a2    	btg.b     w1, #0x2
    1b0a:	1e 00 78    	mov.w     [w14], w0
    1b0c:	21 40 98    	mov.b     w1, [w0+2]
    __lcd_i2c_write(self, self->io_write_val);
    1b0e:	1e 00 78    	mov.w     [w14], w0
    1b10:	20 40 90    	mov.b     [w0+2], w0
    1b12:	80 40 78    	mov.b     w0, w1
    1b14:	1e 00 78    	mov.w     [w14], w0
    1b16:	e5 ff 07    	rcall     0x1ae2 <___lcd_i2c_write> <.L0> <.LFB0> <.LFE10> <.Letext0> <.Ltext0>
    delay_by_nop(100);
    1b18:	40 06 20    	mov.w     #0x64, w0
    1b1a:	01 00 20    	mov.w     #0x0, w1
    1b1c:	57 02 07    	rcall     0x1fcc <_delay_by_nop> <.L0> <.LFB0> <.LFE16> <.Letext0> <.Ltext0>
    self->io_write_val ^= ENABLE_TOGGLE;
    1b1e:	1e 00 78    	mov.w     [w14], w0
    1b20:	20 40 90    	mov.b     [w0+2], w0
    1b22:	80 40 78    	mov.b     w0, w1
    1b24:	01 24 a2    	btg.b     w1, #0x2
    1b26:	1e 00 78    	mov.w     [w14], w0
    1b28:	21 40 98    	mov.b     w1, [w0+2]
    __lcd_i2c_write(self, self->io_write_val);
    1b2a:	1e 00 78    	mov.w     [w14], w0
    1b2c:	20 40 90    	mov.b     [w0+2], w0
    1b2e:	80 40 78    	mov.b     w0, w1
    1b30:	1e 00 78    	mov.w     [w14], w0
    1b32:	d7 ff 07    	rcall     0x1ae2 <___lcd_i2c_write> <.L0> <.LFB0> <.LFE10> <.Letext0> <.Ltext0>
    // delay_by_nop(1000);
}
    1b34:	00 80 fa    	ulnk      
    1b36:	00 00 06    	return    

00001b38 <___lcd_send>:

/* Send 8 bits of data as one 4-bit nibble, shifting in, second 4-bit nibble, and
shifting in */
void __lcd_send(_LCD *self, uint8_t value, uint8_t command) {
    1b38:	06 00 fa    	lnk       #0x6
    1b3a:	10 07 98    	mov.w     w0, [w14+2]
    1b3c:	41 47 98    	mov.b     w1, [w14+4]
    1b3e:	52 47 98    	mov.b     w2, [w14+5]
    uint8_t MS = value & 0x78;
    1b40:	4e 40 90    	mov.b     [w14+4], w0
    1b42:	81 c7 b3    	mov.b     #0x78, w1
    1b44:	01 4f 60    	and.b     w0, w1, [w14]
    uint8_t LS = value << 4;
    1b46:	ce 40 90    	mov.b     [w14+4], w1
    1b48:	40 00 20    	mov.w     #0x4, w0
    1b4a:	00 08 dd    	sl.w      w1, w0, w0
    1b4c:	10 47 98    	mov.b     w0, [w14+1]
    self->io_write_val = command | MS;
    1b4e:	5e 40 90    	mov.b     [w14+5], w0
    1b50:	9e 40 70    	ior.b     w0, [w14], w1
    1b52:	1e 00 90    	mov.w     [w14+2], w0
    1b54:	21 40 98    	mov.b     w1, [w0+2]
    __lcd_i2c_write(self, self->io_write_val);
    1b56:	1e 00 90    	mov.w     [w14+2], w0
    1b58:	20 40 90    	mov.b     [w0+2], w0
    1b5a:	80 40 78    	mov.b     w0, w1
    1b5c:	1e 00 90    	mov.w     [w14+2], w0
    1b5e:	c1 ff 07    	rcall     0x1ae2 <___lcd_i2c_write> <.L0> <.LFB0> <.LFE10> <.Letext0> <.Ltext0>
    __lcd_enablePulse(self);
    1b60:	1e 00 90    	mov.w     [w14+2], w0
    1b62:	cd ff 07    	rcall     0x1afe <___lcd_enablePulse> <.LFB1> <.LFE0>
    self->io_write_val= command | LS;
    1b64:	de 40 90    	mov.b     [w14+5], w1
    1b66:	1e 40 90    	mov.b     [w14+1], w0
    1b68:	80 c0 70    	ior.b     w1, w0, w1
    1b6a:	1e 00 90    	mov.w     [w14+2], w0
    1b6c:	21 40 98    	mov.b     w1, [w0+2]
    __lcd_i2c_write(self, self->io_write_val);
    1b6e:	1e 00 90    	mov.w     [w14+2], w0
    1b70:	20 40 90    	mov.b     [w0+2], w0
    1b72:	80 40 78    	mov.b     w0, w1
    1b74:	1e 00 90    	mov.w     [w14+2], w0
    1b76:	b5 ff 07    	rcall     0x1ae2 <___lcd_i2c_write> <.L0> <.LFB0> <.LFE10> <.Letext0> <.Ltext0>
    __lcd_enablePulse(self);
    1b78:	1e 00 90    	mov.w     [w14+2], w0
    1b7a:	c1 ff 07    	rcall     0x1afe <___lcd_enablePulse> <.LFB1> <.LFE0>
}
    1b7c:	00 80 fa    	ulnk      
    1b7e:	00 00 06    	return    

00001b80 <___lcd_send8>:

void __lcd_send8(_LCD *self, uint8_t value, uint8_t command) {
    1b80:	04 00 fa    	lnk       #0x4
    1b82:	00 0f 78    	mov.w     w0, [w14]
    1b84:	21 47 98    	mov.b     w1, [w14+2]
    1b86:	32 47 98    	mov.b     w2, [w14+3]
    value = value << 4;
    1b88:	ae 40 90    	mov.b     [w14+2], w1
    1b8a:	40 00 20    	mov.w     #0x4, w0
    1b8c:	00 08 dd    	sl.w      w1, w0, w0
    1b8e:	20 47 98    	mov.b     w0, [w14+2]
    self->io_write_val = command | value;
    1b90:	be 40 90    	mov.b     [w14+3], w1
    1b92:	2e 40 90    	mov.b     [w14+2], w0
    1b94:	80 c0 70    	ior.b     w1, w0, w1
    1b96:	1e 00 78    	mov.w     [w14], w0
    1b98:	21 40 98    	mov.b     w1, [w0+2]
    __lcd_i2c_write(self, self->io_write_val);
    1b9a:	1e 00 78    	mov.w     [w14], w0
    1b9c:	20 40 90    	mov.b     [w0+2], w0
    1b9e:	80 40 78    	mov.b     w0, w1
    1ba0:	1e 00 78    	mov.w     [w14], w0
    1ba2:	9f ff 07    	rcall     0x1ae2 <___lcd_i2c_write> <.L0> <.LFB0> <.LFE10> <.Letext0> <.Ltext0>
    __lcd_enablePulse(self);
    1ba4:	1e 00 78    	mov.w     [w14], w0
    1ba6:	ab ff 07    	rcall     0x1afe <___lcd_enablePulse> <.LFB1> <.LFE0>
}
    1ba8:	00 80 fa    	ulnk      
    1baa:	00 00 06    	return    

00001bac <_init_lcd>:

/* Some code from last year's Spaceteam project that sets up three LCD screens on
 one bus with corresponding IO extender types and hard-wired addresses */
void init_lcd(uint8_t initiator) {
    1bac:	02 00 fa    	lnk       #0x2
    1bae:	00 4f 78    	mov.b     w0, [w14]

    i2c_init(1e3);
    1bb0:	80 3e 20    	mov.w     #0x3e8, w0
    1bb2:	1f 02 07    	rcall     0x1ff2 <_i2c_init> <.LFB1> <.LFE0>

    switch (initiator) {
    1bb4:	1e 80 fb    	ze        [w14], w0
    1bb6:	e1 0f 50    	sub.w     w0, #0x1, [w15]
    1bb8:	17 00 32    	bra       Z, 0x1be8 <.L8>
    1bba:	e1 0f 50    	sub.w     w0, #0x1, [w15]
    1bbc:	03 00 3c    	bra       GT, 0x1bc4 <.L11>
    1bbe:	00 00 e0    	cp0.w     w0
    1bc0:	06 00 32    	bra       Z, 0x1bce <.L7>
    1bc2:	39 00 37    	bra       0x1c36 <.L5>

00001bc4 <.L11>:
    1bc4:	e2 0f 50    	sub.w     w0, #0x2, [w15]
    1bc6:	1d 00 32    	bra       Z, 0x1c02 <.L9>
    1bc8:	e3 0f 50    	sub.w     w0, #0x3, [w15]
    1bca:	28 00 32    	bra       Z, 0x1c1c <.L10>
    1bcc:	34 00 37    	bra       0x1c36 <.L5>

00001bce <.L7>:
        case 0: // Central
            lcd_init(&lcd[0], 0x05,'A');
    1bce:	12 c4 b3    	mov.b     #0x41, w2
    1bd0:	51 c0 b3    	mov.b     #0x5, w1
    1bd2:	00 04 21    	mov.w     #0x1040, w0
    1bd4:	32 00 07    	rcall     0x1c3a <_lcd_init> <.LFB5> <.LFE4>
            lcd_init(&lcd[1], 0x07,'A');
    1bd6:	12 c4 b3    	mov.b     #0x41, w2
    1bd8:	71 c0 b3    	mov.b     #0x7, w1
    1bda:	50 04 21    	mov.w     #0x1045, w0
    1bdc:	2e 00 07    	rcall     0x1c3a <_lcd_init> <.LFB5> <.LFE4>
            lcd_init(&lcd[2], 0x06,'T');
    1bde:	42 c5 b3    	mov.b     #0x54, w2
    1be0:	61 c0 b3    	mov.b     #0x6, w1
    1be2:	a0 04 21    	mov.w     #0x104a, w0
    1be4:	2a 00 07    	rcall     0x1c3a <_lcd_init> <.LFB5> <.LFE4>
            break;
    1be6:	27 00 37    	bra       0x1c36 <.L5>

00001be8 <.L8>:
        case 1:
            lcd_init(&lcd[0], 0x07,'A');
    1be8:	12 c4 b3    	mov.b     #0x41, w2
    1bea:	71 c0 b3    	mov.b     #0x7, w1
    1bec:	00 04 21    	mov.w     #0x1040, w0
    1bee:	25 00 07    	rcall     0x1c3a <_lcd_init> <.LFB5> <.LFE4>
            lcd_init(&lcd[2], 0x06,'A');
    1bf0:	12 c4 b3    	mov.b     #0x41, w2
    1bf2:	61 c0 b3    	mov.b     #0x6, w1
    1bf4:	a0 04 21    	mov.w     #0x104a, w0
    1bf6:	21 00 07    	rcall     0x1c3a <_lcd_init> <.LFB5> <.LFE4>
            lcd_init(&lcd[1], 0x05,'A');
    1bf8:	12 c4 b3    	mov.b     #0x41, w2
    1bfa:	51 c0 b3    	mov.b     #0x5, w1
    1bfc:	50 04 21    	mov.w     #0x1045, w0
    1bfe:	1d 00 07    	rcall     0x1c3a <_lcd_init> <.LFB5> <.LFE4>
            break;
    1c00:	1a 00 37    	bra       0x1c36 <.L5>

00001c02 <.L9>:
        case 2:
            lcd_init(&lcd[0], 0x07,'T');
    1c02:	42 c5 b3    	mov.b     #0x54, w2
    1c04:	71 c0 b3    	mov.b     #0x7, w1
    1c06:	00 04 21    	mov.w     #0x1040, w0
    1c08:	18 00 07    	rcall     0x1c3a <_lcd_init> <.LFB5> <.LFE4>
            lcd_init(&lcd[1], 0x06,'A');
    1c0a:	12 c4 b3    	mov.b     #0x41, w2
    1c0c:	61 c0 b3    	mov.b     #0x6, w1
    1c0e:	50 04 21    	mov.w     #0x1045, w0
    1c10:	14 00 07    	rcall     0x1c3a <_lcd_init> <.LFB5> <.LFE4>
            lcd_init(&lcd[2], 0x05,'A');
    1c12:	12 c4 b3    	mov.b     #0x41, w2
    1c14:	51 c0 b3    	mov.b     #0x5, w1
    1c16:	a0 04 21    	mov.w     #0x104a, w0
    1c18:	10 00 07    	rcall     0x1c3a <_lcd_init> <.LFB5> <.LFE4>
            break;
    1c1a:	0d 00 37    	bra       0x1c36 <.L5>

00001c1c <.L10>:
        case 3:
            lcd_init(&lcd[0], 0x07,'A');
    1c1c:	12 c4 b3    	mov.b     #0x41, w2
    1c1e:	71 c0 b3    	mov.b     #0x7, w1
    1c20:	00 04 21    	mov.w     #0x1040, w0
    1c22:	0b 00 07    	rcall     0x1c3a <_lcd_init> <.LFB5> <.LFE4>
            lcd_init(&lcd[1], 0x06,'A');
    1c24:	12 c4 b3    	mov.b     #0x41, w2
    1c26:	61 c0 b3    	mov.b     #0x6, w1
    1c28:	50 04 21    	mov.w     #0x1045, w0
    1c2a:	07 00 07    	rcall     0x1c3a <_lcd_init> <.LFB5> <.LFE4>
            lcd_init(&lcd[2], 0x05,'A');
    1c2c:	12 c4 b3    	mov.b     #0x41, w2
    1c2e:	51 c0 b3    	mov.b     #0x5, w1
    1c30:	a0 04 21    	mov.w     #0x104a, w0
    1c32:	03 00 07    	rcall     0x1c3a <_lcd_init> <.LFB5> <.LFE4>
            break;
    1c34:	00 00 00    	nop       

00001c36 <.L5>:
    }
}
    1c36:	00 80 fa    	ulnk      
    1c38:	00 00 06    	return    

00001c3a <_lcd_init>:

// Initializes the LCD screen hardware as per pg. 46 of the datasheet
void lcd_init(_LCD *self, uint8_t addr, char vendor) {
    1c3a:	04 00 fa    	lnk       #0x4
    1c3c:	00 0f 78    	mov.w     w0, [w14]
    1c3e:	21 47 98    	mov.b     w1, [w14+2]
    1c40:	32 47 98    	mov.b     w2, [w14+3]
    switch(vendor){
    1c42:	3e 40 90    	mov.b     [w14+3], w0
    1c44:	00 00 fb    	se        w0, w0
    1c46:	11 04 20    	mov.w     #0x41, w1
    1c48:	81 0f 50    	sub.w     w0, w1, [w15]
    1c4a:	10 00 32    	bra       Z, 0x1c6c <.L14>
    1c4c:	41 05 20    	mov.w     #0x54, w1
    1c4e:	81 0f 50    	sub.w     w0, w1, [w15]
    1c50:	1a 00 3a    	bra       NZ, 0x1c86 <.L13>
        case 'T':// 0x40 == vendor prefix for PCF8574T
            self->addr_write = 0x40 + (addr << 1);
    1c52:	2e 40 90    	mov.b     [w14+2], w0
    1c54:	00 40 40    	add.b     w0, w0, w0
    1c56:	02 c4 b3    	mov.b     #0x40, w2
    1c58:	82 40 40    	add.b     w0, w2, w1
    1c5a:	1e 00 78    	mov.w     [w14], w0
    1c5c:	01 48 78    	mov.b     w1, [w0]
            self->addr_read = 0x40 + (addr << 1)+1;
    1c5e:	2e 40 90    	mov.b     [w14+2], w0
    1c60:	00 40 40    	add.b     w0, w0, w0
    1c62:	12 c4 b3    	mov.b     #0x41, w2
    1c64:	82 40 40    	add.b     w0, w2, w1
    1c66:	1e 00 78    	mov.w     [w14], w0
    1c68:	11 40 98    	mov.b     w1, [w0+1]
            break;
    1c6a:	0d 00 37    	bra       0x1c86 <.L13>

00001c6c <.L14>:
        case 'A':// 0x70 == vendor prefix PCF8574AT
            self->addr_write = 0x70 + (addr << 1);
    1c6c:	2e 40 90    	mov.b     [w14+2], w0
    1c6e:	00 40 40    	add.b     w0, w0, w0
    1c70:	02 c7 b3    	mov.b     #0x70, w2
    1c72:	82 40 40    	add.b     w0, w2, w1
    1c74:	1e 00 78    	mov.w     [w14], w0
    1c76:	01 48 78    	mov.b     w1, [w0]
            self->addr_read = 0x70 + (addr << 1)+1;
    1c78:	2e 40 90    	mov.b     [w14+2], w0
    1c7a:	00 40 40    	add.b     w0, w0, w0
    1c7c:	12 c7 b3    	mov.b     #0x71, w2
    1c7e:	82 40 40    	add.b     w0, w2, w1
    1c80:	1e 00 78    	mov.w     [w14], w0
    1c82:	11 40 98    	mov.b     w1, [w0+1]
            break;
    1c84:	00 00 00    	nop       

00001c86 <.L13>:
    }

    self->display_control = 0x00;
    1c86:	1e 00 78    	mov.w     [w14], w0
    1c88:	80 40 eb    	clr.b     w1
    1c8a:	31 40 98    	mov.b     w1, [w0+3]
    self->display_mode = 0x00;
    1c8c:	1e 00 78    	mov.w     [w14], w0
    1c8e:	80 40 eb    	clr.b     w1
    1c90:	41 40 98    	mov.b     w1, [w0+4]

    self->io_write_val = 0x00;
    1c92:	1e 00 78    	mov.w     [w14], w0
    1c94:	80 40 eb    	clr.b     w1
    1c96:	21 40 98    	mov.b     w1, [w0+2]

    __lcd_i2c_write(self, 0x00);
    1c98:	80 40 eb    	clr.b     w1
    1c9a:	1e 00 78    	mov.w     [w14], w0
    1c9c:	22 ff 07    	rcall     0x1ae2 <___lcd_i2c_write> <.L0> <.LFB0> <.LFE10> <.Letext0> <.Ltext0>

    delay_by_nop(15000);
    1c9e:	80 a9 23    	mov.w     #0x3a98, w0
    1ca0:	01 00 20    	mov.w     #0x0, w1
    1ca2:	94 01 07    	rcall     0x1fcc <_delay_by_nop> <.L0> <.LFB0> <.LFE16> <.Letext0> <.Ltext0>

    // Some bullshit according to pg 46
    __lcd_send8(self, 0x03, INTERNAL_WRITE);
    1ca4:	82 c0 b3    	mov.b     #0x8, w2
    1ca6:	31 c0 b3    	mov.b     #0x3, w1
    1ca8:	1e 00 78    	mov.w     [w14], w0
    1caa:	6a ff 07    	rcall     0x1b80 <___lcd_send8> <.LFB3> <.LFE2>
    delay_by_nop(5000);
    1cac:	80 38 21    	mov.w     #0x1388, w0
    1cae:	01 00 20    	mov.w     #0x0, w1
    1cb0:	8d 01 07    	rcall     0x1fcc <_delay_by_nop> <.L0> <.LFB0> <.LFE16> <.Letext0> <.Ltext0>

    __lcd_send8(self, 0x03, INTERNAL_WRITE);//0b00110000
    1cb2:	82 c0 b3    	mov.b     #0x8, w2
    1cb4:	31 c0 b3    	mov.b     #0x3, w1
    1cb6:	1e 00 78    	mov.w     [w14], w0
    1cb8:	63 ff 07    	rcall     0x1b80 <___lcd_send8> <.LFB3> <.LFE2>
    delay_by_nop(5000);
    1cba:	80 38 21    	mov.w     #0x1388, w0
    1cbc:	01 00 20    	mov.w     #0x0, w1
    1cbe:	86 01 07    	rcall     0x1fcc <_delay_by_nop> <.L0> <.LFB0> <.LFE16> <.Letext0> <.Ltext0>

    __lcd_send8(self, 0x03, INTERNAL_WRITE);//0b00110000
    1cc0:	82 c0 b3    	mov.b     #0x8, w2
    1cc2:	31 c0 b3    	mov.b     #0x3, w1
    1cc4:	1e 00 78    	mov.w     [w14], w0
    1cc6:	5c ff 07    	rcall     0x1b80 <___lcd_send8> <.LFB3> <.LFE2>
    delay_by_nop(5000);
    1cc8:	80 38 21    	mov.w     #0x1388, w0
    1cca:	01 00 20    	mov.w     #0x0, w1
    1ccc:	7f 01 07    	rcall     0x1fcc <_delay_by_nop> <.L0> <.LFB0> <.LFE16> <.Letext0> <.Ltext0>

    // Put it in 4 bit mode
    __lcd_send8(self, 0x02, INTERNAL_WRITE);//0b00110000
    1cce:	82 c0 b3    	mov.b     #0x8, w2
    1cd0:	21 c0 b3    	mov.b     #0x2, w1
    1cd2:	1e 00 78    	mov.w     [w14], w0
    1cd4:	55 ff 07    	rcall     0x1b80 <___lcd_send8> <.LFB3> <.LFE2>
    delay_by_nop(5000);
    1cd6:	80 38 21    	mov.w     #0x1388, w0
    1cd8:	01 00 20    	mov.w     #0x0, w1
    1cda:	78 01 07    	rcall     0x1fcc <_delay_by_nop> <.L0> <.LFB0> <.LFE16> <.Letext0> <.Ltext0>

    __lcd_send(self, 0x28, INTERNAL_WRITE); // Set rows and direction
    1cdc:	82 c0 b3    	mov.b     #0x8, w2
    1cde:	81 c2 b3    	mov.b     #0x28, w1
    1ce0:	1e 00 78    	mov.w     [w14], w0
    1ce2:	2a ff 07    	rcall     0x1b38 <___lcd_send> <.LFB2> <.LFE1>
    delay_by_nop(50);
    1ce4:	20 03 20    	mov.w     #0x32, w0
    1ce6:	01 00 20    	mov.w     #0x0, w1
    1ce8:	71 01 07    	rcall     0x1fcc <_delay_by_nop> <.L0> <.LFB0> <.LFE16> <.Letext0> <.Ltext0>

    __lcd_send(self, 0x80, INTERNAL_WRITE); // Display off, cursor off
    1cea:	82 c0 b3    	mov.b     #0x8, w2
    1cec:	01 c8 b3    	mov.b     #0x80, w1
    1cee:	1e 00 78    	mov.w     [w14], w0
    1cf0:	23 ff 07    	rcall     0x1b38 <___lcd_send> <.LFB2> <.LFE1>
    delay_by_nop(50);
    1cf2:	20 03 20    	mov.w     #0x32, w0
    1cf4:	01 00 20    	mov.w     #0x0, w1
    1cf6:	6a 01 07    	rcall     0x1fcc <_delay_by_nop> <.L0> <.LFB0> <.LFE16> <.Letext0> <.Ltext0>

    __lcd_send(self, 0x01, INTERNAL_WRITE); // Go to home position
    1cf8:	82 c0 b3    	mov.b     #0x8, w2
    1cfa:	11 c0 b3    	mov.b     #0x1, w1
    1cfc:	1e 00 78    	mov.w     [w14], w0
    1cfe:	1c ff 07    	rcall     0x1b38 <___lcd_send> <.LFB2> <.LFE1>
    delay_by_nop(2000);
    1d00:	00 7d 20    	mov.w     #0x7d0, w0
    1d02:	01 00 20    	mov.w     #0x0, w1
    1d04:	63 01 07    	rcall     0x1fcc <_delay_by_nop> <.L0> <.LFB0> <.LFE16> <.Letext0> <.Ltext0>

    __lcd_send(self, 0x06, INTERNAL_WRITE); // Set curson direction
    1d06:	82 c0 b3    	mov.b     #0x8, w2
    1d08:	61 c0 b3    	mov.b     #0x6, w1
    1d0a:	1e 00 78    	mov.w     [w14], w0
    1d0c:	15 ff 07    	rcall     0x1b38 <___lcd_send> <.LFB2> <.LFE1>
    delay_by_nop(5000);
    1d0e:	80 38 21    	mov.w     #0x1388, w0
    1d10:	01 00 20    	mov.w     #0x0, w1
    1d12:	5c 01 07    	rcall     0x1fcc <_delay_by_nop> <.L0> <.LFB0> <.LFE16> <.Letext0> <.Ltext0>

    __lcd_send(self, 0x0C, INTERNAL_WRITE); // Display on, cursor off
    1d14:	82 c0 b3    	mov.b     #0x8, w2
    1d16:	c1 c0 b3    	mov.b     #0xc, w1
    1d18:	1e 00 78    	mov.w     [w14], w0
    1d1a:	0e ff 07    	rcall     0x1b38 <___lcd_send> <.LFB2> <.LFE1>
}
    1d1c:	00 80 fa    	ulnk      
    1d1e:	00 00 06    	return    

00001d20 <_lcd_stop>:

// Stops lcd I2C transfer
void lcd_stop(_LCD *self) {
    1d20:	02 00 fa    	lnk       #0x2
    1d22:	00 0f 78    	mov.w     w0, [w14]
    reset_i2c_bus();
    1d24:	a7 01 07    	rcall     0x2074 <_reset_i2c_bus> <.LFB4> <.LFE3>
}
    1d26:	00 80 fa    	ulnk      
    1d28:	00 00 06    	return    

00001d2a <_lcd_display>:

// Sends show display command to LCD
void lcd_display(_LCD *self, uint8_t on) {
    1d2a:	04 00 fa    	lnk       #0x4
    1d2c:	00 0f 78    	mov.w     w0, [w14]
    1d2e:	21 47 98    	mov.b     w1, [w14+2]
    if (on) {
    1d30:	2e 40 90    	mov.b     [w14+2], w0
    1d32:	00 04 e0    	cp0.b     w0
    1d34:	07 00 32    	bra       Z, 0x1d44 <.L18>
        self->display_control |= LCD_DISPLAYON;
    1d36:	1e 00 78    	mov.w     [w14], w0
    1d38:	30 40 90    	mov.b     [w0+3], w0
    1d3a:	80 40 78    	mov.b     w0, w1
    1d3c:	01 24 a0    	bset.b    w1, #0x2
    1d3e:	1e 00 78    	mov.w     [w14], w0
    1d40:	31 40 98    	mov.b     w1, [w0+3]
    1d42:	06 00 37    	bra       0x1d50 <.L19>

00001d44 <.L18>:
    } else {
        self->display_control &= ~LCD_DISPLAYON;
    1d44:	1e 00 78    	mov.w     [w14], w0
    1d46:	b0 40 90    	mov.b     [w0+3], w1
    1d48:	b0 cf b3    	mov.b     #0xfb, w0
    1d4a:	80 c0 60    	and.b     w1, w0, w1
    1d4c:	1e 00 78    	mov.w     [w14], w0
    1d4e:	31 40 98    	mov.b     w1, [w0+3]

00001d50 <.L19>:
    }
    __lcd_send(self, self->display_control | LCD_DISPLAYCONTROL, INTERNAL_WRITE);
    1d50:	1e 00 78    	mov.w     [w14], w0
    1d52:	30 40 90    	mov.b     [w0+3], w0
    1d54:	00 34 a0    	bset.b    w0, #0x3
    1d56:	82 c0 b3    	mov.b     #0x8, w2
    1d58:	80 40 78    	mov.b     w0, w1
    1d5a:	1e 00 78    	mov.w     [w14], w0
    1d5c:	ed fe 07    	rcall     0x1b38 <___lcd_send> <.LFB2> <.LFE1>
}
    1d5e:	00 80 fa    	ulnk      
    1d60:	00 00 06    	return    

00001d62 <_lcd_clear>:

// Sends clear display command to LCD
void lcd_clear(_LCD *self) {
    1d62:	02 00 fa    	lnk       #0x2
    1d64:	00 0f 78    	mov.w     w0, [w14]
    __lcd_send(self, LCD_CLEARDISPLAY, INTERNAL_WRITE);
    1d66:	82 c0 b3    	mov.b     #0x8, w2
    1d68:	11 c0 b3    	mov.b     #0x1, w1
    1d6a:	1e 00 78    	mov.w     [w14], w0
    1d6c:	e5 fe 07    	rcall     0x1b38 <___lcd_send> <.LFB2> <.LFE1>
    delay_by_nop(2000);
    1d6e:	00 7d 20    	mov.w     #0x7d0, w0
    1d70:	01 00 20    	mov.w     #0x0, w1
    1d72:	2c 01 07    	rcall     0x1fcc <_delay_by_nop> <.L0> <.LFB0> <.LFE16> <.Letext0> <.Ltext0>
}
    1d74:	00 80 fa    	ulnk      
    1d76:	00 00 06    	return    

00001d78 <_lcd_putc>:

// Sends single character to LCD display
void lcd_putc(_LCD *self, char c) {
    1d78:	04 00 fa    	lnk       #0x4
    1d7a:	00 0f 78    	mov.w     w0, [w14]
    1d7c:	21 47 98    	mov.b     w1, [w14+2]
    __lcd_send(self, c, DR_WRITE);
    1d7e:	2e 40 90    	mov.b     [w14+2], w0
    1d80:	92 c0 b3    	mov.b     #0x9, w2
    1d82:	80 40 78    	mov.b     w0, w1
    1d84:	1e 00 78    	mov.w     [w14], w0
    1d86:	d8 fe 07    	rcall     0x1b38 <___lcd_send> <.LFB2> <.LFE1>
    // delay_by_nop(1000);
}
    1d88:	00 80 fa    	ulnk      
    1d8a:	00 00 06    	return    

00001d8c <_lcd_goto>:

// Sends commands to move LCD cursor to specified location
void lcd_goto(_LCD *self, uint8_t line, uint8_t col) { //x=col, y=row
    1d8c:	06 00 fa    	lnk       #0x6
    1d8e:	10 07 98    	mov.w     w0, [w14+2]
    1d90:	41 47 98    	mov.b     w1, [w14+4]
    1d92:	52 47 98    	mov.b     w2, [w14+5]
    uint8_t address;
    switch(line) {
    1d94:	4e 40 90    	mov.b     [w14+4], w0
    1d96:	00 80 fb    	ze        w0, w0
    1d98:	e1 0f 50    	sub.w     w0, #0x1, [w15]
    1d9a:	03 00 32    	bra       Z, 0x1da2 <.L24>
    1d9c:	e2 0f 50    	sub.w     w0, #0x2, [w15]
    1d9e:	04 00 32    	bra       Z, 0x1da8 <.L25>
    1da0:	06 00 37    	bra       0x1dae <.L27>

00001da2 <.L24>:
        case 1:
            address = 0x00;
    1da2:	00 40 eb    	clr.b     w0
    1da4:	00 4f 78    	mov.b     w0, [w14]
            break;
    1da6:	06 00 37    	bra       0x1db4 <.L26>

00001da8 <.L25>:
        case 2:
            address = 0x40;
    1da8:	00 c4 b3    	mov.b     #0x40, w0
    1daa:	00 4f 78    	mov.b     w0, [w14]
            break;
    1dac:	03 00 37    	bra       0x1db4 <.L26>

00001dae <.L27>:
        default:
            address = 0x00;
    1dae:	00 40 eb    	clr.b     w0
    1db0:	00 4f 78    	mov.b     w0, [w14]
            break;
    1db2:	00 00 00    	nop       

00001db4 <.L26>:
    }

    address = address+col;
    1db4:	5e 40 90    	mov.b     [w14+5], w0
    1db6:	1e 4f 40    	add.b     w0, [w14], [w14]
    __lcd_send(self, LCD_SETDDRAMADDR | address, INTERNAL_WRITE);
    1db8:	1e 40 78    	mov.b     [w14], w0
    1dba:	00 74 a0    	bset.b    w0, #0x7
    1dbc:	82 c0 b3    	mov.b     #0x8, w2
    1dbe:	80 40 78    	mov.b     w0, w1
    1dc0:	1e 00 90    	mov.w     [w14+2], w0
    1dc2:	ba fe 07    	rcall     0x1b38 <___lcd_send> <.LFB2> <.LFE1>
}
    1dc4:	00 80 fa    	ulnk      
    1dc6:	00 00 06    	return    

00001dc8 <_lcd_cursor>:


void lcd_cursor(_LCD *self, uint8_t cur) {
    1dc8:	04 00 fa    	lnk       #0x4
    1dca:	00 0f 78    	mov.w     w0, [w14]
    1dcc:	21 47 98    	mov.b     w1, [w14+2]
    switch(cur) {
    1dce:	2e 40 90    	mov.b     [w14+2], w0
    1dd0:	00 80 fb    	ze        w0, w0
    1dd2:	00 00 e0    	cp0.w     w0
    1dd4:	03 00 32    	bra       Z, 0x1ddc <.L30>
    1dd6:	e1 0f 50    	sub.w     w0, #0x1, [w15]
    1dd8:	06 00 32    	bra       Z, 0x1de6 <.L31>
        case 0:
            __lcd_send(self, 0x0C, INTERNAL_WRITE);
            break;
        case 1:
            __lcd_send(self, 0x0E, INTERNAL_WRITE);
            break;
        default:
            break;
    1dda:	0a 00 37    	bra       0x1df0 <.L28>

00001ddc <.L30>:
    1ddc:	82 c0 b3    	mov.b     #0x8, w2
    1dde:	c1 c0 b3    	mov.b     #0xc, w1
    1de0:	1e 00 78    	mov.w     [w14], w0
    1de2:	aa fe 07    	rcall     0x1b38 <___lcd_send> <.LFB2> <.LFE1>
    1de4:	05 00 37    	bra       0x1df0 <.L28>

00001de6 <.L31>:
    1de6:	82 c0 b3    	mov.b     #0x8, w2
    1de8:	e1 c0 b3    	mov.b     #0xe, w1
    1dea:	1e 00 78    	mov.w     [w14], w0
    1dec:	a5 fe 07    	rcall     0x1b38 <___lcd_send> <.LFB2> <.LFE1>
    1dee:	00 00 00    	nop       

00001df0 <.L28>:
    }
}
    1df0:	00 80 fa    	ulnk      
    1df2:	00 00 06    	return    

00001df4 <_lcd_print1>:

void lcd_print1(_LCD *self, char *str) {
    1df4:	04 00 fa    	lnk       #0x4
    1df6:	00 0f 78    	mov.w     w0, [w14]
    1df8:	11 07 98    	mov.w     w1, [w14+2]
    lcd_clear(self);
    1dfa:	1e 00 78    	mov.w     [w14], w0
    1dfc:	b2 ff 07    	rcall     0x1d62 <_lcd_clear> <.LFB8> <.LFE7>
    while (*str) {
    1dfe:	08 00 37    	bra       0x1e10 <.L34>

00001e00 <.L35>:
        lcd_putc(self, *str);
    1e00:	1e 00 90    	mov.w     [w14+2], w0
    1e02:	10 40 78    	mov.b     [w0], w0
    1e04:	80 40 78    	mov.b     w0, w1
    1e06:	1e 00 78    	mov.w     [w14], w0
    1e08:	b7 ff 07    	rcall     0x1d78 <_lcd_putc> <.LFB9> <.LFE8>
        str++;
    1e0a:	1e 00 90    	mov.w     [w14+2], w0
    1e0c:	00 00 e8    	inc.w     w0, w0
    1e0e:	10 07 98    	mov.w     w0, [w14+2]

00001e10 <.L34>:
    1e10:	1e 00 90    	mov.w     [w14+2], w0
    1e12:	10 40 78    	mov.b     [w0], w0
    1e14:	00 04 e0    	cp0.b     w0
    1e16:	f4 ff 3a    	bra       NZ, 0x1e00 <.L35>
    }
}
    1e18:	00 80 fa    	ulnk      
    1e1a:	00 00 06    	return    

00001e1c <_lcd_print2>:

void lcd_print2(_LCD *self, char* line1, char* line2){
    1e1c:	42 00 fa    	lnk       #0x42
    1e1e:	60 1f 98    	mov.w     w0, [w14+60]
    1e20:	71 1f 98    	mov.w     w1, [w14+62]
    1e22:	02 27 98    	mov.w     w2, [w14+64]
    lcd_clear(self);
    1e24:	6e 18 90    	mov.w     [w14+60], w0
    1e26:	9d ff 07    	rcall     0x1d62 <_lcd_clear> <.LFB8> <.LFE7>
    char str[56] ="                                                        ";
    1e28:	20 54 29    	mov.w     #0x9542, w0
    1e2a:	e4 00 47    	add.w     w14, #0x4, w1
    1e2c:	37 00 09    	repeat    #0x37
    1e2e:	b0 58 78    	mov.b     [w0++], [w1++]
    1e30:	80 03 b1    	sub.w     #0x38, w0
    int i =0;
    1e32:	00 00 eb    	clr.w     w0
    1e34:	00 0f 78    	mov.w     w0, [w14]
    while (*line1){
    1e36:	09 00 37    	bra       0x1e4a <.L37>

00001e38 <.L38>:
        str[i]=*line1;
    1e38:	7e 18 90    	mov.w     [w14+62], w0
    1e3a:	90 40 78    	mov.b     [w0], w1
    1e3c:	64 00 47    	add.w     w14, #0x4, w0
    1e3e:	1e 00 40    	add.w     w0, [w14], w0
    1e40:	01 48 78    	mov.b     w1, [w0]
        i=i+1;
    1e42:	1e 0f e8    	inc.w     [w14], [w14]
        line1++;
    1e44:	7e 18 90    	mov.w     [w14+62], w0
    1e46:	00 00 e8    	inc.w     w0, w0
    1e48:	70 1f 98    	mov.w     w0, [w14+62]

00001e4a <.L37>:
    1e4a:	7e 18 90    	mov.w     [w14+62], w0
    1e4c:	10 40 78    	mov.b     [w0], w0
    1e4e:	00 04 e0    	cp0.b     w0
    1e50:	f3 ff 3a    	bra       NZ, 0x1e38 <.L38>
    }
    i =40;
    1e52:	80 02 20    	mov.w     #0x28, w0
    1e54:	00 0f 78    	mov.w     w0, [w14]
    while (*line2){
    1e56:	09 00 37    	bra       0x1e6a <.L39>

00001e58 <.L40>:
        str[i]=*line2;
    1e58:	0e 20 90    	mov.w     [w14+64], w0
    1e5a:	90 40 78    	mov.b     [w0], w1
    1e5c:	64 00 47    	add.w     w14, #0x4, w0
    1e5e:	1e 00 40    	add.w     w0, [w14], w0
    1e60:	01 48 78    	mov.b     w1, [w0]
        i=i+1;
    1e62:	1e 0f e8    	inc.w     [w14], [w14]
        line2++;
    1e64:	0e 20 90    	mov.w     [w14+64], w0
    1e66:	00 00 e8    	inc.w     w0, w0
    1e68:	00 27 98    	mov.w     w0, [w14+64]

00001e6a <.L39>:
    1e6a:	0e 20 90    	mov.w     [w14+64], w0
    1e6c:	10 40 78    	mov.b     [w0], w0
    1e6e:	00 04 e0    	cp0.b     w0
    1e70:	f3 ff 3a    	bra       NZ, 0x1e58 <.L40>
    }
    char* strptr=str;
    1e72:	64 00 47    	add.w     w14, #0x4, w0
    1e74:	10 07 98    	mov.w     w0, [w14+2]
    lcd_print1(self,strptr);
    1e76:	9e 00 90    	mov.w     [w14+2], w1
    1e78:	6e 18 90    	mov.w     [w14+60], w0
    1e7a:	bc ff 07    	rcall     0x1df4 <_lcd_print1> <.LFB12> <.LFE11>
}
    1e7c:	00 80 fa    	ulnk      
    1e7e:	00 00 06    	return    

00001e80 <_lcd_print>:

void lcd_print(_LCD *self, char* message) {
    1e80:	30 00 fa    	lnk       #0x30
    1e82:	60 17 98    	mov.w     w0, [w14+44]
    1e84:	71 17 98    	mov.w     w1, [w14+46]
    char newstr1[17] = "                ";
    1e86:	b0 57 29    	mov.w     #0x957b, w0
    1e88:	ea 00 47    	add.w     w14, #0xa, w1
    1e8a:	10 00 09    	repeat    #0x10
    1e8c:	b0 58 78    	mov.b     [w0++], [w1++]
    1e8e:	10 01 b1    	sub.w     #0x11, w0
    char* newstrptr1= newstr1;
    1e90:	6a 0f 47    	add.w     w14, #0xa, [w14]
    char newstr2[17] = "                ";
    1e92:	b0 57 29    	mov.w     #0x957b, w0
    1e94:	fb 00 47    	add.w     w14, #0x1b, w1
    1e96:	10 00 09    	repeat    #0x10
    1e98:	b0 58 78    	mov.b     [w0++], [w1++]
    1e9a:	10 01 b1    	sub.w     #0x11, w0
    char* newstrptr2= newstr2;
    1e9c:	7b 00 47    	add.w     w14, #0x1b, w0
    1e9e:	10 07 98    	mov.w     w0, [w14+2]
    char* temp1 = newstrptr1;
    1ea0:	9e 00 78    	mov.w     [w14], w1
    1ea2:	31 07 98    	mov.w     w1, [w14+6]
    char* temp2 = newstrptr2;
    1ea4:	9e 00 90    	mov.w     [w14+2], w1
    1ea6:	41 07 98    	mov.w     w1, [w14+8]
    uint8_t i=0;
    1ea8:	00 40 eb    	clr.b     w0
    1eaa:	40 47 98    	mov.b     w0, [w14+4]
    while (i <17){
    1eac:	0f 00 37    	bra       0x1ecc <.L42>

00001eae <.L44>:
        if (*message){
    1eae:	7e 10 90    	mov.w     [w14+46], w0
    1eb0:	10 40 78    	mov.b     [w0], w0
    1eb2:	00 04 e0    	cp0.b     w0
    1eb4:	08 00 32    	bra       Z, 0x1ec6 <.L43>
            *newstrptr1=*message;
    1eb6:	7e 10 90    	mov.w     [w14+46], w0
    1eb8:	90 40 78    	mov.b     [w0], w1
    1eba:	1e 00 78    	mov.w     [w14], w0
    1ebc:	01 48 78    	mov.b     w1, [w0]
            message++;
    1ebe:	7e 10 90    	mov.w     [w14+46], w0
    1ec0:	00 00 e8    	inc.w     w0, w0
    1ec2:	70 17 98    	mov.w     w0, [w14+46]
            newstrptr1++;
    1ec4:	1e 0f e8    	inc.w     [w14], [w14]

00001ec6 <.L43>:
        }
        i++;
    1ec6:	4e 40 90    	mov.b     [w14+4], w0
    1ec8:	00 40 e8    	inc.b     w0, w0
    1eca:	40 47 98    	mov.b     w0, [w14+4]

00001ecc <.L42>:
    1ecc:	4e 40 90    	mov.b     [w14+4], w0
    1ece:	f0 4f 50    	sub.b     w0, #0x10, [w15]
    1ed0:	ee ff 36    	bra       LEU, 0x1eae <.L44>
    }
    i=0;
    1ed2:	00 40 eb    	clr.b     w0
    1ed4:	40 47 98    	mov.b     w0, [w14+4]
    message--; //SKETCHY!
    1ed6:	7e 10 90    	mov.w     [w14+46], w0
    1ed8:	00 00 e9    	dec.w     w0, w0
    1eda:	70 17 98    	mov.w     w0, [w14+46]
    while (i <17){
    1edc:	11 00 37    	bra       0x1f00 <.L45>

00001ede <.L47>:
        if (*message){
    1ede:	7e 10 90    	mov.w     [w14+46], w0
    1ee0:	10 40 78    	mov.b     [w0], w0
    1ee2:	00 04 e0    	cp0.b     w0
    1ee4:	0a 00 32    	bra       Z, 0x1efa <.L46>
            *newstrptr2=*message;
    1ee6:	7e 10 90    	mov.w     [w14+46], w0
    1ee8:	90 40 78    	mov.b     [w0], w1
    1eea:	1e 00 90    	mov.w     [w14+2], w0
    1eec:	01 48 78    	mov.b     w1, [w0]
            message++;
    1eee:	7e 10 90    	mov.w     [w14+46], w0
    1ef0:	00 00 e8    	inc.w     w0, w0
    1ef2:	70 17 98    	mov.w     w0, [w14+46]
            newstrptr2++;
    1ef4:	1e 00 90    	mov.w     [w14+2], w0
    1ef6:	00 00 e8    	inc.w     w0, w0
    1ef8:	10 07 98    	mov.w     w0, [w14+2]

00001efa <.L46>:
        }
        i++;
    1efa:	4e 40 90    	mov.b     [w14+4], w0
    1efc:	00 40 e8    	inc.b     w0, w0
    1efe:	40 47 98    	mov.b     w0, [w14+4]

00001f00 <.L45>:
    1f00:	4e 40 90    	mov.b     [w14+4], w0
    1f02:	f0 4f 50    	sub.b     w0, #0x10, [w15]
    1f04:	ec ff 36    	bra       LEU, 0x1ede <.L47>
    }
    lcd_print2(self, temp1, temp2);
    1f06:	4e 01 90    	mov.w     [w14+8], w2
    1f08:	be 00 90    	mov.w     [w14+6], w1
    1f0a:	6e 10 90    	mov.w     [w14+44], w0
    1f0c:	87 ff 07    	rcall     0x1e1c <_lcd_print2> <.LFB13> <.LFE12>
}
    1f0e:	00 80 fa    	ulnk      
    1f10:	00 00 06    	return    

00001f12 <_lcd_broadcast>:

void lcd_broadcast(char* message) {
    1f12:	04 00 fa    	lnk       #0x4
    1f14:	10 07 98    	mov.w     w0, [w14+2]
    uint8_t i;
    for (i = 0; i < 3; i++)
    1f16:	00 40 eb    	clr.b     w0
    1f18:	00 4f 78    	mov.b     w0, [w14]
    1f1a:	08 00 37    	bra       0x1f2c <.L49>

00001f1c <.L50>:
        lcd_print(&lcd[i], message);
    1f1c:	1e 80 fb    	ze        [w14], w0
    1f1e:	65 00 b9    	mul.su    w0, #0x5, w0
    1f20:	80 00 78    	mov.w     w0, w1
    1f22:	00 04 21    	mov.w     #0x1040, w0
    1f24:	00 80 40    	add.w     w1, w0, w0
    1f26:	9e 00 90    	mov.w     [w14+2], w1
    1f28:	ab ff 07    	rcall     0x1e80 <_lcd_print> <.LFB14> <.LFE13>
    1f2a:	1e 4f e8    	inc.b     [w14], [w14]

00001f2c <.L49>:
    1f2c:	1e 40 78    	mov.b     [w14], w0
    1f2e:	e2 4f 50    	sub.b     w0, #0x2, [w15]
    1f30:	f5 ff 36    	bra       LEU, 0x1f1c <.L50>
}
    1f32:	00 80 fa    	ulnk      
    1f34:	00 00 06    	return    

00001f36 <_itoa>:

char * itoa (int value, char *result, int base) {
    1f36:	0e 00 fa    	lnk       #0xe
    1f38:	40 07 98    	mov.w     w0, [w14+8]
    1f3a:	51 07 98    	mov.w     w1, [w14+10]
    1f3c:	62 07 98    	mov.w     w2, [w14+12]
    // check that the base if valid
    if (base < 2 || base > 36) { *result = '\0'; return result; }
    1f3e:	6e 00 90    	mov.w     [w14+12], w0
    1f40:	e1 0f 50    	sub.w     w0, #0x1, [w15]
    1f42:	04 00 34    	bra       LE, 0x1f4c <.L52>
    1f44:	ee 00 90    	mov.w     [w14+12], w1
    1f46:	40 02 20    	mov.w     #0x24, w0
    1f48:	80 8f 50    	sub.w     w1, w0, [w15]
    1f4a:	05 00 34    	bra       LE, 0x1f56 <.L53>

00001f4c <.L52>:
    1f4c:	5e 00 90    	mov.w     [w14+10], w0
    1f4e:	80 40 eb    	clr.b     w1
    1f50:	01 48 78    	mov.b     w1, [w0]
    1f52:	5e 00 90    	mov.w     [w14+10], w0
    1f54:	39 00 37    	bra       0x1fc8 <.L54>

00001f56 <.L53>:

    char* ptr = result, *ptr1 = result, tmp_char;
    1f56:	de 00 90    	mov.w     [w14+10], w1
    1f58:	01 0f 78    	mov.w     w1, [w14]
    1f5a:	5e 01 90    	mov.w     [w14+10], w2
    1f5c:	12 07 98    	mov.w     w2, [w14+2]

00001f5e <.L55>:
    int tmp_value;

    do {
        tmp_value = value;
    1f5e:	ce 00 90    	mov.w     [w14+8], w1
    1f60:	21 07 98    	mov.w     w1, [w14+4]
        value /= base;
    1f62:	ce 00 90    	mov.w     [w14+8], w1
    1f64:	6e 00 90    	mov.w     [w14+12], w0
    1f66:	00 01 78    	mov.w     w0, w2
    1f68:	11 00 09    	repeat    #0x11
    1f6a:	82 00 d8    	div.sw    w1, w2
    1f6c:	40 07 98    	mov.w     w0, [w14+8]
        *ptr++ = "zyxwvutsrqponmlkjihgfedcba9876543210123456789abcdefghijklmnopqrstuvwxyz" [35 + (tmp_value - value * base)];
    1f6e:	ce 00 90    	mov.w     [w14+8], w1
    1f70:	6e 00 90    	mov.w     [w14+12], w0
    1f72:	00 88 b9    	mul.ss    w1, w0, w0
    1f74:	00 00 78    	mov.w     w0, w0
    1f76:	ae 00 90    	mov.w     [w14+4], w1
    1f78:	00 80 50    	sub.w     w1, w0, w0
    1f7a:	30 02 b0    	add.w     #0x23, w0
    1f7c:	c1 58 29    	mov.w     #0x958c, w1
    1f7e:	e1 40 78    	mov.b     [w1+w0], w1
    1f80:	1e 00 78    	mov.w     [w14], w0
    1f82:	01 48 78    	mov.b     w1, [w0]
    1f84:	1e 0f e8    	inc.w     [w14], [w14]
    } while ( value );
    1f86:	4e 00 90    	mov.w     [w14+8], w0
    1f88:	00 00 e0    	cp0.w     w0
    1f8a:	e9 ff 3a    	bra       NZ, 0x1f5e <.L55>

    // Apply negative sign
    if (tmp_value < 0) *ptr++ = '-';
    1f8c:	2e 00 90    	mov.w     [w14+4], w0
    1f8e:	00 00 e0    	cp0.w     w0
    1f90:	04 00 3d    	bra       GE, 0x1f9a <.L56>
    1f92:	1e 00 78    	mov.w     [w14], w0
    1f94:	d1 c2 b3    	mov.b     #0x2d, w1
    1f96:	01 48 78    	mov.b     w1, [w0]
    1f98:	1e 0f e8    	inc.w     [w14], [w14]

00001f9a <.L56>:
    *ptr-- = '\0';
    1f9a:	1e 00 78    	mov.w     [w14], w0
    1f9c:	80 40 eb    	clr.b     w1
    1f9e:	01 48 78    	mov.b     w1, [w0]
    1fa0:	1e 0f e9    	dec.w     [w14], [w14]
    while (ptr1 < ptr) {
    1fa2:	0e 00 37    	bra       0x1fc0 <.L57>

00001fa4 <.L58>:
        tmp_char = *ptr;
    1fa4:	1e 00 78    	mov.w     [w14], w0
    1fa6:	90 40 78    	mov.b     [w0], w1
    1fa8:	61 47 98    	mov.b     w1, [w14+6]
        *ptr--= *ptr1;
    1faa:	1e 00 90    	mov.w     [w14+2], w0
    1fac:	90 40 78    	mov.b     [w0], w1
    1fae:	1e 00 78    	mov.w     [w14], w0
    1fb0:	01 48 78    	mov.b     w1, [w0]
    1fb2:	1e 0f e9    	dec.w     [w14], [w14]
        *ptr1++ = tmp_char;
    1fb4:	1e 00 90    	mov.w     [w14+2], w0
    1fb6:	6e 41 90    	mov.b     [w14+6], w2
    1fb8:	02 48 78    	mov.b     w2, [w0]
    1fba:	1e 00 90    	mov.w     [w14+2], w0
    1fbc:	00 00 e8    	inc.w     w0, w0
    1fbe:	10 07 98    	mov.w     w0, [w14+2]

00001fc0 <.L57>:
    1fc0:	1e 00 90    	mov.w     [w14+2], w0
    1fc2:	9e 0f 50    	sub.w     w0, [w14], [w15]
    1fc4:	ef ff 39    	bra       NC, 0x1fa4 <.L58>
    }
    return result;
    1fc6:	5e 00 90    	mov.w     [w14+10], w0

00001fc8 <.L54>:
}
    1fc8:	00 80 fa    	ulnk      
    1fca:	00 00 06    	return    

00001fcc <_delay_by_nop>:
// From https://web.archive.org/web/20161223060411/http://www.engscope.com/pic24-tutorial/10-2-i2c-basic-functions/

#include "i2c_reg.h"

void delay_by_nop(uint32_t num_nops){    // 1 nop= 375ns
    1fcc:	08 00 fa    	lnk       #0x8
    1fce:	20 07 98    	mov.w     w0, [w14+4]
    1fd0:	31 07 98    	mov.w     w1, [w14+6]
    uint32_t count = 0;
    1fd2:	60 00 b8    	mul.uu    w0, #0x0, w0
    1fd4:	00 8f be    	mov.d     w0, [w14]
    while (count < num_nops){
    1fd6:	05 00 37    	bra       0x1fe2 <.L2>

00001fd8 <.L3>:
        __asm__("nop");
    1fd8:	00 00 00    	nop       
        count +=1;
    1fda:	12 00 20    	mov.w     #0x1, w2
    1fdc:	03 00 20    	mov.w     #0x0, w3
    1fde:	1e 0f 41    	add.w     w2, [w14], [w14]
    1fe0:	5e 97 49    	addc.w    w3, [++w14], [w14--]

00001fe2 <.L2>:
    1fe2:	2e 00 90    	mov.w     [w14+4], w0
    1fe4:	be 00 90    	mov.w     [w14+6], w1
    1fe6:	1e 01 be    	mov.d     [w14], w2
    1fe8:	80 0f 51    	sub.w     w2, w0, [w15]
    1fea:	81 8f 59    	subb.w    w3, w1, [w15]
    1fec:	f5 ff 39    	bra       NC, 0x1fd8 <.L3>
    }
}
    1fee:	00 80 fa    	ulnk      
    1ff0:	00 00 06    	return    

00001ff2 <_i2c_init>:

// initiates I2C3 module to baud rate BRG
void i2c_init(int BRG){      // I2CBRG = 157 for 16Mhz OSC with 100kHz I2C clock
    1ff2:	04 00 fa    	lnk       #0x4
    1ff4:	10 07 98    	mov.w     w0, [w14+2]
   int temp;
   I2C3BRG = BRG;           // Sets freq to 100kHz
    1ff6:	1e 00 90    	mov.w     [w14+2], w0
    1ff8:	a0 13 88    	mov.w     w0, 0x274
   I2C3CONbits.I2CEN = 0;	// Disable I2C Mode
    1ffa:	77 e2 a9    	bclr.b    0x277, #0x7
   I2C3CONbits.DISSLW = 1;	// Disable slew rate control
    1ffc:	77 22 a8    	bset.b    0x277, #0x1
   IFS5bits.MI2C3IF = 0;	 // Clear Interrupt
    1ffe:	8e a0 a9    	bclr.b    0x8e, #0x5
   I2C3CONbits.I2CEN = 1;	// Enable I2C Mode
    2000:	77 e2 a8    	bset.b    0x277, #0x7
   temp = I2C3RCV;	 // read buffer to clear buffer full
    2002:	80 13 80    	mov.w     0x270, w0
    2004:	00 0f 78    	mov.w     w0, [w14]
   reset_i2c_bus();	 // set bus to idle
    2006:	36 00 07    	rcall     0x2074 <_reset_i2c_bus> <.LFB4> <.LFE3>
}
    2008:	00 80 fa    	ulnk      
    200a:	00 00 06    	return    

0000200c <_i2c_start>:

//function iniates a start condition on bus
void i2c_start(void){
    200c:	02 00 fa    	lnk       #0x2
   int x = 0;
    200e:	00 00 eb    	clr.w     w0
    2010:	00 0f 78    	mov.w     w0, [w14]
   I2C3CONbits.ACKDT = 0;	//Reset any previous Ack
    2012:	76 a2 a9    	bclr.b    0x276, #0x5
   delay_by_nop(10);
    2014:	a0 00 20    	mov.w     #0xa, w0
    2016:	01 00 20    	mov.w     #0x0, w1
    2018:	d9 ff 07    	rcall     0x1fcc <_delay_by_nop> <.L0> <.LFB0> <.LFE16> <.Letext0> <.Ltext0>
   I2C3CONbits.SEN = 1;	//Initiate Start condition
    201a:	76 02 a8    	bset.b    0x276, #0x0
   __asm__("nop");
    201c:	00 00 00    	nop       

   while (I2C3CONbits.SEN){    //the hardware will automatically clear Start Bit
    201e:	07 00 37    	bra       0x202e <.L6>

00002020 <.L8>:
      delay_by_nop(1);      //wait for automatic clear before proceding
    2020:	10 00 20    	mov.w     #0x1, w0
    2022:	01 00 20    	mov.w     #0x0, w1
    2024:	d3 ff 07    	rcall     0x1fcc <_delay_by_nop> <.L0> <.LFB0> <.LFE16> <.Letext0> <.Ltext0>
      x++;
    2026:	1e 0f e8    	inc.w     [w14], [w14]
      if (x > 20)
    2028:	1e 00 78    	mov.w     [w14], w0
    202a:	f4 0f 50    	sub.w     w0, #0x14, [w15]
    202c:	05 00 3c    	bra       GT, 0x2038 <.L9>

0000202e <.L6>:
    202e:	b0 13 80    	mov.w     0x276, w0
    2030:	61 00 60    	and.w     w0, #0x1, w0
    2032:	00 00 e0    	cp0.w     w0
    2034:	f5 ff 3a    	bra       NZ, 0x2020 <.L8>
    2036:	01 00 37    	bra       0x203a <.L7>

00002038 <.L9>:
      break;
    2038:	00 00 00    	nop       

0000203a <.L7>:
   }
   delay_by_nop(2);
    203a:	20 00 20    	mov.w     #0x2, w0
    203c:	01 00 20    	mov.w     #0x0, w1
    203e:	c6 ff 07    	rcall     0x1fcc <_delay_by_nop> <.L0> <.LFB0> <.LFE16> <.Letext0> <.Ltext0>
}
    2040:	00 80 fa    	ulnk      
    2042:	00 00 06    	return    

00002044 <_i2c_restart>:

void i2c_restart(void){
    2044:	02 00 fa    	lnk       #0x2
   int x = 0;
    2046:	00 00 eb    	clr.w     w0
    2048:	00 0f 78    	mov.w     w0, [w14]
   I2C3CONbits.RSEN = 1;	//Initiate restart condition
    204a:	76 22 a8    	bset.b    0x276, #0x1
   __asm__("nop");
    204c:	00 00 00    	nop       
   //the hardware will automatically clear restart bit
   //wait for automatic clear before proceding
   while (I2C3CONbits.RSEN){
    204e:	07 00 37    	bra       0x205e <.L11>

00002050 <.L13>:
      delay_by_nop(1);
    2050:	10 00 20    	mov.w     #0x1, w0
    2052:	01 00 20    	mov.w     #0x0, w1
    2054:	bb ff 07    	rcall     0x1fcc <_delay_by_nop> <.L0> <.LFB0> <.LFE16> <.Letext0> <.Ltext0>
      x++;
    2056:	1e 0f e8    	inc.w     [w14], [w14]
      if (x > 20)	break;
    2058:	1e 00 78    	mov.w     [w14], w0
    205a:	f4 0f 50    	sub.w     w0, #0x14, [w15]
    205c:	05 00 3c    	bra       GT, 0x2068 <.L14>

0000205e <.L11>:
    205e:	b0 13 80    	mov.w     0x276, w0
    2060:	62 00 60    	and.w     w0, #0x2, w0
    2062:	00 00 e0    	cp0.w     w0
    2064:	f5 ff 3a    	bra       NZ, 0x2050 <.L13>
    2066:	01 00 37    	bra       0x206a <.L12>

00002068 <.L14>:
    2068:	00 00 00    	nop       

0000206a <.L12>:
   }
   delay_by_nop(2);
    206a:	20 00 20    	mov.w     #0x2, w0
    206c:	01 00 20    	mov.w     #0x0, w1
    206e:	ae ff 07    	rcall     0x1fcc <_delay_by_nop> <.L0> <.LFB0> <.LFE16> <.Letext0> <.Ltext0>
}
    2070:	00 80 fa    	ulnk      
    2072:	00 00 06    	return    

00002074 <_reset_i2c_bus>:


//Resets the I2C bus to Idle
void reset_i2c_bus(void){
    2074:	02 00 fa    	lnk       #0x2
   int x = 0;
    2076:	00 00 eb    	clr.w     w0
    2078:	00 0f 78    	mov.w     w0, [w14]
   I2C3CONbits.PEN = 1;     //initiate stop bit
    207a:	76 42 a8    	bset.b    0x276, #0x2
   while (I2C3CONbits.PEN) {     //wait for hardware clear of stop bit
    207c:	07 00 37    	bra       0x208c <.L16>

0000207e <.L18>:
      // delay_by_nop(1);
      delay_by_nop(1);
    207e:	10 00 20    	mov.w     #0x1, w0
    2080:	01 00 20    	mov.w     #0x0, w1
    2082:	a4 ff 07    	rcall     0x1fcc <_delay_by_nop> <.L0> <.LFB0> <.LFE16> <.Letext0> <.Ltext0>
      x ++;
    2084:	1e 0f e8    	inc.w     [w14], [w14]
      if (x > 20) break;
    2086:	1e 00 78    	mov.w     [w14], w0
    2088:	f4 0f 50    	sub.w     w0, #0x14, [w15]
    208a:	05 00 3c    	bra       GT, 0x2096 <.L19>

0000208c <.L16>:
    208c:	b0 13 80    	mov.w     0x276, w0
    208e:	64 00 60    	and.w     w0, #0x4, w0
    2090:	00 00 e0    	cp0.w     w0
    2092:	f5 ff 3a    	bra       NZ, 0x207e <.L18>
    2094:	01 00 37    	bra       0x2098 <.L17>

00002096 <.L19>:
    2096:	00 00 00    	nop       

00002098 <.L17>:
   }

   I2C3CONbits.RCEN = 0;
    2098:	76 62 a9    	bclr.b    0x276, #0x3
   IFS5bits.MI2C3IF = 0; // Clear Interrupt
    209a:	8e a0 a9    	bclr.b    0x8e, #0x5
   I2C3STATbits.IWCOL = 0;
    209c:	78 e2 a9    	bclr.b    0x278, #0x7
   I2C3STATbits.BCL = 0;
    209e:	79 42 a9    	bclr.b    0x279, #0x2
   // delay_by_nop(10);
   delay_by_nop(20);
    20a0:	40 01 20    	mov.w     #0x14, w0
    20a2:	01 00 20    	mov.w     #0x0, w1
    20a4:	93 ff 07    	rcall     0x1fcc <_delay_by_nop> <.L0> <.LFB0> <.LFE16> <.Letext0> <.Ltext0>
}
    20a6:	00 80 fa    	ulnk      
    20a8:	00 00 06    	return    

000020aa <_send_i2c_byte>:


//basic I2C byte send
char send_i2c_byte(int data){
    20aa:	04 00 fa    	lnk       #0x4
    20ac:	10 07 98    	mov.w     w0, [w14+2]
   int i;
   while (I2C3STATbits.TBF) { }
    20ae:	00 00 00    	nop       

000020b0 <.L21>:
    20b0:	c0 13 80    	mov.w     0x278, w0
    20b2:	61 00 60    	and.w     w0, #0x1, w0
    20b4:	00 00 e0    	cp0.w     w0
    20b6:	fc ff 3a    	bra       NZ, 0x20b0 <.L21>
   IFS5bits.MI2C3IF = 0; // Clear Interrupt
    20b8:	8e a0 a9    	bclr.b    0x8e, #0x5
   I2C3TRN = data; // load the outgoing data byte
    20ba:	1e 00 90    	mov.w     [w14+2], w0
    20bc:	90 13 88    	mov.w     w0, 0x272

   for (i=0; i<500; i++){           // wait for transmission
    20be:	00 00 eb    	clr.w     w0
    20c0:	00 0f 78    	mov.w     w0, [w14]
    20c2:	09 00 37    	bra       0x20d6 <.L22>

000020c4 <.L25>:
      if (!I2C3STATbits.TRSTAT) break; // if master transmit not in progress break
    20c4:	c1 13 80    	mov.w     0x278, w1
    20c6:	00 00 24    	mov.w     #0x4000, w0
    20c8:	00 80 60    	and.w     w1, w0, w0
    20ca:	00 00 e0    	cp0.w     w0
    20cc:	09 00 32    	bra       Z, 0x20e0 <.L29>
      delay_by_nop(1); }
    20ce:	10 00 20    	mov.w     #0x1, w0
    20d0:	01 00 20    	mov.w     #0x0, w1
    20d2:	7c ff 07    	rcall     0x1fcc <_delay_by_nop> <.L0> <.LFB0> <.LFE16> <.Letext0> <.Ltext0>
    20d4:	1e 0f e8    	inc.w     [w14], [w14]

000020d6 <.L22>:
    20d6:	30 1f 20    	mov.w     #0x1f3, w0
    20d8:	9e 00 78    	mov.w     [w14], w1
    20da:	80 8f 50    	sub.w     w1, w0, [w15]
    20dc:	f3 ff 34    	bra       LE, 0x20c4 <.L25>
    20de:	01 00 37    	bra       0x20e2 <.L24>

000020e0 <.L29>:
    20e0:	00 00 00    	nop       

000020e2 <.L24>:

    if (i == 500) {     // if i got to 500, then there was an issue`
    20e2:	40 1f 20    	mov.w     #0x1f4, w0
    20e4:	9e 00 78    	mov.w     [w14], w1
    20e6:	80 8f 50    	sub.w     w1, w0, [w15]
    20e8:	02 00 3a    	bra       NZ, 0x20ee <.L26>
        return(1); }    // return 1 to indicate failure
    20ea:	10 c0 b3    	mov.b     #0x1, w0
    20ec:	0c 00 37    	bra       0x2106 <.L27>

000020ee <.L26>:

   if (I2C3STATbits.ACKSTAT == 1){   // Check for NO_ACK from slave,
    20ee:	c1 13 80    	mov.w     0x278, w1
    20f0:	00 00 28    	mov.w     #0x8000, w0
    20f2:	00 80 60    	and.w     w1, w0, w0
    20f4:	00 00 e0    	cp0.w     w0
    20f6:	03 00 32    	bra       Z, 0x20fe <.L28>
      reset_i2c_bus();
    20f8:	bd ff 07    	rcall     0x2074 <_reset_i2c_bus> <.LFB4> <.LFE3>
      return(1); }            // abort if not found
    20fa:	10 c0 b3    	mov.b     #0x1, w0
    20fc:	04 00 37    	bra       0x2106 <.L27>

000020fe <.L28>:

   delay_by_nop(2);
    20fe:	20 00 20    	mov.w     #0x2, w0
    2100:	01 00 20    	mov.w     #0x0, w1
    2102:	64 ff 07    	rcall     0x1fcc <_delay_by_nop> <.L0> <.LFB0> <.LFE16> <.Letext0> <.Ltext0>
   return(0);
    2104:	00 40 eb    	clr.b     w0

00002106 <.L27>:
}
    2106:	00 80 fa    	ulnk      
    2108:	00 00 06    	return    

0000210a <_i2c_read>:


//function reads data, returns the read data, no ack
// helper function
char i2c_read(void){
    210a:	04 00 fa    	lnk       #0x4
   int i = 0;
    210c:	00 00 eb    	clr.w     w0
    210e:	00 0f 78    	mov.w     w0, [w14]
   char data = 0;
    2110:	00 40 eb    	clr.b     w0
    2112:	20 47 98    	mov.b     w0, [w14+2]
   I2C3CONbits.RCEN = 1;            //set I2C module to receive
    2114:	76 62 a8    	bset.b    0x276, #0x3

   while (!I2C3STATbits.RBF) {           //if no response, break
    2116:	05 00 37    	bra       0x2122 <.L31>

00002118 <.L33>:
      i ++;
    2118:	1e 0f e8    	inc.w     [w14], [w14]
      if (i > 2000) break;  }
    211a:	00 7d 20    	mov.w     #0x7d0, w0
    211c:	9e 00 78    	mov.w     [w14], w1
    211e:	80 8f 50    	sub.w     w1, w0, [w15]
    2120:	05 00 3c    	bra       GT, 0x212c <.L34>

00002122 <.L31>:
    2122:	c0 13 80    	mov.w     0x278, w0
    2124:	62 00 60    	and.w     w0, #0x2, w0
    2126:	00 00 e0    	cp0.w     w0
    2128:	f7 ff 32    	bra       Z, 0x2118 <.L33>
    212a:	01 00 37    	bra       0x212e <.L32>

0000212c <.L34>:
    212c:	00 00 00    	nop       

0000212e <.L32>:

   data = I2C3RCV;       //get data from I2C3RCV register
    212e:	80 13 80    	mov.w     0x270, w0
    2130:	20 47 98    	mov.b     w0, [w14+2]
   return data;
    2132:	2e 40 90    	mov.b     [w14+2], w0
}
    2134:	00 80 fa    	ulnk      
    2136:	00 00 06    	return    

00002138 <_i2c_read_ack>:


//function reads data, returns the read data, with ack
char i2c_read_ack(void){	//does not reset bus!!!
    2138:	04 00 fa    	lnk       #0x4
   int i = 0;
    213a:	00 00 eb    	clr.w     w0
    213c:	00 0f 78    	mov.w     w0, [w14]
   char data = 0;
    213e:	00 40 eb    	clr.b     w0
    2140:	20 47 98    	mov.b     w0, [w14+2]
   I2C3CONbits.RCEN = 1;            //set I2C module to receive
    2142:	76 62 a8    	bset.b    0x276, #0x3

   while (!I2C3STATbits.RBF) {       //if no response, break
    2144:	05 00 37    	bra       0x2150 <.L36>

00002146 <.L38>:
      i++;
    2146:	1e 0f e8    	inc.w     [w14], [w14]
      if (i > 2000) break;}
    2148:	00 7d 20    	mov.w     #0x7d0, w0
    214a:	9e 00 78    	mov.w     [w14], w1
    214c:	80 8f 50    	sub.w     w1, w0, [w15]
    214e:	05 00 3c    	bra       GT, 0x215a <.L39>

00002150 <.L36>:
    2150:	c0 13 80    	mov.w     0x278, w0
    2152:	62 00 60    	and.w     w0, #0x2, w0
    2154:	00 00 e0    	cp0.w     w0
    2156:	f7 ff 32    	bra       Z, 0x2146 <.L38>
    2158:	01 00 37    	bra       0x215c <.L37>

0000215a <.L39>:
    215a:	00 00 00    	nop       

0000215c <.L37>:

   data = I2C3RCV;               //get data from I2C3RCV register
    215c:	80 13 80    	mov.w     0x270, w0
    215e:	20 47 98    	mov.b     w0, [w14+2]
   I2C3CONbits.ACKEN = 1;        //start ACK generation
    2160:	76 82 a8    	bset.b    0x276, #0x4
   delay_by_nop(10);             //wait before exiting
    2162:	a0 00 20    	mov.w     #0xa, w0
    2164:	01 00 20    	mov.w     #0x0, w1
    2166:	32 ff 07    	rcall     0x1fcc <_delay_by_nop> <.L0> <.LFB0> <.LFE16> <.Letext0> <.Ltext0>
   return data;
    2168:	2e 40 90    	mov.b     [w14+2], w0
}
    216a:	00 80 fa    	ulnk      
    216c:	00 00 06    	return    

0000216e <_i2c_read_nack>:

char i2c_read_nack(void){	//does not reset bus!!!
    216e:	04 00 fa    	lnk       #0x4
   int i = 0;
    2170:	00 00 eb    	clr.w     w0
    2172:	00 0f 78    	mov.w     w0, [w14]
   char data = 0;
    2174:	00 40 eb    	clr.b     w0
    2176:	20 47 98    	mov.b     w0, [w14+2]
   I2C3CONbits.RCEN = 1;            //set I2C module to receive
    2178:	76 62 a8    	bset.b    0x276, #0x3

   while (!I2C3STATbits.RBF) {       //if no response, break
    217a:	05 00 37    	bra       0x2186 <.L41>

0000217c <.L43>:
      i++;
    217c:	1e 0f e8    	inc.w     [w14], [w14]
      if (i > 2000) break;}
    217e:	00 7d 20    	mov.w     #0x7d0, w0
    2180:	9e 00 78    	mov.w     [w14], w1
    2182:	80 8f 50    	sub.w     w1, w0, [w15]
    2184:	05 00 3c    	bra       GT, 0x2190 <.L44>

00002186 <.L41>:
    2186:	c0 13 80    	mov.w     0x278, w0
    2188:	62 00 60    	and.w     w0, #0x2, w0
    218a:	00 00 e0    	cp0.w     w0
    218c:	f7 ff 32    	bra       Z, 0x217c <.L43>
    218e:	01 00 37    	bra       0x2192 <.L42>

00002190 <.L44>:
    2190:	00 00 00    	nop       

00002192 <.L42>:

   data = I2C3RCV;               //get data from I2C3RCV register
    2192:	80 13 80    	mov.w     0x270, w0
    2194:	20 47 98    	mov.b     w0, [w14+2]
   I2C3CONbits.ACKDT = 1;        // set mastrer to nack instead of ack
    2196:	76 a2 a8    	bset.b    0x276, #0x5
   I2C3CONbits.ACKEN = 1;        //start ack generation
    2198:	76 82 a8    	bset.b    0x276, #0x4
   delay_by_nop(10);             //wait before exiting
    219a:	a0 00 20    	mov.w     #0xa, w0
    219c:	01 00 20    	mov.w     #0x0, w1
    219e:	16 ff 07    	rcall     0x1fcc <_delay_by_nop> <.L0> <.LFB0> <.LFE16> <.Letext0> <.Ltext0>
   return data;
    21a0:	2e 40 90    	mov.b     [w14+2], w0
}
    21a2:	00 80 fa    	ulnk      
    21a4:	00 00 06    	return    

000021a6 <_I2Cwrite>:

// function puts together I2C protocol for random write
void I2Cwrite(char addr, char subaddr, char value){
    21a6:	04 00 fa    	lnk       #0x4
    21a8:	00 4f 78    	mov.b     w0, [w14]
    21aa:	11 47 98    	mov.b     w1, [w14+1]
    21ac:	22 47 98    	mov.b     w2, [w14+2]
   i2c_start();
    21ae:	2e ff 07    	rcall     0x200c <_i2c_start> <.LFB2> <.LFE1>
   send_i2c_byte(addr & 0xfffe); // set /W bit, turns least sig, bit to 0
    21b0:	1e 00 fb    	se        [w14], w0
    21b2:	80 00 78    	mov.w     w0, w1
    21b4:	e0 ff 2f    	mov.w     #0xfffe, w0
    21b6:	00 80 60    	and.w     w1, w0, w0
    21b8:	78 ff 07    	rcall     0x20aa <_send_i2c_byte> <.LFB5> <.LFE4>
   send_i2c_byte(subaddr);
    21ba:	1e 40 90    	mov.b     [w14+1], w0
    21bc:	00 00 fb    	se        w0, w0
    21be:	75 ff 07    	rcall     0x20aa <_send_i2c_byte> <.LFB5> <.LFE4>
   send_i2c_byte(value);
    21c0:	2e 40 90    	mov.b     [w14+2], w0
    21c2:	00 00 fb    	se        w0, w0
    21c4:	72 ff 07    	rcall     0x20aa <_send_i2c_byte> <.LFB5> <.LFE4>
   reset_i2c_bus();
    21c6:	56 ff 07    	rcall     0x2074 <_reset_i2c_bus> <.LFB4> <.LFE3>
}
    21c8:	00 80 fa    	ulnk      
    21ca:	00 00 06    	return    

000021cc <_I2Cread>:

// function puts together I2C protocol for random read
char I2Cread(char addr, char subaddr){
    21cc:	04 00 fa    	lnk       #0x4
    21ce:	20 47 98    	mov.b     w0, [w14+2]
    21d0:	31 47 98    	mov.b     w1, [w14+3]
   char temp;
   i2c_start();
    21d2:	1c ff 07    	rcall     0x200c <_i2c_start> <.LFB2> <.LFE1>
   send_i2c_byte(addr);
    21d4:	2e 40 90    	mov.b     [w14+2], w0
    21d6:	00 00 fb    	se        w0, w0
    21d8:	68 ff 07    	rcall     0x20aa <_send_i2c_byte> <.LFB5> <.LFE4>
   send_i2c_byte(subaddr);
    21da:	3e 40 90    	mov.b     [w14+3], w0
    21dc:	00 00 fb    	se        w0, w0
    21de:	65 ff 07    	rcall     0x20aa <_send_i2c_byte> <.LFB5> <.LFE4>
   delay_by_nop(10);
    21e0:	a0 00 20    	mov.w     #0xa, w0
    21e2:	01 00 20    	mov.w     #0x0, w1
    21e4:	f3 fe 07    	rcall     0x1fcc <_delay_by_nop> <.L0> <.LFB0> <.LFE16> <.Letext0> <.Ltext0>
   i2c_restart();
    21e6:	2e ff 07    	rcall     0x2044 <_i2c_restart> <.LFB3> <.LFE2>

   send_i2c_byte(addr | 0x01); // set R bit, turn least sig. bit to 1
    21e8:	2e 40 90    	mov.b     [w14+2], w0
    21ea:	00 04 a0    	bset.b    w0, #0x0
    21ec:	00 00 fb    	se        w0, w0
    21ee:	5d ff 07    	rcall     0x20aa <_send_i2c_byte> <.LFB5> <.LFE4>
   temp = i2c_read();
    21f0:	8c ff 07    	rcall     0x210a <_i2c_read> <.LFB6> <.LFE5>
    21f2:	00 4f 78    	mov.b     w0, [w14]

   reset_i2c_bus();
    21f4:	3f ff 07    	rcall     0x2074 <_reset_i2c_bus> <.LFB4> <.LFE3>
   return temp;
    21f6:	1e 40 78    	mov.b     [w14], w0
}
    21f8:	00 80 fa    	ulnk      
    21fa:	00 00 06    	return    

000021fc <_I2Cpoll>:

// function checks if device at addr is on bus
// 1 means it is there, 0 means it is not there
unsigned char I2Cpoll(char addr){
    21fc:	04 00 fa    	lnk       #0x4
    21fe:	20 47 98    	mov.b     w0, [w14+2]
    unsigned char temp = 0;
    2200:	00 40 eb    	clr.b     w0
    2202:	00 4f 78    	mov.b     w0, [w14]
    i2c_start();
    2204:	03 ff 07    	rcall     0x200c <_i2c_start> <.LFB2> <.LFE1>
    temp = send_i2c_byte((addr) & (0xfffe)); // set /W bit
    2206:	2e 40 90    	mov.b     [w14+2], w0
    2208:	00 00 fb    	se        w0, w0
    220a:	80 00 78    	mov.w     w0, w1
    220c:	e0 ff 2f    	mov.w     #0xfffe, w0
    220e:	00 80 60    	and.w     w1, w0, w0
    2210:	4c ff 07    	rcall     0x20aa <_send_i2c_byte> <.LFB5> <.LFE4>
    2212:	00 4f 78    	mov.b     w0, [w14]
    reset_i2c_bus();
    2214:	2f ff 07    	rcall     0x2074 <_reset_i2c_bus> <.LFB4> <.LFE3>
    if (temp == 0) {
    2216:	1e 40 78    	mov.b     [w14], w0
    2218:	00 04 e0    	cp0.b     w0
    221a:	02 00 3a    	bra       NZ, 0x2220 <.L48>
        return 1; // We found it, no error
    221c:	10 c0 b3    	mov.b     #0x1, w0
    221e:	01 00 37    	bra       0x2222 <.L49>

00002220 <.L48>:
    } else return 0;
    2220:	00 40 eb    	clr.b     w0

00002222 <.L49>:
}
    2222:	00 80 fa    	ulnk      
    2224:	00 00 06    	return    

00002226 <_I2Cwritearray>:

// function writes a byte array over i2c
unsigned char I2Cwritearray(char addr, char dat[], uint8_t len) {
    2226:	08 00 fa    	lnk       #0x8
    2228:	20 47 98    	mov.b     w0, [w14+2]
    222a:	21 07 98    	mov.w     w1, [w14+4]
    222c:	62 47 98    	mov.b     w2, [w14+6]
  unsigned char err = 0;
    222e:	00 40 eb    	clr.b     w0
    2230:	00 4f 78    	mov.b     w0, [w14]
  i2c_start();
    2232:	ec fe 07    	rcall     0x200c <_i2c_start> <.LFB2> <.LFE1>
  err = send_i2c_byte(addr & (0xfffe)); // takes 7 bit address and adds /W bit
    2234:	2e 40 90    	mov.b     [w14+2], w0
    2236:	00 00 fb    	se        w0, w0
    2238:	80 00 78    	mov.w     w0, w1
    223a:	e0 ff 2f    	mov.w     #0xfffe, w0
    223c:	00 80 60    	and.w     w1, w0, w0
    223e:	35 ff 07    	rcall     0x20aa <_send_i2c_byte> <.LFB5> <.LFE4>
    2240:	00 4f 78    	mov.b     w0, [w14]
  uint8_t j;
  for (j = 0; j < len; j++) { // keep sending data bytes til we're done unless it misses an ack
    2242:	00 40 eb    	clr.b     w0
    2244:	10 47 98    	mov.b     w0, [w14+1]
    2246:	0d 00 37    	bra       0x2262 <.L51>

00002248 <.L52>:
    err |= send_i2c_byte(dat[j]);
    2248:	1e 40 90    	mov.b     [w14+1], w0
    224a:	00 80 fb    	ze        w0, w0
    224c:	ae 00 90    	mov.w     [w14+4], w1
    224e:	00 80 40    	add.w     w1, w0, w0
    2250:	10 40 78    	mov.b     [w0], w0
    2252:	00 00 fb    	se        w0, w0
    2254:	2a ff 07    	rcall     0x20aa <_send_i2c_byte> <.LFB5> <.LFE4>
    2256:	9e 40 78    	mov.b     [w14], w1
    2258:	01 40 70    	ior.b     w0, w1, w0
    225a:	00 4f 78    	mov.b     w0, [w14]
    225c:	1e 40 90    	mov.b     [w14+1], w0
    225e:	00 40 e8    	inc.b     w0, w0
    2260:	10 47 98    	mov.b     w0, [w14+1]

00002262 <.L51>:
    2262:	9e 40 90    	mov.b     [w14+1], w1
    2264:	6e 40 90    	mov.b     [w14+6], w0
    2266:	80 cf 50    	sub.b     w1, w0, [w15]
    2268:	ef ff 39    	bra       NC, 0x2248 <.L52>
  }
  reset_i2c_bus();
    226a:	04 ff 07    	rcall     0x2074 <_reset_i2c_bus> <.LFB4> <.LFE3>
  return err;
    226c:	1e 40 78    	mov.b     [w14], w0
}
    226e:	00 80 fa    	ulnk      
    2270:	00 00 06    	return    

00002272 <_i2c2_init>:

////////////////////////////////////////////////////////////////////////////////
// I2C2 ////////////////////////////////////////////////////////////////////////
////////////////////////////////////////////////////////////////////////////////

// initiates I2C3 module to baud rate BRG
void i2c2_init(int BRG){      // I2CBRG = 157 for 16Mhz OSC with 100kHz I2C clock
    2272:	04 00 fa    	lnk       #0x4
    2274:	10 07 98    	mov.w     w0, [w14+2]
   int temp;
   I2C2BRG = BRG;           // Sets freq to 100kHz
    2276:	1e 00 90    	mov.w     [w14+2], w0
    2278:	a0 10 88    	mov.w     w0, 0x214
   I2C2CONbits.I2CEN = 0;	// Disable I2C Mode
    227a:	17 e2 a9    	bclr.b    0x217, #0x7
   I2C2CONbits.DISSLW = 1;	// Disable slew rate control
    227c:	17 22 a8    	bset.b    0x217, #0x1
   IFS3bits.MI2C2IF = 0;	 // Clear Interrupt
    227e:	8a 40 a9    	bclr.b    0x8a, #0x2
   I2C2CONbits.I2CEN = 1;	// Enable I2C Mode
    2280:	17 e2 a8    	bset.b    0x217, #0x7
   temp = I2C2RCV;	 // read buffer to clear buffer full
    2282:	80 10 80    	mov.w     0x210, w0
    2284:	00 0f 78    	mov.w     w0, [w14]
   reset_i2c_bus();	 // set bus to idle
    2286:	f6 fe 07    	rcall     0x2074 <_reset_i2c_bus> <.LFB4> <.LFE3>
}
    2288:	00 80 fa    	ulnk      
    228a:	00 00 06    	return    

0000228c <_i2c2_start>:

//function iniates a start condition on bus
void i2c2_start(void){
    228c:	02 00 fa    	lnk       #0x2
   int x = 0;
    228e:	00 00 eb    	clr.w     w0
    2290:	00 0f 78    	mov.w     w0, [w14]
   I2C2CONbits.ACKDT = 0;	//Reset any previous Ack
    2292:	16 a2 a9    	bclr.b    0x216, #0x5
   delay_by_nop(10);
    2294:	a0 00 20    	mov.w     #0xa, w0
    2296:	01 00 20    	mov.w     #0x0, w1
    2298:	99 fe 07    	rcall     0x1fcc <_delay_by_nop> <.L0> <.LFB0> <.LFE16> <.Letext0> <.Ltext0>
   I2C2CONbits.SEN = 1;	//Initiate Start condition
    229a:	16 02 a8    	bset.b    0x216, #0x0
   __asm__("nop");
    229c:	00 00 00    	nop       

   while (I2C2CONbits.SEN){    //the hardware will automatically clear Start Bit
    229e:	07 00 37    	bra       0x22ae <.L55>

000022a0 <.L57>:
      delay_by_nop(1);      //wait for automatic clear before proceding
    22a0:	10 00 20    	mov.w     #0x1, w0
    22a2:	01 00 20    	mov.w     #0x0, w1
    22a4:	93 fe 07    	rcall     0x1fcc <_delay_by_nop> <.L0> <.LFB0> <.LFE16> <.Letext0> <.Ltext0>
      x++;
    22a6:	1e 0f e8    	inc.w     [w14], [w14]
      if (x > 20)
    22a8:	1e 00 78    	mov.w     [w14], w0
    22aa:	f4 0f 50    	sub.w     w0, #0x14, [w15]
    22ac:	05 00 3c    	bra       GT, 0x22b8 <.L58>

000022ae <.L55>:
    22ae:	b0 10 80    	mov.w     0x216, w0
    22b0:	61 00 60    	and.w     w0, #0x1, w0
    22b2:	00 00 e0    	cp0.w     w0
    22b4:	f5 ff 3a    	bra       NZ, 0x22a0 <.L57>
    22b6:	01 00 37    	bra       0x22ba <.L56>

000022b8 <.L58>:
      break;
    22b8:	00 00 00    	nop       

000022ba <.L56>:
   }
   delay_by_nop(2);
    22ba:	20 00 20    	mov.w     #0x2, w0
    22bc:	01 00 20    	mov.w     #0x0, w1
    22be:	86 fe 07    	rcall     0x1fcc <_delay_by_nop> <.L0> <.LFB0> <.LFE16> <.Letext0> <.Ltext0>
}
    22c0:	00 80 fa    	ulnk      
    22c2:	00 00 06    	return    

000022c4 <_i2c2_restart>:

void i2c2_restart(void){
    22c4:	02 00 fa    	lnk       #0x2
   int x = 0;
    22c6:	00 00 eb    	clr.w     w0
    22c8:	00 0f 78    	mov.w     w0, [w14]
   I2C2CONbits.RSEN = 1;	//Initiate restart condition
    22ca:	16 22 a8    	bset.b    0x216, #0x1
   __asm__("nop");
    22cc:	00 00 00    	nop       
   //the hardware will automatically clear restart bit
   //wait for automatic clear before proceding
   while (I2C2CONbits.RSEN){
    22ce:	07 00 37    	bra       0x22de <.L60>

000022d0 <.L62>:
      delay_by_nop(1);
    22d0:	10 00 20    	mov.w     #0x1, w0
    22d2:	01 00 20    	mov.w     #0x0, w1
    22d4:	7b fe 07    	rcall     0x1fcc <_delay_by_nop> <.L0> <.LFB0> <.LFE16> <.Letext0> <.Ltext0>
      x++;
    22d6:	1e 0f e8    	inc.w     [w14], [w14]
      if (x > 20)	break;
    22d8:	1e 00 78    	mov.w     [w14], w0
    22da:	f4 0f 50    	sub.w     w0, #0x14, [w15]
    22dc:	05 00 3c    	bra       GT, 0x22e8 <.L63>

000022de <.L60>:
    22de:	b0 10 80    	mov.w     0x216, w0
    22e0:	62 00 60    	and.w     w0, #0x2, w0
    22e2:	00 00 e0    	cp0.w     w0
    22e4:	f5 ff 3a    	bra       NZ, 0x22d0 <.L62>
    22e6:	01 00 37    	bra       0x22ea <.L61>

000022e8 <.L63>:
    22e8:	00 00 00    	nop       

000022ea <.L61>:
   }
   delay_by_nop(2);
    22ea:	20 00 20    	mov.w     #0x2, w0
    22ec:	01 00 20    	mov.w     #0x0, w1
    22ee:	6e fe 07    	rcall     0x1fcc <_delay_by_nop> <.L0> <.LFB0> <.LFE16> <.Letext0> <.Ltext0>
}
    22f0:	00 80 fa    	ulnk      
    22f2:	00 00 06    	return    

000022f4 <_reset_i2c2_bus>:


//Resets the I2C bus to Idle
void reset_i2c2_bus(void){
    22f4:	02 00 fa    	lnk       #0x2
   int x = 0;
    22f6:	00 00 eb    	clr.w     w0
    22f8:	00 0f 78    	mov.w     w0, [w14]
   I2C2CONbits.PEN = 1;     //initiate stop bit
    22fa:	16 42 a8    	bset.b    0x216, #0x2
   while (I2C2CONbits.PEN) {     //wait for hardware clear of stop bit
    22fc:	07 00 37    	bra       0x230c <.L65>

000022fe <.L67>:
      // delay_by_nop(1);
      delay_by_nop(1);
    22fe:	10 00 20    	mov.w     #0x1, w0
    2300:	01 00 20    	mov.w     #0x0, w1
    2302:	64 fe 07    	rcall     0x1fcc <_delay_by_nop> <.L0> <.LFB0> <.LFE16> <.Letext0> <.Ltext0>
      x ++;
    2304:	1e 0f e8    	inc.w     [w14], [w14]
      if (x > 20) break;
    2306:	1e 00 78    	mov.w     [w14], w0
    2308:	f4 0f 50    	sub.w     w0, #0x14, [w15]
    230a:	05 00 3c    	bra       GT, 0x2316 <.L68>

0000230c <.L65>:
    230c:	b0 10 80    	mov.w     0x216, w0
    230e:	64 00 60    	and.w     w0, #0x4, w0
    2310:	00 00 e0    	cp0.w     w0
    2312:	f5 ff 3a    	bra       NZ, 0x22fe <.L67>
    2314:	01 00 37    	bra       0x2318 <.L66>

00002316 <.L68>:
    2316:	00 00 00    	nop       

00002318 <.L66>:
   }

   I2C2CONbits.RCEN = 0;
    2318:	16 62 a9    	bclr.b    0x216, #0x3
   IFS3bits.MI2C2IF = 0; // Clear Interrupt
    231a:	8a 40 a9    	bclr.b    0x8a, #0x2
   I2C2STATbits.IWCOL = 0;
    231c:	18 e2 a9    	bclr.b    0x218, #0x7
   I2C2STATbits.BCL = 0;
    231e:	19 42 a9    	bclr.b    0x219, #0x2
   // delay_by_nop(10);
   delay_by_nop(20);
    2320:	40 01 20    	mov.w     #0x14, w0
    2322:	01 00 20    	mov.w     #0x0, w1
    2324:	53 fe 07    	rcall     0x1fcc <_delay_by_nop> <.L0> <.LFB0> <.LFE16> <.Letext0> <.Ltext0>
}
    2326:	00 80 fa    	ulnk      
    2328:	00 00 06    	return    

0000232a <_send_i2c2_byte>:


//basic I2C byte send
char send_i2c2_byte(int data){
    232a:	04 00 fa    	lnk       #0x4
    232c:	10 07 98    	mov.w     w0, [w14+2]
   int i;
   while (I2C2STATbits.TBF) { }
    232e:	00 00 00    	nop       

00002330 <.L70>:
    2330:	c0 10 80    	mov.w     0x218, w0
    2332:	61 00 60    	and.w     w0, #0x1, w0
    2334:	00 00 e0    	cp0.w     w0
    2336:	fc ff 3a    	bra       NZ, 0x2330 <.L70>
   IFS3bits.MI2C2IF = 0; // Clear Interrupt
    2338:	8a 40 a9    	bclr.b    0x8a, #0x2
   I2C2TRN = data; // load the outgoing data byte
    233a:	1e 00 90    	mov.w     [w14+2], w0
    233c:	90 10 88    	mov.w     w0, 0x212

   for (i=0; i<500; i++){           // wait for transmission
    233e:	00 00 eb    	clr.w     w0
    2340:	00 0f 78    	mov.w     w0, [w14]
    2342:	09 00 37    	bra       0x2356 <.L71>

00002344 <.L74>:
      if (!I2C2STATbits.TRSTAT) break; // if master transmit not in progress break
    2344:	c1 10 80    	mov.w     0x218, w1
    2346:	00 00 24    	mov.w     #0x4000, w0
    2348:	00 80 60    	and.w     w1, w0, w0
    234a:	00 00 e0    	cp0.w     w0
    234c:	09 00 32    	bra       Z, 0x2360 <.L78>
      delay_by_nop(1); }
    234e:	10 00 20    	mov.w     #0x1, w0
    2350:	01 00 20    	mov.w     #0x0, w1
    2352:	3c fe 07    	rcall     0x1fcc <_delay_by_nop> <.L0> <.LFB0> <.LFE16> <.Letext0> <.Ltext0>
    2354:	1e 0f e8    	inc.w     [w14], [w14]

00002356 <.L71>:
    2356:	30 1f 20    	mov.w     #0x1f3, w0
    2358:	9e 00 78    	mov.w     [w14], w1
    235a:	80 8f 50    	sub.w     w1, w0, [w15]
    235c:	f3 ff 34    	bra       LE, 0x2344 <.L74>
    235e:	01 00 37    	bra       0x2362 <.L73>

00002360 <.L78>:
    2360:	00 00 00    	nop       

00002362 <.L73>:

    if (i == 500) {     // if i got to 500, then there was an issue`
    2362:	40 1f 20    	mov.w     #0x1f4, w0
    2364:	9e 00 78    	mov.w     [w14], w1
    2366:	80 8f 50    	sub.w     w1, w0, [w15]
    2368:	02 00 3a    	bra       NZ, 0x236e <.L75>
        return(1); }    // return 1 to indicate failure
    236a:	10 c0 b3    	mov.b     #0x1, w0
    236c:	0c 00 37    	bra       0x2386 <.L76>

0000236e <.L75>:

   if (I2C2STATbits.ACKSTAT == 1){   // Check for NO_ACK from slave,
    236e:	c1 10 80    	mov.w     0x218, w1
    2370:	00 00 28    	mov.w     #0x8000, w0
    2372:	00 80 60    	and.w     w1, w0, w0
    2374:	00 00 e0    	cp0.w     w0
    2376:	03 00 32    	bra       Z, 0x237e <.L77>
      reset_i2c2_bus();
    2378:	bd ff 07    	rcall     0x22f4 <_reset_i2c2_bus> <.LFB16> <.LFE15>
      return(1); }            // abort if not found
    237a:	10 c0 b3    	mov.b     #0x1, w0
    237c:	04 00 37    	bra       0x2386 <.L76>

0000237e <.L77>:

   delay_by_nop(2);
    237e:	20 00 20    	mov.w     #0x2, w0
    2380:	01 00 20    	mov.w     #0x0, w1
    2382:	24 fe 07    	rcall     0x1fcc <_delay_by_nop> <.L0> <.LFB0> <.LFE16> <.Letext0> <.Ltext0>
   return(0);
    2384:	00 40 eb    	clr.b     w0

00002386 <.L76>:
}
    2386:	00 80 fa    	ulnk      
    2388:	00 00 06    	return    

0000238a <_i2c2_read>:


//function reads data, returns the read data, no ack
// helper function
char i2c2_read(void){
    238a:	04 00 fa    	lnk       #0x4
   int i = 0;
    238c:	00 00 eb    	clr.w     w0
    238e:	00 0f 78    	mov.w     w0, [w14]
   char data = 0;
    2390:	00 40 eb    	clr.b     w0
    2392:	20 47 98    	mov.b     w0, [w14+2]
   I2C2CONbits.RCEN = 1;            //set I2C module to receive
    2394:	16 62 a8    	bset.b    0x216, #0x3

   while (!I2C2STATbits.RBF) {           //if no response, break
    2396:	05 00 37    	bra       0x23a2 <.L80>

00002398 <.L82>:
      i ++;
    2398:	1e 0f e8    	inc.w     [w14], [w14]
      if (i > 2000) break;  }
    239a:	00 7d 20    	mov.w     #0x7d0, w0
    239c:	9e 00 78    	mov.w     [w14], w1
    239e:	80 8f 50    	sub.w     w1, w0, [w15]
    23a0:	05 00 3c    	bra       GT, 0x23ac <.L83>

000023a2 <.L80>:
    23a2:	c0 10 80    	mov.w     0x218, w0
    23a4:	62 00 60    	and.w     w0, #0x2, w0
    23a6:	00 00 e0    	cp0.w     w0
    23a8:	f7 ff 32    	bra       Z, 0x2398 <.L82>
    23aa:	01 00 37    	bra       0x23ae <.L81>

000023ac <.L83>:
    23ac:	00 00 00    	nop       

000023ae <.L81>:

   data = I2C2RCV;       //get data from I2C2RCV register
    23ae:	80 10 80    	mov.w     0x210, w0
    23b0:	20 47 98    	mov.b     w0, [w14+2]
   return data;
    23b2:	2e 40 90    	mov.b     [w14+2], w0
}
    23b4:	00 80 fa    	ulnk      
    23b6:	00 00 06    	return    

000023b8 <_i2c2_read_ack>:


//function reads data, returns the read data, with ack
char i2c2_read_ack(void){	//does not reset bus!!!
    23b8:	04 00 fa    	lnk       #0x4
   int i = 0;
    23ba:	00 00 eb    	clr.w     w0
    23bc:	00 0f 78    	mov.w     w0, [w14]
   char data = 0;
    23be:	00 40 eb    	clr.b     w0
    23c0:	20 47 98    	mov.b     w0, [w14+2]
   I2C2CONbits.RCEN = 1;            //set I2C module to receive
    23c2:	16 62 a8    	bset.b    0x216, #0x3

   while (!I2C2STATbits.RBF) {       //if no response, break
    23c4:	05 00 37    	bra       0x23d0 <.L85>

000023c6 <.L87>:
      i++;
    23c6:	1e 0f e8    	inc.w     [w14], [w14]
      if (i > 2000) break;}
    23c8:	00 7d 20    	mov.w     #0x7d0, w0
    23ca:	9e 00 78    	mov.w     [w14], w1
    23cc:	80 8f 50    	sub.w     w1, w0, [w15]
    23ce:	05 00 3c    	bra       GT, 0x23da <.L88>

000023d0 <.L85>:
    23d0:	c0 10 80    	mov.w     0x218, w0
    23d2:	62 00 60    	and.w     w0, #0x2, w0
    23d4:	00 00 e0    	cp0.w     w0
    23d6:	f7 ff 32    	bra       Z, 0x23c6 <.L87>
    23d8:	01 00 37    	bra       0x23dc <.L86>

000023da <.L88>:
    23da:	00 00 00    	nop       

000023dc <.L86>:

   data = I2C2RCV;               //get data from I2C2RCV register
    23dc:	80 10 80    	mov.w     0x210, w0
    23de:	20 47 98    	mov.b     w0, [w14+2]
   I2C2CONbits.ACKEN = 1;        //start ACK generation
    23e0:	16 82 a8    	bset.b    0x216, #0x4
   delay_by_nop(10);             //wait before exiting
    23e2:	a0 00 20    	mov.w     #0xa, w0
    23e4:	01 00 20    	mov.w     #0x0, w1
    23e6:	f2 fd 07    	rcall     0x1fcc <_delay_by_nop> <.L0> <.LFB0> <.LFE16> <.Letext0> <.Ltext0>
   return data;
    23e8:	2e 40 90    	mov.b     [w14+2], w0
}
    23ea:	00 80 fa    	ulnk      
    23ec:	00 00 06    	return    

000023ee <_i2c2_read_nack>:

char i2c2_read_nack(void){	//does not reset bus!!!
    23ee:	04 00 fa    	lnk       #0x4
   int i = 0;
    23f0:	00 00 eb    	clr.w     w0
    23f2:	00 0f 78    	mov.w     w0, [w14]
   char data = 0;
    23f4:	00 40 eb    	clr.b     w0
    23f6:	20 47 98    	mov.b     w0, [w14+2]
   I2C2CONbits.RCEN = 1;            //set I2C module to receive
    23f8:	16 62 a8    	bset.b    0x216, #0x3

   while (!I2C2STATbits.RBF) {       //if no response, break
    23fa:	05 00 37    	bra       0x2406 <.L90>

000023fc <.L92>:
      i++;
    23fc:	1e 0f e8    	inc.w     [w14], [w14]
      if (i > 2000) break;}
    23fe:	00 7d 20    	mov.w     #0x7d0, w0
    2400:	9e 00 78    	mov.w     [w14], w1
    2402:	80 8f 50    	sub.w     w1, w0, [w15]
    2404:	05 00 3c    	bra       GT, 0x2410 <.L93>

00002406 <.L90>:
    2406:	c0 10 80    	mov.w     0x218, w0
    2408:	62 00 60    	and.w     w0, #0x2, w0
    240a:	00 00 e0    	cp0.w     w0
    240c:	f7 ff 32    	bra       Z, 0x23fc <.L92>
    240e:	01 00 37    	bra       0x2412 <.L91>

00002410 <.L93>:
    2410:	00 00 00    	nop       

00002412 <.L91>:

   data = I2C2RCV;               //get data from I2C2RCV register
    2412:	80 10 80    	mov.w     0x210, w0
    2414:	20 47 98    	mov.b     w0, [w14+2]
   I2C2CONbits.ACKDT = 1;        // set mastrer to nack instead of ack
    2416:	16 a2 a8    	bset.b    0x216, #0x5
   I2C2CONbits.ACKEN = 1;        //start ack generation
    2418:	16 82 a8    	bset.b    0x216, #0x4
   delay_by_nop(10);             //wait before exiting
    241a:	a0 00 20    	mov.w     #0xa, w0
    241c:	01 00 20    	mov.w     #0x0, w1
    241e:	d6 fd 07    	rcall     0x1fcc <_delay_by_nop> <.L0> <.LFB0> <.LFE16> <.Letext0> <.Ltext0>
   return data;
    2420:	2e 40 90    	mov.b     [w14+2], w0
}
    2422:	00 80 fa    	ulnk      
    2424:	00 00 06    	return    

00002426 <_I2C2poll>:

// function checks if device at addr i bus
// 1 means it is not there, 0 means it is not there
unsigned char I2C2poll(char addr){
    2426:	04 00 fa    	lnk       #0x4
    2428:	20 47 98    	mov.b     w0, [w14+2]
   unsigned char temp = 0;
    242a:	00 40 eb    	clr.b     w0
    242c:	00 4f 78    	mov.b     w0, [w14]
   i2c2_start();
    242e:	2e ff 07    	rcall     0x228c <_i2c2_start> <.LFB14> <.LFE13>
   temp = send_i2c2_byte((addr) & (0xfffe)); // set /W bit
    2430:	2e 40 90    	mov.b     [w14+2], w0
    2432:	00 00 fb    	se        w0, w0
    2434:	80 00 78    	mov.w     w0, w1
    2436:	e0 ff 2f    	mov.w     #0xfffe, w0
    2438:	00 80 60    	and.w     w1, w0, w0
    243a:	77 ff 07    	rcall     0x232a <_send_i2c2_byte> <.LFB17> <.LFE16>
    243c:	00 4f 78    	mov.b     w0, [w14]
   reset_i2c2_bus();
    243e:	5a ff 07    	rcall     0x22f4 <_reset_i2c2_bus> <.LFB16> <.LFE15>
   if (temp == 0) {
    2440:	1e 40 78    	mov.b     [w14], w0
    2442:	00 04 e0    	cp0.b     w0
    2444:	02 00 3a    	bra       NZ, 0x244a <.L95>
       return 1; // We found it, no error
    2446:	10 c0 b3    	mov.b     #0x1, w0
    2448:	01 00 37    	bra       0x244c <.L96>

0000244a <.L95>:
   } else return 0;
    244a:	00 40 eb    	clr.b     w0

0000244c <.L96>:
}
    244c:	00 80 fa    	ulnk      
    244e:	00 00 06    	return    

00002450 <_init_ajuart>:
uint8_t U1TXbuffer[U1_TX_BUFFER_LENGTH];
uint8_t U1RXbuffer[U1_RX_BUFFER_LENGTH];
uint16_t U1_tx_threshold;

void init_ajuart(void) {
    2450:	04 00 fa    	lnk       #0x4
    uint8_t *RPOR, *RPINR;

    // Configure audio jack UART pins and connect them to UART1
    AJ_TX_DIR = OUT; AJ_TX = 1;
    2452:	f0 c2 a9    	bclr.b    0x2f0, #0x6
    2454:	f2 c2 a8    	bset.b    0x2f2, #0x6
    AJ_RX_DIR = IN;
    2456:	f0 e2 a8    	bset.b    0x2f0, #0x7

    RPOR = (uint8_t *)&RPOR0;
    2458:	00 6c 20    	mov.w     #0x6c0, w0
    245a:	00 0f 78    	mov.w     w0, [w14]
    RPINR = (uint8_t *)&RPINR0;
    245c:	00 68 20    	mov.w     #0x680, w0
    245e:	10 07 98    	mov.w     w0, [w14+2]

    __builtin_write_OSCCONL(OSCCON & 0xBF);
    2460:	11 3a 80    	mov.w     0x742, w1
    2462:	f0 0b 20    	mov.w     #0xbf, w0
    2464:	00 81 60    	and.w     w1, w0, w2
    2466:	60 04 20    	mov.w     #0x46, w0
    2468:	71 05 20    	mov.w     #0x57, w1
    246a:	23 74 20    	mov.w     #0x742, w3
    246c:	80 49 78    	mov.b     w0, [w3]
    246e:	81 49 78    	mov.b     w1, [w3]
    2470:	82 49 78    	mov.b     w2, [w3]
    RPINR[U1RX_RP] = AJ_RX_RP;
    2472:	1e 00 90    	mov.w     [w14+2], w0
    2474:	40 02 b0    	add.w     #0x24, w0
    2476:	a1 c1 b3    	mov.b     #0x1a, w1
    2478:	01 48 78    	mov.b     w1, [w0]
    RPOR[AJ_TX_RP] = U1TX_RP;
    247a:	9e 00 78    	mov.w     [w14], w1
    247c:	75 80 40    	add.w     w1, #0x15, w0
    247e:	31 c0 b3    	mov.b     #0x3, w1
    2480:	01 48 78    	mov.b     w1, [w0]
    __builtin_write_OSCCONL(OSCCON | 0x40);
    2482:	10 3a 80    	mov.w     0x742, w0
    2484:	00 01 78    	mov.w     w0, w2
    2486:	02 60 a0    	bset.w    w2, #0x6
    2488:	60 04 20    	mov.w     #0x46, w0
    248a:	71 05 20    	mov.w     #0x57, w1
    248c:	23 74 20    	mov.w     #0x742, w3
    248e:	80 49 78    	mov.b     w0, [w3]
    2490:	81 49 78    	mov.b     w1, [w3]
    2492:	82 49 78    	mov.b     w2, [w3]

    U1MODE = 0x0008;                // configure UART1 for transmission at
    2494:	80 00 20    	mov.w     #0x8, w0
    2496:	00 11 88    	mov.w     w0, 0x220
    U1BRG = 0x0022;                 //   115,200 baud, no parity, 1 stop bit
    2498:	20 02 20    	mov.w     #0x22, w0
    249a:	40 11 88    	mov.w     w0, 0x228

    U1_tx_buffer.data = U1TXbuffer;
    249c:	00 84 20    	mov.w     #0x840, w0
    249e:	60 41 88    	mov.w     w0, 0x82c
    U1_tx_buffer.length = U1_TX_BUFFER_LENGTH;
    24a0:	00 40 20    	mov.w     #0x400, w0
    24a2:	70 41 88    	mov.w     w0, 0x82e
    U1_tx_buffer.head = 0;
    24a4:	00 00 eb    	clr.w     w0
    24a6:	80 41 88    	mov.w     w0, 0x830
    U1_tx_buffer.tail = 0;
    24a8:	00 00 eb    	clr.w     w0
    24aa:	90 41 88    	mov.w     w0, 0x832
    U1_tx_buffer.count = 0;
    24ac:	00 00 eb    	clr.w     w0
    24ae:	a0 41 88    	mov.w     w0, 0x834
    U1_tx_threshold = 3 * U1_TX_BUFFER_LENGTH / 4;
    24b0:	00 30 20    	mov.w     #0x300, w0
    24b2:	50 41 88    	mov.w     w0, 0x82a

    U1_rx_buffer.data = U1RXbuffer;
    24b4:	00 c4 20    	mov.w     #0xc40, w0
    24b6:	b0 41 88    	mov.w     w0, 0x836
    U1_rx_buffer.length = U1_RX_BUFFER_LENGTH;
    24b8:	00 40 20    	mov.w     #0x400, w0
    24ba:	c0 41 88    	mov.w     w0, 0x838
    U1_rx_buffer.head = 0;
    24bc:	00 00 eb    	clr.w     w0
    24be:	d0 41 88    	mov.w     w0, 0x83a
    U1_rx_buffer.tail = 0;
    24c0:	00 00 eb    	clr.w     w0
    24c2:	e0 41 88    	mov.w     w0, 0x83c
    U1_rx_buffer.count = 0;
    24c4:	00 00 eb    	clr.w     w0
    24c6:	f0 41 88    	mov.w     w0, 0x83e

    U1STAbits.UTXISEL1 = 0;         // set UART1 UTXISEL<1:0> = 01, TX interrupt
    24c8:	23 e2 a9    	bclr.b    0x223, #0x7
    U1STAbits.UTXISEL0 = 1;         //   when all transmit operations are done
    24ca:	23 a2 a8    	bset.b    0x223, #0x5

    IFS0bits.U1TXIF = 0;            // lower UART1 TX interrupt flag
    24cc:	85 80 a9    	bclr.b    0x85, #0x4
    IEC0bits.U1TXIE = 1;            // enable UART1 TX interrupt
    24ce:	95 80 a8    	bset.b    0x95, #0x4

    IFS0bits.U1RXIF = 0;            // lower UART1 RX interrupt flag
    24d0:	85 60 a9    	bclr.b    0x85, #0x3
    IEC0bits.U1RXIE = 1;            // enable UART1 RX interrupt
    24d2:	95 60 a8    	bset.b    0x95, #0x3

    U1MODEbits.UARTEN = 1;          // enable UART1 module
    24d4:	21 e2 a8    	bset.b    0x221, #0x7
    U1STAbits.UTXEN = 1;            // enable UART1 data transmission
    24d6:	23 42 a8    	bset.b    0x223, #0x2
}
    24d8:	00 80 fa    	ulnk      
    24da:	00 00 06    	return    

000024dc <_U1_in_waiting>:

void __attribute__((interrupt, auto_psv)) _U1TXInterrupt(void) {
    uint8_t ch;

    IFS0bits.U1TXIF = 0;            // lower UART1 TX interrupt flag

    if (U1_tx_buffer.count == 0)    // if nothing left in UART1 TX buffer, 
        U1STAbits.UTXEN = 0;        //   disable data transmission

    while ((U1STAbits.UTXBF == 0) && (U1_tx_buffer.count != 0)) {
        disable_interrupts();
        ch = U1_tx_buffer.data[U1_tx_buffer.head];
        U1_tx_buffer.head++;
        if (U1_tx_buffer.head == U1_tx_buffer.length)
            U1_tx_buffer.head = 0;
        U1_tx_buffer.count--;
        enable_interrupts();
        U1TXREG = (uint16_t)ch;
    }
}

void __attribute__((interrupt, auto_psv)) _U1RXInterrupt(void) {
    IFS0bits.U1RXIF = 0;            // lower UART1 RX interrupt flag

    while ((U1STAbits.URXDA == 1) && (U1_rx_buffer.count != U1_rx_buffer.length)) {
        disable_interrupts();
        U1_rx_buffer.data[U1_rx_buffer.tail] = (uint8_t)U1RXREG;
        U1_rx_buffer.tail++;
        if (U1_rx_buffer.tail == U1_rx_buffer.length)
            U1_rx_buffer.tail = 0;
        U1_rx_buffer.count++;
        enable_interrupts();
    }
}

uint16_t U1_in_waiting(void) {
    24dc:	00 00 fa    	lnk       #0x0
    return U1_rx_buffer.count;
    24de:	f0 41 80    	mov.w     0x83e, w0
}
    24e0:	00 80 fa    	ulnk      
    24e2:	00 00 06    	return    

000024e4 <_U1_flush_tx_buffer>:

void U1_flush_tx_buffer(void) {
    24e4:	00 00 fa    	lnk       #0x0
    if (U1STAbits.UTXEN == 0)       // if UART1 transmission is disabled,
    24e6:	11 11 80    	mov.w     0x222, w1
    24e8:	00 40 20    	mov.w     #0x400, w0
    24ea:	00 80 60    	and.w     w1, w0, w0
    24ec:	00 00 e0    	cp0.w     w0
    24ee:	01 00 3a    	bra       NZ, 0x24f2 <.L15>
        U1STAbits.UTXEN = 1;        //   enable it
    24f0:	23 42 a8    	bset.b    0x223, #0x2

000024f2 <.L15>:
}
    24f2:	00 80 fa    	ulnk      
    24f4:	00 00 06    	return    

000024f6 <_U1_putc>:

void U1_putc(uint8_t ch) {
    24f6:	02 00 fa    	lnk       #0x2
    24f8:	00 4f 78    	mov.b     w0, [w14]
    // Wait until UART1 TX buffer is not full
    while (U1_tx_buffer.count == U1_tx_buffer.length) {}
    24fa:	00 00 00    	nop       

000024fc <.L18>:
    24fc:	a1 41 80    	mov.w     0x834, w1
    24fe:	70 41 80    	mov.w     0x82e, w0
    2500:	80 8f 50    	sub.w     w1, w0, [w15]
    2502:	fc ff 32    	bra       Z, 0x24fc <.L18>

    disable_interrupts();
    2504:	ff 3f fc    	disi      #0x3fff
    U1_tx_buffer.data[U1_tx_buffer.tail] = ch;
    2506:	61 41 80    	mov.w     0x82c, w1
    2508:	90 41 80    	mov.w     0x832, w0
    250a:	00 80 40    	add.w     w1, w0, w0
    250c:	1e 48 78    	mov.b     [w14], [w0]
    U1_tx_buffer.tail++;
    250e:	90 41 80    	mov.w     0x832, w0
    2510:	00 00 e8    	inc.w     w0, w0
    2512:	90 41 88    	mov.w     w0, 0x832
    if (U1_tx_buffer.tail == U1_tx_buffer.length)
    2514:	91 41 80    	mov.w     0x832, w1
    2516:	70 41 80    	mov.w     0x82e, w0
    2518:	80 8f 50    	sub.w     w1, w0, [w15]
    251a:	02 00 3a    	bra       NZ, 0x2520 <.L19>
        U1_tx_buffer.tail = 0;
    251c:	00 00 eb    	clr.w     w0
    251e:	90 41 88    	mov.w     w0, 0x832

00002520 <.L19>:
    U1_tx_buffer.count++;
    2520:	a0 41 80    	mov.w     0x834, w0
    2522:	00 00 e8    	inc.w     w0, w0
    2524:	a0 41 88    	mov.w     w0, 0x834
    enable_interrupts();
    2526:	52 20 ef    	clr.w     0x52

    // If UART1 TX buffer is full enough, enable data transmission
    if (U1_tx_buffer.count >= U1_tx_threshold)
    2528:	a1 41 80    	mov.w     0x834, w1
    252a:	50 41 80    	mov.w     0x82a, w0
    252c:	80 8f 50    	sub.w     w1, w0, [w15]
    252e:	01 00 39    	bra       NC, 0x2532 <.L17>
        U1STAbits.UTXEN = 1;
    2530:	23 42 a8    	bset.b    0x223, #0x2

00002532 <.L17>:
}
    2532:	00 80 fa    	ulnk      
    2534:	00 00 06    	return    

00002536 <_U1_getc>:

uint8_t U1_getc(void) {
    2536:	02 00 fa    	lnk       #0x2
    uint8_t ch;

    // Wait until UART1 RX buffer is not empty
    while (U1_rx_buffer.count == 0) {}
    2538:	00 00 00    	nop       

0000253a <.L22>:
    253a:	f0 41 80    	mov.w     0x83e, w0
    253c:	00 00 e0    	cp0.w     w0
    253e:	fd ff 32    	bra       Z, 0x253a <.L22>

    disable_interrupts();
    2540:	ff 3f fc    	disi      #0x3fff
    ch = U1_rx_buffer.data[U1_rx_buffer.head];
    2542:	b1 41 80    	mov.w     0x836, w1
    2544:	d0 41 80    	mov.w     0x83a, w0
    2546:	00 80 40    	add.w     w1, w0, w0
    2548:	10 4f 78    	mov.b     [w0], [w14]
    U1_rx_buffer.head++;
    254a:	d0 41 80    	mov.w     0x83a, w0
    254c:	00 00 e8    	inc.w     w0, w0
    254e:	d0 41 88    	mov.w     w0, 0x83a
    if (U1_rx_buffer.head == U1_rx_buffer.length)
    2550:	d1 41 80    	mov.w     0x83a, w1
    2552:	c0 41 80    	mov.w     0x838, w0
    2554:	80 8f 50    	sub.w     w1, w0, [w15]
    2556:	02 00 3a    	bra       NZ, 0x255c <.L23>
        U1_rx_buffer.head = 0;
    2558:	00 00 eb    	clr.w     w0
    255a:	d0 41 88    	mov.w     w0, 0x83a

0000255c <.L23>:
    U1_rx_buffer.count--;
    255c:	f0 41 80    	mov.w     0x83e, w0
    255e:	00 00 e9    	dec.w     w0, w0
    2560:	f0 41 88    	mov.w     w0, 0x83e
    enable_interrupts();
    2562:	52 20 ef    	clr.w     0x52

    return ch;
    2564:	1e 40 78    	mov.b     [w14], w0
}
    2566:	00 80 fa    	ulnk      
    2568:	00 00 06    	return    

0000256a <_U1_puts>:

void U1_puts(uint8_t *str) {
    256a:	02 00 fa    	lnk       #0x2
    256c:	00 0f 78    	mov.w     w0, [w14]
    while (*str)
    256e:	04 00 37    	bra       0x2578 <.L25>

00002570 <.L26>:
        U1_putc(*str++);
    2570:	1e 00 78    	mov.w     [w14], w0
    2572:	10 40 78    	mov.b     [w0], w0
    2574:	1e 0f e8    	inc.w     [w14], [w14]
    2576:	bf ff 07    	rcall     0x24f6 <_U1_putc> <.LFB5> <.LFE4>

00002578 <.L25>:
    2578:	1e 00 78    	mov.w     [w14], w0
    257a:	10 40 78    	mov.b     [w0], w0
    257c:	00 04 e0    	cp0.b     w0
    257e:	f8 ff 3a    	bra       NZ, 0x2570 <.L26>
    U1_flush_tx_buffer();
    2580:	b1 ff 07    	rcall     0x24e4 <_U1_flush_tx_buffer> <.LFB4> <.LFE3>
}
    2582:	00 80 fa    	ulnk      
    2584:	00 00 06    	return    

00002586 <_U1_gets>:

void U1_gets(uint8_t *str, uint16_t len) {
    2586:	04 00 fa    	lnk       #0x4
    2588:	00 0f 78    	mov.w     w0, [w14]
    258a:	11 07 98    	mov.w     w1, [w14+2]
    if (len == 0)
    258c:	1e 00 90    	mov.w     [w14+2], w0
    258e:	00 00 e0    	cp0.w     w0
    2590:	1a 00 32    	bra       Z, 0x25c6 <.L32>
        return;

    if (len == 1) {
    2592:	1e 00 90    	mov.w     [w14+2], w0
    2594:	e1 0f 50    	sub.w     w0, #0x1, [w15]
    2596:	04 00 3a    	bra       NZ, 0x25a0 <.L30>
        *str = '\0';
    2598:	1e 00 78    	mov.w     [w14], w0
    259a:	80 40 eb    	clr.b     w1
    259c:	01 48 78    	mov.b     w1, [w0]
        return;
    259e:	14 00 37    	bra       0x25c8 <.L27>

000025a0 <.L30>:
    }

    while (1) {
        *str = U1_getc();
    25a0:	ca ff 07    	rcall     0x2536 <_U1_getc> <.LFB6> <.LFE5>
    25a2:	9e 00 78    	mov.w     [w14], w1
    25a4:	80 48 78    	mov.b     w0, [w1]
        if ((*str == '\r') || (len == 1))
    25a6:	1e 00 78    	mov.w     [w14], w0
    25a8:	10 40 78    	mov.b     [w0], w0
    25aa:	ed 4f 50    	sub.b     w0, #0xd, [w15]
    25ac:	08 00 32    	bra       Z, 0x25be <.L31>
    25ae:	1e 00 90    	mov.w     [w14+2], w0
    25b0:	e1 0f 50    	sub.w     w0, #0x1, [w15]
    25b2:	05 00 32    	bra       Z, 0x25be <.L31>
            break;
        str++;
    25b4:	1e 0f e8    	inc.w     [w14], [w14]
        len--;
    25b6:	1e 00 90    	mov.w     [w14+2], w0
    25b8:	00 00 e9    	dec.w     w0, w0
    25ba:	10 07 98    	mov.w     w0, [w14+2]
    }
    25bc:	f1 ff 37    	bra       0x25a0 <.L30>

000025be <.L31>:
    *str = '\0';
    25be:	1e 00 78    	mov.w     [w14], w0
    25c0:	80 40 eb    	clr.b     w1
    25c2:	01 48 78    	mov.b     w1, [w0]
    25c4:	01 00 37    	bra       0x25c8 <.L27>

000025c6 <.L32>:
    25c6:	00 00 00    	nop       

000025c8 <.L27>:
}
    25c8:	00 80 fa    	ulnk      
    25ca:	00 00 06    	return    

000025cc <_U1_gets_term>:

void U1_gets_term(uint8_t *str, uint16_t len) {
    25cc:	08 00 fa    	lnk       #0x8
    25ce:	20 07 98    	mov.w     w0, [w14+4]
    25d0:	31 07 98    	mov.w     w1, [w14+6]
    uint8_t *start;
    uint16_t left;

    if (len == 0)
    25d2:	3e 00 90    	mov.w     [w14+6], w0
    25d4:	00 00 e0    	cp0.w     w0
    25d6:	6f 00 32    	bra       Z, 0x26b6 <.L46>
        return;

    if (len == 1) {
    25d8:	3e 00 90    	mov.w     [w14+6], w0
    25da:	e1 0f 50    	sub.w     w0, #0x1, [w15]
    25dc:	04 00 3a    	bra       NZ, 0x25e6 <.L36>
        *str = '\0';
    25de:	2e 00 90    	mov.w     [w14+4], w0
    25e0:	80 40 eb    	clr.b     w1
    25e2:	01 48 78    	mov.b     w1, [w0]
        return;
    25e4:	69 00 37    	bra       0x26b8 <.L33>

000025e6 <.L36>:
    }

    U1_putc(0x1B);                          // save current cursor position
    25e6:	b0 c1 b3    	mov.b     #0x1b, w0
    25e8:	86 ff 07    	rcall     0x24f6 <_U1_putc> <.LFB5> <.LFE4>
    U1_putc('7');
    25ea:	70 c3 b3    	mov.b     #0x37, w0
    25ec:	84 ff 07    	rcall     0x24f6 <_U1_putc> <.LFB5> <.LFE4>
    U1_flush_tx_buffer();
    25ee:	7a ff 07    	rcall     0x24e4 <_U1_flush_tx_buffer> <.LFB4> <.LFE3>
    start = str;
    25f0:	ae 00 90    	mov.w     [w14+4], w1
    25f2:	11 07 98    	mov.w     w1, [w14+2]
    left = len;
    25f4:	be 00 90    	mov.w     [w14+6], w1
    25f6:	01 0f 78    	mov.w     w1, [w14]
    25f8:	03 00 37    	bra       0x2600 <.L45>

000025fa <.L47>:
    while (1) {
        *str = U1_getc();                   // get a character
        if (*str == '\r')                   // if character is return,
            break;                          //   end the loop
        if (*str == 0x1B) {                 // if character is escape,
            U1_putc(0x1B);                  //   restore cursor position,
            U1_putc('8');
            U1_putc(0x1B);                  //   clear to end of line, and
            U1_putc('[');
            U1_putc('K');
            U1_flush_tx_buffer();
            str = start;                    //   start over at the beginning
            left = len;
            continue;
        }
        if ((*str == '\b') ||               // if character is backspace
            (*str == 0x7F)) {               //   or delete, 
            if (str > start) {              //   and we are not at the start, 
                U1_putc('\b');              //   erase the last character and
                U1_putc(' ');
                U1_putc('\b');
                U1_flush_tx_buffer();
                str--;                      //   back up the pointer,
                left++;
            } else {                        //   otherwise
                U1_putc('\a');              //   send alert/bell character
                U1_flush_tx_buffer();
            }
            continue;
        }
        if (left == 1) {                    // if string buffer is full,
            U1_putc('\a');                  //   send alert/bell character
            U1_flush_tx_buffer();
            continue;
        }
        if ((*str >= 32) && (*str < 127)) { // if character is printable,
            U1_putc(*str);                  //   echo the received character
            U1_flush_tx_buffer();
            str++;                          //   and advance the pointer
            left--;
        }
    }
    25fa:	00 00 00    	nop       
    25fc:	01 00 37    	bra       0x2600 <.L45>

000025fe <.L48>:
    25fe:	00 00 00    	nop       

00002600 <.L45>:
    2600:	9a ff 07    	rcall     0x2536 <_U1_getc> <.LFB6> <.LFE5>
    2602:	ae 00 90    	mov.w     [w14+4], w1
    2604:	80 48 78    	mov.b     w0, [w1]
    2606:	2e 00 90    	mov.w     [w14+4], w0
    2608:	10 40 78    	mov.b     [w0], w0
    260a:	ed 4f 50    	sub.b     w0, #0xd, [w15]
    260c:	09 00 3a    	bra       NZ, 0x2620 <.L37>
    *str = '\0';                            // terminarte the string with null
    260e:	2e 00 90    	mov.w     [w14+4], w0
    2610:	80 40 eb    	clr.b     w1
    2612:	01 48 78    	mov.b     w1, [w0]
    U1_putc('\n');                          // send newline and
    2614:	a0 c0 b3    	mov.b     #0xa, w0
    2616:	6f ff 07    	rcall     0x24f6 <_U1_putc> <.LFB5> <.LFE4>
    U1_putc('\r');                          //   carriage return
    2618:	d0 c0 b3    	mov.b     #0xd, w0
    261a:	6d ff 07    	rcall     0x24f6 <_U1_putc> <.LFB5> <.LFE4>
    U1_flush_tx_buffer();
    261c:	63 ff 07    	rcall     0x24e4 <_U1_flush_tx_buffer> <.LFB4> <.LFE3>
    261e:	4c 00 37    	bra       0x26b8 <.L33>

00002620 <.L37>:
    2620:	2e 00 90    	mov.w     [w14+4], w0
    2622:	10 40 78    	mov.b     [w0], w0
    2624:	fb 4f 50    	sub.b     w0, #0x1b, [w15]
    2626:	10 00 3a    	bra       NZ, 0x2648 <.L38>
    2628:	b0 c1 b3    	mov.b     #0x1b, w0
    262a:	65 ff 07    	rcall     0x24f6 <_U1_putc> <.LFB5> <.LFE4>
    262c:	80 c3 b3    	mov.b     #0x38, w0
    262e:	63 ff 07    	rcall     0x24f6 <_U1_putc> <.LFB5> <.LFE4>
    2630:	b0 c1 b3    	mov.b     #0x1b, w0
    2632:	61 ff 07    	rcall     0x24f6 <_U1_putc> <.LFB5> <.LFE4>
    2634:	b0 c5 b3    	mov.b     #0x5b, w0
    2636:	5f ff 07    	rcall     0x24f6 <_U1_putc> <.LFB5> <.LFE4>
    2638:	b0 c4 b3    	mov.b     #0x4b, w0
    263a:	5d ff 07    	rcall     0x24f6 <_U1_putc> <.LFB5> <.LFE4>
    263c:	53 ff 07    	rcall     0x24e4 <_U1_flush_tx_buffer> <.LFB4> <.LFE3>
    263e:	9e 00 90    	mov.w     [w14+2], w1
    2640:	21 07 98    	mov.w     w1, [w14+4]
    2642:	be 00 90    	mov.w     [w14+6], w1
    2644:	01 0f 78    	mov.w     w1, [w14]
    2646:	36 00 37    	bra       0x26b4 <.L39>

00002648 <.L38>:
    2648:	2e 00 90    	mov.w     [w14+4], w0
    264a:	10 40 78    	mov.b     [w0], w0
    264c:	e8 4f 50    	sub.b     w0, #0x8, [w15]
    264e:	05 00 32    	bra       Z, 0x265a <.L40>
    2650:	2e 00 90    	mov.w     [w14+4], w0
    2652:	90 40 78    	mov.b     [w0], w1
    2654:	f0 c7 b3    	mov.b     #0x7f, w0
    2656:	80 cf 50    	sub.b     w1, w0, [w15]
    2658:	14 00 3a    	bra       NZ, 0x2682 <.L41>

0000265a <.L40>:
    265a:	ae 00 90    	mov.w     [w14+4], w1
    265c:	1e 00 90    	mov.w     [w14+2], w0
    265e:	80 8f 50    	sub.w     w1, w0, [w15]
    2660:	0c 00 36    	bra       LEU, 0x267a <.L42>
    2662:	80 c0 b3    	mov.b     #0x8, w0
    2664:	48 ff 07    	rcall     0x24f6 <_U1_putc> <.LFB5> <.LFE4>
    2666:	00 c2 b3    	mov.b     #0x20, w0
    2668:	46 ff 07    	rcall     0x24f6 <_U1_putc> <.LFB5> <.LFE4>
    266a:	80 c0 b3    	mov.b     #0x8, w0
    266c:	44 ff 07    	rcall     0x24f6 <_U1_putc> <.LFB5> <.LFE4>
    266e:	3a ff 07    	rcall     0x24e4 <_U1_flush_tx_buffer> <.LFB4> <.LFE3>
    2670:	2e 00 90    	mov.w     [w14+4], w0
    2672:	00 00 e9    	dec.w     w0, w0
    2674:	20 07 98    	mov.w     w0, [w14+4]
    2676:	1e 0f e8    	inc.w     [w14], [w14]
    2678:	03 00 37    	bra       0x2680 <.L43>

0000267a <.L42>:
    267a:	70 c0 b3    	mov.b     #0x7, w0
    267c:	3c ff 07    	rcall     0x24f6 <_U1_putc> <.LFB5> <.LFE4>
    267e:	32 ff 07    	rcall     0x24e4 <_U1_flush_tx_buffer> <.LFB4> <.LFE3>

00002680 <.L43>:
    2680:	19 00 37    	bra       0x26b4 <.L39>

00002682 <.L41>:
    2682:	1e 00 78    	mov.w     [w14], w0
    2684:	e1 0f 50    	sub.w     w0, #0x1, [w15]
    2686:	04 00 3a    	bra       NZ, 0x2690 <.L44>
    2688:	70 c0 b3    	mov.b     #0x7, w0
    268a:	35 ff 07    	rcall     0x24f6 <_U1_putc> <.LFB5> <.LFE4>
    268c:	2b ff 07    	rcall     0x24e4 <_U1_flush_tx_buffer> <.LFB4> <.LFE3>
    268e:	12 00 37    	bra       0x26b4 <.L39>

00002690 <.L44>:
    2690:	2e 00 90    	mov.w     [w14+4], w0
    2692:	10 40 78    	mov.b     [w0], w0
    2694:	ff 4f 50    	sub.b     w0, #0x1f, [w15]
    2696:	b1 ff 36    	bra       LEU, 0x25fa <.L47>
    2698:	2e 00 90    	mov.w     [w14+4], w0
    269a:	90 40 78    	mov.b     [w0], w1
    269c:	e0 c7 b3    	mov.b     #0x7e, w0
    269e:	80 cf 50    	sub.b     w1, w0, [w15]
    26a0:	ae ff 3e    	bra       GTU, 0x25fe <.L48>
    26a2:	2e 00 90    	mov.w     [w14+4], w0
    26a4:	10 40 78    	mov.b     [w0], w0
    26a6:	27 ff 07    	rcall     0x24f6 <_U1_putc> <.LFB5> <.LFE4>
    26a8:	1d ff 07    	rcall     0x24e4 <_U1_flush_tx_buffer> <.LFB4> <.LFE3>
    26aa:	2e 00 90    	mov.w     [w14+4], w0
    26ac:	00 00 e8    	inc.w     w0, w0
    26ae:	20 07 98    	mov.w     w0, [w14+4]
    26b0:	1e 0f e9    	dec.w     [w14], [w14]
    26b2:	a6 ff 37    	bra       0x2600 <.L45>

000026b4 <.L39>:
    26b4:	a5 ff 37    	bra       0x2600 <.L45>

000026b6 <.L46>:
    26b6:	00 00 00    	nop       

000026b8 <.L33>:
}
    26b8:	00 80 fa    	ulnk      
    26ba:	00 00 06    	return    

000026bc <_write>:

int16_t write(int16_t handle, void *buffer, uint16_t len) {
    26bc:	08 00 fa    	lnk       #0x8
    26be:	10 07 98    	mov.w     w0, [w14+2]
    26c0:	21 07 98    	mov.w     w1, [w14+4]
    26c2:	32 07 98    	mov.w     w2, [w14+6]
    int16_t i;

    switch (handle) {
    26c4:	1e 00 90    	mov.w     [w14+2], w0
    26c6:	60 00 40    	add.w     w0, #0x0, w0
    26c8:	e2 0f 50    	sub.w     w0, #0x2, [w15]
    26ca:	10 00 3e    	bra       GTU, 0x26ec <.L55>
        case 0:
        case 1:
        case 2:
            for (i = 0; i < len; i++)
    26cc:	00 00 eb    	clr.w     w0
    26ce:	00 0f 78    	mov.w     w0, [w14]
    26d0:	07 00 37    	bra       0x26e0 <.L52>

000026d2 <.L53>:
                U1_putc(*(uint8_t *)buffer++);
    26d2:	2e 00 90    	mov.w     [w14+4], w0
    26d4:	10 40 78    	mov.b     [w0], w0
    26d6:	ae 00 90    	mov.w     [w14+4], w1
    26d8:	81 00 e8    	inc.w     w1, w1
    26da:	21 07 98    	mov.w     w1, [w14+4]
    26dc:	0c ff 07    	rcall     0x24f6 <_U1_putc> <.LFB5> <.LFE4>
    26de:	1e 0f e8    	inc.w     [w14], [w14]

000026e0 <.L52>:
    26e0:	9e 00 78    	mov.w     [w14], w1
    26e2:	3e 00 90    	mov.w     [w14+6], w0
    26e4:	80 8f 50    	sub.w     w1, w0, [w15]
    26e6:	f5 ff 39    	bra       NC, 0x26d2 <.L53>
            U1_flush_tx_buffer();
    26e8:	fd fe 07    	rcall     0x24e4 <_U1_flush_tx_buffer> <.LFB4> <.LFE3>
            break;
    26ea:	01 00 37    	bra       0x26ee <.L54>

000026ec <.L55>:
        default:
            break;
    26ec:	00 00 00    	nop       

000026ee <.L54>:
    }
    return len;
    26ee:	3e 00 90    	mov.w     [w14+6], w0
}
    26f0:	00 80 fa    	ulnk      
    26f2:	00 00 06    	return    
Disassembly of section .isr.text:

000026f4 <__CNInterrupt>:
    26f4:	32 00 f8    	push      0x32
    26f6:	34 00 f8    	push      0x34
    26f8:	88 1f 78    	mov.w     w8, [w15++]
    26fa:	18 00 20    	mov.w     #0x1, w8
    26fc:	a8 01 88    	mov.w     w8, 0x34
    26fe:	08 20 20    	mov.w     #0x200, w8
    2700:	98 01 88    	mov.w     w8, 0x32
    2702:	4f 04 78    	mov.w     [--w15], w8
    2704:	00 00 fa    	lnk       #0x0
    2706:	86 60 a9    	bclr.b    0x86, #0x3
    2708:	06 21 ef    	clr.w     0x106
    270a:	84 e0 a9    	bclr.b    0x84, #0x7
    270c:	11 e1 a8    	bset.b    0x111, #0x7
    270e:	dc e2 a8    	bset.b    0x2dc, #0x7
    2710:	00 80 fa    	ulnk      
    2712:	34 00 f9    	pop       0x34
    2714:	32 00 f9    	pop       0x32
    2716:	00 40 06    	retfie    

00002718 <__T2Interrupt>:
    2718:	36 00 f8    	push      0x36
    271a:	80 9f be    	mov.d     w0, [w15++]
    271c:	82 9f be    	mov.d     w2, [w15++]
    271e:	84 9f be    	mov.d     w4, [w15++]
    2720:	86 9f be    	mov.d     w6, [w15++]
    2722:	32 00 f8    	push      0x32
    2724:	34 00 f8    	push      0x34
    2726:	10 00 20    	mov.w     #0x1, w0
    2728:	a0 01 88    	mov.w     w0, 0x34
    272a:	00 20 20    	mov.w     #0x200, w0
    272c:	90 01 88    	mov.w     w0, 0x32
    272e:	00 00 fa    	lnk       #0x0
    2730:	84 e0 a9    	bclr.b    0x84, #0x7
    2732:	11 e1 a9    	bclr.b    0x111, #0x7
    2734:	dc e2 a9    	bclr.b    0x2dc, #0x7
    2736:	d1 16 80    	mov.w     0x2da, w1
    2738:	00 02 20    	mov.w     #0x20, w0
    273a:	00 80 60    	and.w     w1, w0, w0
    273c:	00 00 e0    	cp0.w     w0
    273e:	0b 00 3a    	bra       NZ, 0x2756 <.L47>
    2740:	10 c8 bf    	mov.b     0x810, WREG
    2742:	00 80 fb    	ze        w0, w0
    2744:	80 00 e8    	inc.w     w0, w1
    2746:	60 00 20    	mov.w     #0x6, w0
    2748:	00 01 78    	mov.w     w0, w2
    274a:	11 00 09    	repeat    #0x11
    274c:	82 00 d8    	div.sw    w1, w2
    274e:	80 00 fd    	exch      w0, w1
    2750:	00 40 78    	mov.b     w0, w0
    2752:	10 e8 b7    	mov.b     WREG, 0x810
    2754:	0c 00 37    	bra       0x276e <.L48>

00002756 <.L47>:
    2756:	d0 16 80    	mov.w     0x2da, w0
    2758:	70 00 60    	and.w     w0, #0x10, w0
    275a:	00 00 e0    	cp0.w     w0
    275c:	08 00 3a    	bra       NZ, 0x276e <.L48>
    275e:	10 c8 bf    	mov.b     0x810, WREG
    2760:	00 40 e9    	dec.b     w0, w0
    2762:	10 e8 b7    	mov.b     WREG, 0x810
    2764:	10 c8 bf    	mov.b     0x810, WREG
    2766:	e5 4f 50    	sub.b     w0, #0x5, [w15]
    2768:	02 00 36    	bra       LEU, 0x276e <.L48>
    276a:	50 c0 b3    	mov.b     #0x5, w0
    276c:	10 e8 b7    	mov.b     WREG, 0x810

0000276e <.L48>:
    276e:	d0 16 80    	mov.w     0x2da, w0
    2770:	64 00 60    	and.w     w0, #0x4, w0
    2772:	00 00 e0    	cp0.w     w0
    2774:	0b 00 3a    	bra       NZ, 0x278c <.L49>
    2776:	11 c8 bf    	mov.b     0x811, WREG
    2778:	00 80 fb    	ze        w0, w0
    277a:	80 00 e8    	inc.w     w0, w1
    277c:	60 00 20    	mov.w     #0x6, w0
    277e:	00 01 78    	mov.w     w0, w2
    2780:	11 00 09    	repeat    #0x11
    2782:	82 00 d8    	div.sw    w1, w2
    2784:	80 00 fd    	exch      w0, w1
    2786:	00 40 78    	mov.b     w0, w0
    2788:	11 e8 b7    	mov.b     WREG, 0x811
    278a:	07 00 37    	bra       0x279a <.L50>

0000278c <.L49>:
    278c:	d0 16 80    	mov.w     0x2da, w0
    278e:	68 00 60    	and.w     w0, #0x8, w0
    2790:	00 00 e0    	cp0.w     w0
    2792:	03 00 3a    	bra       NZ, 0x279a <.L50>
    2794:	11 c8 bf    	mov.b     0x811, WREG
    2796:	00 40 e9    	dec.b     w0, w0
    2798:	11 e8 b7    	mov.b     WREG, 0x811

0000279a <.L50>:
    279a:	11 c8 bf    	mov.b     0x811, WREG
    279c:	e5 4f 50    	sub.b     w0, #0x5, [w15]
    279e:	03 00 36    	bra       LEU, 0x27a6 <.L51>
    27a0:	11 c8 bf    	mov.b     0x811, WREG
    27a2:	66 40 40    	add.b     w0, #0x6, w0
    27a4:	11 e8 b7    	mov.b     WREG, 0x811

000027a6 <.L51>:
    27a6:	51 16 80    	mov.w     0x2ca, w1
    27a8:	00 00 28    	mov.w     #0x8000, w0
    27aa:	00 80 60    	and.w     w1, w0, w0
    27ac:	00 00 e0    	cp0.w     w0
    27ae:	0b 00 3a    	bra       NZ, 0x27c6 <.L52>
    27b0:	12 c8 bf    	mov.b     0x812, WREG
    27b2:	00 80 fb    	ze        w0, w0
    27b4:	80 00 e8    	inc.w     w0, w1
    27b6:	60 00 20    	mov.w     #0x6, w0
    27b8:	00 01 78    	mov.w     w0, w2
    27ba:	11 00 09    	repeat    #0x11
    27bc:	82 00 d8    	div.sw    w1, w2
    27be:	80 00 fd    	exch      w0, w1
    27c0:	00 40 78    	mov.b     w0, w0
    27c2:	12 e8 b7    	mov.b     WREG, 0x812
    27c4:	07 00 37    	bra       0x27d4 <.L53>

000027c6 <.L52>:
    27c6:	50 17 80    	mov.w     0x2ea, w0
    27c8:	68 00 60    	and.w     w0, #0x8, w0
    27ca:	00 00 e0    	cp0.w     w0
    27cc:	03 00 3a    	bra       NZ, 0x27d4 <.L53>
    27ce:	12 c8 bf    	mov.b     0x812, WREG
    27d0:	00 40 e9    	dec.b     w0, w0
    27d2:	12 e8 b7    	mov.b     WREG, 0x812

000027d4 <.L53>:
    27d4:	12 c8 bf    	mov.b     0x812, WREG
    27d6:	e5 4f 50    	sub.b     w0, #0x5, [w15]
    27d8:	03 00 36    	bra       LEU, 0x27e0 <.L54>
    27da:	12 c8 bf    	mov.b     0x812, WREG
    27dc:	66 40 40    	add.b     w0, #0x6, w0
    27de:	12 e8 b7    	mov.b     WREG, 0x812

000027e0 <.L54>:
    27e0:	d1 16 80    	mov.w     0x2da, w1
    27e2:	00 10 20    	mov.w     #0x100, w0
    27e4:	00 80 60    	and.w     w1, w0, w0
    27e6:	00 00 e0    	cp0.w     w0
    27e8:	0b 00 3a    	bra       NZ, 0x2800 <.L55>
    27ea:	13 c8 bf    	mov.b     0x813, WREG
    27ec:	00 80 fb    	ze        w0, w0
    27ee:	80 00 e8    	inc.w     w0, w1
    27f0:	60 00 20    	mov.w     #0x6, w0
    27f2:	00 01 78    	mov.w     w0, w2
    27f4:	11 00 09    	repeat    #0x11
    27f6:	82 00 d8    	div.sw    w1, w2
    27f8:	80 00 fd    	exch      w0, w1
    27fa:	00 40 78    	mov.b     w0, w0
    27fc:	13 e8 b7    	mov.b     WREG, 0x813
    27fe:	08 00 37    	bra       0x2810 <.L56>

00002800 <.L55>:
    2800:	d1 16 80    	mov.w     0x2da, w1
    2802:	00 80 20    	mov.w     #0x800, w0
    2804:	00 80 60    	and.w     w1, w0, w0
    2806:	00 00 e0    	cp0.w     w0
    2808:	03 00 3a    	bra       NZ, 0x2810 <.L56>
    280a:	13 c8 bf    	mov.b     0x813, WREG
    280c:	00 40 e9    	dec.b     w0, w0
    280e:	13 e8 b7    	mov.b     WREG, 0x813

00002810 <.L56>:
    2810:	13 c8 bf    	mov.b     0x813, WREG
    2812:	e5 4f 50    	sub.b     w0, #0x5, [w15]
    2814:	03 00 36    	bra       LEU, 0x281c <.L57>
    2816:	13 c8 bf    	mov.b     0x813, WREG
    2818:	66 40 40    	add.b     w0, #0x6, w0
    281a:	13 e8 b7    	mov.b     WREG, 0x813

0000281c <.L57>:
    281c:	d1 16 80    	mov.w     0x2da, w1
    281e:	00 20 20    	mov.w     #0x200, w0
    2820:	00 80 60    	and.w     w1, w0, w0
    2822:	00 00 e0    	cp0.w     w0
    2824:	0b 00 3a    	bra       NZ, 0x283c <.L58>
    2826:	14 c8 bf    	mov.b     0x814, WREG
    2828:	00 80 fb    	ze        w0, w0
    282a:	80 00 e8    	inc.w     w0, w1
    282c:	60 00 20    	mov.w     #0x6, w0
    282e:	00 01 78    	mov.w     w0, w2
    2830:	11 00 09    	repeat    #0x11
    2832:	82 00 d8    	div.sw    w1, w2
    2834:	80 00 fd    	exch      w0, w1
    2836:	00 40 78    	mov.b     w0, w0
    2838:	14 e8 b7    	mov.b     WREG, 0x814
    283a:	08 00 37    	bra       0x284c <.L59>

0000283c <.L58>:
    283c:	d1 16 80    	mov.w     0x2da, w1
    283e:	00 40 20    	mov.w     #0x400, w0
    2840:	00 80 60    	and.w     w1, w0, w0
    2842:	00 00 e0    	cp0.w     w0
    2844:	03 00 3a    	bra       NZ, 0x284c <.L59>
    2846:	14 c8 bf    	mov.b     0x814, WREG
    2848:	00 40 e9    	dec.b     w0, w0
    284a:	14 e8 b7    	mov.b     WREG, 0x814

0000284c <.L59>:
    284c:	14 c8 bf    	mov.b     0x814, WREG
    284e:	e5 4f 50    	sub.b     w0, #0x5, [w15]
    2850:	03 00 36    	bra       LEU, 0x2858 <.L60>
    2852:	14 c8 bf    	mov.b     0x814, WREG
    2854:	66 40 40    	add.b     w0, #0x6, w0
    2856:	14 e8 b7    	mov.b     WREG, 0x814

00002858 <.L60>:
    2858:	d8 f8 07    	rcall     0x1a0a <_updateDisplay> <.LFB8> <.LFE5>
    285a:	00 80 fa    	ulnk      
    285c:	34 00 f9    	pop       0x34
    285e:	32 00 f9    	pop       0x32
    2860:	4f 03 be    	mov.d     [--w15], w6
    2862:	4f 02 be    	mov.d     [--w15], w4
    2864:	4f 01 be    	mov.d     [--w15], w2
    2866:	4f 00 be    	mov.d     [--w15], w0
    2868:	36 00 f9    	pop       0x36
    286a:	00 40 06    	retfie    

0000286c <__SI2C2Interrupt>:
    286c:	80 9f be    	mov.d     w0, [w15++]
    286e:	32 00 f8    	push      0x32
    2870:	34 00 f8    	push      0x34
    2872:	10 00 20    	mov.w     #0x1, w0
    2874:	a0 01 88    	mov.w     w0, 0x34
    2876:	00 20 20    	mov.w     #0x200, w0
    2878:	90 01 88    	mov.w     w0, 0x32
    287a:	02 00 fa    	lnk       #0x2
    287c:	8a 20 a9    	bclr.b    0x8a, #0x1
    287e:	40 41 80    	mov.w     0x828, w0
    2880:	e1 0f 50    	sub.w     w0, #0x1, [w15]
    2882:	23 00 32    	bra       Z, 0x28ca <.L4>
    2884:	e1 0f 50    	sub.w     w0, #0x1, [w15]
    2886:	03 00 39    	bra       NC, 0x288e <.L3>
    2888:	e2 0f 50    	sub.w     w0, #0x2, [w15]
    288a:	50 00 32    	bra       Z, 0x292c <.L5>
    288c:	51 00 37    	bra       0x2930 <.L18>

0000288e <.L3>:
    288e:	80 10 80    	mov.w     0x210, w0
    2890:	00 4f 78    	mov.b     w0, [w14]
    2892:	c0 10 80    	mov.w     0x218, w0
    2894:	64 00 60    	and.w     w0, #0x4, w0
    2896:	00 00 e0    	cp0.w     w0
    2898:	15 00 32    	bra       Z, 0x28c4 <.L6>
    289a:	21 c8 bf    	mov.b     0x821, WREG
    289c:	00 80 fb    	ze        w0, w0
    289e:	47 00 dd    	sl.w      w0, #0x7, w0
    28a0:	80 40 78    	mov.b     w0, w1
    28a2:	22 c8 bf    	mov.b     0x822, WREG
    28a4:	00 80 fb    	ze        w0, w0
    28a6:	67 00 60    	and.w     w0, #0x7, w0
    28a8:	44 00 dd    	sl.w      w0, #0x4, w0
    28aa:	00 40 78    	mov.b     w0, w0
    28ac:	80 c0 70    	ior.b     w1, w0, w1
    28ae:	23 c8 bf    	mov.b     0x823, WREG
    28b0:	6f 40 60    	and.b     w0, #0xf, w0
    28b2:	00 c0 70    	ior.b     w1, w0, w0
    28b4:	1e e8 b7    	mov.b     WREG, 0x81e
    28b6:	1e c8 bf    	mov.b     0x81e, WREG
    28b8:	00 80 fb    	ze        w0, w0
    28ba:	90 10 88    	mov.w     w0, 0x212
    28bc:	17 82 a8    	bset.b    0x217, #0x4
    28be:	20 00 20    	mov.w     #0x2, w0
    28c0:	40 41 88    	mov.w     w0, 0x828
    28c2:	37 00 37    	bra       0x2932 <.L1>

000028c4 <.L6>:
    28c4:	10 00 20    	mov.w     #0x1, w0
    28c6:	40 41 88    	mov.w     w0, 0x828
    28c8:	34 00 37    	bra       0x2932 <.L1>

000028ca <.L4>:
    28ca:	80 10 80    	mov.w     0x210, w0
    28cc:	00 40 78    	mov.b     w0, w0
    28ce:	1f e8 b7    	mov.b     WREG, 0x81f
    28d0:	1f c8 bf    	mov.b     0x81f, WREG
    28d2:	00 80 fb    	ze        w0, w0
    28d4:	45 00 de    	lsr.w     w0, #0x5, w0
    28d6:	00 40 78    	mov.b     w0, w0
    28d8:	00 80 fb    	ze        w0, w0
    28da:	e4 0f 50    	sub.w     w0, #0x4, [w15]
    28dc:	0f 00 32    	bra       Z, 0x28fc <.L12>
    28de:	e4 0f 50    	sub.w     w0, #0x4, [w15]
    28e0:	05 00 3c    	bra       GT, 0x28ec <.L16>
    28e2:	e1 0f 50    	sub.w     w0, #0x1, [w15]
    28e4:	16 00 32    	bra       Z, 0x2912 <.L10>
    28e6:	e2 0f 50    	sub.w     w0, #0x2, [w15]
    28e8:	17 00 32    	bra       Z, 0x2918 <.L11>
    28ea:	19 00 37    	bra       0x291e <.L9>

000028ec <.L16>:
    28ec:	e7 0f 50    	sub.w     w0, #0x7, [w15]
    28ee:	0a 00 32    	bra       Z, 0x2904 <.L14>
    28f0:	11 10 20    	mov.w     #0x101, w1
    28f2:	81 0f 50    	sub.w     w0, w1, [w15]
    28f4:	18 00 32    	bra       Z, 0x2926 <.L19>
    28f6:	e6 0f 50    	sub.w     w0, #0x6, [w15]
    28f8:	09 00 32    	bra       Z, 0x290c <.L13>
    28fa:	11 00 37    	bra       0x291e <.L9>

000028fc <.L12>:
    28fc:	1f c8 bf    	mov.b     0x81f, WREG
    28fe:	7f 40 60    	and.b     w0, #0x1f, w0
    2900:	20 e8 b7    	mov.b     WREG, 0x820
    2902:	12 00 37    	bra       0x2928 <.L17>

00002904 <.L14>:
    2904:	1f c8 bf    	mov.b     0x81f, WREG
    2906:	7f 40 60    	and.b     w0, #0x1f, w0
    2908:	22 e8 b7    	mov.b     WREG, 0x822
    290a:	0e 00 37    	bra       0x2928 <.L17>

0000290c <.L13>:
    290c:	10 c0 b3    	mov.b     #0x1, w0
    290e:	24 e8 b7    	mov.b     WREG, 0x824
    2910:	0b 00 37    	bra       0x2928 <.L17>

00002912 <.L10>:
    2912:	10 c0 b3    	mov.b     #0x1, w0
    2914:	25 e8 b7    	mov.b     WREG, 0x825
    2916:	08 00 37    	bra       0x2928 <.L17>

00002918 <.L11>:
    2918:	10 c0 b3    	mov.b     #0x1, w0
    291a:	26 e8 b7    	mov.b     WREG, 0x826
    291c:	05 00 37    	bra       0x2928 <.L17>

0000291e <.L9>:
    291e:	23 c8 bf    	mov.b     0x823, WREG
    2920:	00 40 e8    	inc.b     w0, w0
    2922:	23 e8 b7    	mov.b     WREG, 0x823
    2924:	01 00 37    	bra       0x2928 <.L17>

00002926 <.L19>:
    2926:	00 00 00    	nop       

00002928 <.L17>:
    2928:	28 28 ef    	clr.w     0x828
    292a:	03 00 37    	bra       0x2932 <.L1>

0000292c <.L5>:
    292c:	28 28 ef    	clr.w     0x828
    292e:	01 00 37    	bra       0x2932 <.L1>

00002930 <.L18>:
    2930:	28 28 ef    	clr.w     0x828

00002932 <.L1>:
    2932:	00 80 fa    	ulnk      
    2934:	34 00 f9    	pop       0x34
    2936:	32 00 f9    	pop       0x32
    2938:	4f 00 be    	mov.d     [--w15], w0
    293a:	00 40 06    	retfie    

0000293c <__U1TXInterrupt>:
    293c:	80 9f be    	mov.d     w0, [w15++]
    293e:	32 00 f8    	push      0x32
    2940:	34 00 f8    	push      0x34
    2942:	10 00 20    	mov.w     #0x1, w0
    2944:	a0 01 88    	mov.w     w0, 0x34
    2946:	00 20 20    	mov.w     #0x200, w0
    2948:	90 01 88    	mov.w     w0, 0x32
    294a:	02 00 fa    	lnk       #0x2
    294c:	85 80 a9    	bclr.b    0x85, #0x4
    294e:	a0 41 80    	mov.w     0x834, w0
    2950:	00 00 e0    	cp0.w     w0
    2952:	17 00 3a    	bra       NZ, 0x2982 <.L8>
    2954:	23 42 a9    	bclr.b    0x223, #0x2
    2956:	16 00 37    	bra       0x2984 <.L4>

00002958 <.L7>:
    2958:	ff 3f fc    	disi      #0x3fff
    295a:	61 41 80    	mov.w     0x82c, w1
    295c:	80 41 80    	mov.w     0x830, w0
    295e:	00 80 40    	add.w     w1, w0, w0
    2960:	10 4f 78    	mov.b     [w0], [w14]
    2962:	80 41 80    	mov.w     0x830, w0
    2964:	00 00 e8    	inc.w     w0, w0
    2966:	80 41 88    	mov.w     w0, 0x830
    2968:	81 41 80    	mov.w     0x830, w1
    296a:	70 41 80    	mov.w     0x82e, w0
    296c:	80 8f 50    	sub.w     w1, w0, [w15]
    296e:	02 00 3a    	bra       NZ, 0x2974 <.L5>
    2970:	00 00 eb    	clr.w     w0
    2972:	80 41 88    	mov.w     w0, 0x830

00002974 <.L5>:
    2974:	a0 41 80    	mov.w     0x834, w0
    2976:	00 00 e9    	dec.w     w0, w0
    2978:	a0 41 88    	mov.w     w0, 0x834
    297a:	52 20 ef    	clr.w     0x52
    297c:	1e 80 fb    	ze        [w14], w0
    297e:	20 11 88    	mov.w     w0, 0x224
    2980:	01 00 37    	bra       0x2984 <.L4>

00002982 <.L8>:
    2982:	00 00 00    	nop       

00002984 <.L4>:
    2984:	11 11 80    	mov.w     0x222, w1
    2986:	00 20 20    	mov.w     #0x200, w0
    2988:	00 80 60    	and.w     w1, w0, w0
    298a:	00 00 e0    	cp0.w     w0
    298c:	03 00 3a    	bra       NZ, 0x2994 <.L2>
    298e:	a0 41 80    	mov.w     0x834, w0
    2990:	00 00 e0    	cp0.w     w0
    2992:	e2 ff 3a    	bra       NZ, 0x2958 <.L7>

00002994 <.L2>:
    2994:	00 80 fa    	ulnk      
    2996:	34 00 f9    	pop       0x34
    2998:	32 00 f9    	pop       0x32
    299a:	4f 00 be    	mov.d     [--w15], w0
    299c:	00 40 06    	retfie    

0000299e <__U1RXInterrupt>:
    299e:	80 9f be    	mov.d     w0, [w15++]
    29a0:	32 00 f8    	push      0x32
    29a2:	34 00 f8    	push      0x34
    29a4:	10 00 20    	mov.w     #0x1, w0
    29a6:	a0 01 88    	mov.w     w0, 0x34
    29a8:	00 20 20    	mov.w     #0x200, w0
    29aa:	90 01 88    	mov.w     w0, 0x32
    29ac:	00 00 fa    	lnk       #0x0
    29ae:	85 60 a9    	bclr.b    0x85, #0x3
    29b0:	14 00 37    	bra       0x29da <.L10>

000029b2 <.L13>:
    29b2:	ff 3f fc    	disi      #0x3fff
    29b4:	b1 41 80    	mov.w     0x836, w1
    29b6:	e0 41 80    	mov.w     0x83c, w0
    29b8:	00 80 40    	add.w     w1, w0, w0
    29ba:	31 11 80    	mov.w     0x226, w1
    29bc:	81 40 78    	mov.b     w1, w1
    29be:	01 48 78    	mov.b     w1, [w0]
    29c0:	e0 41 80    	mov.w     0x83c, w0
    29c2:	00 00 e8    	inc.w     w0, w0
    29c4:	e0 41 88    	mov.w     w0, 0x83c
    29c6:	e1 41 80    	mov.w     0x83c, w1
    29c8:	c0 41 80    	mov.w     0x838, w0
    29ca:	80 8f 50    	sub.w     w1, w0, [w15]
    29cc:	02 00 3a    	bra       NZ, 0x29d2 <.L11>
    29ce:	00 00 eb    	clr.w     w0
    29d0:	e0 41 88    	mov.w     w0, 0x83c

000029d2 <.L11>:
    29d2:	f0 41 80    	mov.w     0x83e, w0
    29d4:	00 00 e8    	inc.w     w0, w0
    29d6:	f0 41 88    	mov.w     w0, 0x83e
    29d8:	52 20 ef    	clr.w     0x52

000029da <.L10>:
    29da:	10 11 80    	mov.w     0x222, w0
    29dc:	61 00 60    	and.w     w0, #0x1, w0
    29de:	00 00 e0    	cp0.w     w0
    29e0:	04 00 32    	bra       Z, 0x29ea <.L9>
    29e2:	f1 41 80    	mov.w     0x83e, w1
    29e4:	c0 41 80    	mov.w     0x838, w0
    29e6:	80 8f 50    	sub.w     w1, w0, [w15]
    29e8:	e4 ff 3a    	bra       NZ, 0x29b2 <.L13>

000029ea <.L9>:
    29ea:	00 80 fa    	ulnk      
    29ec:	34 00 f9    	pop       0x34
    29ee:	32 00 f9    	pop       0x32
    29f0:	4f 00 be    	mov.d     [--w15], w0
    29f2:	00 40 06    	retfie    
Disassembly of section .text:

000029f4 <_init_elecanisms>:
            U1_rx_buffer.tail = 0;
        U1_rx_buffer.count++;
        enable_interrupts();
    }
}
    29f4:	00 00 fa    	lnk       #0x0
    29f6:	00 10 20    	mov.w     #0x100, w0
    29f8:	20 3a 88    	mov.w     w0, 0x744
    29fa:	d8 a2 a8    	bset.b    0x2d8, #0x5
    29fc:	d8 82 a8    	bset.b    0x2d8, #0x4
    29fe:	e8 82 a8    	bset.b    0x2e8, #0x4
    2a00:	e8 a2 a8    	bset.b    0x2e8, #0x5
    2a02:	c9 e2 a8    	bset.b    0x2c9, #0x7
    2a04:	e8 62 a8    	bset.b    0x2e8, #0x3
    2a06:	d9 02 a8    	bset.b    0x2d9, #0x0
    2a08:	d9 62 a8    	bset.b    0x2d9, #0x3
    2a0a:	d9 22 a8    	bset.b    0x2d9, #0x1
    2a0c:	d9 42 a8    	bset.b    0x2d9, #0x2
    2a0e:	d8 02 a8    	bset.b    0x2d8, #0x0
    2a10:	d8 22 a8    	bset.b    0x2d8, #0x1
    2a12:	d8 42 a8    	bset.b    0x2d8, #0x2
    2a14:	d8 62 a8    	bset.b    0x2d8, #0x3
    2a16:	c8 a2 a8    	bset.b    0x2c8, #0x5
    2a18:	c8 82 a8    	bset.b    0x2c8, #0x4
    2a1a:	c8 62 a8    	bset.b    0x2c8, #0x3
    2a1c:	c8 42 a8    	bset.b    0x2c8, #0x2
    2a1e:	c8 22 a8    	bset.b    0x2c8, #0x1
    2a20:	c8 02 a8    	bset.b    0x2c8, #0x0
    2a22:	f0 03 20    	mov.w     #0x3f, w0
    2a24:	10 27 88    	mov.w     w0, 0x4e2
    2a26:	e4 24 ef    	clr.w     0x4e4
    2a28:	e6 24 ef    	clr.w     0x4e6
    2a2a:	ea 24 ef    	clr.w     0x4ea
    2a2c:	ec 24 ef    	clr.w     0x4ec
    2a2e:	00 0e 20    	mov.w     #0xe0, w0
    2a30:	00 19 88    	mov.w     w0, 0x320
    2a32:	22 23 ef    	clr.w     0x322
    2a34:	00 c4 20    	mov.w     #0xc40, w0
    2a36:	20 19 88    	mov.w     w0, 0x324
    2a38:	50 00 20    	mov.w     #0x5, w0
    2a3a:	40 19 88    	mov.w     w0, 0x328
    2a3c:	21 e3 a8    	bset.b    0x321, #0x7
    2a3e:	d8 e2 a9    	bclr.b    0x2d8, #0x7
    2a40:	dc e2 a9    	bclr.b    0x2dc, #0x7
    2a42:	e8 02 a9    	bclr.b    0x2e8, #0x0
    2a44:	ec 02 a9    	bclr.b    0x2ec, #0x0
    2a46:	e8 22 a9    	bclr.b    0x2e8, #0x1
    2a48:	ec 22 a9    	bclr.b    0x2ec, #0x1
    2a4a:	d1 e2 a8    	bset.b    0x2d1, #0x7
    2a4c:	d1 82 a8    	bset.b    0x2d1, #0x4
    2a4e:	c9 82 a8    	bset.b    0x2c9, #0x4
    2a50:	00 80 fa    	ulnk      
    2a52:	00 00 06    	return    

00002a54 <_read_analog>:
    2a54:	02 00 fa    	lnk       #0x2
    2a56:	00 0f 78    	mov.w     w0, [w14]
    2a58:	9e 00 78    	mov.w     [w14], w1
    2a5a:	41 19 88    	mov.w     w1, 0x328
    2a5c:	20 23 a8    	bset.b    0x320, #0x1
    2a5e:	00 00 00    	nop       

00002a60 <.L3>:
    2a60:	00 19 80    	mov.w     0x320, w0
    2a62:	61 00 60    	and.w     w0, #0x1, w0
    2a64:	00 00 e0    	cp0.w     w0
    2a66:	fc ff 32    	bra       Z, 0x2a60 <.L3>
    2a68:	00 18 80    	mov.w     0x300, w0
    2a6a:	00 80 fa    	ulnk      
    2a6c:	00 00 06    	return    

00002a6e <_parity>:

#include "common.h"

uint8_t parity(uint16_t v)
{
    2a6e:	02 00 fa    	lnk       #0x2
    2a70:	00 0f 78    	mov.w     w0, [w14]
    v ^= v >> 8;
    2a72:	1e 00 78    	mov.w     [w14], w0
    2a74:	48 00 de    	lsr.w     w0, #0x8, w0
    2a76:	1e 0f 68    	xor.w     w0, [w14], [w14]
    v ^= v >> 4;
    2a78:	1e 00 78    	mov.w     [w14], w0
    2a7a:	44 00 de    	lsr.w     w0, #0x4, w0
    2a7c:	1e 0f 68    	xor.w     w0, [w14], [w14]
    v ^= v >> 2;
    2a7e:	1e 00 78    	mov.w     [w14], w0
    2a80:	42 00 de    	lsr.w     w0, #0x2, w0
    2a82:	1e 0f 68    	xor.w     w0, [w14], [w14]
    v ^= v >> 1;
    2a84:	1e 00 78    	mov.w     [w14], w0
    2a86:	00 00 d1    	lsr.w     w0, w0
    2a88:	1e 0f 68    	xor.w     w0, [w14], [w14]
    return v & 1;
    2a8a:	1e 00 78    	mov.w     [w14], w0
    2a8c:	00 40 78    	mov.b     w0, w0
    2a8e:	61 40 60    	and.b     w0, #0x1, w0
}
    2a90:	00 80 fa    	ulnk      
    2a92:	00 00 06    	return    
Disassembly of section .dinit:

00002a94 <.dinit>:
    2a94:	50 10 00    	nop       
    2a96:	06 00 00    	nop       
    2a98:	80 00 00    	nop       
    2a9a:	00 08 00    	nop       
    2a9c:	1e 00 00    	nop       
    2a9e:	80 00 00    	nop       
    2aa0:	40 10 00    	nop       
    2aa2:	10 00 00    	nop       
    2aa4:	80 00 00    	nop       
    2aa6:	1e 08 00    	nop       
    2aa8:	0c 00 00    	nop       
    2aaa:	80 00 00    	nop       
    2aac:	2c 08 00    	nop       
    2aae:	14 08 00    	nop       
    2ab0:	80 00 00    	nop       
    2ab2:	2a 08 00    	nop       
    2ab4:	02 00 00    	nop       
    2ab6:	80 00 00    	nop       
    2ab8:	00 00 00    	nop       
Disassembly of section .isr:

00002aba <__DefaultInterrupt>:
    2aba:	00 40 da    	break     
    2abc:	00 00 fe    	reset     
