
codeword.elf:     file format elf32-pic30

Disassembly of section .aivt._AltADC1Interrupt:

0000012e <.aivt._AltADC1Interrupt>:
 12e:	b0 26 00    	nop       
Disassembly of section .aivt._AltAddressError:

00000108 <.aivt._AltAddressError>:
 108:	b0 26 00    	nop       
Disassembly of section .aivt._AltCNInterrupt:

0000013a <.aivt._AltCNInterrupt>:
 13a:	b0 26 00    	nop       
Disassembly of section .aivt._AltCRCInterrupt:

0000019a <.aivt._AltCRCInterrupt>:
 19a:	b0 26 00    	nop       
Disassembly of section .aivt._AltCTMUInterrupt:

000001ae <.aivt._AltCTMUInterrupt>:
 1ae:	b0 26 00    	nop       
Disassembly of section .aivt._AltCompInterrupt:

00000138 <.aivt._AltCompInterrupt>:
 138:	b0 26 00    	nop       
Disassembly of section .aivt._AltIC1Interrupt:

00000116 <.aivt._AltIC1Interrupt>:
 116:	b0 26 00    	nop       
Disassembly of section .aivt._AltIC2Interrupt:

0000011e <.aivt._AltIC2Interrupt>:
 11e:	b0 26 00    	nop       
Disassembly of section .aivt._AltIC3Interrupt:

0000015e <.aivt._AltIC3Interrupt>:
 15e:	b0 26 00    	nop       
Disassembly of section .aivt._AltIC4Interrupt:

00000160 <.aivt._AltIC4Interrupt>:
 160:	b0 26 00    	nop       
Disassembly of section .aivt._AltIC5Interrupt:

00000162 <.aivt._AltIC5Interrupt>:
 162:	b0 26 00    	nop       
Disassembly of section .aivt._AltIC6Interrupt:

00000164 <.aivt._AltIC6Interrupt>:
 164:	b0 26 00    	nop       
Disassembly of section .aivt._AltIC7Interrupt:

00000140 <.aivt._AltIC7Interrupt>:
 140:	b0 26 00    	nop       
Disassembly of section .aivt._AltIC8Interrupt:

00000142 <.aivt._AltIC8Interrupt>:
 142:	b0 26 00    	nop       
Disassembly of section .aivt._AltIC9Interrupt:

000001ce <.aivt._AltIC9Interrupt>:
 1ce:	b0 26 00    	nop       
Disassembly of section .aivt._AltINT0Interrupt:

00000114 <.aivt._AltINT0Interrupt>:
 114:	b0 26 00    	nop       
Disassembly of section .aivt._AltINT1Interrupt:

0000013c <.aivt._AltINT1Interrupt>:
 13c:	b0 26 00    	nop       
Disassembly of section .aivt._AltINT2Interrupt:

0000014e <.aivt._AltINT2Interrupt>:
 14e:	b0 26 00    	nop       
Disassembly of section .aivt._AltINT3Interrupt:

0000017e <.aivt._AltINT3Interrupt>:
 17e:	b0 26 00    	nop       
Disassembly of section .aivt._AltINT4Interrupt:

00000180 <.aivt._AltINT4Interrupt>:
 180:	b0 26 00    	nop       
Disassembly of section .aivt._AltInterrupt14:

00000130 <.aivt._AltInterrupt14>:
 130:	b0 26 00    	nop       
Disassembly of section .aivt._AltInterrupt15:

00000132 <.aivt._AltInterrupt15>:
 132:	b0 26 00    	nop       
Disassembly of section .aivt._AltInterrupt21:

0000013e <.aivt._AltInterrupt21>:
 13e:	b0 26 00    	nop       
Disassembly of section .aivt._AltInterrupt24:

00000144 <.aivt._AltInterrupt24>:
 144:	b0 26 00    	nop       
Disassembly of section .aivt._AltInterrupt34:

00000158 <.aivt._AltInterrupt34>:
 158:	b0 26 00    	nop       
Disassembly of section .aivt._AltInterrupt35:

0000015a <.aivt._AltInterrupt35>:
 15a:	b0 26 00    	nop       
Disassembly of section .aivt._AltInterrupt36:

0000015c <.aivt._AltInterrupt36>:
 15c:	b0 26 00    	nop       
Disassembly of section .aivt._AltInterrupt4:

0000011c <.aivt._AltInterrupt4>:
 11c:	b0 26 00    	nop       
Disassembly of section .aivt._AltInterrupt46:

00000170 <.aivt._AltInterrupt46>:
 170:	b0 26 00    	nop       
Disassembly of section .aivt._AltInterrupt47:

00000172 <.aivt._AltInterrupt47>:
 172:	b0 26 00    	nop       
Disassembly of section .aivt._AltInterrupt48:

00000174 <.aivt._AltInterrupt48>:
 174:	b0 26 00    	nop       
Disassembly of section .aivt._AltInterrupt51:

0000017a <.aivt._AltInterrupt51>:
 17a:	b0 26 00    	nop       
Disassembly of section .aivt._AltInterrupt52:

0000017c <.aivt._AltInterrupt52>:
 17c:	b0 26 00    	nop       
Disassembly of section .aivt._AltInterrupt55:

00000182 <.aivt._AltInterrupt55>:
 182:	b0 26 00    	nop       
Disassembly of section .aivt._AltInterrupt56:

00000184 <.aivt._AltInterrupt56>:
 184:	b0 26 00    	nop       
Disassembly of section .aivt._AltInterrupt57:

00000186 <.aivt._AltInterrupt57>:
 186:	b0 26 00    	nop       
Disassembly of section .aivt._AltInterrupt58:

00000188 <.aivt._AltInterrupt58>:
 188:	b0 26 00    	nop       
Disassembly of section .aivt._AltInterrupt59:

0000018a <.aivt._AltInterrupt59>:
 18a:	b0 26 00    	nop       
Disassembly of section .aivt._AltInterrupt60:

0000018c <.aivt._AltInterrupt60>:
 18c:	b0 26 00    	nop       
Disassembly of section .aivt._AltInterrupt61:

0000018e <.aivt._AltInterrupt61>:
 18e:	b0 26 00    	nop       
Disassembly of section .aivt._AltInterrupt63:

00000192 <.aivt._AltInterrupt63>:
 192:	b0 26 00    	nop       
Disassembly of section .aivt._AltInterrupt64:

00000194 <.aivt._AltInterrupt64>:
 194:	b0 26 00    	nop       
Disassembly of section .aivt._AltInterrupt68:

0000019c <.aivt._AltInterrupt68>:
 19c:	b0 26 00    	nop       
Disassembly of section .aivt._AltInterrupt69:

0000019e <.aivt._AltInterrupt69>:
 19e:	b0 26 00    	nop       
Disassembly of section .aivt._AltInterrupt70:

000001a0 <.aivt._AltInterrupt70>:
 1a0:	b0 26 00    	nop       
Disassembly of section .aivt._AltInterrupt71:

000001a2 <.aivt._AltInterrupt71>:
 1a2:	b0 26 00    	nop       
Disassembly of section .aivt._AltInterrupt73:

000001a6 <.aivt._AltInterrupt73>:
 1a6:	b0 26 00    	nop       
Disassembly of section .aivt._AltInterrupt74:

000001a8 <.aivt._AltInterrupt74>:
 1a8:	b0 26 00    	nop       
Disassembly of section .aivt._AltInterrupt75:

000001aa <.aivt._AltInterrupt75>:
 1aa:	b0 26 00    	nop       
Disassembly of section .aivt._AltInterrupt76:

000001ac <.aivt._AltInterrupt76>:
 1ac:	b0 26 00    	nop       
Disassembly of section .aivt._AltInterrupt78:

000001b0 <.aivt._AltInterrupt78>:
 1b0:	b0 26 00    	nop       
Disassembly of section .aivt._AltInterrupt79:

000001b2 <.aivt._AltInterrupt79>:
 1b2:	b0 26 00    	nop       
Disassembly of section .aivt._AltInterrupt80:

000001b4 <.aivt._AltInterrupt80>:
 1b4:	b0 26 00    	nop       
Disassembly of section .aivt._AltLVDInterrupt:

000001a4 <.aivt._AltLVDInterrupt>:
 1a4:	b0 26 00    	nop       
Disassembly of section .aivt._AltMI2C1Interrupt:

00000136 <.aivt._AltMI2C1Interrupt>:
 136:	b0 26 00    	nop       
Disassembly of section .aivt._AltMI2C2Interrupt:

00000178 <.aivt._AltMI2C2Interrupt>:
 178:	b0 26 00    	nop       
Disassembly of section .aivt._AltMI2C3Interrupt:

000001be <.aivt._AltMI2C3Interrupt>:
 1be:	b0 26 00    	nop       
Disassembly of section .aivt._AltMathError:

0000010c <.aivt._AltMathError>:
 10c:	b0 26 00    	nop       
Disassembly of section .aivt._AltOC1Interrupt:

00000118 <.aivt._AltOC1Interrupt>:
 118:	b0 26 00    	nop       
Disassembly of section .aivt._AltOC2Interrupt:

00000120 <.aivt._AltOC2Interrupt>:
 120:	b0 26 00    	nop       
Disassembly of section .aivt._AltOC3Interrupt:

00000146 <.aivt._AltOC3Interrupt>:
 146:	b0 26 00    	nop       
Disassembly of section .aivt._AltOC4Interrupt:

00000148 <.aivt._AltOC4Interrupt>:
 148:	b0 26 00    	nop       
Disassembly of section .aivt._AltOC5Interrupt:

00000166 <.aivt._AltOC5Interrupt>:
 166:	b0 26 00    	nop       
Disassembly of section .aivt._AltOC6Interrupt:

00000168 <.aivt._AltOC6Interrupt>:
 168:	b0 26 00    	nop       
Disassembly of section .aivt._AltOC7Interrupt:

0000016a <.aivt._AltOC7Interrupt>:
 16a:	b0 26 00    	nop       
Disassembly of section .aivt._AltOC8Interrupt:

0000016c <.aivt._AltOC8Interrupt>:
 16c:	b0 26 00    	nop       
Disassembly of section .aivt._AltOC9Interrupt:

000001cc <.aivt._AltOC9Interrupt>:
 1cc:	b0 26 00    	nop       
Disassembly of section .aivt._AltOscillatorFail:

00000106 <.aivt._AltOscillatorFail>:
 106:	b0 26 00    	nop       
Disassembly of section .aivt._AltPMPInterrupt:

0000016e <.aivt._AltPMPInterrupt>:
 16e:	b0 26 00    	nop       
Disassembly of section .aivt._AltRTCCInterrupt:

00000190 <.aivt._AltRTCCInterrupt>:
 190:	b0 26 00    	nop       
Disassembly of section .aivt._AltReservedTrap0:

00000104 <.aivt._AltReservedTrap0>:
 104:	b0 26 00    	nop       
Disassembly of section .aivt._AltReservedTrap5:

0000010e <.aivt._AltReservedTrap5>:
 10e:	b0 26 00    	nop       
Disassembly of section .aivt._AltReservedTrap6:

00000110 <.aivt._AltReservedTrap6>:
 110:	b0 26 00    	nop       
Disassembly of section .aivt._AltReservedTrap7:

00000112 <.aivt._AltReservedTrap7>:
 112:	b0 26 00    	nop       
Disassembly of section .aivt._AltSI2C1Interrupt:

00000134 <.aivt._AltSI2C1Interrupt>:
 134:	b0 26 00    	nop       
Disassembly of section .aivt._AltSI2C2Interrupt:

00000176 <.aivt._AltSI2C2Interrupt>:
 176:	b0 26 00    	nop       
Disassembly of section .aivt._AltSI2C3Interrupt:

000001bc <.aivt._AltSI2C3Interrupt>:
 1bc:	b0 26 00    	nop       
Disassembly of section .aivt._AltSPI1ErrInterrupt:

00000126 <.aivt._AltSPI1ErrInterrupt>:
 126:	b0 26 00    	nop       
Disassembly of section .aivt._AltSPI1Interrupt:

00000128 <.aivt._AltSPI1Interrupt>:
 128:	b0 26 00    	nop       
Disassembly of section .aivt._AltSPI2ErrInterrupt:

00000154 <.aivt._AltSPI2ErrInterrupt>:
 154:	b0 26 00    	nop       
Disassembly of section .aivt._AltSPI2Interrupt:

00000156 <.aivt._AltSPI2Interrupt>:
 156:	b0 26 00    	nop       
Disassembly of section .aivt._AltSPI3ErrInterrupt:

000001c8 <.aivt._AltSPI3ErrInterrupt>:
 1c8:	b0 26 00    	nop       
Disassembly of section .aivt._AltSPI3Interrupt:

000001ca <.aivt._AltSPI3Interrupt>:
 1ca:	b0 26 00    	nop       
Disassembly of section .aivt._AltStackError:

0000010a <.aivt._AltStackError>:
 10a:	b0 26 00    	nop       
Disassembly of section .aivt._AltT1Interrupt:

0000011a <.aivt._AltT1Interrupt>:
 11a:	b0 26 00    	nop       
Disassembly of section .aivt._AltT2Interrupt:

00000122 <.aivt._AltT2Interrupt>:
 122:	b0 26 00    	nop       
Disassembly of section .aivt._AltT3Interrupt:

00000124 <.aivt._AltT3Interrupt>:
 124:	b0 26 00    	nop       
Disassembly of section .aivt._AltT4Interrupt:

0000014a <.aivt._AltT4Interrupt>:
 14a:	b0 26 00    	nop       
Disassembly of section .aivt._AltT5Interrupt:

0000014c <.aivt._AltT5Interrupt>:
 14c:	b0 26 00    	nop       
Disassembly of section .aivt._AltU1ErrInterrupt:

00000196 <.aivt._AltU1ErrInterrupt>:
 196:	b0 26 00    	nop       
Disassembly of section .aivt._AltU1RXInterrupt:

0000012a <.aivt._AltU1RXInterrupt>:
 12a:	b0 26 00    	nop       
Disassembly of section .aivt._AltU1TXInterrupt:

0000012c <.aivt._AltU1TXInterrupt>:
 12c:	b0 26 00    	nop       
Disassembly of section .aivt._AltU2ErrInterrupt:

00000198 <.aivt._AltU2ErrInterrupt>:
 198:	b0 26 00    	nop       
Disassembly of section .aivt._AltU2RXInterrupt:

00000150 <.aivt._AltU2RXInterrupt>:
 150:	b0 26 00    	nop       
Disassembly of section .aivt._AltU2TXInterrupt:

00000152 <.aivt._AltU2TXInterrupt>:
 152:	b0 26 00    	nop       
Disassembly of section .aivt._AltU3ErrInterrupt:

000001b6 <.aivt._AltU3ErrInterrupt>:
 1b6:	b0 26 00    	nop       
Disassembly of section .aivt._AltU3RXInterrupt:

000001b8 <.aivt._AltU3RXInterrupt>:
 1b8:	b0 26 00    	nop       
Disassembly of section .aivt._AltU3TXInterrupt:

000001ba <.aivt._AltU3TXInterrupt>:
 1ba:	b0 26 00    	nop       
Disassembly of section .aivt._AltU4ErrInterrupt:

000001c2 <.aivt._AltU4ErrInterrupt>:
 1c2:	b0 26 00    	nop       
Disassembly of section .aivt._AltU4RXInterrupt:

000001c4 <.aivt._AltU4RXInterrupt>:
 1c4:	b0 26 00    	nop       
Disassembly of section .aivt._AltU4TXInterrupt:

000001c6 <.aivt._AltU4TXInterrupt>:
 1c6:	b0 26 00    	nop       
Disassembly of section .aivt._AltUSB1Interrupt:

000001c0 <.aivt._AltUSB1Interrupt>:
 1c0:	b0 26 00    	nop       
Disassembly of section .reset:

00000000 <.reset>:
   0:	10 11 04    	goto      0x1110 <__reset>
   2:	00 00 00 
Disassembly of section .text:

00001110 <__reset>:
    1110:	0f 84 20    	mov.w     #0x840, w15
    1112:	0e ff 27    	mov.w     #0x7ff0, w14
    1114:	0e 01 88    	mov.w     w14, 0x20
    1116:	00 00 00    	nop       
    1118:	00 00 20    	mov.w     #0x0, w0
    111a:	00 00 e0    	cp0.w     w0
    111c:	02 00 32    	bra       Z, 0x1122 <CORCON_RESET>
    111e:	00 01 20    	mov.w     #0x10, w0
    1120:	20 02 88    	mov.w     w0, 0x44

00001122 <CORCON_RESET>:
    1122:	14 00 07    	rcall     0x114c <__psv_init>
    1124:	81 00 07    	rcall     0x1228 <__crt_start_mode> <__crt_start_mode_normal>
    1126:	00 00 e0    	cp0.w     w0
    1128:	03 00 3a    	bra       NZ, 0x1130 <L11>
    112a:	60 69 22    	mov.w     #0x2696, w0
    112c:	01 00 20    	mov.w     #0x0, w1
    112e:	02 00 37    	bra       0x1134 <L21>

00001130 <L11>:
    1130:	00 00 20    	mov.w     #0x0, w0
    1132:	01 00 20    	mov.w     #0x0, w1

00001134 <L21>:
    1134:	81 0f 70    	ior.w     w0, w1, [w15]
    1136:	01 00 32    	bra       Z, 0x113a <L12>
    1138:	14 00 07    	rcall     0x1162 <__data_init> <__data_init_da>

0000113a <L12>:
    113a:	00 00 20    	mov.w     #0x0, w0
    113c:	00 00 e0    	cp0.w     w0
    113e:	02 00 32    	bra       Z, 0x1144 <L13>
    1140:	00 00 02    	call      0x0 <__DEFAULT_VECTOR-0x110c>
    1142:	00 00 00 

00001144 <L13>:
    1144:	be 1a 02    	call      0x1abe <_main>
    1146:	00 00 00 
    1148:	00 40 da    	break     
    114a:	00 00 fe    	reset     

0000114c <__psv_init>:
    114c:	44 40 a9    	bclr.b    0x44, #0x2
    114e:	a0 3a 20    	mov.w     #0x3aa, w0
    1150:	00 00 e0    	cp0.w     w0
    1152:	03 00 32    	bra       Z, 0x115a <L14>
    1154:	00 20 20    	mov.w     #0x200, w0
    1156:	90 01 88    	mov.w     w0, 0x32
    1158:	44 40 a8    	bset.b    0x44, #0x2

0000115a <L14>:
    115a:	00 00 06    	return    

0000115c <__long_indirect_call>:
    115c:	8a 1f 78    	mov.w     w10, [w15++]
    115e:	8b 1f 78    	mov.w     w11, [w15++]
    1160:	00 00 06    	return    

00001162 <__data_init>:
    1162:	a1 02 88    	mov.w     w1, 0x54
    1164:	80 04 78    	mov.w     w0, w9
    1166:	00 00 eb    	clr.w     w0
    1168:	1f 00 37    	bra       0x11a8 <L41>

0000116a <L11>:
    116a:	e2 84 44    	add.w     w9, #0x2, w9
    116c:	54 a0 b4    	addc.w    0x54
    116e:	99 05 ba    	tblrdl.w  [w9], w11
    1170:	e2 84 44    	add.w     w9, #0x2, w9
    1172:	54 a0 b4    	addc.w    0x54
    1174:	99 06 ba    	tblrdl.w  [w9], w13
    1176:	e2 84 44    	add.w     w9, #0x2, w9
    1178:	54 a0 b4    	addc.w    0x54
    117a:	00 06 eb    	clr.w     w12
    117c:	47 6f de    	lsr.w     w13, #0x7, w14
    117e:	fd 07 b2    	and.w     #0x7f, w13
    1180:	ae 01 88    	mov.w     w14, 0x34
    1182:	63 6c e1    	cp.b      w13, #0x3
    1184:	03 00 3a    	bra       NZ, 0x118c <L21>
    1186:	ea ff 07    	rcall     0x115c <__long_indirect_call>
    1188:	00 00 eb    	clr.w     w0
    118a:	0e 00 37    	bra       0x11a8 <L41>

0000118c <L21>:
    118c:	60 6c e1    	cp.b      w13, #0x0
    118e:	08 00 3a    	bra       NZ, 0x11a0 <L22>

00001190 <L91>:
    1190:	00 4d eb    	clr.b     [w10]
    1192:	0a 05 e8    	inc.w     w10, w10
    1194:	02 00 39    	bra       NC, 0x119a <L81>
    1196:	34 20 ec    	inc.w     0x34
    1198:	0a f0 a0    	bset.w    w10, #0xf

0000119a <L81>:
    119a:	8b 05 e9    	dec.w     w11, w11
    119c:	f9 ff 3e    	bra       GTU, 0x1190 <L91>
    119e:	04 00 37    	bra       0x11a8 <L41>

000011a0 <L22>:
    11a0:	61 68 e1    	cp.w      w13, #0x1
    11a2:	01 00 32    	bra       Z, 0x11a6 <L31>
    11a4:	00 86 eb    	setm.w    w12

000011a6 <L31>:
    11a6:	0b 00 07    	rcall     0x11be <L13> <__memcpyd3extended>

000011a8 <L41>:
    11a8:	19 c7 ba    	tblrdh.b  [w9], w14
    11aa:	19 05 ba    	tblrdl.w  [w9], w10
    11ac:	0e 04 e0    	cp0.b     w14
    11ae:	03 00 3a    	bra       NZ, 0x11b6 <L12>
    11b0:	0a 00 e0    	cp0.w     w10
    11b2:	db ff 3a    	bra       NZ, 0x116a <L11>
    11b4:	00 00 06    	return    

000011b6 <L12>:
    11b6:	fe 07 b2    	and.w     #0x7f, w14
    11b8:	ae 02 88    	mov.w     w14, 0x54
    11ba:	8a 04 78    	mov.w     w10, w9
    11bc:	f5 ff 37    	bra       0x11a8 <L41>

000011be <L13>:
    11be:	0c d0 a3    	btst.c    w12, #0xd
    11c0:	e2 0f 4d    	addc.w    w10, #0x2, [w15]
    11c2:	1c 00 39    	bra       NC, 0x11fc <L23>
    11c4:	89 02 78    	mov.w     w9, w5
    11c6:	35 4d ba    	tblrdl.b  [w5++], [w10]
    11c8:	0a 05 e8    	inc.w     w10, w10
    11ca:	02 00 39    	bra       NC, 0x11d0 <L32>
    11cc:	34 20 ec    	inc.w     0x34
    11ce:	0a f0 a0    	bset.w    w10, #0xf

000011d0 <L32>:
    11d0:	8b 05 e9    	dec.w     w11, w11
    11d2:	0f 00 32    	bra       Z, 0x11f2 <L42>
    11d4:	25 4d ba    	tblrdl.b  [w5--], [w10]
    11d6:	0a 05 e8    	inc.w     w10, w10
    11d8:	02 00 39    	bra       NC, 0x11de <L33>
    11da:	34 20 ec    	inc.w     0x34
    11dc:	0a f0 a0    	bset.w    w10, #0xf

000011de <L33>:
    11de:	8b 05 e9    	dec.w     w11, w11
    11e0:	08 00 32    	bra       Z, 0x11f2 <L42>
    11e2:	0c 00 e0    	cp0.w     w12
    11e4:	06 00 32    	bra       Z, 0x11f2 <L42>
    11e6:	15 cd ba    	tblrdh.b  [w5], [w10]
    11e8:	0a 05 e8    	inc.w     w10, w10
    11ea:	02 00 39    	bra       NC, 0x11f0 <L34>
    11ec:	34 20 ec    	inc.w     0x34
    11ee:	0a f0 a0    	bset.w    w10, #0xf

000011f0 <L34>:
    11f0:	8b 05 e9    	dec.w     w11, w11

000011f2 <L42>:
    11f2:	89 84 e8    	inc2.w    w9, w9
    11f4:	54 a0 b4    	addc.w    0x54
    11f6:	0b 00 e0    	cp0.w     w11
    11f8:	e2 ff 3a    	bra       NZ, 0x11be <L13> <__memcpyd3extended>
    11fa:	00 00 06    	return    

000011fc <L23>:
    11fc:	99 02 ba    	tblrdl.w  [w9], w5
    11fe:	05 5d 78    	mov.b     w5, [w10++]
    1200:	8b 05 e9    	dec.w     w11, w11
    1202:	f7 ff 32    	bra       Z, 0x11f2 <L42>
    1204:	c8 2a de    	lsr.w     w5, #0x8, w5
    1206:	05 5d 78    	mov.b     w5, [w10++]
    1208:	8b 05 e9    	dec.w     w11, w11
    120a:	f3 ff 32    	bra       Z, 0x11f2 <L42>
    120c:	0c 00 e0    	cp0.w     w12
    120e:	f1 ff 32    	bra       Z, 0x11f2 <L42>
    1210:	19 dd ba    	tblrdh.b  [w9], [w10++]
    1212:	ee ff 37    	bra       0x11f0 <L34>

00001214 <.handle>:
    1214:	1e 1d 04    	goto      0x1d1e <_setup>
    1216:	00 00 00 
    1218:	40 1d 04    	goto      0x1d40 <_run>
    121a:	00 00 00 
    121c:	f0 1d 04    	goto      0x1df0 <_solved>
    121e:	00 00 00 
    1220:	38 1e 04    	goto      0x1e38 <_end_win>
    1222:	00 00 00 
    1224:	54 1e 04    	goto      0x1e54 <_end_fail>
    1226:	00 00 00 

00001228 <__crt_start_mode>:
    1228:	00 00 05    	retlw.w   #0x0, w0
Disassembly of section .application_ivt:

00001000 <__DEFAULT_VECTOR-0x10c>:
    1000:	10 11 04    	goto      0x1110 <__reset>
    1002:	00 00 00 
    1004:	b0 26 04    	goto      0x26b0 <__DefaultInterrupt>
    1006:	00 00 00 
    1008:	b0 26 04    	goto      0x26b0 <__DefaultInterrupt>
    100a:	00 00 00 
    100c:	b0 26 04    	goto      0x26b0 <__DefaultInterrupt>
    100e:	00 00 00 
    1010:	b0 26 04    	goto      0x26b0 <__DefaultInterrupt>
    1012:	00 00 00 
    1014:	b0 26 04    	goto      0x26b0 <__DefaultInterrupt>
    1016:	00 00 00 
    1018:	b0 26 04    	goto      0x26b0 <__DefaultInterrupt>
    101a:	00 00 00 
    101c:	b0 26 04    	goto      0x26b0 <__DefaultInterrupt>
    101e:	00 00 00 
    1020:	b0 26 04    	goto      0x26b0 <__DefaultInterrupt>
    1022:	00 00 00 
    1024:	b0 26 04    	goto      0x26b0 <__DefaultInterrupt>
    1026:	00 00 00 
    1028:	b0 26 04    	goto      0x26b0 <__DefaultInterrupt>
    102a:	00 00 00 
    102c:	b0 26 04    	goto      0x26b0 <__DefaultInterrupt>
    102e:	00 00 00 
    1030:	dc 23 04    	goto      0x23dc <__T2Interrupt>
    1032:	00 00 00 
    1034:	b0 26 04    	goto      0x26b0 <__DefaultInterrupt>
    1036:	00 00 00 
    1038:	b0 26 04    	goto      0x26b0 <__DefaultInterrupt>
    103a:	00 00 00 
    103c:	b0 26 04    	goto      0x26b0 <__DefaultInterrupt>
    103e:	00 00 00 
    1040:	b0 26 04    	goto      0x26b0 <__DefaultInterrupt>
    1042:	00 00 00 
    1044:	b0 26 04    	goto      0x26b0 <__DefaultInterrupt>
    1046:	00 00 00 
    1048:	b0 26 04    	goto      0x26b0 <__DefaultInterrupt>
    104a:	00 00 00 
    104c:	b0 26 04    	goto      0x26b0 <__DefaultInterrupt>
    104e:	00 00 00 
    1050:	b0 26 04    	goto      0x26b0 <__DefaultInterrupt>
    1052:	00 00 00 
    1054:	b0 26 04    	goto      0x26b0 <__DefaultInterrupt>
    1056:	00 00 00 
    1058:	b8 23 04    	goto      0x23b8 <__CNInterrupt>
    105a:	00 00 00 
    105c:	b0 26 04    	goto      0x26b0 <__DefaultInterrupt>
    105e:	00 00 00 
    1060:	b0 26 04    	goto      0x26b0 <__DefaultInterrupt>
    1062:	00 00 00 
    1064:	b0 26 04    	goto      0x26b0 <__DefaultInterrupt>
    1066:	00 00 00 
    1068:	b0 26 04    	goto      0x26b0 <__DefaultInterrupt>
    106a:	00 00 00 
    106c:	b0 26 04    	goto      0x26b0 <__DefaultInterrupt>
    106e:	00 00 00 
    1070:	b0 26 04    	goto      0x26b0 <__DefaultInterrupt>
    1072:	00 00 00 
    1074:	b0 26 04    	goto      0x26b0 <__DefaultInterrupt>
    1076:	00 00 00 
    1078:	b0 26 04    	goto      0x26b0 <__DefaultInterrupt>
    107a:	00 00 00 
    107c:	b0 26 04    	goto      0x26b0 <__DefaultInterrupt>
    107e:	00 00 00 
    1080:	b0 26 04    	goto      0x26b0 <__DefaultInterrupt>
    1082:	00 00 00 
    1084:	b0 26 04    	goto      0x26b0 <__DefaultInterrupt>
    1086:	00 00 00 
    1088:	b0 26 04    	goto      0x26b0 <__DefaultInterrupt>
    108a:	00 00 00 
    108c:	b0 26 04    	goto      0x26b0 <__DefaultInterrupt>
    108e:	00 00 00 
    1090:	b0 26 04    	goto      0x26b0 <__DefaultInterrupt>
    1092:	00 00 00 
    1094:	b0 26 04    	goto      0x26b0 <__DefaultInterrupt>
    1096:	00 00 00 
    1098:	b0 26 04    	goto      0x26b0 <__DefaultInterrupt>
    109a:	00 00 00 
    109c:	b0 26 04    	goto      0x26b0 <__DefaultInterrupt>
    109e:	00 00 00 
    10a0:	b0 26 04    	goto      0x26b0 <__DefaultInterrupt>
    10a2:	00 00 00 
    10a4:	b0 26 04    	goto      0x26b0 <__DefaultInterrupt>
    10a6:	00 00 00 
    10a8:	b0 26 04    	goto      0x26b0 <__DefaultInterrupt>
    10aa:	00 00 00 
    10ac:	b0 26 04    	goto      0x26b0 <__DefaultInterrupt>
    10ae:	00 00 00 
    10b0:	30 25 04    	goto      0x2530 <__SI2C2Interrupt>
    10b2:	00 00 00 
    10b4:	b0 26 04    	goto      0x26b0 <__DefaultInterrupt>
    10b6:	00 00 00 
    10b8:	b0 26 04    	goto      0x26b0 <__DefaultInterrupt>
    10ba:	00 00 00 
    10bc:	b0 26 04    	goto      0x26b0 <__DefaultInterrupt>
    10be:	00 00 00 
    10c0:	b0 26 04    	goto      0x26b0 <__DefaultInterrupt>
    10c2:	00 00 00 
    10c4:	b0 26 04    	goto      0x26b0 <__DefaultInterrupt>
    10c6:	00 00 00 
    10c8:	b0 26 04    	goto      0x26b0 <__DefaultInterrupt>
    10ca:	00 00 00 
    10cc:	b0 26 04    	goto      0x26b0 <__DefaultInterrupt>
    10ce:	00 00 00 
    10d0:	b0 26 04    	goto      0x26b0 <__DefaultInterrupt>
    10d2:	00 00 00 
    10d4:	b0 26 04    	goto      0x26b0 <__DefaultInterrupt>
    10d6:	00 00 00 
    10d8:	b0 26 04    	goto      0x26b0 <__DefaultInterrupt>
    10da:	00 00 00 
    10dc:	b0 26 04    	goto      0x26b0 <__DefaultInterrupt>
    10de:	00 00 00 
    10e0:	b0 26 04    	goto      0x26b0 <__DefaultInterrupt>
    10e2:	00 00 00 
    10e4:	b0 26 04    	goto      0x26b0 <__DefaultInterrupt>
    10e6:	00 00 00 
    10e8:	b0 26 04    	goto      0x26b0 <__DefaultInterrupt>
    10ea:	00 00 00 
    10ec:	b0 26 04    	goto      0x26b0 <__DefaultInterrupt>
    10ee:	00 00 00 
    10f0:	b0 26 04    	goto      0x26b0 <__DefaultInterrupt>
    10f2:	00 00 00 
    10f4:	b0 26 04    	goto      0x26b0 <__DefaultInterrupt>
    10f6:	00 00 00 
    10f8:	b0 26 04    	goto      0x26b0 <__DefaultInterrupt>
    10fa:	00 00 00 
    10fc:	b0 26 04    	goto      0x26b0 <__DefaultInterrupt>
    10fe:	00 00 00 
    1100:	b0 26 04    	goto      0x26b0 <__DefaultInterrupt>
    1102:	00 00 00 
    1104:	b0 26 04    	goto      0x26b0 <__DefaultInterrupt>
    1106:	00 00 00 
    1108:	b0 26 04    	goto      0x26b0 <__DefaultInterrupt>
    110a:	00 00 00 

0000110c <__DEFAULT_VECTOR>:
    110c:	b0 26 04    	goto      0x26b0 <__DefaultInterrupt>
    110e:	00 00 00 
Disassembly of section .ivt:

00000004 <.ivt>:
   4:	04 10 00    	nop       
   6:	08 10 00    	nop       
   8:	0c 10 00    	nop       
   a:	10 10 00    	nop       
   c:	14 10 00    	nop       
   e:	0c 11 00    	nop       
  10:	0c 11 00    	nop       
  12:	0c 11 00    	nop       
  14:	18 10 00    	nop       
  16:	1c 10 00    	nop       
  18:	20 10 00    	nop       
  1a:	24 10 00    	nop       
  1c:	0c 11 00    	nop       
  1e:	28 10 00    	nop       
  20:	2c 10 00    	nop       
  22:	30 10 00    	nop       
  24:	34 10 00    	nop       
  26:	38 10 00    	nop       
  28:	3c 10 00    	nop       
  2a:	40 10 00    	nop       
  2c:	44 10 00    	nop       
  2e:	48 10 00    	nop       
  30:	0c 11 00    	nop       
  32:	0c 11 00    	nop       
  34:	4c 10 00    	nop       
  36:	50 10 00    	nop       
  38:	54 10 00    	nop       
  3a:	58 10 00    	nop       
  3c:	5c 10 00    	nop       
  3e:	0c 11 00    	nop       
  40:	60 10 00    	nop       
  42:	64 10 00    	nop       
  44:	0c 11 00    	nop       
  46:	68 10 00    	nop       
  48:	6c 10 00    	nop       
  4a:	70 10 00    	nop       
  4c:	74 10 00    	nop       
  4e:	78 10 00    	nop       
  50:	7c 10 00    	nop       
  52:	80 10 00    	nop       
  54:	84 10 00    	nop       
  56:	88 10 00    	nop       
  58:	0c 11 00    	nop       
  5a:	0c 11 00    	nop       
  5c:	0c 11 00    	nop       
  5e:	8c 10 00    	nop       
  60:	90 10 00    	nop       
  62:	94 10 00    	nop       
  64:	98 10 00    	nop       
  66:	9c 10 00    	nop       
  68:	a0 10 00    	nop       
  6a:	a4 10 00    	nop       
  6c:	a8 10 00    	nop       
  6e:	ac 10 00    	nop       
  70:	0c 11 00    	nop       
  72:	0c 11 00    	nop       
  74:	0c 11 00    	nop       
  76:	b0 10 00    	nop       
  78:	b4 10 00    	nop       
  7a:	0c 11 00    	nop       
  7c:	0c 11 00    	nop       
  7e:	b8 10 00    	nop       
  80:	bc 10 00    	nop       
  82:	0c 11 00    	nop       
  84:	0c 11 00    	nop       
  86:	0c 11 00    	nop       
  88:	0c 11 00    	nop       
  8a:	0c 11 00    	nop       
  8c:	0c 11 00    	nop       
  8e:	0c 11 00    	nop       
  90:	c0 10 00    	nop       
  92:	0c 11 00    	nop       
  94:	0c 11 00    	nop       
  96:	c4 10 00    	nop       
  98:	c8 10 00    	nop       
  9a:	cc 10 00    	nop       
  9c:	0c 11 00    	nop       
  9e:	0c 11 00    	nop       
  a0:	0c 11 00    	nop       
  a2:	0c 11 00    	nop       
  a4:	d0 10 00    	nop       
  a6:	0c 11 00    	nop       
  a8:	0c 11 00    	nop       
  aa:	0c 11 00    	nop       
  ac:	0c 11 00    	nop       
  ae:	d4 10 00    	nop       
  b0:	0c 11 00    	nop       
  b2:	0c 11 00    	nop       
  b4:	0c 11 00    	nop       
  b6:	d8 10 00    	nop       
  b8:	dc 10 00    	nop       
  ba:	e0 10 00    	nop       
  bc:	e4 10 00    	nop       
  be:	e8 10 00    	nop       
  c0:	ec 10 00    	nop       
  c2:	f0 10 00    	nop       
  c4:	f4 10 00    	nop       
  c6:	f8 10 00    	nop       
  c8:	fc 10 00    	nop       
  ca:	00 11 00    	nop       
  cc:	04 11 00    	nop       
  ce:	08 11 00    	nop       
  d0:	0c 11 00    	nop       
  d2:	0c 11 00    	nop       
  d4:	0c 11 00    	nop       
  d6:	0c 11 00    	nop       
  d8:	0c 11 00    	nop       
  da:	0c 11 00    	nop       
  dc:	0c 11 00    	nop       
  de:	0c 11 00    	nop       
  e0:	0c 11 00    	nop       
  e2:	0c 11 00    	nop       
  e4:	0c 11 00    	nop       
  e6:	0c 11 00    	nop       
  e8:	0c 11 00    	nop       
  ea:	0c 11 00    	nop       
  ec:	0c 11 00    	nop       
  ee:	0c 11 00    	nop       
  f0:	0c 11 00    	nop       
  f2:	0c 11 00    	nop       
  f4:	0c 11 00    	nop       
  f6:	0c 11 00    	nop       
  f8:	0c 11 00    	nop       
  fa:	0c 11 00    	nop       
  fc:	0c 11 00    	nop       
  fe:	0c 11 00    	nop       
Disassembly of section .const:

0000922a <.LC2-0x2ee>:
    922a:	61 62       	.word 0x6261
    922c:	6f 75       	.word 0x756f
    922e:	74 00       	.word 0x74
    9230:	65 76       	.word 0x7665
    9232:	65 72       	.word 0x7265
    9234:	79 00       	.word 0x79
    9236:	6c 61       	.word 0x616c
    9238:	72 67       	.word 0x6772
    923a:	65 00       	.word 0x65
    923c:	70 6c       	.word 0x6c70
    923e:	61 6e       	.word 0x6e61
    9240:	74 00       	.word 0x74
    9242:	73 70       	.word 0x7073
    9244:	65 6c       	.word 0x6c65
    9246:	6c 00       	.word 0x6c
    9248:	74 68       	.word 0x6874
    924a:	65 73       	.word 0x7365
    924c:	65 00       	.word 0x65
    924e:	77 68       	.word 0x6877
    9250:	65 72       	.word 0x7265
    9252:	65 00       	.word 0x65
    9254:	61 66       	.word 0x6661
    9256:	74 65       	.word 0x6574
    9258:	72 00       	.word 0x72
    925a:	66 69       	.word 0x6966
    925c:	72 73       	.word 0x7372
    925e:	74 00       	.word 0x74
    9260:	6c 65       	.word 0x656c
    9262:	61 72       	.word 0x7261
    9264:	6e 00       	.word 0x6e
    9266:	70 6f       	.word 0x6f70
    9268:	69 6e       	.word 0x6e69
    926a:	74 00       	.word 0x74
    926c:	73 74       	.word 0x7473
    926e:	69 6c       	.word 0x6c69
    9270:	6c 00       	.word 0x6c
    9272:	74 68       	.word 0x6874
    9274:	69 6e       	.word 0x6e69
    9276:	67 00       	.word 0x67
    9278:	77 68       	.word 0x6877
    927a:	69 63       	.word 0x6369
    927c:	68 00       	.word 0x68
    927e:	61 67       	.word 0x6761
    9280:	61 69       	.word 0x6961
    9282:	6e 00       	.word 0x6e
    9284:	66 6f       	.word 0x6f66
    9286:	75 6e       	.word 0x6e75
    9288:	64 00       	.word 0x64
    928a:	6e 65       	.word 0x656e
    928c:	76 65       	.word 0x6576
    928e:	72 00       	.word 0x72
    9290:	72 69       	.word 0x6972
    9292:	67 68       	.word 0x6867
    9294:	74 00       	.word 0x74
    9296:	73 74       	.word 0x7473
    9298:	75 64       	.word 0x6475
    929a:	79 00       	.word 0x79
    929c:	74 68       	.word 0x6874
    929e:	69 6e       	.word 0x6e69
    92a0:	6b 00       	.word 0x6b
    92a2:	77 6f       	.word 0x6f77
    92a4:	72 6c       	.word 0x6c72
    92a6:	64 00       	.word 0x64
    92a8:	62 65       	.word 0x6562
    92aa:	6c 6f       	.word 0x6f6c
    92ac:	77 00       	.word 0x77
    92ae:	67 72       	.word 0x7267
    92b0:	65 61       	.word 0x6165
    92b2:	74 00       	.word 0x74
    92b4:	6f 74       	.word 0x746f
    92b6:	68 65       	.word 0x6568
    92b8:	72 00       	.word 0x72
    92ba:	73 6d       	.word 0x6d73
    92bc:	61 6c       	.word 0x6c61
    92be:	6c 00       	.word 0x6c
    92c0:	74 68       	.word 0x6874
    92c2:	65 69       	.word 0x6965
    92c4:	72 00       	.word 0x72
    92c6:	74 68       	.word 0x6874
    92c8:	72 65       	.word 0x6572
    92ca:	65 00       	.word 0x65
    92cc:	77 6f       	.word 0x6f77
    92ce:	75 6c       	.word 0x6c75
    92d0:	64 00       	.word 0x64
    92d2:	63 6f       	.word 0x6f63
    92d4:	75 6c       	.word 0x6c75
    92d6:	64 00       	.word 0x64
    92d8:	68 6f       	.word 0x6f68
    92da:	75 73       	.word 0x7375
    92dc:	65 00       	.word 0x65
    92de:	70 6c       	.word 0x6c70
    92e0:	61 63       	.word 0x6361
    92e2:	65 00       	.word 0x65
    92e4:	73 6f       	.word 0x6f73
    92e6:	75 6e       	.word 0x6e75
    92e8:	64 00       	.word 0x64
    92ea:	74 68       	.word 0x6874
    92ec:	65 72       	.word 0x7265
    92ee:	65 00       	.word 0x65
    92f0:	77 61       	.word 0x6177
    92f2:	74 65       	.word 0x6574
    92f4:	72 00       	.word 0x72
    92f6:	77 72       	.word 0x7277
    92f8:	69 74       	.word 0x7469
    92fa:	65 00       	.word 0x65
    92fc:	57 52       	.word 0x5257
    92fe:	49 54       	.word 0x5449
    9300:	45 47       	.word 0x4745
    9302:	59 51       	.word 0x5159
    9304:	57 56       	.word 0x5657
    9306:	4d 52       	.word 0x524d
    9308:	54 45       	.word 0x4554
    930a:	50 49       	.word 0x4950
    930c:	58 5a       	.word 0x5a58
    930e:	46 4d       	.word 0x4d46
    9310:	49 4a       	.word 0x4a49
    9312:	59 4a       	.word 0x4a59
    9314:	54 46       	.word 0x4654
    9316:	50 42       	.word 0x4250
    9318:	41 4d       	.word 0x4d41
    931a:	45 51       	.word 0x5145
    931c:	50 47       	.word 0x4750
    931e:	58 00       	.word 0x58
    9320:	53 54       	.word 0x5453
    9322:	49 4c       	.word 0x4c49
    9324:	4c 53       	.word 0x534c
    9326:	47 43       	.word 0x4347
    9328:	42 57       	.word 0x5742
    932a:	54 52       	.word 0x5254
    932c:	54 56       	.word 0x5654
    932e:	5a 53       	.word 0x535a
    9330:	4a 56       	.word 0x564a
    9332:	49 44       	.word 0x4449
    9334:	52 46       	.word 0x4652
    9336:	50 4c       	.word 0x4c50
    9338:	4a 4f       	.word 0x4f4a
    933a:	4b 55       	.word 0x554b
    933c:	53 49       	.word 0x4953
    933e:	4a 4c       	.word 0x4c4a
    9340:	41 46       	.word 0x4641
    9342:	5a 00       	.word 0x5a
    9344:	45 56       	.word 0x5645
    9346:	45 52       	.word 0x5245
    9348:	59 4b       	.word 0x4b59
    934a:	45 58       	.word 0x5845
    934c:	4d 59       	.word 0x594d
    934e:	5a 4d       	.word 0x4d5a
    9350:	53 43       	.word 0x4353
    9352:	54 56       	.word 0x5654
    9354:	50 41       	.word 0x4150
    9356:	47 4e       	.word 0x4e47
    9358:	44 45       	.word 0x4544
    935a:	46 44       	.word 0x4446
    935c:	48 45       	.word 0x4548
    935e:	52 51       	.word 0x5152
    9360:	4a 48       	.word 0x484a
    9362:	4d 57       	.word 0x574d
    9364:	4e 59       	.word 0x594e
    9366:	58 00       	.word 0x58
    9368:	57 4f       	.word 0x4f57
    936a:	52 4c       	.word 0x4c52
    936c:	44 47       	.word 0x4744
    936e:	57 51       	.word 0x5157
    9370:	41 50       	.word 0x5041
    9372:	4e 57       	.word 0x574e
    9374:	45 4f       	.word 0x4f45
    9376:	4b 4d       	.word 0x4d4b
    9378:	51 51       	.word 0x5151
    937a:	57 52       	.word 0x5257
    937c:	5a 59       	.word 0x595a
    937e:	4a 50       	.word 0x504a
    9380:	44 4c       	.word 0x4c44
    9382:	4a 42       	.word 0x424a
    9384:	49 4e       	.word 0x4e49
    9386:	53 49       	.word 0x4953
    9388:	43 44       	.word 0x4443
    938a:	48 00       	.word 0x48
    938c:	57 52       	.word 0x5257
    938e:	49 54       	.word 0x5449
    9390:	45 47       	.word 0x4745
    9392:	57 4a       	.word 0x4a57
    9394:	58 44       	.word 0x4458
    9396:	4c 5a       	.word 0x5a4c
    9398:	50 4c       	.word 0x4c50
    939a:	58 49       	.word 0x4958
    939c:	52 4a       	.word 0x4a52
    939e:	54 43       	.word 0x4354
    93a0:	49 46       	.word 0x4649
    93a2:	53 54       	.word 0x5453
    93a4:	46 48       	.word 0x4846
    93a6:	42 49       	.word 0x4942
    93a8:	4f 53       	.word 0x534f
    93aa:	51 58       	.word 0x5851
    93ac:	55 4a       	.word 0x4a55
    93ae:	45 00       	.word 0x45
    93b0:	46 4f       	.word 0x4f46
    93b2:	55 4e       	.word 0x4e55
    93b4:	44 5a       	.word 0x5a44
    93b6:	49 4a       	.word 0x4a49
    93b8:	43 45       	.word 0x4543
    93ba:	46 4f       	.word 0x4f46
    93bc:	47 4d       	.word 0x4d47
    93be:	51 59       	.word 0x5951
    93c0:	4e 51       	.word 0x514e
    93c2:	42 56       	.word 0x5642
    93c4:	45 55       	.word 0x5545
    93c6:	4a 5a       	.word 0x5a4a
    93c8:	4e 4f       	.word 0x4f4e
    93ca:	55 57       	.word 0x5755
    93cc:	4a 51       	.word 0x514a
    93ce:	47 4c       	.word 0x4c47
    93d0:	49 44       	.word 0x4449
    93d2:	50 00       	.word 0x50
    93d4:	43 4f       	.word 0x4f43
    93d6:	55 4c       	.word 0x4c55
    93d8:	44 44       	.word 0x4444
    93da:	58 43       	.word 0x4358
    93dc:	55 4a       	.word 0x4a55
    93de:	54 4f       	.word 0x4f54
    93e0:	5a 55       	.word 0x555a
    93e2:	50 51       	.word 0x5150
    93e4:	59 4d       	.word 0x4d59
    93e6:	4b 58       	.word 0x584b
    93e8:	56 55       	.word 0x5556
    93ea:	53 4c       	.word 0x4c53
    93ec:	4b 52       	.word 0x524b
    93ee:	51 56       	.word 0x5651
    93f0:	57 4d       	.word 0x4d57
    93f2:	48 44       	.word 0x4448
    93f4:	56 51       	.word 0x5156
    93f6:	4a 00       	.word 0x4a
    93f8:	54 48       	.word 0x4854
    93fa:	45 53       	.word 0x5345
    93fc:	45 58       	.word 0x5845
    93fe:	54 4b       	.word 0x4b54
    9400:	44 4c       	.word 0x4c44
    9402:	56 47       	.word 0x4756
    9404:	48 49       	.word 0x4948
    9406:	54 50       	.word 0x5054
    9408:	53 45       	.word 0x4553
    940a:	51 49       	.word 0x4951
    940c:	56 54       	.word 0x5456
    940e:	4d 45       	.word 0x454d
    9410:	48 44       	.word 0x4448
    9412:	4f 4e       	.word 0x4e4f
    9414:	53 56       	.word 0x5653
    9416:	59 4d       	.word 0x4d59
    9418:	45 46       	.word 0x4645
    941a:	42 00       	.word 0x42
    941c:	4f 54       	.word 0x544f
    941e:	48 45       	.word 0x4548
    9420:	52 52       	.word 0x5252
    9422:	49 42       	.word 0x4249
    9424:	4f 43       	.word 0x434f
    9426:	45 54       	.word 0x5445
    9428:	4e 52       	.word 0x524e
    942a:	4b 4a       	.word 0x4a4b
    942c:	42 4e       	.word 0x4e42
    942e:	4a 55       	.word 0x554a
    9430:	48 47       	.word 0x4748
    9432:	45 47       	.word 0x4745
    9434:	4a 56       	.word 0x564a
    9436:	57 4b       	.word 0x4b57
    9438:	45 4b       	.word 0x4b45
    943a:	44 56       	.word 0x5644
    943c:	52 50       	.word 0x5052
    943e:	4d 00       	.word 0x4d
    9440:	57 4f       	.word 0x4f57
    9442:	52 4c       	.word 0x4c52
    9444:	44 54       	.word 0x5444
    9446:	58 53       	.word 0x5358
    9448:	55 52       	.word 0x5255
    944a:	57 46       	.word 0x4657
    944c:	57 4f       	.word 0x4f57
    944e:	51 59       	.word 0x5951
    9450:	52 56       	.word 0x5652
    9452:	52 51       	.word 0x5152
    9454:	47 4e       	.word 0x4e47
    9456:	4a 59       	.word 0x594a
    9458:	42 4b       	.word 0x4b42
    945a:	4c 51       	.word 0x514c
    945c:	4f 48       	.word 0x484f
    945e:	58 44       	.word 0x4458
    9460:	45 49       	.word 0x4945
    9462:	51 00       	.word 0x51
    9464:	53 4d       	.word 0x4d53
    9466:	41 4c       	.word 0x4c41
    9468:	4c 49       	.word 0x494c
    946a:	56 52       	.word 0x5256
    946c:	58 53       	.word 0x5358
    946e:	55 58       	.word 0x5855
    9470:	44 43       	.word 0x4344
    9472:	4d 52       	.word 0x524d
    9474:	59 41       	.word 0x4159
    9476:	51 54       	.word 0x5451
    9478:	46 50       	.word 0x5046
    947a:	4a 56       	.word 0x564a
    947c:	50 48       	.word 0x4850
    947e:	46 4c       	.word 0x4c46
    9480:	58 51       	.word 0x5158
    9482:	4c 52       	.word 0x524c
    9484:	4f 42       	.word 0x424f
    9486:	48 00       	.word 0x48
    9488:	54 48       	.word 0x4854
    948a:	45 53       	.word 0x5345
    948c:	45 4b       	.word 0x4b45
    948e:	50 54       	.word 0x5450
    9490:	52 4c       	.word 0x4c52
    9492:	42 48       	.word 0x4842
    9494:	4b 56       	.word 0x564b
    9496:	55 4e       	.word 0x4e55
    9498:	44 51       	.word 0x5144
    949a:	47 4c       	.word 0x4c47
    949c:	45 4a       	.word 0x4a45
    949e:	53 58       	.word 0x5853
    94a0:	41 4d       	.word 0x4d41
    94a2:	53 56       	.word 0x5653
    94a4:	44 57       	.word 0x5744
    94a6:	41 4f       	.word 0x4f41
    94a8:	45 46       	.word 0x4645
    94aa:	4e 00       	.word 0x4e
    94ac:	57 52       	.word 0x5257
    94ae:	49 54       	.word 0x5449
    94b0:	45 56       	.word 0x5645
    94b2:	57 49       	.word 0x4957
    94b4:	58 59       	.word 0x5958
    94b6:	48 57       	.word 0x5748
    94b8:	4b 58       	.word 0x584b
    94ba:	42 47       	.word 0x4742
    94bc:	52 46       	.word 0x4652
    94be:	45 4c       	.word 0x4c45
    94c0:	59 49       	.word 0x4959
    94c2:	50 55       	.word 0x5550
    94c4:	41 44       	.word 0x4441
    94c6:	54 52       	.word 0x5254
    94c8:	4e 4c       	.word 0x4c4e
    94ca:	56 45       	.word 0x4556
    94cc:	41 51       	.word 0x5141
    94ce:	55 00       	.word 0x55
    94d0:	47 52       	.word 0x5247
    94d2:	45 41       	.word 0x4145
    94d4:	54 4c       	.word 0x4c54
    94d6:	4f 47       	.word 0x474f
    94d8:	4d 58       	.word 0x584d
    94da:	56 59       	.word 0x5956
    94dc:	43 4e       	.word 0x4e43
    94de:	52 57       	.word 0x5752
    94e0:	4b 48       	.word 0x484b
    94e2:	56 50       	.word 0x5056
    94e4:	45 42       	.word 0x4245
    94e6:	49 5a       	.word 0x5a49
    94e8:	41 50       	.word 0x5041
    94ea:	57 56       	.word 0x5657
    94ec:	46 57       	.word 0x5746
    94ee:	48 46       	.word 0x4648
    94f0:	53 54       	.word 0x5453
    94f2:	51 00       	.word 0x51
    94f4:	4f 54       	.word 0x544f
    94f6:	48 45       	.word 0x4548
    94f8:	52 46       	.word 0x4652
    94fa:	47 49       	.word 0x4947
    94fc:	4f 44       	.word 0x444f
    94fe:	48 42       	.word 0x4248
    9500:	54 50       	.word 0x5054
    9502:	58 53       	.word 0x5358
    9504:	49 43       	.word 0x4349
    9506:	47 45       	.word 0x4547
    9508:	4c 50       	.word 0x504c
    950a:	48 41       	.word 0x4148
    950c:	44 45       	.word 0x4544
    950e:	4a 49       	.word 0x494a
    9510:	5a 4e       	.word 0x4e5a
    9512:	41 50       	.word 0x5041
    9514:	4b 49       	.word 0x494b
    9516:	52 00       	.word 0x52

00009518 <.LC2>:
    9518:	00 20       	.word 0x2000

00009519 <.LC0>:
	...

00009520 <.LC1>:
    9520:	20 6f       	.word 0x6f20
    9522:	20 20       	.word 0x2020
    9524:	6f 20       	.word 0x206f
    9526:	20 6f       	.word 0x6f20
    9528:	20 20       	.word 0x2020
    952a:	6f 20       	.word 0x206f
    952c:	20 6f       	.word 0x6f20
    952e:	20 00       	.word 0x20
    9530:	00 20       	.word 0x2000

00009531 <.LC3>:
    9531:	00 00       	.word 0
    9533:	00 00       	.word 0
    9535:	00 00       	.word 0
    9537:	00 00       	.word 0
    9539:	00 00       	.word 0
    953b:	00 00       	.word 0
    953d:	00 00       	.word 0
    953f:	00 00       	.word 0
	...

00009542 <.LC0>:
    9542:	20 20       	.word 0x2020
    9544:	20 20       	.word 0x2020
    9546:	20 20       	.word 0x2020
    9548:	20 20       	.word 0x2020
    954a:	20 20       	.word 0x2020
    954c:	20 20       	.word 0x2020
    954e:	20 20       	.word 0x2020
    9550:	20 20       	.word 0x2020
    9552:	20 20       	.word 0x2020
    9554:	20 20       	.word 0x2020
    9556:	20 20       	.word 0x2020
    9558:	20 20       	.word 0x2020
    955a:	20 20       	.word 0x2020
    955c:	20 20       	.word 0x2020
    955e:	20 20       	.word 0x2020
    9560:	20 20       	.word 0x2020
    9562:	20 20       	.word 0x2020
    9564:	20 20       	.word 0x2020
    9566:	20 20       	.word 0x2020
    9568:	20 20       	.word 0x2020
    956a:	20 20       	.word 0x2020
    956c:	20 20       	.word 0x2020
    956e:	20 20       	.word 0x2020
    9570:	20 20       	.word 0x2020
    9572:	20 20       	.word 0x2020
    9574:	20 20       	.word 0x2020
    9576:	20 20       	.word 0x2020
    9578:	20 20       	.word 0x2020
    957a:	00 20       	.word 0x2000

0000957b <.LC1>:
    957b:	00 00       	.word 0
    957d:	00 00       	.word 0
    957f:	00 00       	.word 0
    9581:	00 00       	.word 0
    9583:	00 00       	.word 0
    9585:	00 00       	.word 0
    9587:	00 00       	.word 0
    9589:	00 00       	.word 0
	...

0000958c <.LC2>:
    958c:	7a 79       	.word 0x797a
    958e:	78 77       	.word 0x7778
    9590:	76 75       	.word 0x7576
    9592:	74 73       	.word 0x7374
    9594:	72 71       	.word 0x7172
    9596:	70 6f       	.word 0x6f70
    9598:	6e 6d       	.word 0x6d6e
    959a:	6c 6b       	.word 0x6b6c
    959c:	6a 69       	.word 0x696a
    959e:	68 67       	.word 0x6768
    95a0:	66 65       	.word 0x6566
    95a2:	64 63       	.word 0x6364
    95a4:	62 61       	.word 0x6162
    95a6:	39 38       	.word 0x3839
    95a8:	37 36       	.word 0x3637
    95aa:	35 34       	.word 0x3435
    95ac:	33 32       	.word 0x3233
    95ae:	31 30       	.word 0x3031
    95b0:	31 32       	.word 0x3231
    95b2:	33 34       	.word 0x3433
    95b4:	35 36       	.word 0x3635
    95b6:	37 38       	.word 0x3837
    95b8:	39 61       	.word 0x6139
    95ba:	62 63       	.word 0x6362
    95bc:	64 65       	.word 0x6564
    95be:	66 67       	.word 0x6766
    95c0:	68 69       	.word 0x6968
    95c2:	6a 6b       	.word 0x6b6a
    95c4:	6c 6d       	.word 0x6d6c
    95c6:	6e 6f       	.word 0x6f6e
    95c8:	70 71       	.word 0x7170
    95ca:	72 73       	.word 0x7372
    95cc:	74 75       	.word 0x7574
    95ce:	76 77       	.word 0x7776
    95d0:	78 79       	.word 0x7978
    95d2:	7a 00       	.word 0x7a
Disassembly of section .text:

000015d4 <___lcd_i2c_write>:
#define DR_READ 0x0B

_LCD lcd[3];

void __lcd_i2c_write(_LCD *self, uint8_t ch) {
    15d4:	04 00 fa    	lnk       #0x4
    15d6:	00 0f 78    	mov.w     w0, [w14]
    15d8:	21 47 98    	mov.b     w1, [w14+2]
    i2c_start();
    15da:	d6 04 07    	rcall     0x1f88 <_i2c_start> <.LFB2> <.LFE1>
    send_i2c_byte(self->addr_write);
    15dc:	1e 00 78    	mov.w     [w14], w0
    15de:	10 40 78    	mov.b     [w0], w0
    15e0:	00 80 fb    	ze        w0, w0
    15e2:	21 05 07    	rcall     0x2026 <_send_i2c_byte> <.LFB5> <.LFE4>
    send_i2c_byte(ch);
    15e4:	2e 40 90    	mov.b     [w14+2], w0
    15e6:	00 80 fb    	ze        w0, w0
    15e8:	1e 05 07    	rcall     0x2026 <_send_i2c_byte> <.LFB5> <.LFE4>
    reset_i2c_bus();
    15ea:	02 05 07    	rcall     0x1ff0 <_reset_i2c_bus> <.LFB4> <.LFE3>
}
    15ec:	00 80 fa    	ulnk      
    15ee:	00 00 06    	return    

000015f0 <___lcd_enablePulse>:

// Pulse enable pin high and then low to shift in 4 bits of data
void __lcd_enablePulse(_LCD *self) {
    15f0:	02 00 fa    	lnk       #0x2
    15f2:	00 0f 78    	mov.w     w0, [w14]
    self->io_write_val ^= ENABLE_TOGGLE;
    15f4:	1e 00 78    	mov.w     [w14], w0
    15f6:	20 40 90    	mov.b     [w0+2], w0
    15f8:	80 40 78    	mov.b     w0, w1
    15fa:	01 24 a2    	btg.b     w1, #0x2
    15fc:	1e 00 78    	mov.w     [w14], w0
    15fe:	21 40 98    	mov.b     w1, [w0+2]
    __lcd_i2c_write(self, self->io_write_val);
    1600:	1e 00 78    	mov.w     [w14], w0
    1602:	20 40 90    	mov.b     [w0+2], w0
    1604:	80 40 78    	mov.b     w0, w1
    1606:	1e 00 78    	mov.w     [w14], w0
    1608:	e5 ff 07    	rcall     0x15d4 <___lcd_i2c_write> <.L0> <.LFB0> <.Ltext0>
    delay_by_nop(100);
    160a:	40 06 20    	mov.w     #0x64, w0
    160c:	01 00 20    	mov.w     #0x0, w1
    160e:	9c 04 07    	rcall     0x1f48 <_delay_by_nop> <.L0> <.LFB0> <.LFE10> <.Letext0> <.Ltext0>
    self->io_write_val ^= ENABLE_TOGGLE;
    1610:	1e 00 78    	mov.w     [w14], w0
    1612:	20 40 90    	mov.b     [w0+2], w0
    1614:	80 40 78    	mov.b     w0, w1
    1616:	01 24 a2    	btg.b     w1, #0x2
    1618:	1e 00 78    	mov.w     [w14], w0
    161a:	21 40 98    	mov.b     w1, [w0+2]
    __lcd_i2c_write(self, self->io_write_val);
    161c:	1e 00 78    	mov.w     [w14], w0
    161e:	20 40 90    	mov.b     [w0+2], w0
    1620:	80 40 78    	mov.b     w0, w1
    1622:	1e 00 78    	mov.w     [w14], w0
    1624:	d7 ff 07    	rcall     0x15d4 <___lcd_i2c_write> <.L0> <.LFB0> <.Ltext0>
    // delay_by_nop(1000);
}
    1626:	00 80 fa    	ulnk      
    1628:	00 00 06    	return    

0000162a <___lcd_send>:

/* Send 8 bits of data as one 4-bit nibble, shifting in, second 4-bit nibble, and
shifting in */
void __lcd_send(_LCD *self, uint8_t value, uint8_t command) {
    162a:	06 00 fa    	lnk       #0x6
    162c:	10 07 98    	mov.w     w0, [w14+2]
    162e:	41 47 98    	mov.b     w1, [w14+4]
    1630:	52 47 98    	mov.b     w2, [w14+5]
    uint8_t MS = value & 0x78;
    1632:	4e 40 90    	mov.b     [w14+4], w0
    1634:	81 c7 b3    	mov.b     #0x78, w1
    1636:	01 4f 60    	and.b     w0, w1, [w14]
    uint8_t LS = value << 4;
    1638:	ce 40 90    	mov.b     [w14+4], w1
    163a:	40 00 20    	mov.w     #0x4, w0
    163c:	00 08 dd    	sl.w      w1, w0, w0
    163e:	10 47 98    	mov.b     w0, [w14+1]
    self->io_write_val = command | MS;
    1640:	5e 40 90    	mov.b     [w14+5], w0
    1642:	9e 40 70    	ior.b     w0, [w14], w1
    1644:	1e 00 90    	mov.w     [w14+2], w0
    1646:	21 40 98    	mov.b     w1, [w0+2]
    __lcd_i2c_write(self, self->io_write_val);
    1648:	1e 00 90    	mov.w     [w14+2], w0
    164a:	20 40 90    	mov.b     [w0+2], w0
    164c:	80 40 78    	mov.b     w0, w1
    164e:	1e 00 90    	mov.w     [w14+2], w0
    1650:	c1 ff 07    	rcall     0x15d4 <___lcd_i2c_write> <.L0> <.LFB0> <.Ltext0>
    __lcd_enablePulse(self);
    1652:	1e 00 90    	mov.w     [w14+2], w0
    1654:	cd ff 07    	rcall     0x15f0 <___lcd_enablePulse> <.LFB1> <.LFE0>
    self->io_write_val= command | LS;
    1656:	de 40 90    	mov.b     [w14+5], w1
    1658:	1e 40 90    	mov.b     [w14+1], w0
    165a:	80 c0 70    	ior.b     w1, w0, w1
    165c:	1e 00 90    	mov.w     [w14+2], w0
    165e:	21 40 98    	mov.b     w1, [w0+2]
    __lcd_i2c_write(self, self->io_write_val);
    1660:	1e 00 90    	mov.w     [w14+2], w0
    1662:	20 40 90    	mov.b     [w0+2], w0
    1664:	80 40 78    	mov.b     w0, w1
    1666:	1e 00 90    	mov.w     [w14+2], w0
    1668:	b5 ff 07    	rcall     0x15d4 <___lcd_i2c_write> <.L0> <.LFB0> <.Ltext0>
    __lcd_enablePulse(self);
    166a:	1e 00 90    	mov.w     [w14+2], w0
    166c:	c1 ff 07    	rcall     0x15f0 <___lcd_enablePulse> <.LFB1> <.LFE0>
}
    166e:	00 80 fa    	ulnk      
    1670:	00 00 06    	return    

00001672 <___lcd_send8>:

void __lcd_send8(_LCD *self, uint8_t value, uint8_t command) {
    1672:	04 00 fa    	lnk       #0x4
    1674:	00 0f 78    	mov.w     w0, [w14]
    1676:	21 47 98    	mov.b     w1, [w14+2]
    1678:	32 47 98    	mov.b     w2, [w14+3]
    value = value << 4;
    167a:	ae 40 90    	mov.b     [w14+2], w1
    167c:	40 00 20    	mov.w     #0x4, w0
    167e:	00 08 dd    	sl.w      w1, w0, w0
    1680:	20 47 98    	mov.b     w0, [w14+2]
    self->io_write_val = command | value;
    1682:	be 40 90    	mov.b     [w14+3], w1
    1684:	2e 40 90    	mov.b     [w14+2], w0
    1686:	80 c0 70    	ior.b     w1, w0, w1
    1688:	1e 00 78    	mov.w     [w14], w0
    168a:	21 40 98    	mov.b     w1, [w0+2]
    __lcd_i2c_write(self, self->io_write_val);
    168c:	1e 00 78    	mov.w     [w14], w0
    168e:	20 40 90    	mov.b     [w0+2], w0
    1690:	80 40 78    	mov.b     w0, w1
    1692:	1e 00 78    	mov.w     [w14], w0
    1694:	9f ff 07    	rcall     0x15d4 <___lcd_i2c_write> <.L0> <.LFB0> <.Ltext0>
    __lcd_enablePulse(self);
    1696:	1e 00 78    	mov.w     [w14], w0
    1698:	ab ff 07    	rcall     0x15f0 <___lcd_enablePulse> <.LFB1> <.LFE0>
}
    169a:	00 80 fa    	ulnk      
    169c:	00 00 06    	return    

0000169e <_init_lcd>:

/* Some code from last year's Spaceteam project that sets up three LCD screens on
 one bus with corresponding IO extender types and hard-wired addresses */
void init_lcd(uint8_t initiator) {
    169e:	02 00 fa    	lnk       #0x2
    16a0:	00 4f 78    	mov.b     w0, [w14]

    i2c_init(1e3);
    16a2:	80 3e 20    	mov.w     #0x3e8, w0
    16a4:	64 04 07    	rcall     0x1f6e <_i2c_init> <.LFB1> <.LFE0>

    switch (initiator) {
    16a6:	1e 80 fb    	ze        [w14], w0
    16a8:	e1 0f 50    	sub.w     w0, #0x1, [w15]
    16aa:	17 00 32    	bra       Z, 0x16da <.L8>
    16ac:	e1 0f 50    	sub.w     w0, #0x1, [w15]
    16ae:	03 00 3c    	bra       GT, 0x16b6 <.L11>
    16b0:	00 00 e0    	cp0.w     w0
    16b2:	06 00 32    	bra       Z, 0x16c0 <.L7>
    16b4:	39 00 37    	bra       0x1728 <.L5>

000016b6 <.L11>:
    16b6:	e2 0f 50    	sub.w     w0, #0x2, [w15]
    16b8:	1d 00 32    	bra       Z, 0x16f4 <.L9>
    16ba:	e3 0f 50    	sub.w     w0, #0x3, [w15]
    16bc:	28 00 32    	bra       Z, 0x170e <.L10>
    16be:	34 00 37    	bra       0x1728 <.L5>

000016c0 <.L7>:
        case 0: // Central
            lcd_init(&lcd[0], 0x05,'A');
    16c0:	12 c4 b3    	mov.b     #0x41, w2
    16c2:	51 c0 b3    	mov.b     #0x5, w1
    16c4:	a0 82 20    	mov.w     #0x82a, w0
    16c6:	32 00 07    	rcall     0x172c <_lcd_init> <.LFB5> <.LFE4>
            lcd_init(&lcd[1], 0x07,'A');
    16c8:	12 c4 b3    	mov.b     #0x41, w2
    16ca:	71 c0 b3    	mov.b     #0x7, w1
    16cc:	f0 82 20    	mov.w     #0x82f, w0
    16ce:	2e 00 07    	rcall     0x172c <_lcd_init> <.LFB5> <.LFE4>
            lcd_init(&lcd[2], 0x06,'T');
    16d0:	42 c5 b3    	mov.b     #0x54, w2
    16d2:	61 c0 b3    	mov.b     #0x6, w1
    16d4:	40 83 20    	mov.w     #0x834, w0
    16d6:	2a 00 07    	rcall     0x172c <_lcd_init> <.LFB5> <.LFE4>
            break;
    16d8:	27 00 37    	bra       0x1728 <.L5>

000016da <.L8>:
        case 1:
            lcd_init(&lcd[0], 0x07,'A');
    16da:	12 c4 b3    	mov.b     #0x41, w2
    16dc:	71 c0 b3    	mov.b     #0x7, w1
    16de:	a0 82 20    	mov.w     #0x82a, w0
    16e0:	25 00 07    	rcall     0x172c <_lcd_init> <.LFB5> <.LFE4>
            lcd_init(&lcd[2], 0x06,'A');
    16e2:	12 c4 b3    	mov.b     #0x41, w2
    16e4:	61 c0 b3    	mov.b     #0x6, w1
    16e6:	40 83 20    	mov.w     #0x834, w0
    16e8:	21 00 07    	rcall     0x172c <_lcd_init> <.LFB5> <.LFE4>
            lcd_init(&lcd[1], 0x05,'A');
    16ea:	12 c4 b3    	mov.b     #0x41, w2
    16ec:	51 c0 b3    	mov.b     #0x5, w1
    16ee:	f0 82 20    	mov.w     #0x82f, w0
    16f0:	1d 00 07    	rcall     0x172c <_lcd_init> <.LFB5> <.LFE4>
            break;
    16f2:	1a 00 37    	bra       0x1728 <.L5>

000016f4 <.L9>:
        case 2:
            lcd_init(&lcd[0], 0x07,'T');
    16f4:	42 c5 b3    	mov.b     #0x54, w2
    16f6:	71 c0 b3    	mov.b     #0x7, w1
    16f8:	a0 82 20    	mov.w     #0x82a, w0
    16fa:	18 00 07    	rcall     0x172c <_lcd_init> <.LFB5> <.LFE4>
            lcd_init(&lcd[1], 0x06,'A');
    16fc:	12 c4 b3    	mov.b     #0x41, w2
    16fe:	61 c0 b3    	mov.b     #0x6, w1
    1700:	f0 82 20    	mov.w     #0x82f, w0
    1702:	14 00 07    	rcall     0x172c <_lcd_init> <.LFB5> <.LFE4>
            lcd_init(&lcd[2], 0x05,'A');
    1704:	12 c4 b3    	mov.b     #0x41, w2
    1706:	51 c0 b3    	mov.b     #0x5, w1
    1708:	40 83 20    	mov.w     #0x834, w0
    170a:	10 00 07    	rcall     0x172c <_lcd_init> <.LFB5> <.LFE4>
            break;
    170c:	0d 00 37    	bra       0x1728 <.L5>

0000170e <.L10>:
        case 3:
            lcd_init(&lcd[0], 0x07,'A');
    170e:	12 c4 b3    	mov.b     #0x41, w2
    1710:	71 c0 b3    	mov.b     #0x7, w1
    1712:	a0 82 20    	mov.w     #0x82a, w0
    1714:	0b 00 07    	rcall     0x172c <_lcd_init> <.LFB5> <.LFE4>
            lcd_init(&lcd[1], 0x06,'A');
    1716:	12 c4 b3    	mov.b     #0x41, w2
    1718:	61 c0 b3    	mov.b     #0x6, w1
    171a:	f0 82 20    	mov.w     #0x82f, w0
    171c:	07 00 07    	rcall     0x172c <_lcd_init> <.LFB5> <.LFE4>
            lcd_init(&lcd[2], 0x05,'A');
    171e:	12 c4 b3    	mov.b     #0x41, w2
    1720:	51 c0 b3    	mov.b     #0x5, w1
    1722:	40 83 20    	mov.w     #0x834, w0
    1724:	03 00 07    	rcall     0x172c <_lcd_init> <.LFB5> <.LFE4>
            break;
    1726:	00 00 00    	nop       

00001728 <.L5>:
    }
}
    1728:	00 80 fa    	ulnk      
    172a:	00 00 06    	return    

0000172c <_lcd_init>:

// Initializes the LCD screen hardware as per pg. 46 of the datasheet
void lcd_init(_LCD *self, uint8_t addr, char vendor) {
    172c:	04 00 fa    	lnk       #0x4
    172e:	00 0f 78    	mov.w     w0, [w14]
    1730:	21 47 98    	mov.b     w1, [w14+2]
    1732:	32 47 98    	mov.b     w2, [w14+3]
    switch(vendor){
    1734:	3e 40 90    	mov.b     [w14+3], w0
    1736:	00 00 fb    	se        w0, w0
    1738:	11 04 20    	mov.w     #0x41, w1
    173a:	81 0f 50    	sub.w     w0, w1, [w15]
    173c:	10 00 32    	bra       Z, 0x175e <.L14>
    173e:	41 05 20    	mov.w     #0x54, w1
    1740:	81 0f 50    	sub.w     w0, w1, [w15]
    1742:	1a 00 3a    	bra       NZ, 0x1778 <.L13>
        case 'T':// 0x40 == vendor prefix for PCF8574T
            self->addr_write = 0x40 + (addr << 1);
    1744:	2e 40 90    	mov.b     [w14+2], w0
    1746:	00 40 40    	add.b     w0, w0, w0
    1748:	02 c4 b3    	mov.b     #0x40, w2
    174a:	82 40 40    	add.b     w0, w2, w1
    174c:	1e 00 78    	mov.w     [w14], w0
    174e:	01 48 78    	mov.b     w1, [w0]
            self->addr_read = 0x40 + (addr << 1)+1;
    1750:	2e 40 90    	mov.b     [w14+2], w0
    1752:	00 40 40    	add.b     w0, w0, w0
    1754:	12 c4 b3    	mov.b     #0x41, w2
    1756:	82 40 40    	add.b     w0, w2, w1
    1758:	1e 00 78    	mov.w     [w14], w0
    175a:	11 40 98    	mov.b     w1, [w0+1]
            break;
    175c:	0d 00 37    	bra       0x1778 <.L13>

0000175e <.L14>:
        case 'A':// 0x70 == vendor prefix PCF8574AT
            self->addr_write = 0x70 + (addr << 1);
    175e:	2e 40 90    	mov.b     [w14+2], w0
    1760:	00 40 40    	add.b     w0, w0, w0
    1762:	02 c7 b3    	mov.b     #0x70, w2
    1764:	82 40 40    	add.b     w0, w2, w1
    1766:	1e 00 78    	mov.w     [w14], w0
    1768:	01 48 78    	mov.b     w1, [w0]
            self->addr_read = 0x70 + (addr << 1)+1;
    176a:	2e 40 90    	mov.b     [w14+2], w0
    176c:	00 40 40    	add.b     w0, w0, w0
    176e:	12 c7 b3    	mov.b     #0x71, w2
    1770:	82 40 40    	add.b     w0, w2, w1
    1772:	1e 00 78    	mov.w     [w14], w0
    1774:	11 40 98    	mov.b     w1, [w0+1]
            break;
    1776:	00 00 00    	nop       

00001778 <.L13>:
    }

    self->display_control = 0x00;
    1778:	1e 00 78    	mov.w     [w14], w0
    177a:	80 40 eb    	clr.b     w1
    177c:	31 40 98    	mov.b     w1, [w0+3]
    self->display_mode = 0x00;
    177e:	1e 00 78    	mov.w     [w14], w0
    1780:	80 40 eb    	clr.b     w1
    1782:	41 40 98    	mov.b     w1, [w0+4]

    self->io_write_val = 0x00;
    1784:	1e 00 78    	mov.w     [w14], w0
    1786:	80 40 eb    	clr.b     w1
    1788:	21 40 98    	mov.b     w1, [w0+2]

    __lcd_i2c_write(self, 0x00);
    178a:	80 40 eb    	clr.b     w1
    178c:	1e 00 78    	mov.w     [w14], w0
    178e:	22 ff 07    	rcall     0x15d4 <___lcd_i2c_write> <.L0> <.LFB0> <.Ltext0>

    delay_by_nop(15000);
    1790:	80 a9 23    	mov.w     #0x3a98, w0
    1792:	01 00 20    	mov.w     #0x0, w1
    1794:	d9 03 07    	rcall     0x1f48 <_delay_by_nop> <.L0> <.LFB0> <.LFE10> <.Letext0> <.Ltext0>

    // Some bullshit according to pg 46
    __lcd_send8(self, 0x03, INTERNAL_WRITE);
    1796:	82 c0 b3    	mov.b     #0x8, w2
    1798:	31 c0 b3    	mov.b     #0x3, w1
    179a:	1e 00 78    	mov.w     [w14], w0
    179c:	6a ff 07    	rcall     0x1672 <___lcd_send8> <.LFB3> <.LFE2>
    delay_by_nop(5000);
    179e:	80 38 21    	mov.w     #0x1388, w0
    17a0:	01 00 20    	mov.w     #0x0, w1
    17a2:	d2 03 07    	rcall     0x1f48 <_delay_by_nop> <.L0> <.LFB0> <.LFE10> <.Letext0> <.Ltext0>

    __lcd_send8(self, 0x03, INTERNAL_WRITE);//0b00110000
    17a4:	82 c0 b3    	mov.b     #0x8, w2
    17a6:	31 c0 b3    	mov.b     #0x3, w1
    17a8:	1e 00 78    	mov.w     [w14], w0
    17aa:	63 ff 07    	rcall     0x1672 <___lcd_send8> <.LFB3> <.LFE2>
    delay_by_nop(5000);
    17ac:	80 38 21    	mov.w     #0x1388, w0
    17ae:	01 00 20    	mov.w     #0x0, w1
    17b0:	cb 03 07    	rcall     0x1f48 <_delay_by_nop> <.L0> <.LFB0> <.LFE10> <.Letext0> <.Ltext0>

    __lcd_send8(self, 0x03, INTERNAL_WRITE);//0b00110000
    17b2:	82 c0 b3    	mov.b     #0x8, w2
    17b4:	31 c0 b3    	mov.b     #0x3, w1
    17b6:	1e 00 78    	mov.w     [w14], w0
    17b8:	5c ff 07    	rcall     0x1672 <___lcd_send8> <.LFB3> <.LFE2>
    delay_by_nop(5000);
    17ba:	80 38 21    	mov.w     #0x1388, w0
    17bc:	01 00 20    	mov.w     #0x0, w1
    17be:	c4 03 07    	rcall     0x1f48 <_delay_by_nop> <.L0> <.LFB0> <.LFE10> <.Letext0> <.Ltext0>

    // Put it in 4 bit mode
    __lcd_send8(self, 0x02, INTERNAL_WRITE);//0b00110000
    17c0:	82 c0 b3    	mov.b     #0x8, w2
    17c2:	21 c0 b3    	mov.b     #0x2, w1
    17c4:	1e 00 78    	mov.w     [w14], w0
    17c6:	55 ff 07    	rcall     0x1672 <___lcd_send8> <.LFB3> <.LFE2>
    delay_by_nop(5000);
    17c8:	80 38 21    	mov.w     #0x1388, w0
    17ca:	01 00 20    	mov.w     #0x0, w1
    17cc:	bd 03 07    	rcall     0x1f48 <_delay_by_nop> <.L0> <.LFB0> <.LFE10> <.Letext0> <.Ltext0>

    __lcd_send(self, 0x28, INTERNAL_WRITE); // Set rows and direction
    17ce:	82 c0 b3    	mov.b     #0x8, w2
    17d0:	81 c2 b3    	mov.b     #0x28, w1
    17d2:	1e 00 78    	mov.w     [w14], w0
    17d4:	2a ff 07    	rcall     0x162a <___lcd_send> <.LFB2> <.LFE1>
    delay_by_nop(50);
    17d6:	20 03 20    	mov.w     #0x32, w0
    17d8:	01 00 20    	mov.w     #0x0, w1
    17da:	b6 03 07    	rcall     0x1f48 <_delay_by_nop> <.L0> <.LFB0> <.LFE10> <.Letext0> <.Ltext0>

    __lcd_send(self, 0x80, INTERNAL_WRITE); // Display off, cursor off
    17dc:	82 c0 b3    	mov.b     #0x8, w2
    17de:	01 c8 b3    	mov.b     #0x80, w1
    17e0:	1e 00 78    	mov.w     [w14], w0
    17e2:	23 ff 07    	rcall     0x162a <___lcd_send> <.LFB2> <.LFE1>
    delay_by_nop(50);
    17e4:	20 03 20    	mov.w     #0x32, w0
    17e6:	01 00 20    	mov.w     #0x0, w1
    17e8:	af 03 07    	rcall     0x1f48 <_delay_by_nop> <.L0> <.LFB0> <.LFE10> <.Letext0> <.Ltext0>

    __lcd_send(self, 0x01, INTERNAL_WRITE); // Go to home position
    17ea:	82 c0 b3    	mov.b     #0x8, w2
    17ec:	11 c0 b3    	mov.b     #0x1, w1
    17ee:	1e 00 78    	mov.w     [w14], w0
    17f0:	1c ff 07    	rcall     0x162a <___lcd_send> <.LFB2> <.LFE1>
    delay_by_nop(2000);
    17f2:	00 7d 20    	mov.w     #0x7d0, w0
    17f4:	01 00 20    	mov.w     #0x0, w1
    17f6:	a8 03 07    	rcall     0x1f48 <_delay_by_nop> <.L0> <.LFB0> <.LFE10> <.Letext0> <.Ltext0>

    __lcd_send(self, 0x06, INTERNAL_WRITE); // Set curson direction
    17f8:	82 c0 b3    	mov.b     #0x8, w2
    17fa:	61 c0 b3    	mov.b     #0x6, w1
    17fc:	1e 00 78    	mov.w     [w14], w0
    17fe:	15 ff 07    	rcall     0x162a <___lcd_send> <.LFB2> <.LFE1>
    delay_by_nop(5000);
    1800:	80 38 21    	mov.w     #0x1388, w0
    1802:	01 00 20    	mov.w     #0x0, w1
    1804:	a1 03 07    	rcall     0x1f48 <_delay_by_nop> <.L0> <.LFB0> <.LFE10> <.Letext0> <.Ltext0>

    __lcd_send(self, 0x0C, INTERNAL_WRITE); // Display on, cursor off
    1806:	82 c0 b3    	mov.b     #0x8, w2
    1808:	c1 c0 b3    	mov.b     #0xc, w1
    180a:	1e 00 78    	mov.w     [w14], w0
    180c:	0e ff 07    	rcall     0x162a <___lcd_send> <.LFB2> <.LFE1>
}
    180e:	00 80 fa    	ulnk      
    1810:	00 00 06    	return    

00001812 <_lcd_stop>:

// Stops lcd I2C transfer
void lcd_stop(_LCD *self) {
    1812:	02 00 fa    	lnk       #0x2
    1814:	00 0f 78    	mov.w     w0, [w14]
    reset_i2c_bus();
    1816:	ec 03 07    	rcall     0x1ff0 <_reset_i2c_bus> <.LFB4> <.LFE3>
}
    1818:	00 80 fa    	ulnk      
    181a:	00 00 06    	return    

0000181c <_lcd_display>:

// Sends show display command to LCD
void lcd_display(_LCD *self, uint8_t on) {
    181c:	04 00 fa    	lnk       #0x4
    181e:	00 0f 78    	mov.w     w0, [w14]
    1820:	21 47 98    	mov.b     w1, [w14+2]
    if (on) {
    1822:	2e 40 90    	mov.b     [w14+2], w0
    1824:	00 04 e0    	cp0.b     w0
    1826:	07 00 32    	bra       Z, 0x1836 <.L18>
        self->display_control |= LCD_DISPLAYON;
    1828:	1e 00 78    	mov.w     [w14], w0
    182a:	30 40 90    	mov.b     [w0+3], w0
    182c:	80 40 78    	mov.b     w0, w1
    182e:	01 24 a0    	bset.b    w1, #0x2
    1830:	1e 00 78    	mov.w     [w14], w0
    1832:	31 40 98    	mov.b     w1, [w0+3]
    1834:	06 00 37    	bra       0x1842 <.L19>

00001836 <.L18>:
    } else {
        self->display_control &= ~LCD_DISPLAYON;
    1836:	1e 00 78    	mov.w     [w14], w0
    1838:	b0 40 90    	mov.b     [w0+3], w1
    183a:	b0 cf b3    	mov.b     #0xfb, w0
    183c:	80 c0 60    	and.b     w1, w0, w1
    183e:	1e 00 78    	mov.w     [w14], w0
    1840:	31 40 98    	mov.b     w1, [w0+3]

00001842 <.L19>:
    }
    __lcd_send(self, self->display_control | LCD_DISPLAYCONTROL, INTERNAL_WRITE);
    1842:	1e 00 78    	mov.w     [w14], w0
    1844:	30 40 90    	mov.b     [w0+3], w0
    1846:	00 34 a0    	bset.b    w0, #0x3
    1848:	82 c0 b3    	mov.b     #0x8, w2
    184a:	80 40 78    	mov.b     w0, w1
    184c:	1e 00 78    	mov.w     [w14], w0
    184e:	ed fe 07    	rcall     0x162a <___lcd_send> <.LFB2> <.LFE1>
}
    1850:	00 80 fa    	ulnk      
    1852:	00 00 06    	return    

00001854 <_lcd_clear>:

// Sends clear display command to LCD
void lcd_clear(_LCD *self) {
    1854:	02 00 fa    	lnk       #0x2
    1856:	00 0f 78    	mov.w     w0, [w14]
    __lcd_send(self, LCD_CLEARDISPLAY, INTERNAL_WRITE);
    1858:	82 c0 b3    	mov.b     #0x8, w2
    185a:	11 c0 b3    	mov.b     #0x1, w1
    185c:	1e 00 78    	mov.w     [w14], w0
    185e:	e5 fe 07    	rcall     0x162a <___lcd_send> <.LFB2> <.LFE1>
    delay_by_nop(2000);
    1860:	00 7d 20    	mov.w     #0x7d0, w0
    1862:	01 00 20    	mov.w     #0x0, w1
    1864:	71 03 07    	rcall     0x1f48 <_delay_by_nop> <.L0> <.LFB0> <.LFE10> <.Letext0> <.Ltext0>
}
    1866:	00 80 fa    	ulnk      
    1868:	00 00 06    	return    

0000186a <_lcd_putc>:

// Sends single character to LCD display
void lcd_putc(_LCD *self, char c) {
    186a:	04 00 fa    	lnk       #0x4
    186c:	00 0f 78    	mov.w     w0, [w14]
    186e:	21 47 98    	mov.b     w1, [w14+2]
    __lcd_send(self, c, DR_WRITE);
    1870:	2e 40 90    	mov.b     [w14+2], w0
    1872:	92 c0 b3    	mov.b     #0x9, w2
    1874:	80 40 78    	mov.b     w0, w1
    1876:	1e 00 78    	mov.w     [w14], w0
    1878:	d8 fe 07    	rcall     0x162a <___lcd_send> <.LFB2> <.LFE1>
    // delay_by_nop(1000);
}
    187a:	00 80 fa    	ulnk      
    187c:	00 00 06    	return    

0000187e <_lcd_goto>:

// Sends commands to move LCD cursor to specified location
void lcd_goto(_LCD *self, uint8_t line, uint8_t col) { //x=col, y=row
    187e:	06 00 fa    	lnk       #0x6
    1880:	10 07 98    	mov.w     w0, [w14+2]
    1882:	41 47 98    	mov.b     w1, [w14+4]
    1884:	52 47 98    	mov.b     w2, [w14+5]
    uint8_t address;
    switch(line) {
    1886:	4e 40 90    	mov.b     [w14+4], w0
    1888:	00 80 fb    	ze        w0, w0
    188a:	e1 0f 50    	sub.w     w0, #0x1, [w15]
    188c:	03 00 32    	bra       Z, 0x1894 <.L24>
    188e:	e2 0f 50    	sub.w     w0, #0x2, [w15]
    1890:	04 00 32    	bra       Z, 0x189a <.L25>
    1892:	06 00 37    	bra       0x18a0 <.L27>

00001894 <.L24>:
        case 1:
            address = 0x00;
    1894:	00 40 eb    	clr.b     w0
    1896:	00 4f 78    	mov.b     w0, [w14]
            break;
    1898:	06 00 37    	bra       0x18a6 <.L26>

0000189a <.L25>:
        case 2:
            address = 0x40;
    189a:	00 c4 b3    	mov.b     #0x40, w0
    189c:	00 4f 78    	mov.b     w0, [w14]
            break;
    189e:	03 00 37    	bra       0x18a6 <.L26>

000018a0 <.L27>:
        default:
            address = 0x00;
    18a0:	00 40 eb    	clr.b     w0
    18a2:	00 4f 78    	mov.b     w0, [w14]
            break;
    18a4:	00 00 00    	nop       

000018a6 <.L26>:
    }

    address = address+col;
    18a6:	5e 40 90    	mov.b     [w14+5], w0
    18a8:	1e 4f 40    	add.b     w0, [w14], [w14]
    __lcd_send(self, LCD_SETDDRAMADDR | address, INTERNAL_WRITE);
    18aa:	1e 40 78    	mov.b     [w14], w0
    18ac:	00 74 a0    	bset.b    w0, #0x7
    18ae:	82 c0 b3    	mov.b     #0x8, w2
    18b0:	80 40 78    	mov.b     w0, w1
    18b2:	1e 00 90    	mov.w     [w14+2], w0
    18b4:	ba fe 07    	rcall     0x162a <___lcd_send> <.LFB2> <.LFE1>
}
    18b6:	00 80 fa    	ulnk      
    18b8:	00 00 06    	return    

000018ba <_lcd_cursor>:


void lcd_cursor(_LCD *self, uint8_t cur) {
    18ba:	04 00 fa    	lnk       #0x4
    18bc:	00 0f 78    	mov.w     w0, [w14]
    18be:	21 47 98    	mov.b     w1, [w14+2]
    switch(cur) {
    18c0:	2e 40 90    	mov.b     [w14+2], w0
    18c2:	00 80 fb    	ze        w0, w0
    18c4:	00 00 e0    	cp0.w     w0
    18c6:	03 00 32    	bra       Z, 0x18ce <.L30>
    18c8:	e1 0f 50    	sub.w     w0, #0x1, [w15]
    18ca:	06 00 32    	bra       Z, 0x18d8 <.L31>
        case 0:
            __lcd_send(self, 0x0C, INTERNAL_WRITE);
            break;
        case 1:
            __lcd_send(self, 0x0E, INTERNAL_WRITE);
            break;
        default:
            break;
    18cc:	0a 00 37    	bra       0x18e2 <.L28>

000018ce <.L30>:
    18ce:	82 c0 b3    	mov.b     #0x8, w2
    18d0:	c1 c0 b3    	mov.b     #0xc, w1
    18d2:	1e 00 78    	mov.w     [w14], w0
    18d4:	aa fe 07    	rcall     0x162a <___lcd_send> <.LFB2> <.LFE1>
    18d6:	05 00 37    	bra       0x18e2 <.L28>

000018d8 <.L31>:
    18d8:	82 c0 b3    	mov.b     #0x8, w2
    18da:	e1 c0 b3    	mov.b     #0xe, w1
    18dc:	1e 00 78    	mov.w     [w14], w0
    18de:	a5 fe 07    	rcall     0x162a <___lcd_send> <.LFB2> <.LFE1>
    18e0:	00 00 00    	nop       

000018e2 <.L28>:
    }
}
    18e2:	00 80 fa    	ulnk      
    18e4:	00 00 06    	return    

000018e6 <_lcd_print1>:

void lcd_print1(_LCD *self, char *str) {
    18e6:	04 00 fa    	lnk       #0x4
    18e8:	00 0f 78    	mov.w     w0, [w14]
    18ea:	11 07 98    	mov.w     w1, [w14+2]
    lcd_clear(self);
    18ec:	1e 00 78    	mov.w     [w14], w0
    18ee:	b2 ff 07    	rcall     0x1854 <_lcd_clear> <.LFB8> <.LFE7>
    while (*str) {
    18f0:	08 00 37    	bra       0x1902 <.L34>

000018f2 <.L35>:
        lcd_putc(self, *str);
    18f2:	1e 00 90    	mov.w     [w14+2], w0
    18f4:	10 40 78    	mov.b     [w0], w0
    18f6:	80 40 78    	mov.b     w0, w1
    18f8:	1e 00 78    	mov.w     [w14], w0
    18fa:	b7 ff 07    	rcall     0x186a <_lcd_putc> <.LFB9> <.LFE8>
        str++;
    18fc:	1e 00 90    	mov.w     [w14+2], w0
    18fe:	00 00 e8    	inc.w     w0, w0
    1900:	10 07 98    	mov.w     w0, [w14+2]

00001902 <.L34>:
    1902:	1e 00 90    	mov.w     [w14+2], w0
    1904:	10 40 78    	mov.b     [w0], w0
    1906:	00 04 e0    	cp0.b     w0
    1908:	f4 ff 3a    	bra       NZ, 0x18f2 <.L35>
    }
}
    190a:	00 80 fa    	ulnk      
    190c:	00 00 06    	return    

0000190e <_lcd_print2>:

void lcd_print2(_LCD *self, char* line1, char* line2){
    190e:	42 00 fa    	lnk       #0x42
    1910:	60 1f 98    	mov.w     w0, [w14+60]
    1912:	71 1f 98    	mov.w     w1, [w14+62]
    1914:	02 27 98    	mov.w     w2, [w14+64]
    lcd_clear(self);
    1916:	6e 18 90    	mov.w     [w14+60], w0
    1918:	9d ff 07    	rcall     0x1854 <_lcd_clear> <.LFB8> <.LFE7>
    char str[56] ="                                                        ";
    191a:	20 54 29    	mov.w     #0x9542, w0
    191c:	e4 00 47    	add.w     w14, #0x4, w1
    191e:	37 00 09    	repeat    #0x37
    1920:	b0 58 78    	mov.b     [w0++], [w1++]
    1922:	80 03 b1    	sub.w     #0x38, w0
    int i =0;
    1924:	00 00 eb    	clr.w     w0
    1926:	00 0f 78    	mov.w     w0, [w14]
    while (*line1){
    1928:	09 00 37    	bra       0x193c <.L37>

0000192a <.L38>:
        str[i]=*line1;
    192a:	7e 18 90    	mov.w     [w14+62], w0
    192c:	90 40 78    	mov.b     [w0], w1
    192e:	64 00 47    	add.w     w14, #0x4, w0
    1930:	1e 00 40    	add.w     w0, [w14], w0
    1932:	01 48 78    	mov.b     w1, [w0]
        i=i+1;
    1934:	1e 0f e8    	inc.w     [w14], [w14]
        line1++;
    1936:	7e 18 90    	mov.w     [w14+62], w0
    1938:	00 00 e8    	inc.w     w0, w0
    193a:	70 1f 98    	mov.w     w0, [w14+62]

0000193c <.L37>:
    193c:	7e 18 90    	mov.w     [w14+62], w0
    193e:	10 40 78    	mov.b     [w0], w0
    1940:	00 04 e0    	cp0.b     w0
    1942:	f3 ff 3a    	bra       NZ, 0x192a <.L38>
    }
    i =40;
    1944:	80 02 20    	mov.w     #0x28, w0
    1946:	00 0f 78    	mov.w     w0, [w14]
    while (*line2){
    1948:	09 00 37    	bra       0x195c <.L39>

0000194a <.L40>:
        str[i]=*line2;
    194a:	0e 20 90    	mov.w     [w14+64], w0
    194c:	90 40 78    	mov.b     [w0], w1
    194e:	64 00 47    	add.w     w14, #0x4, w0
    1950:	1e 00 40    	add.w     w0, [w14], w0
    1952:	01 48 78    	mov.b     w1, [w0]
        i=i+1;
    1954:	1e 0f e8    	inc.w     [w14], [w14]
        line2++;
    1956:	0e 20 90    	mov.w     [w14+64], w0
    1958:	00 00 e8    	inc.w     w0, w0
    195a:	00 27 98    	mov.w     w0, [w14+64]

0000195c <.L39>:
    195c:	0e 20 90    	mov.w     [w14+64], w0
    195e:	10 40 78    	mov.b     [w0], w0
    1960:	00 04 e0    	cp0.b     w0
    1962:	f3 ff 3a    	bra       NZ, 0x194a <.L40>
    }
    char* strptr=str;
    1964:	64 00 47    	add.w     w14, #0x4, w0
    1966:	10 07 98    	mov.w     w0, [w14+2]
    lcd_print1(self,strptr);
    1968:	9e 00 90    	mov.w     [w14+2], w1
    196a:	6e 18 90    	mov.w     [w14+60], w0
    196c:	bc ff 07    	rcall     0x18e6 <_lcd_print1> <.LFB12> <.LFE11>
}
    196e:	00 80 fa    	ulnk      
    1970:	00 00 06    	return    

00001972 <_lcd_print>:

void lcd_print(_LCD *self, char* message) {
    1972:	30 00 fa    	lnk       #0x30
    1974:	60 17 98    	mov.w     w0, [w14+44]
    1976:	71 17 98    	mov.w     w1, [w14+46]
    char newstr1[17] = "                ";
    1978:	b0 57 29    	mov.w     #0x957b, w0
    197a:	ea 00 47    	add.w     w14, #0xa, w1
    197c:	10 00 09    	repeat    #0x10
    197e:	b0 58 78    	mov.b     [w0++], [w1++]
    1980:	10 01 b1    	sub.w     #0x11, w0
    char* newstrptr1= newstr1;
    1982:	6a 0f 47    	add.w     w14, #0xa, [w14]
    char newstr2[17] = "                ";
    1984:	b0 57 29    	mov.w     #0x957b, w0
    1986:	fb 00 47    	add.w     w14, #0x1b, w1
    1988:	10 00 09    	repeat    #0x10
    198a:	b0 58 78    	mov.b     [w0++], [w1++]
    198c:	10 01 b1    	sub.w     #0x11, w0
    char* newstrptr2= newstr2;
    198e:	7b 00 47    	add.w     w14, #0x1b, w0
    1990:	10 07 98    	mov.w     w0, [w14+2]
    char* temp1 = newstrptr1;
    1992:	9e 00 78    	mov.w     [w14], w1
    1994:	31 07 98    	mov.w     w1, [w14+6]
    char* temp2 = newstrptr2;
    1996:	9e 00 90    	mov.w     [w14+2], w1
    1998:	41 07 98    	mov.w     w1, [w14+8]
    uint8_t i=0;
    199a:	00 40 eb    	clr.b     w0
    199c:	40 47 98    	mov.b     w0, [w14+4]
    while (i <17){
    199e:	0f 00 37    	bra       0x19be <.L42>

000019a0 <.L44>:
        if (*message){
    19a0:	7e 10 90    	mov.w     [w14+46], w0
    19a2:	10 40 78    	mov.b     [w0], w0
    19a4:	00 04 e0    	cp0.b     w0
    19a6:	08 00 32    	bra       Z, 0x19b8 <.L43>
            *newstrptr1=*message;
    19a8:	7e 10 90    	mov.w     [w14+46], w0
    19aa:	90 40 78    	mov.b     [w0], w1
    19ac:	1e 00 78    	mov.w     [w14], w0
    19ae:	01 48 78    	mov.b     w1, [w0]
            message++;
    19b0:	7e 10 90    	mov.w     [w14+46], w0
    19b2:	00 00 e8    	inc.w     w0, w0
    19b4:	70 17 98    	mov.w     w0, [w14+46]
            newstrptr1++;
    19b6:	1e 0f e8    	inc.w     [w14], [w14]

000019b8 <.L43>:
        }
        i++;
    19b8:	4e 40 90    	mov.b     [w14+4], w0
    19ba:	00 40 e8    	inc.b     w0, w0
    19bc:	40 47 98    	mov.b     w0, [w14+4]

000019be <.L42>:
    19be:	4e 40 90    	mov.b     [w14+4], w0
    19c0:	f0 4f 50    	sub.b     w0, #0x10, [w15]
    19c2:	ee ff 36    	bra       LEU, 0x19a0 <.L44>
    }
    i=0;
    19c4:	00 40 eb    	clr.b     w0
    19c6:	40 47 98    	mov.b     w0, [w14+4]
    message--; //SKETCHY!
    19c8:	7e 10 90    	mov.w     [w14+46], w0
    19ca:	00 00 e9    	dec.w     w0, w0
    19cc:	70 17 98    	mov.w     w0, [w14+46]
    while (i <17){
    19ce:	11 00 37    	bra       0x19f2 <.L45>

000019d0 <.L47>:
        if (*message){
    19d0:	7e 10 90    	mov.w     [w14+46], w0
    19d2:	10 40 78    	mov.b     [w0], w0
    19d4:	00 04 e0    	cp0.b     w0
    19d6:	0a 00 32    	bra       Z, 0x19ec <.L46>
            *newstrptr2=*message;
    19d8:	7e 10 90    	mov.w     [w14+46], w0
    19da:	90 40 78    	mov.b     [w0], w1
    19dc:	1e 00 90    	mov.w     [w14+2], w0
    19de:	01 48 78    	mov.b     w1, [w0]
            message++;
    19e0:	7e 10 90    	mov.w     [w14+46], w0
    19e2:	00 00 e8    	inc.w     w0, w0
    19e4:	70 17 98    	mov.w     w0, [w14+46]
            newstrptr2++;
    19e6:	1e 00 90    	mov.w     [w14+2], w0
    19e8:	00 00 e8    	inc.w     w0, w0
    19ea:	10 07 98    	mov.w     w0, [w14+2]

000019ec <.L46>:
        }
        i++;
    19ec:	4e 40 90    	mov.b     [w14+4], w0
    19ee:	00 40 e8    	inc.b     w0, w0
    19f0:	40 47 98    	mov.b     w0, [w14+4]

000019f2 <.L45>:
    19f2:	4e 40 90    	mov.b     [w14+4], w0
    19f4:	f0 4f 50    	sub.b     w0, #0x10, [w15]
    19f6:	ec ff 36    	bra       LEU, 0x19d0 <.L47>
    }
    lcd_print2(self, temp1, temp2);
    19f8:	4e 01 90    	mov.w     [w14+8], w2
    19fa:	be 00 90    	mov.w     [w14+6], w1
    19fc:	6e 10 90    	mov.w     [w14+44], w0
    19fe:	87 ff 07    	rcall     0x190e <_lcd_print2> <.LFB13> <.LFE12>
}
    1a00:	00 80 fa    	ulnk      
    1a02:	00 00 06    	return    

00001a04 <_lcd_broadcast>:

void lcd_broadcast(char* message) {
    1a04:	04 00 fa    	lnk       #0x4
    1a06:	10 07 98    	mov.w     w0, [w14+2]
    uint8_t i;
    for (i = 0; i < 3; i++)
    1a08:	00 40 eb    	clr.b     w0
    1a0a:	00 4f 78    	mov.b     w0, [w14]
    1a0c:	08 00 37    	bra       0x1a1e <.L49>

00001a0e <.L50>:
        lcd_print(&lcd[i], message);
    1a0e:	1e 80 fb    	ze        [w14], w0
    1a10:	65 00 b9    	mul.su    w0, #0x5, w0
    1a12:	80 00 78    	mov.w     w0, w1
    1a14:	a0 82 20    	mov.w     #0x82a, w0
    1a16:	00 80 40    	add.w     w1, w0, w0
    1a18:	9e 00 90    	mov.w     [w14+2], w1
    1a1a:	ab ff 07    	rcall     0x1972 <_lcd_print> <.LFB14> <.LFE13>
    1a1c:	1e 4f e8    	inc.b     [w14], [w14]

00001a1e <.L49>:
    1a1e:	1e 40 78    	mov.b     [w14], w0
    1a20:	e2 4f 50    	sub.b     w0, #0x2, [w15]
    1a22:	f5 ff 36    	bra       LEU, 0x1a0e <.L50>
}
    1a24:	00 80 fa    	ulnk      
    1a26:	00 00 06    	return    

00001a28 <_itoa>:

char * itoa (int value, char *result, int base) {
    1a28:	0e 00 fa    	lnk       #0xe
    1a2a:	40 07 98    	mov.w     w0, [w14+8]
    1a2c:	51 07 98    	mov.w     w1, [w14+10]
    1a2e:	62 07 98    	mov.w     w2, [w14+12]
    // check that the base if valid
    if (base < 2 || base > 36) { *result = '\0'; return result; }
    1a30:	6e 00 90    	mov.w     [w14+12], w0
    1a32:	e1 0f 50    	sub.w     w0, #0x1, [w15]
    1a34:	04 00 34    	bra       LE, 0x1a3e <.L52>
    1a36:	ee 00 90    	mov.w     [w14+12], w1
    1a38:	40 02 20    	mov.w     #0x24, w0
    1a3a:	80 8f 50    	sub.w     w1, w0, [w15]
    1a3c:	05 00 34    	bra       LE, 0x1a48 <.L53>

00001a3e <.L52>:
    1a3e:	5e 00 90    	mov.w     [w14+10], w0
    1a40:	80 40 eb    	clr.b     w1
    1a42:	01 48 78    	mov.b     w1, [w0]
    1a44:	5e 00 90    	mov.w     [w14+10], w0
    1a46:	39 00 37    	bra       0x1aba <.L54>

00001a48 <.L53>:

    char* ptr = result, *ptr1 = result, tmp_char;
    1a48:	de 00 90    	mov.w     [w14+10], w1
    1a4a:	01 0f 78    	mov.w     w1, [w14]
    1a4c:	5e 01 90    	mov.w     [w14+10], w2
    1a4e:	12 07 98    	mov.w     w2, [w14+2]

00001a50 <.L55>:
    int tmp_value;

    do {
        tmp_value = value;
    1a50:	ce 00 90    	mov.w     [w14+8], w1
    1a52:	21 07 98    	mov.w     w1, [w14+4]
        value /= base;
    1a54:	ce 00 90    	mov.w     [w14+8], w1
    1a56:	6e 00 90    	mov.w     [w14+12], w0
    1a58:	00 01 78    	mov.w     w0, w2
    1a5a:	11 00 09    	repeat    #0x11
    1a5c:	82 00 d8    	div.sw    w1, w2
    1a5e:	40 07 98    	mov.w     w0, [w14+8]
        *ptr++ = "zyxwvutsrqponmlkjihgfedcba9876543210123456789abcdefghijklmnopqrstuvwxyz" [35 + (tmp_value - value * base)];
    1a60:	ce 00 90    	mov.w     [w14+8], w1
    1a62:	6e 00 90    	mov.w     [w14+12], w0
    1a64:	00 88 b9    	mul.ss    w1, w0, w0
    1a66:	00 00 78    	mov.w     w0, w0
    1a68:	ae 00 90    	mov.w     [w14+4], w1
    1a6a:	00 80 50    	sub.w     w1, w0, w0
    1a6c:	30 02 b0    	add.w     #0x23, w0
    1a6e:	c1 58 29    	mov.w     #0x958c, w1
    1a70:	e1 40 78    	mov.b     [w1+w0], w1
    1a72:	1e 00 78    	mov.w     [w14], w0
    1a74:	01 48 78    	mov.b     w1, [w0]
    1a76:	1e 0f e8    	inc.w     [w14], [w14]
    } while ( value );
    1a78:	4e 00 90    	mov.w     [w14+8], w0
    1a7a:	00 00 e0    	cp0.w     w0
    1a7c:	e9 ff 3a    	bra       NZ, 0x1a50 <.L55>

    // Apply negative sign
    if (tmp_value < 0) *ptr++ = '-';
    1a7e:	2e 00 90    	mov.w     [w14+4], w0
    1a80:	00 00 e0    	cp0.w     w0
    1a82:	04 00 3d    	bra       GE, 0x1a8c <.L56>
    1a84:	1e 00 78    	mov.w     [w14], w0
    1a86:	d1 c2 b3    	mov.b     #0x2d, w1
    1a88:	01 48 78    	mov.b     w1, [w0]
    1a8a:	1e 0f e8    	inc.w     [w14], [w14]

00001a8c <.L56>:
    *ptr-- = '\0';
    1a8c:	1e 00 78    	mov.w     [w14], w0
    1a8e:	80 40 eb    	clr.b     w1
    1a90:	01 48 78    	mov.b     w1, [w0]
    1a92:	1e 0f e9    	dec.w     [w14], [w14]
    while (ptr1 < ptr) {
    1a94:	0e 00 37    	bra       0x1ab2 <.L57>

00001a96 <.L58>:
        tmp_char = *ptr;
    1a96:	1e 00 78    	mov.w     [w14], w0
    1a98:	90 40 78    	mov.b     [w0], w1
    1a9a:	61 47 98    	mov.b     w1, [w14+6]
        *ptr--= *ptr1;
    1a9c:	1e 00 90    	mov.w     [w14+2], w0
    1a9e:	90 40 78    	mov.b     [w0], w1
    1aa0:	1e 00 78    	mov.w     [w14], w0
    1aa2:	01 48 78    	mov.b     w1, [w0]
    1aa4:	1e 0f e9    	dec.w     [w14], [w14]
        *ptr1++ = tmp_char;
    1aa6:	1e 00 90    	mov.w     [w14+2], w0
    1aa8:	6e 41 90    	mov.b     [w14+6], w2
    1aaa:	02 48 78    	mov.b     w2, [w0]
    1aac:	1e 00 90    	mov.w     [w14+2], w0
    1aae:	00 00 e8    	inc.w     w0, w0
    1ab0:	10 07 98    	mov.w     w0, [w14+2]

00001ab2 <.L57>:
    1ab2:	1e 00 90    	mov.w     [w14+2], w0
    1ab4:	9e 0f 50    	sub.w     w0, [w14], [w15]
    1ab6:	ef ff 39    	bra       NC, 0x1a96 <.L58>
    }
    return result;
    1ab8:	5e 00 90    	mov.w     [w14+10], w0

00001aba <.L54>:
}
    1aba:	00 80 fa    	ulnk      
    1abc:	00 00 06    	return    

00001abe <_main>:
    1abe:	60 00 fa    	lnk       #0x60
    1ac0:	88 1f 78    	mov.w     w8, [w15++]
    1ac2:	99 05 07    	rcall     0x25f6 <.LFE0> <_init_elecanisms> <.L0> <.LFB0> <.Ltext0>
    1ac4:	05 02 07    	rcall     0x1ed0 <_toggleSwitchSetup> <.LFB9> <.LFE8>
    1ac6:	80 3e 20    	mov.w     #0x3e8, w0
    1ac8:	52 02 07    	rcall     0x1f6e <_i2c_init> <.LFB1> <.LFE0>
    1aca:	12 c4 b3    	mov.b     #0x41, w2
    1acc:	61 c0 b3    	mov.b     #0x6, w1
    1ace:	a0 83 20    	mov.w     #0x83a, w0
    1ad0:	2d fe 07    	rcall     0x172c <_lcd_init> <.LFB5> <.LFE4>
    1ad2:	a0 83 20    	mov.w     #0x83a, w0
    1ad4:	bf fe 07    	rcall     0x1854 <_lcd_clear> <.LFB8> <.LFE7>
    1ad6:	d0 09 20    	mov.w     #0x9d, w0
    1ad8:	85 03 07    	rcall     0x21e4 <_i2c2_init> <.LFB13> <.LFE12>
    1ada:	80 00 20    	mov.w     #0x8, w0
    1adc:	d0 10 88    	mov.w     w0, 0x21a
    1ade:	1c 22 ef    	clr.w     0x21c
    1ae0:	9a 20 a8    	bset.b    0x9a, #0x1
    1ae2:	50 16 80    	mov.w     0x2ca, w0
    1ae4:	45 00 de    	lsr.w     w0, #0x5, w0
    1ae6:	61 40 60    	and.b     w0, #0x1, w0
    1ae8:	00 80 fb    	ze        w0, w0
    1aea:	b5 05 07    	rcall     0x2656 <_read_analog> <.LFB1> <.LFE0>
    1aec:	b0 40 88    	mov.w     w0, 0x816
    1aee:	00 40 eb    	clr.b     w0
    1af0:	00 4f 78    	mov.b     w0, [w14]
    1af2:	02 00 37    	bra       0x1af8 <.L2>

00001af4 <.L3>:
    1af4:	12 02 07    	rcall     0x1f1a <_rand_next> <.LFB10> <.LFE9>
    1af6:	1e 4f e8    	inc.b     [w14], [w14]

00001af8 <.L2>:
    1af8:	1e 84 fb    	ze        [w14], w8
    1afa:	50 16 80    	mov.w     0x2ca, w0
    1afc:	45 00 de    	lsr.w     w0, #0x5, w0
    1afe:	61 40 60    	and.b     w0, #0x1, w0
    1b00:	00 80 fb    	ze        w0, w0
    1b02:	a9 05 07    	rcall     0x2656 <_read_analog> <.LFB1> <.LFE0>
    1b04:	74 00 40    	add.w     w0, #0x14, w0
    1b06:	80 0f 54    	sub.w     w8, w0, [w15]
    1b08:	f5 ff 39    	bra       NC, 0x1af4 <.L3>
    1b0a:	00 40 eb    	clr.b     w0
    1b0c:	00 4f 78    	mov.b     w0, [w14]
    1b0e:	12 00 37    	bra       0x1b34 <.L4>

00001b10 <.L5>:
    1b10:	9e 81 fb    	ze        [w14], w3
    1b12:	b2 40 80    	mov.w     0x816, w2
    1b14:	90 88 28    	mov.w     #0x8889, w0
    1b16:	00 10 b8    	mul.uu    w2, w0, w0
    1b18:	43 08 de    	lsr.w     w1, #0x3, w0
    1b1a:	6f 00 b9    	mul.su    w0, #0xf, w0
    1b1c:	00 00 78    	mov.w     w0, w0
    1b1e:	00 00 51    	sub.w     w2, w0, w0
    1b20:	1e 81 fb    	ze        [w14], w2
    1b22:	41 02 20    	mov.w     #0x24, w1
    1b24:	01 80 b9    	mul.ss    w0, w1, w0
    1b26:	00 00 78    	mov.w     w0, w0
    1b28:	02 00 40    	add.w     w0, w2, w0
    1b2a:	c1 2f 29    	mov.w     #0x92fc, w1
    1b2c:	e1 40 78    	mov.b     [w1+w0], w1
    1b2e:	03 00 47    	add.w     w14, w3, w0
    1b30:	11 40 98    	mov.b     w1, [w0+1]
    1b32:	1e 4f e8    	inc.b     [w14], [w14]

00001b34 <.L4>:
    1b34:	30 c2 b3    	mov.b     #0x23, w0
    1b36:	9e 40 78    	mov.b     [w14], w1
    1b38:	80 cf 50    	sub.b     w1, w0, [w15]
    1b3a:	ea ff 36    	bra       LEU, 0x1b10 <.L5>
    1b3c:	0e 00 e8    	inc.w     w14, w0
    1b3e:	10 40 88    	mov.w     w0, 0x802
    1b40:	90 51 29    	mov.w     #0x9519, w0
    1b42:	90 40 78    	mov.b     [w0], w1
    1b44:	51 67 98    	mov.b     w1, [w14+37]
    1b46:	90 40 90    	mov.b     [w0+1], w1
    1b48:	61 67 98    	mov.b     w1, [w14+38]
    1b4a:	8e 00 78    	mov.w     w14, w1
    1b4c:	71 02 b0    	add.w     #0x27, w1
    1b4e:	04 00 09    	repeat    #0x4
    1b50:	80 58 eb    	clr.b     [w1++]
    1b52:	00 40 eb    	clr.b     w0
    1b54:	00 4f 78    	mov.b     w0, [w14]
    1b56:	08 00 37    	bra       0x1b68 <.L6>

00001b58 <.L7>:
    1b58:	1e 80 fb    	ze        [w14], w0
    1b5a:	12 40 80    	mov.w     0x802, w2
    1b5c:	9e 80 fb    	ze        [w14], w1
    1b5e:	81 00 41    	add.w     w2, w1, w1
    1b60:	91 40 78    	mov.b     [w1], w1
    1b62:	00 00 47    	add.w     w14, w0, w0
    1b64:	51 60 98    	mov.b     w1, [w0+37]
    1b66:	1e 4f e8    	inc.b     [w14], [w14]

00001b68 <.L6>:
    1b68:	1e 40 78    	mov.b     [w14], w0
    1b6a:	e4 4f 50    	sub.b     w0, #0x4, [w15]
    1b6c:	f5 ff 36    	bra       LEU, 0x1b58 <.L7>
    1b6e:	50 02 20    	mov.w     #0x25, w0
    1b70:	0e 00 40    	add.w     w0, w14, w0
    1b72:	70 40 88    	mov.w     w0, 0x80e
    1b74:	00 02 20    	mov.w     #0x20, w0
    1b76:	01 00 20    	mov.w     #0x0, w1
    1b78:	60 17 98    	mov.w     w0, [w14+44]
    1b7a:	71 17 98    	mov.w     w1, [w14+46]
    1b7c:	8e 00 78    	mov.w     w14, w1
    1b7e:	01 03 b0    	add.w     #0x30, w1
    1b80:	00 00 09    	repeat    #0x0
    1b82:	80 18 eb    	clr.w     [w1++]
    1b84:	80 58 eb    	clr.b     [w1++]
    1b86:	00 40 eb    	clr.b     w0
    1b88:	00 4f 78    	mov.b     w0, [w14]
    1b8a:	09 00 37    	bra       0x1b9e <.L8>

00001b8c <.L9>:
    1b8c:	1e 80 fb    	ze        [w14], w0
    1b8e:	12 40 80    	mov.w     0x802, w2
    1b90:	9e 80 fb    	ze        [w14], w1
    1b92:	e5 80 40    	add.w     w1, #0x5, w1
    1b94:	81 00 41    	add.w     w2, w1, w1
    1b96:	91 40 78    	mov.b     [w1], w1
    1b98:	00 00 47    	add.w     w14, w0, w0
    1b9a:	41 68 98    	mov.b     w1, [w0+44]
    1b9c:	1e 4f e8    	inc.b     [w14], [w14]

00001b9e <.L8>:
    1b9e:	1e 40 78    	mov.b     [w14], w0
    1ba0:	e5 4f 50    	sub.b     w0, #0x5, [w15]
    1ba2:	f4 ff 36    	bra       LEU, 0x1b8c <.L9>
    1ba4:	c0 02 20    	mov.w     #0x2c, w0
    1ba6:	0e 00 40    	add.w     w0, w14, w0
    1ba8:	20 40 88    	mov.w     w0, 0x804
    1baa:	90 51 29    	mov.w     #0x9519, w0
    1bac:	90 40 78    	mov.b     [w0], w1
    1bae:	31 77 98    	mov.b     w1, [w14+51]
    1bb0:	90 40 90    	mov.b     [w0+1], w1
    1bb2:	41 77 98    	mov.b     w1, [w14+52]
    1bb4:	8e 00 78    	mov.w     w14, w1
    1bb6:	51 03 b0    	add.w     #0x35, w1
    1bb8:	04 00 09    	repeat    #0x4
    1bba:	80 58 eb    	clr.b     [w1++]
    1bbc:	00 40 eb    	clr.b     w0
    1bbe:	00 4f 78    	mov.b     w0, [w14]
    1bc0:	09 00 37    	bra       0x1bd4 <.L10>

00001bc2 <.L11>:
    1bc2:	1e 80 fb    	ze        [w14], w0
    1bc4:	12 40 80    	mov.w     0x802, w2
    1bc6:	9e 80 fb    	ze        [w14], w1
    1bc8:	eb 80 40    	add.w     w1, #0xb, w1
    1bca:	81 00 41    	add.w     w2, w1, w1
    1bcc:	91 40 78    	mov.b     [w1], w1
    1bce:	00 00 47    	add.w     w14, w0, w0
    1bd0:	31 70 98    	mov.b     w1, [w0+51]
    1bd2:	1e 4f e8    	inc.b     [w14], [w14]

00001bd4 <.L10>:
    1bd4:	1e 40 78    	mov.b     [w14], w0
    1bd6:	e5 4f 50    	sub.b     w0, #0x5, [w15]
    1bd8:	f4 ff 36    	bra       LEU, 0x1bc2 <.L11>
    1bda:	30 03 20    	mov.w     #0x33, w0
    1bdc:	0e 00 40    	add.w     w0, w14, w0
    1bde:	30 40 88    	mov.w     w0, 0x806
    1be0:	00 02 20    	mov.w     #0x20, w0
    1be2:	01 00 20    	mov.w     #0x0, w1
    1be4:	50 1f 98    	mov.w     w0, [w14+58]
    1be6:	61 1f 98    	mov.w     w1, [w14+60]
    1be8:	8e 00 78    	mov.w     w14, w1
    1bea:	e1 03 b0    	add.w     #0x3e, w1
    1bec:	00 00 09    	repeat    #0x0
    1bee:	80 18 eb    	clr.w     [w1++]
    1bf0:	80 58 eb    	clr.b     [w1++]
    1bf2:	00 40 eb    	clr.b     w0
    1bf4:	00 4f 78    	mov.b     w0, [w14]
    1bf6:	09 00 37    	bra       0x1c0a <.L12>

00001bf8 <.L13>:
    1bf8:	1e 80 fb    	ze        [w14], w0
    1bfa:	12 40 80    	mov.w     0x802, w2
    1bfc:	9e 80 fb    	ze        [w14], w1
    1bfe:	f1 80 40    	add.w     w1, #0x11, w1
    1c00:	81 00 41    	add.w     w2, w1, w1
    1c02:	91 40 78    	mov.b     [w1], w1
    1c04:	00 00 47    	add.w     w14, w0, w0
    1c06:	21 78 98    	mov.b     w1, [w0+58]
    1c08:	1e 4f e8    	inc.b     [w14], [w14]

00001c0a <.L12>:
    1c0a:	1e 40 78    	mov.b     [w14], w0
    1c0c:	e5 4f 50    	sub.b     w0, #0x5, [w15]
    1c0e:	f4 ff 36    	bra       LEU, 0x1bf8 <.L13>
    1c10:	a0 03 20    	mov.w     #0x3a, w0
    1c12:	0e 00 40    	add.w     w0, w14, w0
    1c14:	40 40 88    	mov.w     w0, 0x808
    1c16:	90 51 29    	mov.w     #0x9519, w0
    1c18:	90 40 78    	mov.b     [w0], w1
    1c1a:	11 c7 98    	mov.b     w1, [w14+65]
    1c1c:	90 40 90    	mov.b     [w0+1], w1
    1c1e:	21 c7 98    	mov.b     w1, [w14+66]
    1c20:	8e 00 78    	mov.w     w14, w1
    1c22:	31 04 b0    	add.w     #0x43, w1
    1c24:	04 00 09    	repeat    #0x4
    1c26:	80 58 eb    	clr.b     [w1++]
    1c28:	00 40 eb    	clr.b     w0
    1c2a:	00 4f 78    	mov.b     w0, [w14]
    1c2c:	09 00 37    	bra       0x1c40 <.L14>

00001c2e <.L15>:
    1c2e:	1e 80 fb    	ze        [w14], w0
    1c30:	12 40 80    	mov.w     0x802, w2
    1c32:	9e 80 fb    	ze        [w14], w1
    1c34:	f7 80 40    	add.w     w1, #0x17, w1
    1c36:	81 00 41    	add.w     w2, w1, w1
    1c38:	91 40 78    	mov.b     [w1], w1
    1c3a:	00 00 47    	add.w     w14, w0, w0
    1c3c:	11 c0 98    	mov.b     w1, [w0+65]
    1c3e:	1e 4f e8    	inc.b     [w14], [w14]

00001c40 <.L14>:
    1c40:	1e 40 78    	mov.b     [w14], w0
    1c42:	e5 4f 50    	sub.b     w0, #0x5, [w15]
    1c44:	f4 ff 36    	bra       LEU, 0x1c2e <.L15>
    1c46:	10 04 20    	mov.w     #0x41, w0
    1c48:	0e 00 40    	add.w     w0, w14, w0
    1c4a:	50 40 88    	mov.w     w0, 0x80a
    1c4c:	00 02 20    	mov.w     #0x20, w0
    1c4e:	01 00 20    	mov.w     #0x0, w1
    1c50:	40 27 98    	mov.w     w0, [w14+72]
    1c52:	51 27 98    	mov.w     w1, [w14+74]
    1c54:	8e 00 78    	mov.w     w14, w1
    1c56:	c1 04 b0    	add.w     #0x4c, w1
    1c58:	00 00 09    	repeat    #0x0
    1c5a:	80 18 eb    	clr.w     [w1++]
    1c5c:	80 58 eb    	clr.b     [w1++]
    1c5e:	00 40 eb    	clr.b     w0
    1c60:	00 4f 78    	mov.b     w0, [w14]
    1c62:	09 00 37    	bra       0x1c76 <.L16>

00001c64 <.L17>:
    1c64:	1e 80 fb    	ze        [w14], w0
    1c66:	12 40 80    	mov.w     0x802, w2
    1c68:	9e 80 fb    	ze        [w14], w1
    1c6a:	fd 80 40    	add.w     w1, #0x1d, w1
    1c6c:	81 00 41    	add.w     w2, w1, w1
    1c6e:	91 40 78    	mov.b     [w1], w1
    1c70:	00 00 47    	add.w     w14, w0, w0
    1c72:	01 c8 98    	mov.b     w1, [w0+72]
    1c74:	1e 4f e8    	inc.b     [w14], [w14]

00001c76 <.L16>:
    1c76:	1e 40 78    	mov.b     [w14], w0
    1c78:	e5 4f 50    	sub.b     w0, #0x5, [w15]
    1c7a:	f4 ff 36    	bra       LEU, 0x1c64 <.L17>
    1c7c:	80 04 20    	mov.w     #0x48, w0
    1c7e:	0e 00 40    	add.w     w0, w14, w0
    1c80:	60 40 88    	mov.w     w0, 0x80c
    1c82:	b2 40 80    	mov.w     0x816, w2
    1c84:	d0 cc 2c    	mov.w     #0xcccd, w0
    1c86:	00 10 b8    	mul.uu    w2, w0, w0
    1c88:	42 08 de    	lsr.w     w1, #0x2, w0
    1c8a:	65 00 b9    	mul.su    w0, #0x5, w0
    1c8c:	00 00 78    	mov.w     w0, w0
    1c8e:	00 00 51    	sub.w     w2, w0, w0
    1c90:	00 40 78    	mov.b     w0, w0
    1c92:	10 e8 b7    	mov.b     WREG, 0x810
    1c94:	42 01 07    	rcall     0x1f1a <_rand_next> <.LFB10> <.LFE9>
    1c96:	b2 40 80    	mov.w     0x816, w2
    1c98:	d0 cc 2c    	mov.w     #0xcccd, w0
    1c9a:	00 10 b8    	mul.uu    w2, w0, w0
    1c9c:	42 08 de    	lsr.w     w1, #0x2, w0
    1c9e:	65 00 b9    	mul.su    w0, #0x5, w0
    1ca0:	00 00 78    	mov.w     w0, w0
    1ca2:	00 00 51    	sub.w     w2, w0, w0
    1ca4:	00 40 78    	mov.b     w0, w0
    1ca6:	11 e8 b7    	mov.b     WREG, 0x811
    1ca8:	38 01 07    	rcall     0x1f1a <_rand_next> <.LFB10> <.LFE9>
    1caa:	b2 40 80    	mov.w     0x816, w2
    1cac:	d0 cc 2c    	mov.w     #0xcccd, w0
    1cae:	00 10 b8    	mul.uu    w2, w0, w0
    1cb0:	42 08 de    	lsr.w     w1, #0x2, w0
    1cb2:	65 00 b9    	mul.su    w0, #0x5, w0
    1cb4:	00 00 78    	mov.w     w0, w0
    1cb6:	00 00 51    	sub.w     w2, w0, w0
    1cb8:	00 40 78    	mov.b     w0, w0
    1cba:	12 e8 b7    	mov.b     WREG, 0x812
    1cbc:	2e 01 07    	rcall     0x1f1a <_rand_next> <.LFB10> <.LFE9>
    1cbe:	b2 40 80    	mov.w     0x816, w2
    1cc0:	d0 cc 2c    	mov.w     #0xcccd, w0
    1cc2:	00 10 b8    	mul.uu    w2, w0, w0
    1cc4:	42 08 de    	lsr.w     w1, #0x2, w0
    1cc6:	65 00 b9    	mul.su    w0, #0x5, w0
    1cc8:	00 00 78    	mov.w     w0, w0
    1cca:	00 00 51    	sub.w     w2, w0, w0
    1ccc:	00 40 78    	mov.b     w0, w0
    1cce:	13 e8 b7    	mov.b     WREG, 0x813
    1cd0:	24 01 07    	rcall     0x1f1a <_rand_next> <.LFB10> <.LFE9>
    1cd2:	b2 40 80    	mov.w     0x816, w2
    1cd4:	d0 cc 2c    	mov.w     #0xcccd, w0
    1cd6:	00 10 b8    	mul.uu    w2, w0, w0
    1cd8:	42 08 de    	lsr.w     w1, #0x2, w0
    1cda:	65 00 b9    	mul.su    w0, #0x5, w0
    1cdc:	00 00 78    	mov.w     w0, w0
    1cde:	00 00 51    	sub.w     w2, w0, w0
    1ce0:	00 40 78    	mov.b     w0, w0
    1ce2:	14 e8 b7    	mov.b     WREG, 0x814
    1ce4:	00 52 29    	mov.w     #0x9520, w0
    1ce6:	f1 04 20    	mov.w     #0x4f, w1
    1ce8:	81 00 47    	add.w     w14, w1, w1
    1cea:	0f 00 09    	repeat    #0xf
    1cec:	b0 58 78    	mov.b     [w0++], [w1++]
    1cee:	00 01 b1    	sub.w     #0x10, w0
    1cf0:	00 40 eb    	clr.b     w0
    1cf2:	70 df 98    	mov.b     w0, [w14+95]
    1cf4:	f0 04 20    	mov.w     #0x4f, w0
    1cf6:	0e 00 40    	add.w     w0, w14, w0
    1cf8:	00 40 88    	mov.w     w0, 0x800
    1cfa:	00 40 80    	mov.w     0x800, w0
    1cfc:	82 51 29    	mov.w     #0x9518, w2
    1cfe:	80 00 78    	mov.w     w0, w1
    1d00:	a0 83 20    	mov.w     #0x83a, w0
    1d02:	05 fe 07    	rcall     0x190e <_lcd_print2> <.LFB13> <.LFE12>
    1d04:	00 02 20    	mov.w     #0x20, w0
    1d06:	80 08 88    	mov.w     w0, 0x110
    1d08:	00 71 22    	mov.w     #0x2710, w0
    1d0a:	60 08 88    	mov.w     w0, 0x10c
    1d0c:	06 21 ef    	clr.w     0x106
    1d0e:	84 e0 a9    	bclr.b    0x84, #0x7
    1d10:	94 e0 a8    	bset.b    0x94, #0x7
    1d12:	11 e1 a9    	bclr.b    0x111, #0x7
    1d14:	e0 d1 21    	mov.w     #0x1d1e, w0
    1d16:	c0 40 88    	mov.w     w0, 0x818

00001d18 <.L18>:
    1d18:	c0 40 80    	mov.w     0x818, w0
    1d1a:	00 00 01    	call      w0
    1d1c:	fd ff 37    	bra       0x1d18 <.L18>

00001d1e <_setup>:
    1d1e:	00 00 fa    	lnk       #0x0
    1d20:	c1 40 80    	mov.w     0x818, w1
    1d22:	d0 40 80    	mov.w     0x81a, w0
    1d24:	80 8f 50    	sub.w     w1, w0, [w15]
    1d26:	03 00 32    	bra       Z, 0x1d2e <.L20>
    1d28:	c0 40 80    	mov.w     0x818, w0
    1d2a:	d0 40 88    	mov.w     w0, 0x81a
    1d2c:	da 22 a8    	bset.b    0x2da, #0x1

00001d2e <.L20>:
    1d2e:	00 d4 21    	mov.w     #0x1d40, w0
    1d30:	c0 40 88    	mov.w     w0, 0x818
    1d32:	c1 40 80    	mov.w     0x818, w1
    1d34:	d0 40 80    	mov.w     0x81a, w0
    1d36:	80 8f 50    	sub.w     w1, w0, [w15]
    1d38:	01 00 32    	bra       Z, 0x1d3c <.L19>
    1d3a:	da 22 a9    	bclr.b    0x2da, #0x1

00001d3c <.L19>:
    1d3c:	00 80 fa    	ulnk      
    1d3e:	00 00 06    	return    

00001d40 <_run>:
    1d40:	00 00 fa    	lnk       #0x0
    1d42:	c1 40 80    	mov.w     0x818, w1
    1d44:	d0 40 80    	mov.w     0x81a, w0
    1d46:	80 8f 50    	sub.w     w1, w0, [w15]
    1d48:	03 00 32    	bra       Z, 0x1d50 <.L23>
    1d4a:	c0 40 80    	mov.w     0x818, w0
    1d4c:	d0 40 88    	mov.w     w0, 0x81a
    1d4e:	da 02 a8    	bset.b    0x2da, #0x0

00001d50 <.L23>:
    1d50:	8f 00 07    	rcall     0x1e70 <_updateDisplay> <.LFB8> <.LFE5>
    1d52:	21 40 80    	mov.w     0x804, w1
    1d54:	10 c8 bf    	mov.b     0x810, WREG
    1d56:	00 80 fb    	ze        w0, w0
    1d58:	00 80 40    	add.w     w1, w0, w0
    1d5a:	90 40 78    	mov.b     [w0], w1
    1d5c:	70 40 80    	mov.w     0x80e, w0
    1d5e:	10 40 78    	mov.b     [w0], w0
    1d60:	80 cf 50    	sub.b     w1, w0, [w15]
    1d62:	2b 00 3a    	bra       NZ, 0x1dba <.L24>
    1d64:	31 40 80    	mov.w     0x806, w1
    1d66:	11 c8 bf    	mov.b     0x811, WREG
    1d68:	00 80 fb    	ze        w0, w0
    1d6a:	00 80 40    	add.w     w1, w0, w0
    1d6c:	90 40 78    	mov.b     [w0], w1
    1d6e:	70 40 80    	mov.w     0x80e, w0
    1d70:	00 00 e8    	inc.w     w0, w0
    1d72:	10 40 78    	mov.b     [w0], w0
    1d74:	80 cf 50    	sub.b     w1, w0, [w15]
    1d76:	21 00 3a    	bra       NZ, 0x1dba <.L24>
    1d78:	41 40 80    	mov.w     0x808, w1
    1d7a:	12 c8 bf    	mov.b     0x812, WREG
    1d7c:	00 80 fb    	ze        w0, w0
    1d7e:	00 80 40    	add.w     w1, w0, w0
    1d80:	90 40 78    	mov.b     [w0], w1
    1d82:	70 40 80    	mov.w     0x80e, w0
    1d84:	00 80 e8    	inc2.w    w0, w0
    1d86:	10 40 78    	mov.b     [w0], w0
    1d88:	80 cf 50    	sub.b     w1, w0, [w15]
    1d8a:	17 00 3a    	bra       NZ, 0x1dba <.L24>
    1d8c:	51 40 80    	mov.w     0x80a, w1
    1d8e:	13 c8 bf    	mov.b     0x813, WREG
    1d90:	00 80 fb    	ze        w0, w0
    1d92:	00 80 40    	add.w     w1, w0, w0
    1d94:	90 40 78    	mov.b     [w0], w1
    1d96:	70 40 80    	mov.w     0x80e, w0
    1d98:	63 00 40    	add.w     w0, #0x3, w0
    1d9a:	10 40 78    	mov.b     [w0], w0
    1d9c:	80 cf 50    	sub.b     w1, w0, [w15]
    1d9e:	0d 00 3a    	bra       NZ, 0x1dba <.L24>
    1da0:	61 40 80    	mov.w     0x80c, w1
    1da2:	14 c8 bf    	mov.b     0x814, WREG
    1da4:	00 80 fb    	ze        w0, w0
    1da6:	00 80 40    	add.w     w1, w0, w0
    1da8:	90 40 78    	mov.b     [w0], w1
    1daa:	70 40 80    	mov.w     0x80e, w0
    1dac:	64 00 40    	add.w     w0, #0x4, w0
    1dae:	10 40 78    	mov.b     [w0], w0
    1db0:	80 cf 50    	sub.b     w1, w0, [w15]
    1db2:	03 00 3a    	bra       NZ, 0x1dba <.L24>
    1db4:	00 df 21    	mov.w     #0x1df0, w0
    1db6:	c0 40 88    	mov.w     w0, 0x818
    1db8:	06 00 37    	bra       0x1dc6 <.L25>

00001dba <.L24>:
    1dba:	ec 22 a9    	bclr.b    0x2ec, #0x1
    1dbc:	00 40 80    	mov.w     0x800, w0
    1dbe:	82 51 29    	mov.w     #0x9518, w2
    1dc0:	80 00 78    	mov.w     w0, w1
    1dc2:	a0 83 20    	mov.w     #0x83a, w0
    1dc4:	a4 fd 07    	rcall     0x190e <_lcd_print2> <.LFB13> <.LFE12>

00001dc6 <.L25>:
    1dc6:	00 53 27    	mov.w     #0x7530, w0
    1dc8:	01 00 20    	mov.w     #0x0, w1
    1dca:	be 00 07    	rcall     0x1f48 <_delay_by_nop> <.L0> <.LFB0> <.LFE10> <.Letext0> <.Ltext0>
    1dcc:	25 c8 bf    	mov.b     0x825, WREG
    1dce:	e1 4f 50    	sub.b     w0, #0x1, [w15]
    1dd0:	03 00 3a    	bra       NZ, 0x1dd8 <.L26>
    1dd2:	80 e3 21    	mov.w     #0x1e38, w0
    1dd4:	c0 40 88    	mov.w     w0, 0x818
    1dd6:	05 00 37    	bra       0x1de2 <.L27>

00001dd8 <.L26>:
    1dd8:	26 c8 bf    	mov.b     0x826, WREG
    1dda:	e1 4f 50    	sub.b     w0, #0x1, [w15]
    1ddc:	02 00 3a    	bra       NZ, 0x1de2 <.L27>
    1dde:	40 e5 21    	mov.w     #0x1e54, w0
    1de0:	c0 40 88    	mov.w     w0, 0x818

00001de2 <.L27>:
    1de2:	c1 40 80    	mov.w     0x818, w1
    1de4:	d0 40 80    	mov.w     0x81a, w0
    1de6:	80 8f 50    	sub.w     w1, w0, [w15]
    1de8:	01 00 32    	bra       Z, 0x1dec <.L22>
    1dea:	da 02 a9    	bclr.b    0x2da, #0x0

00001dec <.L22>:
    1dec:	00 80 fa    	ulnk      
    1dee:	00 00 06    	return    

00001df0 <_solved>:
    1df0:	00 00 fa    	lnk       #0x0
    1df2:	c1 40 80    	mov.w     0x818, w1
    1df4:	d0 40 80    	mov.w     0x81a, w0
    1df6:	80 8f 50    	sub.w     w1, w0, [w15]
    1df8:	04 00 32    	bra       Z, 0x1e02 <.L30>
    1dfa:	c0 40 80    	mov.w     0x818, w0
    1dfc:	d0 40 88    	mov.w     w0, 0x81a
    1dfe:	ec 22 a8    	bset.b    0x2ec, #0x1
    1e00:	da 22 a8    	bset.b    0x2da, #0x1

00001e02 <.L30>:
    1e02:	00 40 80    	mov.w     0x800, w0
    1e04:	12 53 29    	mov.w     #0x9531, w2
    1e06:	80 00 78    	mov.w     w0, w1
    1e08:	a0 83 20    	mov.w     #0x83a, w0
    1e0a:	81 fd 07    	rcall     0x190e <_lcd_print2> <.LFB13> <.LFE12>
    1e0c:	00 53 27    	mov.w     #0x7530, w0
    1e0e:	01 00 20    	mov.w     #0x0, w1
    1e10:	9b 00 07    	rcall     0x1f48 <_delay_by_nop> <.L0> <.LFB0> <.LFE10> <.Letext0> <.Ltext0>
    1e12:	25 c8 bf    	mov.b     0x825, WREG
    1e14:	e1 4f 50    	sub.b     w0, #0x1, [w15]
    1e16:	03 00 3a    	bra       NZ, 0x1e1e <.L31>
    1e18:	80 e3 21    	mov.w     #0x1e38, w0
    1e1a:	c0 40 88    	mov.w     w0, 0x818
    1e1c:	05 00 37    	bra       0x1e28 <.L32>

00001e1e <.L31>:
    1e1e:	26 c8 bf    	mov.b     0x826, WREG
    1e20:	e1 4f 50    	sub.b     w0, #0x1, [w15]
    1e22:	02 00 3a    	bra       NZ, 0x1e28 <.L32>
    1e24:	40 e5 21    	mov.w     #0x1e54, w0
    1e26:	c0 40 88    	mov.w     w0, 0x818

00001e28 <.L32>:
    1e28:	c1 40 80    	mov.w     0x818, w1
    1e2a:	d0 40 80    	mov.w     0x81a, w0
    1e2c:	80 8f 50    	sub.w     w1, w0, [w15]
    1e2e:	02 00 32    	bra       Z, 0x1e34 <.L29>
    1e30:	ec 22 a9    	bclr.b    0x2ec, #0x1
    1e32:	da 22 a9    	bclr.b    0x2da, #0x1

00001e34 <.L29>:
    1e34:	00 80 fa    	ulnk      
    1e36:	00 00 06    	return    

00001e38 <_end_win>:
    1e38:	00 00 fa    	lnk       #0x0
    1e3a:	c1 40 80    	mov.w     0x818, w1
    1e3c:	d0 40 80    	mov.w     0x81a, w0
    1e3e:	80 8f 50    	sub.w     w1, w0, [w15]
    1e40:	02 00 32    	bra       Z, 0x1e46 <.L35>
    1e42:	c0 40 80    	mov.w     0x818, w0
    1e44:	d0 40 88    	mov.w     w0, 0x81a

00001e46 <.L35>:
    1e46:	24 c8 bf    	mov.b     0x824, WREG
    1e48:	e1 4f 50    	sub.b     w0, #0x1, [w15]
    1e4a:	02 00 3a    	bra       NZ, 0x1e50 <.L36>
    1e4c:	00 d4 21    	mov.w     #0x1d40, w0
    1e4e:	c0 40 88    	mov.w     w0, 0x818

00001e50 <.L36>:
    1e50:	00 80 fa    	ulnk      
    1e52:	00 00 06    	return    

00001e54 <_end_fail>:
    1e54:	00 00 fa    	lnk       #0x0
    1e56:	c1 40 80    	mov.w     0x818, w1
    1e58:	d0 40 80    	mov.w     0x81a, w0
    1e5a:	80 8f 50    	sub.w     w1, w0, [w15]
    1e5c:	02 00 32    	bra       Z, 0x1e62 <.L38>
    1e5e:	c0 40 80    	mov.w     0x818, w0
    1e60:	d0 40 88    	mov.w     w0, 0x81a

00001e62 <.L38>:
    1e62:	24 c8 bf    	mov.b     0x824, WREG
    1e64:	e1 4f 50    	sub.b     w0, #0x1, [w15]
    1e66:	02 00 3a    	bra       NZ, 0x1e6c <.L39>
    1e68:	00 d4 21    	mov.w     #0x1d40, w0
    1e6a:	c0 40 88    	mov.w     w0, 0x818

00001e6c <.L39>:
    1e6c:	00 80 fa    	ulnk      
    1e6e:	00 00 06    	return    

00001e70 <_updateDisplay>:
    1e70:	00 00 fa    	lnk       #0x0
    1e72:	00 40 80    	mov.w     0x800, w0
    1e74:	00 00 e8    	inc.w     w0, w0
    1e76:	22 40 80    	mov.w     0x804, w2
    1e78:	01 81 20    	mov.w     #0x810, w1
    1e7a:	91 40 78    	mov.b     [w1], w1
    1e7c:	81 80 fb    	ze        w1, w1
    1e7e:	81 00 41    	add.w     w2, w1, w1
    1e80:	91 40 78    	mov.b     [w1], w1
    1e82:	01 48 78    	mov.b     w1, [w0]
    1e84:	00 40 80    	mov.w     0x800, w0
    1e86:	64 00 40    	add.w     w0, #0x4, w0
    1e88:	32 40 80    	mov.w     0x806, w2
    1e8a:	11 81 20    	mov.w     #0x811, w1
    1e8c:	91 40 78    	mov.b     [w1], w1
    1e8e:	81 80 fb    	ze        w1, w1
    1e90:	81 00 41    	add.w     w2, w1, w1
    1e92:	91 40 78    	mov.b     [w1], w1
    1e94:	01 48 78    	mov.b     w1, [w0]
    1e96:	00 40 80    	mov.w     0x800, w0
    1e98:	67 00 40    	add.w     w0, #0x7, w0
    1e9a:	42 40 80    	mov.w     0x808, w2
    1e9c:	21 81 20    	mov.w     #0x812, w1
    1e9e:	91 40 78    	mov.b     [w1], w1
    1ea0:	81 80 fb    	ze        w1, w1
    1ea2:	81 00 41    	add.w     w2, w1, w1
    1ea4:	91 40 78    	mov.b     [w1], w1
    1ea6:	01 48 78    	mov.b     w1, [w0]
    1ea8:	00 40 80    	mov.w     0x800, w0
    1eaa:	6a 00 40    	add.w     w0, #0xa, w0
    1eac:	52 40 80    	mov.w     0x80a, w2
    1eae:	31 81 20    	mov.w     #0x813, w1
    1eb0:	91 40 78    	mov.b     [w1], w1
    1eb2:	81 80 fb    	ze        w1, w1
    1eb4:	81 00 41    	add.w     w2, w1, w1
    1eb6:	91 40 78    	mov.b     [w1], w1
    1eb8:	01 48 78    	mov.b     w1, [w0]
    1eba:	00 40 80    	mov.w     0x800, w0
    1ebc:	6d 00 40    	add.w     w0, #0xd, w0
    1ebe:	62 40 80    	mov.w     0x80c, w2
    1ec0:	41 81 20    	mov.w     #0x814, w1
    1ec2:	91 40 78    	mov.b     [w1], w1
    1ec4:	81 80 fb    	ze        w1, w1
    1ec6:	81 00 41    	add.w     w2, w1, w1
    1ec8:	91 40 78    	mov.b     [w1], w1
    1eca:	01 48 78    	mov.b     w1, [w0]
    1ecc:	00 80 fa    	ulnk      
    1ece:	00 00 06    	return    

00001ed0 <_toggleSwitchSetup>:
    1ed0:	00 00 fa    	lnk       #0x0
    1ed2:	d8 a2 a8    	bset.b    0x2d8, #0x5
    1ed4:	d8 82 a8    	bset.b    0x2d8, #0x4
    1ed6:	c9 e2 a8    	bset.b    0x2c9, #0x7
    1ed8:	e8 62 a8    	bset.b    0x2e8, #0x3
    1eda:	d9 02 a8    	bset.b    0x2d9, #0x0
    1edc:	d9 62 a8    	bset.b    0x2d9, #0x3
    1ede:	d9 22 a8    	bset.b    0x2d9, #0x1
    1ee0:	d9 42 a8    	bset.b    0x2d9, #0x2
    1ee2:	d8 02 a9    	bclr.b    0x2d8, #0x0
    1ee4:	d8 22 a9    	bclr.b    0x2d8, #0x1
    1ee6:	d8 42 a8    	bset.b    0x2d8, #0x2
    1ee8:	d8 62 a8    	bset.b    0x2d8, #0x3
    1eea:	6f c0 a8    	bset.b    0x6f, #0x6
    1eec:	6f a0 a8    	bset.b    0x6f, #0x5
    1eee:	6f 80 a8    	bset.b    0x6f, #0x4
    1ef0:	76 e0 a8    	bset.b    0x76, #0x7
    1ef2:	74 a0 a8    	bset.b    0x74, #0x5
    1ef4:	75 00 a8    	bset.b    0x75, #0x0
    1ef6:	74 c0 a8    	bset.b    0x74, #0x6
    1ef8:	74 e0 a8    	bset.b    0x74, #0x7
    1efa:	74 60 a8    	bset.b    0x74, #0x3
    1efc:	74 80 a8    	bset.b    0x74, #0x4
    1efe:	63 c0 a8    	bset.b    0x63, #0x6
    1f00:	63 a0 a8    	bset.b    0x63, #0x5
    1f02:	63 80 a8    	bset.b    0x63, #0x4
    1f04:	6a e0 a8    	bset.b    0x6a, #0x7
    1f06:	68 a0 a8    	bset.b    0x68, #0x5
    1f08:	69 00 a8    	bset.b    0x69, #0x0
    1f0a:	68 c0 a8    	bset.b    0x68, #0x6
    1f0c:	68 e0 a8    	bset.b    0x68, #0x7
    1f0e:	68 60 a8    	bset.b    0x68, #0x3
    1f10:	68 80 a8    	bset.b    0x68, #0x4
    1f12:	86 60 a9    	bclr.b    0x86, #0x3
    1f14:	96 60 a8    	bset.b    0x96, #0x3
    1f16:	00 80 fa    	ulnk      
    1f18:	00 00 06    	return    

00001f1a <_rand_next>:
    1f1a:	02 00 fa    	lnk       #0x2
    1f1c:	b0 40 80    	mov.w     0x816, w0
    1f1e:	c2 00 de    	lsr.w     w0, #0x2, w1
    1f20:	b0 40 80    	mov.w     0x816, w0
    1f22:	80 80 68    	xor.w     w1, w0, w1
    1f24:	b0 40 80    	mov.w     0x816, w0
    1f26:	4d 00 de    	lsr.w     w0, #0xd, w0
    1f28:	80 80 68    	xor.w     w1, w0, w1
    1f2a:	b0 40 80    	mov.w     0x816, w0
    1f2c:	42 01 de    	lsr.w     w0, #0x2, w2
    1f2e:	b0 40 80    	mov.w     0x816, w0
    1f30:	43 00 de    	lsr.w     w0, #0x3, w0
    1f32:	00 00 61    	and.w     w2, w0, w0
    1f34:	00 80 68    	xor.w     w1, w0, w0
    1f36:	61 0f 60    	and.w     w0, #0x1, [w14]
    1f38:	b0 40 80    	mov.w     0x816, w0
    1f3a:	80 00 d1    	lsr.w     w0, w1
    1f3c:	1e 00 78    	mov.w     [w14], w0
    1f3e:	4f 00 dd    	sl.w      w0, #0xf, w0
    1f40:	01 00 70    	ior.w     w0, w1, w0
    1f42:	b0 40 88    	mov.w     w0, 0x816
    1f44:	00 80 fa    	ulnk      
    1f46:	00 00 06    	return    

00001f48 <_delay_by_nop>:
// From https://web.archive.org/web/20161223060411/http://www.engscope.com/pic24-tutorial/10-2-i2c-basic-functions/

#include "i2c_reg.h"

void delay_by_nop(uint32_t num_nops){    // 1 nop= 375ns
    1f48:	08 00 fa    	lnk       #0x8
    1f4a:	20 07 98    	mov.w     w0, [w14+4]
    1f4c:	31 07 98    	mov.w     w1, [w14+6]
    uint32_t count = 0;
    1f4e:	60 00 b8    	mul.uu    w0, #0x0, w0
    1f50:	00 8f be    	mov.d     w0, [w14]
    while (count < num_nops){
    1f52:	05 00 37    	bra       0x1f5e <.L2>

00001f54 <.L3>:
        __asm__("nop");
    1f54:	00 00 00    	nop       
        count +=1;
    1f56:	12 00 20    	mov.w     #0x1, w2
    1f58:	03 00 20    	mov.w     #0x0, w3
    1f5a:	1e 0f 41    	add.w     w2, [w14], [w14]
    1f5c:	5e 97 49    	addc.w    w3, [++w14], [w14--]

00001f5e <.L2>:
    1f5e:	2e 00 90    	mov.w     [w14+4], w0
    1f60:	be 00 90    	mov.w     [w14+6], w1
    1f62:	1e 01 be    	mov.d     [w14], w2
    1f64:	80 0f 51    	sub.w     w2, w0, [w15]
    1f66:	81 8f 59    	subb.w    w3, w1, [w15]
    1f68:	f5 ff 39    	bra       NC, 0x1f54 <.L3>
    }
}
    1f6a:	00 80 fa    	ulnk      
    1f6c:	00 00 06    	return    

00001f6e <_i2c_init>:

// initiates I2C3 module to baud rate BRG
void i2c_init(int BRG){      // I2CBRG = 157 for 16Mhz OSC with 100kHz I2C clock
    1f6e:	04 00 fa    	lnk       #0x4
    1f70:	10 07 98    	mov.w     w0, [w14+2]
   int temp;
   I2C3BRG = BRG;           // Sets freq to 100kHz
    1f72:	1e 00 90    	mov.w     [w14+2], w0
    1f74:	a0 13 88    	mov.w     w0, 0x274
   I2C3CONbits.I2CEN = 0;	// Disable I2C Mode
    1f76:	77 e2 a9    	bclr.b    0x277, #0x7
   I2C3CONbits.DISSLW = 1;	// Disable slew rate control
    1f78:	77 22 a8    	bset.b    0x277, #0x1
   IFS5bits.MI2C3IF = 0;	 // Clear Interrupt
    1f7a:	8e a0 a9    	bclr.b    0x8e, #0x5
   I2C3CONbits.I2CEN = 1;	// Enable I2C Mode
    1f7c:	77 e2 a8    	bset.b    0x277, #0x7
   temp = I2C3RCV;	 // read buffer to clear buffer full
    1f7e:	80 13 80    	mov.w     0x270, w0
    1f80:	00 0f 78    	mov.w     w0, [w14]
   reset_i2c_bus();	 // set bus to idle
    1f82:	36 00 07    	rcall     0x1ff0 <_reset_i2c_bus> <.LFB4> <.LFE3>
}
    1f84:	00 80 fa    	ulnk      
    1f86:	00 00 06    	return    

00001f88 <_i2c_start>:

//function iniates a start condition on bus
void i2c_start(void){
    1f88:	02 00 fa    	lnk       #0x2
   int x = 0;
    1f8a:	00 00 eb    	clr.w     w0
    1f8c:	00 0f 78    	mov.w     w0, [w14]
   I2C3CONbits.ACKDT = 0;	//Reset any previous Ack
    1f8e:	76 a2 a9    	bclr.b    0x276, #0x5
   delay_by_nop(10);
    1f90:	a0 00 20    	mov.w     #0xa, w0
    1f92:	01 00 20    	mov.w     #0x0, w1
    1f94:	d9 ff 07    	rcall     0x1f48 <_delay_by_nop> <.L0> <.LFB0> <.LFE10> <.Letext0> <.Ltext0>
   I2C3CONbits.SEN = 1;	//Initiate Start condition
    1f96:	76 02 a8    	bset.b    0x276, #0x0
   __asm__("nop");
    1f98:	00 00 00    	nop       

   while (I2C3CONbits.SEN){    //the hardware will automatically clear Start Bit
    1f9a:	07 00 37    	bra       0x1faa <.L6>

00001f9c <.L8>:
      delay_by_nop(1);      //wait for automatic clear before proceding
    1f9c:	10 00 20    	mov.w     #0x1, w0
    1f9e:	01 00 20    	mov.w     #0x0, w1
    1fa0:	d3 ff 07    	rcall     0x1f48 <_delay_by_nop> <.L0> <.LFB0> <.LFE10> <.Letext0> <.Ltext0>
      x++;
    1fa2:	1e 0f e8    	inc.w     [w14], [w14]
      if (x > 20)
    1fa4:	1e 00 78    	mov.w     [w14], w0
    1fa6:	f4 0f 50    	sub.w     w0, #0x14, [w15]
    1fa8:	05 00 3c    	bra       GT, 0x1fb4 <.L9>

00001faa <.L6>:
    1faa:	b0 13 80    	mov.w     0x276, w0
    1fac:	61 00 60    	and.w     w0, #0x1, w0
    1fae:	00 00 e0    	cp0.w     w0
    1fb0:	f5 ff 3a    	bra       NZ, 0x1f9c <.L8>
    1fb2:	01 00 37    	bra       0x1fb6 <.L7>

00001fb4 <.L9>:
      break;
    1fb4:	00 00 00    	nop       

00001fb6 <.L7>:
   }
   delay_by_nop(2);
    1fb6:	20 00 20    	mov.w     #0x2, w0
    1fb8:	01 00 20    	mov.w     #0x0, w1
    1fba:	c6 ff 07    	rcall     0x1f48 <_delay_by_nop> <.L0> <.LFB0> <.LFE10> <.Letext0> <.Ltext0>
}
    1fbc:	00 80 fa    	ulnk      
    1fbe:	00 00 06    	return    

00001fc0 <_i2c_restart>:

void i2c_restart(void){
    1fc0:	02 00 fa    	lnk       #0x2
   int x = 0;
    1fc2:	00 00 eb    	clr.w     w0
    1fc4:	00 0f 78    	mov.w     w0, [w14]
   I2C3CONbits.RSEN = 1;	//Initiate restart condition
    1fc6:	76 22 a8    	bset.b    0x276, #0x1
   __asm__("nop");
    1fc8:	00 00 00    	nop       
   //the hardware will automatically clear restart bit
   //wait for automatic clear before proceding
   while (I2C3CONbits.RSEN){
    1fca:	07 00 37    	bra       0x1fda <.L11>

00001fcc <.L13>:
      delay_by_nop(1);
    1fcc:	10 00 20    	mov.w     #0x1, w0
    1fce:	01 00 20    	mov.w     #0x0, w1
    1fd0:	bb ff 07    	rcall     0x1f48 <_delay_by_nop> <.L0> <.LFB0> <.LFE10> <.Letext0> <.Ltext0>
      x++;
    1fd2:	1e 0f e8    	inc.w     [w14], [w14]
      if (x > 20)	break;
    1fd4:	1e 00 78    	mov.w     [w14], w0
    1fd6:	f4 0f 50    	sub.w     w0, #0x14, [w15]
    1fd8:	05 00 3c    	bra       GT, 0x1fe4 <.L14>

00001fda <.L11>:
    1fda:	b0 13 80    	mov.w     0x276, w0
    1fdc:	62 00 60    	and.w     w0, #0x2, w0
    1fde:	00 00 e0    	cp0.w     w0
    1fe0:	f5 ff 3a    	bra       NZ, 0x1fcc <.L13>
    1fe2:	01 00 37    	bra       0x1fe6 <.L12>

00001fe4 <.L14>:
    1fe4:	00 00 00    	nop       

00001fe6 <.L12>:
   }
   delay_by_nop(2);
    1fe6:	20 00 20    	mov.w     #0x2, w0
    1fe8:	01 00 20    	mov.w     #0x0, w1
    1fea:	ae ff 07    	rcall     0x1f48 <_delay_by_nop> <.L0> <.LFB0> <.LFE10> <.Letext0> <.Ltext0>
}
    1fec:	00 80 fa    	ulnk      
    1fee:	00 00 06    	return    

00001ff0 <_reset_i2c_bus>:


//Resets the I2C bus to Idle
void reset_i2c_bus(void){
    1ff0:	02 00 fa    	lnk       #0x2
   int x = 0;
    1ff2:	00 00 eb    	clr.w     w0
    1ff4:	00 0f 78    	mov.w     w0, [w14]
   I2C3CONbits.PEN = 1;     //initiate stop bit
    1ff6:	76 42 a8    	bset.b    0x276, #0x2
   while (I2C3CONbits.PEN) {     //wait for hardware clear of stop bit
    1ff8:	07 00 37    	bra       0x2008 <.L16>

00001ffa <.L18>:
      // delay_by_nop(1);
      delay_by_nop(1);
    1ffa:	10 00 20    	mov.w     #0x1, w0
    1ffc:	01 00 20    	mov.w     #0x0, w1
    1ffe:	a4 ff 07    	rcall     0x1f48 <_delay_by_nop> <.L0> <.LFB0> <.LFE10> <.Letext0> <.Ltext0>
      x ++;
    2000:	1e 0f e8    	inc.w     [w14], [w14]
      if (x > 20) break;
    2002:	1e 00 78    	mov.w     [w14], w0
    2004:	f4 0f 50    	sub.w     w0, #0x14, [w15]
    2006:	05 00 3c    	bra       GT, 0x2012 <.L19>

00002008 <.L16>:
    2008:	b0 13 80    	mov.w     0x276, w0
    200a:	64 00 60    	and.w     w0, #0x4, w0
    200c:	00 00 e0    	cp0.w     w0
    200e:	f5 ff 3a    	bra       NZ, 0x1ffa <.L18>
    2010:	01 00 37    	bra       0x2014 <.L17>

00002012 <.L19>:
    2012:	00 00 00    	nop       

00002014 <.L17>:
   }

   I2C3CONbits.RCEN = 0;
    2014:	76 62 a9    	bclr.b    0x276, #0x3
   IFS5bits.MI2C3IF = 0; // Clear Interrupt
    2016:	8e a0 a9    	bclr.b    0x8e, #0x5
   I2C3STATbits.IWCOL = 0;
    2018:	78 e2 a9    	bclr.b    0x278, #0x7
   I2C3STATbits.BCL = 0;
    201a:	79 42 a9    	bclr.b    0x279, #0x2
   // delay_by_nop(10);
   delay_by_nop(20);
    201c:	40 01 20    	mov.w     #0x14, w0
    201e:	01 00 20    	mov.w     #0x0, w1
    2020:	93 ff 07    	rcall     0x1f48 <_delay_by_nop> <.L0> <.LFB0> <.LFE10> <.Letext0> <.Ltext0>
}
    2022:	00 80 fa    	ulnk      
    2024:	00 00 06    	return    

00002026 <_send_i2c_byte>:


//basic I2C byte send
char send_i2c_byte(int data){
    2026:	04 00 fa    	lnk       #0x4
    2028:	10 07 98    	mov.w     w0, [w14+2]
   int i;
   while (I2C3STATbits.TBF) { }
    202a:	00 00 00    	nop       

0000202c <.L21>:
    202c:	c0 13 80    	mov.w     0x278, w0
    202e:	61 00 60    	and.w     w0, #0x1, w0
    2030:	00 00 e0    	cp0.w     w0
    2032:	fc ff 3a    	bra       NZ, 0x202c <.L21>
   IFS5bits.MI2C3IF = 0; // Clear Interrupt
    2034:	8e a0 a9    	bclr.b    0x8e, #0x5
   I2C3TRN = data; // load the outgoing data byte
    2036:	1e 00 90    	mov.w     [w14+2], w0
    2038:	90 13 88    	mov.w     w0, 0x272

   for (i=0; i<500; i++){           // wait for transmission
    203a:	00 00 eb    	clr.w     w0
    203c:	00 0f 78    	mov.w     w0, [w14]
    203e:	09 00 37    	bra       0x2052 <.L22>

00002040 <.L25>:
      if (!I2C3STATbits.TRSTAT) break; // if master transmit not in progress break
    2040:	c1 13 80    	mov.w     0x278, w1
    2042:	00 00 24    	mov.w     #0x4000, w0
    2044:	00 80 60    	and.w     w1, w0, w0
    2046:	00 00 e0    	cp0.w     w0
    2048:	09 00 32    	bra       Z, 0x205c <.L29>
      delay_by_nop(1); }
    204a:	10 00 20    	mov.w     #0x1, w0
    204c:	01 00 20    	mov.w     #0x0, w1
    204e:	7c ff 07    	rcall     0x1f48 <_delay_by_nop> <.L0> <.LFB0> <.LFE10> <.Letext0> <.Ltext0>
    2050:	1e 0f e8    	inc.w     [w14], [w14]

00002052 <.L22>:
    2052:	30 1f 20    	mov.w     #0x1f3, w0
    2054:	9e 00 78    	mov.w     [w14], w1
    2056:	80 8f 50    	sub.w     w1, w0, [w15]
    2058:	f3 ff 34    	bra       LE, 0x2040 <.L25>
    205a:	01 00 37    	bra       0x205e <.L24>

0000205c <.L29>:
    205c:	00 00 00    	nop       

0000205e <.L24>:

    if (i == 500) {     // if i got to 500, then there was an issue`
    205e:	40 1f 20    	mov.w     #0x1f4, w0
    2060:	9e 00 78    	mov.w     [w14], w1
    2062:	80 8f 50    	sub.w     w1, w0, [w15]
    2064:	02 00 3a    	bra       NZ, 0x206a <.L26>
        return(1); }    // return 1 to indicate failure
    2066:	10 c0 b3    	mov.b     #0x1, w0
    2068:	0c 00 37    	bra       0x2082 <.L27>

0000206a <.L26>:

   if (I2C3STATbits.ACKSTAT == 1){   // Check for NO_ACK from slave,
    206a:	c1 13 80    	mov.w     0x278, w1
    206c:	00 00 28    	mov.w     #0x8000, w0
    206e:	00 80 60    	and.w     w1, w0, w0
    2070:	00 00 e0    	cp0.w     w0
    2072:	03 00 32    	bra       Z, 0x207a <.L28>
      reset_i2c_bus();
    2074:	bd ff 07    	rcall     0x1ff0 <_reset_i2c_bus> <.LFB4> <.LFE3>
      return(1); }            // abort if not found
    2076:	10 c0 b3    	mov.b     #0x1, w0
    2078:	04 00 37    	bra       0x2082 <.L27>

0000207a <.L28>:

   delay_by_nop(2);
    207a:	20 00 20    	mov.w     #0x2, w0
    207c:	01 00 20    	mov.w     #0x0, w1
    207e:	64 ff 07    	rcall     0x1f48 <_delay_by_nop> <.L0> <.LFB0> <.LFE10> <.Letext0> <.Ltext0>
   return(0);
    2080:	00 40 eb    	clr.b     w0

00002082 <.L27>:
}
    2082:	00 80 fa    	ulnk      
    2084:	00 00 06    	return    

00002086 <_i2c_read>:


//function reads data, returns the read data, no ack
// helper function
char i2c_read(void){
    2086:	04 00 fa    	lnk       #0x4
   int i = 0;
    2088:	00 00 eb    	clr.w     w0
    208a:	00 0f 78    	mov.w     w0, [w14]
   char data = 0;
    208c:	00 40 eb    	clr.b     w0
    208e:	20 47 98    	mov.b     w0, [w14+2]
   I2C3CONbits.RCEN = 1;            //set I2C module to receive
    2090:	76 62 a8    	bset.b    0x276, #0x3

   while (!I2C3STATbits.RBF) {           //if no response, break
    2092:	05 00 37    	bra       0x209e <.L31>

00002094 <.L33>:
      i ++;
    2094:	1e 0f e8    	inc.w     [w14], [w14]
      if (i > 2000) break;  }
    2096:	00 7d 20    	mov.w     #0x7d0, w0
    2098:	9e 00 78    	mov.w     [w14], w1
    209a:	80 8f 50    	sub.w     w1, w0, [w15]
    209c:	05 00 3c    	bra       GT, 0x20a8 <.L34>

0000209e <.L31>:
    209e:	c0 13 80    	mov.w     0x278, w0
    20a0:	62 00 60    	and.w     w0, #0x2, w0
    20a2:	00 00 e0    	cp0.w     w0
    20a4:	f7 ff 32    	bra       Z, 0x2094 <.L33>
    20a6:	01 00 37    	bra       0x20aa <.L32>

000020a8 <.L34>:
    20a8:	00 00 00    	nop       

000020aa <.L32>:

   data = I2C3RCV;       //get data from I2C3RCV register
    20aa:	80 13 80    	mov.w     0x270, w0
    20ac:	20 47 98    	mov.b     w0, [w14+2]
   return data;
    20ae:	2e 40 90    	mov.b     [w14+2], w0
}
    20b0:	00 80 fa    	ulnk      
    20b2:	00 00 06    	return    

000020b4 <_i2c_read_ack>:


//function reads data, returns the read data, with ack
char i2c_read_ack(void){	//does not reset bus!!!
    20b4:	04 00 fa    	lnk       #0x4
   int i = 0;
    20b6:	00 00 eb    	clr.w     w0
    20b8:	00 0f 78    	mov.w     w0, [w14]
   char data = 0;
    20ba:	00 40 eb    	clr.b     w0
    20bc:	20 47 98    	mov.b     w0, [w14+2]
   I2C3CONbits.RCEN = 1;            //set I2C module to receive
    20be:	76 62 a8    	bset.b    0x276, #0x3

   while (!I2C3STATbits.RBF) {       //if no response, break
    20c0:	05 00 37    	bra       0x20cc <.L36>

000020c2 <.L38>:
      i++;
    20c2:	1e 0f e8    	inc.w     [w14], [w14]
      if (i > 2000) break;}
    20c4:	00 7d 20    	mov.w     #0x7d0, w0
    20c6:	9e 00 78    	mov.w     [w14], w1
    20c8:	80 8f 50    	sub.w     w1, w0, [w15]
    20ca:	05 00 3c    	bra       GT, 0x20d6 <.L39>

000020cc <.L36>:
    20cc:	c0 13 80    	mov.w     0x278, w0
    20ce:	62 00 60    	and.w     w0, #0x2, w0
    20d0:	00 00 e0    	cp0.w     w0
    20d2:	f7 ff 32    	bra       Z, 0x20c2 <.L38>
    20d4:	01 00 37    	bra       0x20d8 <.L37>

000020d6 <.L39>:
    20d6:	00 00 00    	nop       

000020d8 <.L37>:

   data = I2C3RCV;               //get data from I2C3RCV register
    20d8:	80 13 80    	mov.w     0x270, w0
    20da:	20 47 98    	mov.b     w0, [w14+2]
   I2C3CONbits.ACKEN = 1;        //start ACK generation
    20dc:	76 82 a8    	bset.b    0x276, #0x4
   delay_by_nop(10);             //wait before exiting
    20de:	a0 00 20    	mov.w     #0xa, w0
    20e0:	01 00 20    	mov.w     #0x0, w1
    20e2:	32 ff 07    	rcall     0x1f48 <_delay_by_nop> <.L0> <.LFB0> <.LFE10> <.Letext0> <.Ltext0>
   return data;
    20e4:	2e 40 90    	mov.b     [w14+2], w0
}
    20e6:	00 80 fa    	ulnk      
    20e8:	00 00 06    	return    

000020ea <_i2c_read_nack>:

char i2c_read_nack(void){	//does not reset bus!!!
    20ea:	04 00 fa    	lnk       #0x4
   int i = 0;
    20ec:	00 00 eb    	clr.w     w0
    20ee:	00 0f 78    	mov.w     w0, [w14]
   char data = 0;
    20f0:	00 40 eb    	clr.b     w0
    20f2:	20 47 98    	mov.b     w0, [w14+2]
   I2C3CONbits.RCEN = 1;            //set I2C module to receive
    20f4:	76 62 a8    	bset.b    0x276, #0x3

   while (!I2C3STATbits.RBF) {       //if no response, break
    20f6:	05 00 37    	bra       0x2102 <.L41>

000020f8 <.L43>:
      i++;
    20f8:	1e 0f e8    	inc.w     [w14], [w14]
      if (i > 2000) break;}
    20fa:	00 7d 20    	mov.w     #0x7d0, w0
    20fc:	9e 00 78    	mov.w     [w14], w1
    20fe:	80 8f 50    	sub.w     w1, w0, [w15]
    2100:	05 00 3c    	bra       GT, 0x210c <.L44>

00002102 <.L41>:
    2102:	c0 13 80    	mov.w     0x278, w0
    2104:	62 00 60    	and.w     w0, #0x2, w0
    2106:	00 00 e0    	cp0.w     w0
    2108:	f7 ff 32    	bra       Z, 0x20f8 <.L43>
    210a:	01 00 37    	bra       0x210e <.L42>

0000210c <.L44>:
    210c:	00 00 00    	nop       

0000210e <.L42>:

   data = I2C3RCV;               //get data from I2C3RCV register
    210e:	80 13 80    	mov.w     0x270, w0
    2110:	20 47 98    	mov.b     w0, [w14+2]
   I2C3CONbits.ACKDT = 1;        // set mastrer to nack instead of ack
    2112:	76 a2 a8    	bset.b    0x276, #0x5
   I2C3CONbits.ACKEN = 1;        //start ack generation
    2114:	76 82 a8    	bset.b    0x276, #0x4
   delay_by_nop(10);             //wait before exiting
    2116:	a0 00 20    	mov.w     #0xa, w0
    2118:	01 00 20    	mov.w     #0x0, w1
    211a:	16 ff 07    	rcall     0x1f48 <_delay_by_nop> <.L0> <.LFB0> <.LFE10> <.Letext0> <.Ltext0>
   return data;
    211c:	2e 40 90    	mov.b     [w14+2], w0
}
    211e:	00 80 fa    	ulnk      
    2120:	00 00 06    	return    

00002122 <_I2Cwrite>:

// function puts together I2C protocol for random write
void I2Cwrite(char addr, char subaddr, char value){
    2122:	04 00 fa    	lnk       #0x4
    2124:	00 4f 78    	mov.b     w0, [w14]
    2126:	11 47 98    	mov.b     w1, [w14+1]
    2128:	22 47 98    	mov.b     w2, [w14+2]
   i2c_start();
    212a:	2e ff 07    	rcall     0x1f88 <_i2c_start> <.LFB2> <.LFE1>
   send_i2c_byte(addr & 0xfffe); // set /W bit, turns least sig, bit to 0
    212c:	1e 00 fb    	se        [w14], w0
    212e:	80 00 78    	mov.w     w0, w1
    2130:	e0 ff 2f    	mov.w     #0xfffe, w0
    2132:	00 80 60    	and.w     w1, w0, w0
    2134:	78 ff 07    	rcall     0x2026 <_send_i2c_byte> <.LFB5> <.LFE4>
   send_i2c_byte(subaddr);
    2136:	1e 40 90    	mov.b     [w14+1], w0
    2138:	00 00 fb    	se        w0, w0
    213a:	75 ff 07    	rcall     0x2026 <_send_i2c_byte> <.LFB5> <.LFE4>
   send_i2c_byte(value);
    213c:	2e 40 90    	mov.b     [w14+2], w0
    213e:	00 00 fb    	se        w0, w0
    2140:	72 ff 07    	rcall     0x2026 <_send_i2c_byte> <.LFB5> <.LFE4>
   reset_i2c_bus();
    2142:	56 ff 07    	rcall     0x1ff0 <_reset_i2c_bus> <.LFB4> <.LFE3>
}
    2144:	00 80 fa    	ulnk      
    2146:	00 00 06    	return    

00002148 <_I2Cread>:

// function puts together I2C protocol for random read
char I2Cread(char addr, char subaddr){
    2148:	04 00 fa    	lnk       #0x4
    214a:	20 47 98    	mov.b     w0, [w14+2]
    214c:	31 47 98    	mov.b     w1, [w14+3]
   char temp;
   i2c_start();
    214e:	1c ff 07    	rcall     0x1f88 <_i2c_start> <.LFB2> <.LFE1>
   send_i2c_byte(addr);
    2150:	2e 40 90    	mov.b     [w14+2], w0
    2152:	00 00 fb    	se        w0, w0
    2154:	68 ff 07    	rcall     0x2026 <_send_i2c_byte> <.LFB5> <.LFE4>
   send_i2c_byte(subaddr);
    2156:	3e 40 90    	mov.b     [w14+3], w0
    2158:	00 00 fb    	se        w0, w0
    215a:	65 ff 07    	rcall     0x2026 <_send_i2c_byte> <.LFB5> <.LFE4>
   delay_by_nop(10);
    215c:	a0 00 20    	mov.w     #0xa, w0
    215e:	01 00 20    	mov.w     #0x0, w1
    2160:	f3 fe 07    	rcall     0x1f48 <_delay_by_nop> <.L0> <.LFB0> <.LFE10> <.Letext0> <.Ltext0>
   i2c_restart();
    2162:	2e ff 07    	rcall     0x1fc0 <_i2c_restart> <.LFB3> <.LFE2>

   send_i2c_byte(addr | 0x01); // set R bit, turn least sig. bit to 1
    2164:	2e 40 90    	mov.b     [w14+2], w0
    2166:	00 04 a0    	bset.b    w0, #0x0
    2168:	00 00 fb    	se        w0, w0
    216a:	5d ff 07    	rcall     0x2026 <_send_i2c_byte> <.LFB5> <.LFE4>
   temp = i2c_read();
    216c:	8c ff 07    	rcall     0x2086 <_i2c_read> <.LFB6> <.LFE5>
    216e:	00 4f 78    	mov.b     w0, [w14]

   reset_i2c_bus();
    2170:	3f ff 07    	rcall     0x1ff0 <_reset_i2c_bus> <.LFB4> <.LFE3>
   return temp;
    2172:	1e 40 78    	mov.b     [w14], w0
}
    2174:	00 80 fa    	ulnk      
    2176:	00 00 06    	return    

00002178 <_I2Cpoll>:

// function checks if device at addr is on bus
// 1 means it is not there, 0 means it is there
unsigned char I2Cpoll(char addr){
    2178:	04 00 fa    	lnk       #0x4
    217a:	20 47 98    	mov.b     w0, [w14+2]
   unsigned char temp = 0;
    217c:	00 40 eb    	clr.b     w0
    217e:	00 4f 78    	mov.b     w0, [w14]
   i2c_start();
    2180:	03 ff 07    	rcall     0x1f88 <_i2c_start> <.LFB2> <.LFE1>
   temp = send_i2c_byte((addr) & (0xfffe)); // set /W bit
    2182:	2e 40 90    	mov.b     [w14+2], w0
    2184:	00 00 fb    	se        w0, w0
    2186:	80 00 78    	mov.w     w0, w1
    2188:	e0 ff 2f    	mov.w     #0xfffe, w0
    218a:	00 80 60    	and.w     w1, w0, w0
    218c:	4c ff 07    	rcall     0x2026 <_send_i2c_byte> <.LFB5> <.LFE4>
    218e:	00 4f 78    	mov.b     w0, [w14]
   reset_i2c_bus();
    2190:	2f ff 07    	rcall     0x1ff0 <_reset_i2c_bus> <.LFB4> <.LFE3>
   return temp;
    2192:	1e 40 78    	mov.b     [w14], w0
}
    2194:	00 80 fa    	ulnk      
    2196:	00 00 06    	return    

00002198 <_I2Cwritearray>:

// function writes a byte array over i2c
unsigned char I2Cwritearray(char addr, char dat[], uint8_t len) {
    2198:	08 00 fa    	lnk       #0x8
    219a:	20 47 98    	mov.b     w0, [w14+2]
    219c:	21 07 98    	mov.w     w1, [w14+4]
    219e:	62 47 98    	mov.b     w2, [w14+6]
  unsigned char err = 0;
    21a0:	00 40 eb    	clr.b     w0
    21a2:	00 4f 78    	mov.b     w0, [w14]
  i2c_start();
    21a4:	f1 fe 07    	rcall     0x1f88 <_i2c_start> <.LFB2> <.LFE1>
  err = send_i2c_byte(addr & (0xfffe)); // takes 7 bit address and adds /W bit
    21a6:	2e 40 90    	mov.b     [w14+2], w0
    21a8:	00 00 fb    	se        w0, w0
    21aa:	80 00 78    	mov.w     w0, w1
    21ac:	e0 ff 2f    	mov.w     #0xfffe, w0
    21ae:	00 80 60    	and.w     w1, w0, w0
    21b0:	3a ff 07    	rcall     0x2026 <_send_i2c_byte> <.LFB5> <.LFE4>
    21b2:	00 4f 78    	mov.b     w0, [w14]
  uint8_t j;
  for (j = 0; j < len; j++) { // keep sending data bytes til we're done unless it misses an ack
    21b4:	00 40 eb    	clr.b     w0
    21b6:	10 47 98    	mov.b     w0, [w14+1]
    21b8:	0d 00 37    	bra       0x21d4 <.L49>

000021ba <.L50>:
    err |= send_i2c_byte(dat[j]);
    21ba:	1e 40 90    	mov.b     [w14+1], w0
    21bc:	00 80 fb    	ze        w0, w0
    21be:	ae 00 90    	mov.w     [w14+4], w1
    21c0:	00 80 40    	add.w     w1, w0, w0
    21c2:	10 40 78    	mov.b     [w0], w0
    21c4:	00 00 fb    	se        w0, w0
    21c6:	2f ff 07    	rcall     0x2026 <_send_i2c_byte> <.LFB5> <.LFE4>
    21c8:	9e 40 78    	mov.b     [w14], w1
    21ca:	01 40 70    	ior.b     w0, w1, w0
    21cc:	00 4f 78    	mov.b     w0, [w14]
    21ce:	1e 40 90    	mov.b     [w14+1], w0
    21d0:	00 40 e8    	inc.b     w0, w0
    21d2:	10 47 98    	mov.b     w0, [w14+1]

000021d4 <.L49>:
    21d4:	9e 40 90    	mov.b     [w14+1], w1
    21d6:	6e 40 90    	mov.b     [w14+6], w0
    21d8:	80 cf 50    	sub.b     w1, w0, [w15]
    21da:	ef ff 39    	bra       NC, 0x21ba <.L50>
  }
  reset_i2c_bus();
    21dc:	09 ff 07    	rcall     0x1ff0 <_reset_i2c_bus> <.LFB4> <.LFE3>
  return err;
    21de:	1e 40 78    	mov.b     [w14], w0
}
    21e0:	00 80 fa    	ulnk      
    21e2:	00 00 06    	return    

000021e4 <_i2c2_init>:

////////////////////////////////////////////////////////////////////////////////
// I2C2 ////////////////////////////////////////////////////////////////////////
////////////////////////////////////////////////////////////////////////////////

// initiates I2C3 module to baud rate BRG
void i2c2_init(int BRG){      // I2CBRG = 157 for 16Mhz OSC with 100kHz I2C clock
    21e4:	04 00 fa    	lnk       #0x4
    21e6:	10 07 98    	mov.w     w0, [w14+2]
   int temp;
   I2C2BRG = BRG;           // Sets freq to 100kHz
    21e8:	1e 00 90    	mov.w     [w14+2], w0
    21ea:	a0 10 88    	mov.w     w0, 0x214
   I2C2CONbits.I2CEN = 0;	// Disable I2C Mode
    21ec:	17 e2 a9    	bclr.b    0x217, #0x7
   I2C2CONbits.DISSLW = 1;	// Disable slew rate control
    21ee:	17 22 a8    	bset.b    0x217, #0x1
   IFS3bits.MI2C2IF = 0;	 // Clear Interrupt
    21f0:	8a 40 a9    	bclr.b    0x8a, #0x2
   I2C2CONbits.I2CEN = 1;	// Enable I2C Mode
    21f2:	17 e2 a8    	bset.b    0x217, #0x7
   temp = I2C2RCV;	 // read buffer to clear buffer full
    21f4:	80 10 80    	mov.w     0x210, w0
    21f6:	00 0f 78    	mov.w     w0, [w14]
   reset_i2c_bus();	 // set bus to idle
    21f8:	fb fe 07    	rcall     0x1ff0 <_reset_i2c_bus> <.LFB4> <.LFE3>
}
    21fa:	00 80 fa    	ulnk      
    21fc:	00 00 06    	return    

000021fe <_i2c2_start>:

//function iniates a start condition on bus
void i2c2_start(void){
    21fe:	02 00 fa    	lnk       #0x2
   int x = 0;
    2200:	00 00 eb    	clr.w     w0
    2202:	00 0f 78    	mov.w     w0, [w14]
   I2C2CONbits.ACKDT = 0;	//Reset any previous Ack
    2204:	16 a2 a9    	bclr.b    0x216, #0x5
   delay_by_nop(10);
    2206:	a0 00 20    	mov.w     #0xa, w0
    2208:	01 00 20    	mov.w     #0x0, w1
    220a:	9e fe 07    	rcall     0x1f48 <_delay_by_nop> <.L0> <.LFB0> <.LFE10> <.Letext0> <.Ltext0>
   I2C2CONbits.SEN = 1;	//Initiate Start condition
    220c:	16 02 a8    	bset.b    0x216, #0x0
   __asm__("nop");
    220e:	00 00 00    	nop       

   while (I2C2CONbits.SEN){    //the hardware will automatically clear Start Bit
    2210:	07 00 37    	bra       0x2220 <.L53>

00002212 <.L55>:
      delay_by_nop(1);      //wait for automatic clear before proceding
    2212:	10 00 20    	mov.w     #0x1, w0
    2214:	01 00 20    	mov.w     #0x0, w1
    2216:	98 fe 07    	rcall     0x1f48 <_delay_by_nop> <.L0> <.LFB0> <.LFE10> <.Letext0> <.Ltext0>
      x++;
    2218:	1e 0f e8    	inc.w     [w14], [w14]
      if (x > 20)
    221a:	1e 00 78    	mov.w     [w14], w0
    221c:	f4 0f 50    	sub.w     w0, #0x14, [w15]
    221e:	05 00 3c    	bra       GT, 0x222a <.L56>

00002220 <.L53>:
    2220:	b0 10 80    	mov.w     0x216, w0
    2222:	61 00 60    	and.w     w0, #0x1, w0
    2224:	00 00 e0    	cp0.w     w0
    2226:	f5 ff 3a    	bra       NZ, 0x2212 <.L55>
    2228:	01 00 37    	bra       0x222c <.L54>

0000222a <.L56>:
      break;
    222a:	00 00 00    	nop       

0000222c <.L54>:
   }
   delay_by_nop(2);
    222c:	20 00 20    	mov.w     #0x2, w0
    222e:	01 00 20    	mov.w     #0x0, w1
    2230:	8b fe 07    	rcall     0x1f48 <_delay_by_nop> <.L0> <.LFB0> <.LFE10> <.Letext0> <.Ltext0>
}
    2232:	00 80 fa    	ulnk      
    2234:	00 00 06    	return    

00002236 <_i2c2_restart>:

void i2c2_restart(void){
    2236:	02 00 fa    	lnk       #0x2
   int x = 0;
    2238:	00 00 eb    	clr.w     w0
    223a:	00 0f 78    	mov.w     w0, [w14]
   I2C2CONbits.RSEN = 1;	//Initiate restart condition
    223c:	16 22 a8    	bset.b    0x216, #0x1
   __asm__("nop");
    223e:	00 00 00    	nop       
   //the hardware will automatically clear restart bit
   //wait for automatic clear before proceding
   while (I2C2CONbits.RSEN){
    2240:	07 00 37    	bra       0x2250 <.L58>

00002242 <.L60>:
      delay_by_nop(1);
    2242:	10 00 20    	mov.w     #0x1, w0
    2244:	01 00 20    	mov.w     #0x0, w1
    2246:	80 fe 07    	rcall     0x1f48 <_delay_by_nop> <.L0> <.LFB0> <.LFE10> <.Letext0> <.Ltext0>
      x++;
    2248:	1e 0f e8    	inc.w     [w14], [w14]
      if (x > 20)	break;
    224a:	1e 00 78    	mov.w     [w14], w0
    224c:	f4 0f 50    	sub.w     w0, #0x14, [w15]
    224e:	05 00 3c    	bra       GT, 0x225a <.L61>

00002250 <.L58>:
    2250:	b0 10 80    	mov.w     0x216, w0
    2252:	62 00 60    	and.w     w0, #0x2, w0
    2254:	00 00 e0    	cp0.w     w0
    2256:	f5 ff 3a    	bra       NZ, 0x2242 <.L60>
    2258:	01 00 37    	bra       0x225c <.L59>

0000225a <.L61>:
    225a:	00 00 00    	nop       

0000225c <.L59>:
   }
   delay_by_nop(2);
    225c:	20 00 20    	mov.w     #0x2, w0
    225e:	01 00 20    	mov.w     #0x0, w1
    2260:	73 fe 07    	rcall     0x1f48 <_delay_by_nop> <.L0> <.LFB0> <.LFE10> <.Letext0> <.Ltext0>
}
    2262:	00 80 fa    	ulnk      
    2264:	00 00 06    	return    

00002266 <_reset_i2c2_bus>:


//Resets the I2C bus to Idle
void reset_i2c2_bus(void){
    2266:	02 00 fa    	lnk       #0x2
   int x = 0;
    2268:	00 00 eb    	clr.w     w0
    226a:	00 0f 78    	mov.w     w0, [w14]
   I2C2CONbits.PEN = 1;     //initiate stop bit
    226c:	16 42 a8    	bset.b    0x216, #0x2
   while (I2C2CONbits.PEN) {     //wait for hardware clear of stop bit
    226e:	07 00 37    	bra       0x227e <.L63>

00002270 <.L65>:
      // delay_by_nop(1);
      delay_by_nop(1);
    2270:	10 00 20    	mov.w     #0x1, w0
    2272:	01 00 20    	mov.w     #0x0, w1
    2274:	69 fe 07    	rcall     0x1f48 <_delay_by_nop> <.L0> <.LFB0> <.LFE10> <.Letext0> <.Ltext0>
      x ++;
    2276:	1e 0f e8    	inc.w     [w14], [w14]
      if (x > 20) break;
    2278:	1e 00 78    	mov.w     [w14], w0
    227a:	f4 0f 50    	sub.w     w0, #0x14, [w15]
    227c:	05 00 3c    	bra       GT, 0x2288 <.L66>

0000227e <.L63>:
    227e:	b0 10 80    	mov.w     0x216, w0
    2280:	64 00 60    	and.w     w0, #0x4, w0
    2282:	00 00 e0    	cp0.w     w0
    2284:	f5 ff 3a    	bra       NZ, 0x2270 <.L65>
    2286:	01 00 37    	bra       0x228a <.L64>

00002288 <.L66>:
    2288:	00 00 00    	nop       

0000228a <.L64>:
   }

   I2C2CONbits.RCEN = 0;
    228a:	16 62 a9    	bclr.b    0x216, #0x3
   IFS3bits.MI2C2IF = 0; // Clear Interrupt
    228c:	8a 40 a9    	bclr.b    0x8a, #0x2
   I2C2STATbits.IWCOL = 0;
    228e:	18 e2 a9    	bclr.b    0x218, #0x7
   I2C2STATbits.BCL = 0;
    2290:	19 42 a9    	bclr.b    0x219, #0x2
   // delay_by_nop(10);
   delay_by_nop(20);
    2292:	40 01 20    	mov.w     #0x14, w0
    2294:	01 00 20    	mov.w     #0x0, w1
    2296:	58 fe 07    	rcall     0x1f48 <_delay_by_nop> <.L0> <.LFB0> <.LFE10> <.Letext0> <.Ltext0>
}
    2298:	00 80 fa    	ulnk      
    229a:	00 00 06    	return    

0000229c <_send_i2c2_byte>:


//basic I2C byte send
char send_i2c2_byte(int data){
    229c:	04 00 fa    	lnk       #0x4
    229e:	10 07 98    	mov.w     w0, [w14+2]
   int i;
   while (I2C2STATbits.TBF) { }
    22a0:	00 00 00    	nop       

000022a2 <.L68>:
    22a2:	c0 10 80    	mov.w     0x218, w0
    22a4:	61 00 60    	and.w     w0, #0x1, w0
    22a6:	00 00 e0    	cp0.w     w0
    22a8:	fc ff 3a    	bra       NZ, 0x22a2 <.L68>
   IFS3bits.MI2C2IF = 0; // Clear Interrupt
    22aa:	8a 40 a9    	bclr.b    0x8a, #0x2
   I2C2TRN = data; // load the outgoing data byte
    22ac:	1e 00 90    	mov.w     [w14+2], w0
    22ae:	90 10 88    	mov.w     w0, 0x212

   for (i=0; i<500; i++){           // wait for transmission
    22b0:	00 00 eb    	clr.w     w0
    22b2:	00 0f 78    	mov.w     w0, [w14]
    22b4:	09 00 37    	bra       0x22c8 <.L69>

000022b6 <.L72>:
      if (!I2C2STATbits.TRSTAT) break; // if master transmit not in progress break
    22b6:	c1 10 80    	mov.w     0x218, w1
    22b8:	00 00 24    	mov.w     #0x4000, w0
    22ba:	00 80 60    	and.w     w1, w0, w0
    22bc:	00 00 e0    	cp0.w     w0
    22be:	09 00 32    	bra       Z, 0x22d2 <.L76>
      delay_by_nop(1); }
    22c0:	10 00 20    	mov.w     #0x1, w0
    22c2:	01 00 20    	mov.w     #0x0, w1
    22c4:	41 fe 07    	rcall     0x1f48 <_delay_by_nop> <.L0> <.LFB0> <.LFE10> <.Letext0> <.Ltext0>
    22c6:	1e 0f e8    	inc.w     [w14], [w14]

000022c8 <.L69>:
    22c8:	30 1f 20    	mov.w     #0x1f3, w0
    22ca:	9e 00 78    	mov.w     [w14], w1
    22cc:	80 8f 50    	sub.w     w1, w0, [w15]
    22ce:	f3 ff 34    	bra       LE, 0x22b6 <.L72>
    22d0:	01 00 37    	bra       0x22d4 <.L71>

000022d2 <.L76>:
    22d2:	00 00 00    	nop       

000022d4 <.L71>:

    if (i == 500) {     // if i got to 500, then there was an issue`
    22d4:	40 1f 20    	mov.w     #0x1f4, w0
    22d6:	9e 00 78    	mov.w     [w14], w1
    22d8:	80 8f 50    	sub.w     w1, w0, [w15]
    22da:	02 00 3a    	bra       NZ, 0x22e0 <.L73>
        return(1); }    // return 1 to indicate failure
    22dc:	10 c0 b3    	mov.b     #0x1, w0
    22de:	0c 00 37    	bra       0x22f8 <.L74>

000022e0 <.L73>:

   if (I2C2STATbits.ACKSTAT == 1){   // Check for NO_ACK from slave,
    22e0:	c1 10 80    	mov.w     0x218, w1
    22e2:	00 00 28    	mov.w     #0x8000, w0
    22e4:	00 80 60    	and.w     w1, w0, w0
    22e6:	00 00 e0    	cp0.w     w0
    22e8:	03 00 32    	bra       Z, 0x22f0 <.L75>
      reset_i2c2_bus();
    22ea:	bd ff 07    	rcall     0x2266 <_reset_i2c2_bus> <.LFB16> <.LFE15>
      return(1); }            // abort if not found
    22ec:	10 c0 b3    	mov.b     #0x1, w0
    22ee:	04 00 37    	bra       0x22f8 <.L74>

000022f0 <.L75>:

   delay_by_nop(2);
    22f0:	20 00 20    	mov.w     #0x2, w0
    22f2:	01 00 20    	mov.w     #0x0, w1
    22f4:	29 fe 07    	rcall     0x1f48 <_delay_by_nop> <.L0> <.LFB0> <.LFE10> <.Letext0> <.Ltext0>
   return(0);
    22f6:	00 40 eb    	clr.b     w0

000022f8 <.L74>:
}
    22f8:	00 80 fa    	ulnk      
    22fa:	00 00 06    	return    

000022fc <_i2c2_read>:


//function reads data, returns the read data, no ack
// helper function
char i2c2_read(void){
    22fc:	04 00 fa    	lnk       #0x4
   int i = 0;
    22fe:	00 00 eb    	clr.w     w0
    2300:	00 0f 78    	mov.w     w0, [w14]
   char data = 0;
    2302:	00 40 eb    	clr.b     w0
    2304:	20 47 98    	mov.b     w0, [w14+2]
   I2C2CONbits.RCEN = 1;            //set I2C module to receive
    2306:	16 62 a8    	bset.b    0x216, #0x3

   while (!I2C2STATbits.RBF) {           //if no response, break
    2308:	05 00 37    	bra       0x2314 <.L78>

0000230a <.L80>:
      i ++;
    230a:	1e 0f e8    	inc.w     [w14], [w14]
      if (i > 2000) break;  }
    230c:	00 7d 20    	mov.w     #0x7d0, w0
    230e:	9e 00 78    	mov.w     [w14], w1
    2310:	80 8f 50    	sub.w     w1, w0, [w15]
    2312:	05 00 3c    	bra       GT, 0x231e <.L81>

00002314 <.L78>:
    2314:	c0 10 80    	mov.w     0x218, w0
    2316:	62 00 60    	and.w     w0, #0x2, w0
    2318:	00 00 e0    	cp0.w     w0
    231a:	f7 ff 32    	bra       Z, 0x230a <.L80>
    231c:	01 00 37    	bra       0x2320 <.L79>

0000231e <.L81>:
    231e:	00 00 00    	nop       

00002320 <.L79>:

   data = I2C2RCV;       //get data from I2C2RCV register
    2320:	80 10 80    	mov.w     0x210, w0
    2322:	20 47 98    	mov.b     w0, [w14+2]
   return data;
    2324:	2e 40 90    	mov.b     [w14+2], w0
}
    2326:	00 80 fa    	ulnk      
    2328:	00 00 06    	return    

0000232a <_i2c2_read_ack>:


//function reads data, returns the read data, with ack
char i2c2_read_ack(void){	//does not reset bus!!!
    232a:	04 00 fa    	lnk       #0x4
   int i = 0;
    232c:	00 00 eb    	clr.w     w0
    232e:	00 0f 78    	mov.w     w0, [w14]
   char data = 0;
    2330:	00 40 eb    	clr.b     w0
    2332:	20 47 98    	mov.b     w0, [w14+2]
   I2C2CONbits.RCEN = 1;            //set I2C module to receive
    2334:	16 62 a8    	bset.b    0x216, #0x3

   while (!I2C2STATbits.RBF) {       //if no response, break
    2336:	05 00 37    	bra       0x2342 <.L83>

00002338 <.L85>:
      i++;
    2338:	1e 0f e8    	inc.w     [w14], [w14]
      if (i > 2000) break;}
    233a:	00 7d 20    	mov.w     #0x7d0, w0
    233c:	9e 00 78    	mov.w     [w14], w1
    233e:	80 8f 50    	sub.w     w1, w0, [w15]
    2340:	05 00 3c    	bra       GT, 0x234c <.L86>

00002342 <.L83>:
    2342:	c0 10 80    	mov.w     0x218, w0
    2344:	62 00 60    	and.w     w0, #0x2, w0
    2346:	00 00 e0    	cp0.w     w0
    2348:	f7 ff 32    	bra       Z, 0x2338 <.L85>
    234a:	01 00 37    	bra       0x234e <.L84>

0000234c <.L86>:
    234c:	00 00 00    	nop       

0000234e <.L84>:

   data = I2C2RCV;               //get data from I2C2RCV register
    234e:	80 10 80    	mov.w     0x210, w0
    2350:	20 47 98    	mov.b     w0, [w14+2]
   I2C2CONbits.ACKEN = 1;        //start ACK generation
    2352:	16 82 a8    	bset.b    0x216, #0x4
   delay_by_nop(10);             //wait before exiting
    2354:	a0 00 20    	mov.w     #0xa, w0
    2356:	01 00 20    	mov.w     #0x0, w1
    2358:	f7 fd 07    	rcall     0x1f48 <_delay_by_nop> <.L0> <.LFB0> <.LFE10> <.Letext0> <.Ltext0>
   return data;
    235a:	2e 40 90    	mov.b     [w14+2], w0
}
    235c:	00 80 fa    	ulnk      
    235e:	00 00 06    	return    

00002360 <_i2c2_read_nack>:

char i2c2_read_nack(void){	//does not reset bus!!!
    2360:	04 00 fa    	lnk       #0x4
   int i = 0;
    2362:	00 00 eb    	clr.w     w0
    2364:	00 0f 78    	mov.w     w0, [w14]
   char data = 0;
    2366:	00 40 eb    	clr.b     w0
    2368:	20 47 98    	mov.b     w0, [w14+2]
   I2C2CONbits.RCEN = 1;            //set I2C module to receive
    236a:	16 62 a8    	bset.b    0x216, #0x3

   while (!I2C2STATbits.RBF) {       //if no response, break
    236c:	05 00 37    	bra       0x2378 <.L88>

0000236e <.L90>:
      i++;
    236e:	1e 0f e8    	inc.w     [w14], [w14]
      if (i > 2000) break;}
    2370:	00 7d 20    	mov.w     #0x7d0, w0
    2372:	9e 00 78    	mov.w     [w14], w1
    2374:	80 8f 50    	sub.w     w1, w0, [w15]
    2376:	05 00 3c    	bra       GT, 0x2382 <.L91>

00002378 <.L88>:
    2378:	c0 10 80    	mov.w     0x218, w0
    237a:	62 00 60    	and.w     w0, #0x2, w0
    237c:	00 00 e0    	cp0.w     w0
    237e:	f7 ff 32    	bra       Z, 0x236e <.L90>
    2380:	01 00 37    	bra       0x2384 <.L89>

00002382 <.L91>:
    2382:	00 00 00    	nop       

00002384 <.L89>:

   data = I2C2RCV;               //get data from I2C2RCV register
    2384:	80 10 80    	mov.w     0x210, w0
    2386:	20 47 98    	mov.b     w0, [w14+2]
   I2C2CONbits.ACKDT = 1;        // set mastrer to nack instead of ack
    2388:	16 a2 a8    	bset.b    0x216, #0x5
   I2C2CONbits.ACKEN = 1;        //start ack generation
    238a:	16 82 a8    	bset.b    0x216, #0x4
   delay_by_nop(10);             //wait before exiting
    238c:	a0 00 20    	mov.w     #0xa, w0
    238e:	01 00 20    	mov.w     #0x0, w1
    2390:	db fd 07    	rcall     0x1f48 <_delay_by_nop> <.L0> <.LFB0> <.LFE10> <.Letext0> <.Ltext0>
   return data;
    2392:	2e 40 90    	mov.b     [w14+2], w0
}
    2394:	00 80 fa    	ulnk      
    2396:	00 00 06    	return    

00002398 <_I2C2poll>:

// function checks if device at addr is on bus
// 1 means it is not there, 0 means it is there
unsigned char I2C2poll(char addr){
    2398:	04 00 fa    	lnk       #0x4
    239a:	20 47 98    	mov.b     w0, [w14+2]
   unsigned char temp = 0;
    239c:	00 40 eb    	clr.b     w0
    239e:	00 4f 78    	mov.b     w0, [w14]
   i2c2_start();
    23a0:	2e ff 07    	rcall     0x21fe <_i2c2_start> <.LFB14> <.LFE13>
   temp = send_i2c2_byte((addr) & (0xfffe)); // set /W bit
    23a2:	2e 40 90    	mov.b     [w14+2], w0
    23a4:	00 00 fb    	se        w0, w0
    23a6:	80 00 78    	mov.w     w0, w1
    23a8:	e0 ff 2f    	mov.w     #0xfffe, w0
    23aa:	00 80 60    	and.w     w1, w0, w0
    23ac:	77 ff 07    	rcall     0x229c <_send_i2c2_byte> <.LFB17> <.LFE16>
    23ae:	00 4f 78    	mov.b     w0, [w14]
   reset_i2c2_bus();
    23b0:	5a ff 07    	rcall     0x2266 <_reset_i2c2_bus> <.LFB16> <.LFE15>
   return temp;
    23b2:	1e 40 78    	mov.b     [w14], w0
}
    23b4:	00 80 fa    	ulnk      
    23b6:	00 00 06    	return    
Disassembly of section .isr.text:

000023b8 <__CNInterrupt>:
    23b8:	32 00 f8    	push      0x32
    23ba:	34 00 f8    	push      0x34
    23bc:	88 1f 78    	mov.w     w8, [w15++]
    23be:	18 00 20    	mov.w     #0x1, w8
    23c0:	a8 01 88    	mov.w     w8, 0x34
    23c2:	08 20 20    	mov.w     #0x200, w8
    23c4:	98 01 88    	mov.w     w8, 0x32
    23c6:	4f 04 78    	mov.w     [--w15], w8
    23c8:	00 00 fa    	lnk       #0x0
    23ca:	86 60 a9    	bclr.b    0x86, #0x3
    23cc:	06 21 ef    	clr.w     0x106
    23ce:	84 e0 a9    	bclr.b    0x84, #0x7
    23d0:	11 e1 a8    	bset.b    0x111, #0x7
    23d2:	dc e2 a8    	bset.b    0x2dc, #0x7
    23d4:	00 80 fa    	ulnk      
    23d6:	34 00 f9    	pop       0x34
    23d8:	32 00 f9    	pop       0x32
    23da:	00 40 06    	retfie    

000023dc <__T2Interrupt>:
    23dc:	36 00 f8    	push      0x36
    23de:	80 9f be    	mov.d     w0, [w15++]
    23e0:	82 9f be    	mov.d     w2, [w15++]
    23e2:	84 9f be    	mov.d     w4, [w15++]
    23e4:	86 9f be    	mov.d     w6, [w15++]
    23e6:	32 00 f8    	push      0x32
    23e8:	34 00 f8    	push      0x34
    23ea:	10 00 20    	mov.w     #0x1, w0
    23ec:	a0 01 88    	mov.w     w0, 0x34
    23ee:	00 20 20    	mov.w     #0x200, w0
    23f0:	90 01 88    	mov.w     w0, 0x32
    23f2:	00 00 fa    	lnk       #0x0
    23f4:	84 e0 a9    	bclr.b    0x84, #0x7
    23f6:	11 e1 a9    	bclr.b    0x111, #0x7
    23f8:	dc e2 a9    	bclr.b    0x2dc, #0x7
    23fa:	d1 16 80    	mov.w     0x2da, w1
    23fc:	00 02 20    	mov.w     #0x20, w0
    23fe:	00 80 60    	and.w     w1, w0, w0
    2400:	00 00 e0    	cp0.w     w0
    2402:	0b 00 3a    	bra       NZ, 0x241a <.L42>
    2404:	10 c8 bf    	mov.b     0x810, WREG
    2406:	00 80 fb    	ze        w0, w0
    2408:	80 00 e8    	inc.w     w0, w1
    240a:	60 00 20    	mov.w     #0x6, w0
    240c:	00 01 78    	mov.w     w0, w2
    240e:	11 00 09    	repeat    #0x11
    2410:	82 00 d8    	div.sw    w1, w2
    2412:	80 00 fd    	exch      w0, w1
    2414:	00 40 78    	mov.b     w0, w0
    2416:	10 e8 b7    	mov.b     WREG, 0x810
    2418:	0c 00 37    	bra       0x2432 <.L43>

0000241a <.L42>:
    241a:	d0 16 80    	mov.w     0x2da, w0
    241c:	70 00 60    	and.w     w0, #0x10, w0
    241e:	00 00 e0    	cp0.w     w0
    2420:	08 00 3a    	bra       NZ, 0x2432 <.L43>
    2422:	10 c8 bf    	mov.b     0x810, WREG
    2424:	00 40 e9    	dec.b     w0, w0
    2426:	10 e8 b7    	mov.b     WREG, 0x810
    2428:	10 c8 bf    	mov.b     0x810, WREG
    242a:	e5 4f 50    	sub.b     w0, #0x5, [w15]
    242c:	02 00 36    	bra       LEU, 0x2432 <.L43>
    242e:	50 c0 b3    	mov.b     #0x5, w0
    2430:	10 e8 b7    	mov.b     WREG, 0x810

00002432 <.L43>:
    2432:	d0 16 80    	mov.w     0x2da, w0
    2434:	64 00 60    	and.w     w0, #0x4, w0
    2436:	00 00 e0    	cp0.w     w0
    2438:	0b 00 3a    	bra       NZ, 0x2450 <.L44>
    243a:	11 c8 bf    	mov.b     0x811, WREG
    243c:	00 80 fb    	ze        w0, w0
    243e:	80 00 e8    	inc.w     w0, w1
    2440:	60 00 20    	mov.w     #0x6, w0
    2442:	00 01 78    	mov.w     w0, w2
    2444:	11 00 09    	repeat    #0x11
    2446:	82 00 d8    	div.sw    w1, w2
    2448:	80 00 fd    	exch      w0, w1
    244a:	00 40 78    	mov.b     w0, w0
    244c:	11 e8 b7    	mov.b     WREG, 0x811
    244e:	07 00 37    	bra       0x245e <.L45>

00002450 <.L44>:
    2450:	d0 16 80    	mov.w     0x2da, w0
    2452:	68 00 60    	and.w     w0, #0x8, w0
    2454:	00 00 e0    	cp0.w     w0
    2456:	03 00 3a    	bra       NZ, 0x245e <.L45>
    2458:	11 c8 bf    	mov.b     0x811, WREG
    245a:	00 40 e9    	dec.b     w0, w0
    245c:	11 e8 b7    	mov.b     WREG, 0x811

0000245e <.L45>:
    245e:	11 c8 bf    	mov.b     0x811, WREG
    2460:	e5 4f 50    	sub.b     w0, #0x5, [w15]
    2462:	03 00 36    	bra       LEU, 0x246a <.L46>
    2464:	11 c8 bf    	mov.b     0x811, WREG
    2466:	66 40 40    	add.b     w0, #0x6, w0
    2468:	11 e8 b7    	mov.b     WREG, 0x811

0000246a <.L46>:
    246a:	51 16 80    	mov.w     0x2ca, w1
    246c:	00 00 28    	mov.w     #0x8000, w0
    246e:	00 80 60    	and.w     w1, w0, w0
    2470:	00 00 e0    	cp0.w     w0
    2472:	0b 00 3a    	bra       NZ, 0x248a <.L47>
    2474:	12 c8 bf    	mov.b     0x812, WREG
    2476:	00 80 fb    	ze        w0, w0
    2478:	80 00 e8    	inc.w     w0, w1
    247a:	60 00 20    	mov.w     #0x6, w0
    247c:	00 01 78    	mov.w     w0, w2
    247e:	11 00 09    	repeat    #0x11
    2480:	82 00 d8    	div.sw    w1, w2
    2482:	80 00 fd    	exch      w0, w1
    2484:	00 40 78    	mov.b     w0, w0
    2486:	12 e8 b7    	mov.b     WREG, 0x812
    2488:	07 00 37    	bra       0x2498 <.L48>

0000248a <.L47>:
    248a:	50 17 80    	mov.w     0x2ea, w0
    248c:	68 00 60    	and.w     w0, #0x8, w0
    248e:	00 00 e0    	cp0.w     w0
    2490:	03 00 3a    	bra       NZ, 0x2498 <.L48>
    2492:	12 c8 bf    	mov.b     0x812, WREG
    2494:	00 40 e9    	dec.b     w0, w0
    2496:	12 e8 b7    	mov.b     WREG, 0x812

00002498 <.L48>:
    2498:	12 c8 bf    	mov.b     0x812, WREG
    249a:	e5 4f 50    	sub.b     w0, #0x5, [w15]
    249c:	03 00 36    	bra       LEU, 0x24a4 <.L49>
    249e:	12 c8 bf    	mov.b     0x812, WREG
    24a0:	66 40 40    	add.b     w0, #0x6, w0
    24a2:	12 e8 b7    	mov.b     WREG, 0x812

000024a4 <.L49>:
    24a4:	d1 16 80    	mov.w     0x2da, w1
    24a6:	00 10 20    	mov.w     #0x100, w0
    24a8:	00 80 60    	and.w     w1, w0, w0
    24aa:	00 00 e0    	cp0.w     w0
    24ac:	0b 00 3a    	bra       NZ, 0x24c4 <.L50>
    24ae:	13 c8 bf    	mov.b     0x813, WREG
    24b0:	00 80 fb    	ze        w0, w0
    24b2:	80 00 e8    	inc.w     w0, w1
    24b4:	60 00 20    	mov.w     #0x6, w0
    24b6:	00 01 78    	mov.w     w0, w2
    24b8:	11 00 09    	repeat    #0x11
    24ba:	82 00 d8    	div.sw    w1, w2
    24bc:	80 00 fd    	exch      w0, w1
    24be:	00 40 78    	mov.b     w0, w0
    24c0:	13 e8 b7    	mov.b     WREG, 0x813
    24c2:	08 00 37    	bra       0x24d4 <.L51>

000024c4 <.L50>:
    24c4:	d1 16 80    	mov.w     0x2da, w1
    24c6:	00 80 20    	mov.w     #0x800, w0
    24c8:	00 80 60    	and.w     w1, w0, w0
    24ca:	00 00 e0    	cp0.w     w0
    24cc:	03 00 3a    	bra       NZ, 0x24d4 <.L51>
    24ce:	13 c8 bf    	mov.b     0x813, WREG
    24d0:	00 40 e9    	dec.b     w0, w0
    24d2:	13 e8 b7    	mov.b     WREG, 0x813

000024d4 <.L51>:
    24d4:	13 c8 bf    	mov.b     0x813, WREG
    24d6:	e5 4f 50    	sub.b     w0, #0x5, [w15]
    24d8:	03 00 36    	bra       LEU, 0x24e0 <.L52>
    24da:	13 c8 bf    	mov.b     0x813, WREG
    24dc:	66 40 40    	add.b     w0, #0x6, w0
    24de:	13 e8 b7    	mov.b     WREG, 0x813

000024e0 <.L52>:
    24e0:	d1 16 80    	mov.w     0x2da, w1
    24e2:	00 20 20    	mov.w     #0x200, w0
    24e4:	00 80 60    	and.w     w1, w0, w0
    24e6:	00 00 e0    	cp0.w     w0
    24e8:	0b 00 3a    	bra       NZ, 0x2500 <.L53>
    24ea:	14 c8 bf    	mov.b     0x814, WREG
    24ec:	00 80 fb    	ze        w0, w0
    24ee:	80 00 e8    	inc.w     w0, w1
    24f0:	60 00 20    	mov.w     #0x6, w0
    24f2:	00 01 78    	mov.w     w0, w2
    24f4:	11 00 09    	repeat    #0x11
    24f6:	82 00 d8    	div.sw    w1, w2
    24f8:	80 00 fd    	exch      w0, w1
    24fa:	00 40 78    	mov.b     w0, w0
    24fc:	14 e8 b7    	mov.b     WREG, 0x814
    24fe:	08 00 37    	bra       0x2510 <.L54>

00002500 <.L53>:
    2500:	d1 16 80    	mov.w     0x2da, w1
    2502:	00 40 20    	mov.w     #0x400, w0
    2504:	00 80 60    	and.w     w1, w0, w0
    2506:	00 00 e0    	cp0.w     w0
    2508:	03 00 3a    	bra       NZ, 0x2510 <.L54>
    250a:	14 c8 bf    	mov.b     0x814, WREG
    250c:	00 40 e9    	dec.b     w0, w0
    250e:	14 e8 b7    	mov.b     WREG, 0x814

00002510 <.L54>:
    2510:	14 c8 bf    	mov.b     0x814, WREG
    2512:	e5 4f 50    	sub.b     w0, #0x5, [w15]
    2514:	03 00 36    	bra       LEU, 0x251c <.L55>
    2516:	14 c8 bf    	mov.b     0x814, WREG
    2518:	66 40 40    	add.b     w0, #0x6, w0
    251a:	14 e8 b7    	mov.b     WREG, 0x814

0000251c <.L55>:
    251c:	a9 fc 07    	rcall     0x1e70 <_updateDisplay> <.LFB8> <.LFE5>
    251e:	00 80 fa    	ulnk      
    2520:	34 00 f9    	pop       0x34
    2522:	32 00 f9    	pop       0x32
    2524:	4f 03 be    	mov.d     [--w15], w6
    2526:	4f 02 be    	mov.d     [--w15], w4
    2528:	4f 01 be    	mov.d     [--w15], w2
    252a:	4f 00 be    	mov.d     [--w15], w0
    252c:	36 00 f9    	pop       0x36
    252e:	00 40 06    	retfie    

00002530 <__SI2C2Interrupt>:
uint8_t lose_flag = 0;

volatile I2CSTATE i2c2_state = STATE_WAIT_FOR_ADDR;

void __attribute__((interrupt, auto_psv)) _SI2C2Interrupt(void) {
    2530:	80 9f be    	mov.d     w0, [w15++]
    2532:	32 00 f8    	push      0x32
    2534:	34 00 f8    	push      0x34
    2536:	10 00 20    	mov.w     #0x1, w0
    2538:	a0 01 88    	mov.w     w0, 0x34
    253a:	00 20 20    	mov.w     #0x200, w0
    253c:	90 01 88    	mov.w     w0, 0x32
    253e:	02 00 fa    	lnk       #0x2
    uint8_t u8_c;
    _SI2C2IF = 0;
    2540:	8a 20 a9    	bclr.b    0x8a, #0x1

    switch (i2c2_state) {
    2542:	40 41 80    	mov.w     0x828, w0
    2544:	e1 0f 50    	sub.w     w0, #0x1, [w15]
    2546:	23 00 32    	bra       Z, 0x258e <.L4>
    2548:	e1 0f 50    	sub.w     w0, #0x1, [w15]
    254a:	03 00 39    	bra       NC, 0x2552 <.L3>
    254c:	e2 0f 50    	sub.w     w0, #0x2, [w15]
    254e:	4b 00 32    	bra       Z, 0x25e6 <.L5>
    2550:	4c 00 37    	bra       0x25ea <.L17>

00002552 <.L3>:

    case STATE_WAIT_FOR_ADDR:
        u8_c = I2C2RCV;     //clear RBF bit for address
    2552:	80 10 80    	mov.w     0x210, w0
    2554:	00 4f 78    	mov.b     w0, [w14]
        if (I2C2STATbits.R_W) {   // if data transfer is out from slave // check R/W bit of address byte
    2556:	c0 10 80    	mov.w     0x218, w0
    2558:	64 00 60    	and.w     w0, #0x4, w0
    255a:	00 00 e0    	cp0.w     w0
    255c:	15 00 32    	bra       Z, 0x2588 <.L6>
            _byte_to_master = (complete_flag << 7) | ((num_strikes & 0b111) << 4) | (error_code & 0b1111) ; // assemble
    255e:	21 c8 bf    	mov.b     0x821, WREG
    2560:	00 80 fb    	ze        w0, w0
    2562:	47 00 dd    	sl.w      w0, #0x7, w0
    2564:	80 40 78    	mov.b     w0, w1
    2566:	22 c8 bf    	mov.b     0x822, WREG
    2568:	00 80 fb    	ze        w0, w0
    256a:	67 00 60    	and.w     w0, #0x7, w0
    256c:	44 00 dd    	sl.w      w0, #0x4, w0
    256e:	00 40 78    	mov.b     w0, w0
    2570:	80 c0 70    	ior.b     w1, w0, w1
    2572:	23 c8 bf    	mov.b     0x823, WREG
    2574:	6f 40 60    	and.b     w0, #0xf, w0
    2576:	00 c0 70    	ior.b     w1, w0, w0
    2578:	1e e8 b7    	mov.b     WREG, 0x81e
            I2C2TRN = _byte_to_master;   //Set transmit register to first data byte to send back to master
    257a:	1e c8 bf    	mov.b     0x81e, WREG
    257c:	00 80 fb    	ze        w0, w0
    257e:	90 10 88    	mov.w     w0, 0x212
            I2C2CONbits.SCLREL = 1;    //  SCL released during slave read so master can drive it
    2580:	17 82 a8    	bset.b    0x217, #0x4
            i2c2_state = STATE_END_TRANSACTION; //goes to read transaction
    2582:	20 00 20    	mov.w     #0x2, w0
    2584:	40 41 88    	mov.w     w0, 0x828
        }
        else i2c2_state = STATE_RECEIVE_FROM_MASTER;     // goes to write transaction
        break;
    2586:	32 00 37    	bra       0x25ec <.L1>

00002588 <.L6>:
    2588:	10 00 20    	mov.w     #0x1, w0
    258a:	40 41 88    	mov.w     w0, 0x828
    258c:	2f 00 37    	bra       0x25ec <.L1>

0000258e <.L4>:

    case STATE_RECEIVE_FROM_MASTER:     // write transaction state, character arrived, place in buffer
        _data_from_master = I2C2RCV;        //read the byte
    258e:	80 10 80    	mov.w     0x210, w0
    2590:	00 40 78    	mov.b     w0, w0
    2592:	1f e8 b7    	mov.b     WREG, 0x81f
        switch (_data_from_master >> 5){
    2594:	1f c8 bf    	mov.b     0x81f, WREG
    2596:	00 80 fb    	ze        w0, w0
    2598:	45 00 de    	lsr.w     w0, #0x5, w0
    259a:	00 40 78    	mov.b     w0, w0
    259c:	00 80 fb    	ze        w0, w0
    259e:	e2 0f 50    	sub.w     w0, #0x2, [w15]
    25a0:	1a 00 32    	bra       Z, 0x25d6 <.L12>
    25a2:	e2 0f 50    	sub.w     w0, #0x2, [w15]
    25a4:	05 00 3c    	bra       GT, 0x25b0 <.L15>
    25a6:	00 00 e0    	cp0.w     w0
    25a8:	10 00 32    	bra       Z, 0x25ca <.L10>
    25aa:	e1 0f 50    	sub.w     w0, #0x1, [w15]
    25ac:	11 00 32    	bra       Z, 0x25d0 <.L11>
    25ae:	16 00 37    	bra       0x25dc <.L9>

000025b0 <.L15>:
    25b0:	e4 0f 50    	sub.w     w0, #0x4, [w15]
    25b2:	03 00 32    	bra       Z, 0x25ba <.L13>
    25b4:	e7 0f 50    	sub.w     w0, #0x7, [w15]
    25b6:	05 00 32    	bra       Z, 0x25c2 <.L14>
    25b8:	11 00 37    	bra       0x25dc <.L9>

000025ba <.L13>:
            case HEADER_SERIAL_NUMBER: // 100
                serial_number = _data_from_master & 0b00011111 ;
    25ba:	1f c8 bf    	mov.b     0x81f, WREG
    25bc:	7f 40 60    	and.b     w0, #0x1f, w0
    25be:	20 e8 b7    	mov.b     WREG, 0x820
            break;
    25c0:	10 00 37    	bra       0x25e2 <.L16>

000025c2 <.L14>:
            case HEADER_NUM_STRIKES:    // 111
                num_strikes = _data_from_master & 0b00011111 ;
    25c2:	1f c8 bf    	mov.b     0x81f, WREG
    25c4:	7f 40 60    	and.b     w0, #0x1f, w0
    25c6:	22 e8 b7    	mov.b     WREG, 0x822
            break;
    25c8:	0c 00 37    	bra       0x25e2 <.L16>

000025ca <.L10>:
            case HEADER_START_GAME:    // 000
                start_flag = 1 ;
    25ca:	10 c0 b3    	mov.b     #0x1, w0
    25cc:	24 e8 b7    	mov.b     WREG, 0x824
            break;
    25ce:	09 00 37    	bra       0x25e2 <.L16>

000025d0 <.L11>:
            case HEADER_END_WIN:    // 001
                win_flag = 1 ;
    25d0:	10 c0 b3    	mov.b     #0x1, w0
    25d2:	25 e8 b7    	mov.b     WREG, 0x825
            break;
    25d4:	06 00 37    	bra       0x25e2 <.L16>

000025d6 <.L12>:
            case HEADER_END_LOSE:    // 010
                lose_flag = 1 ;
    25d6:	10 c0 b3    	mov.b     #0x1, w0
    25d8:	26 e8 b7    	mov.b     WREG, 0x826
            break;
    25da:	03 00 37    	bra       0x25e2 <.L16>

000025dc <.L9>:

            default: error_code ++ ;
    25dc:	23 c8 bf    	mov.b     0x823, WREG
    25de:	00 40 e8    	inc.b     w0, w0
    25e0:	23 e8 b7    	mov.b     WREG, 0x823

000025e2 <.L16>:

        }
        i2c2_state = STATE_WAIT_FOR_ADDR;    // go to wait for next transaction
    25e2:	28 28 ef    	clr.w     0x828
        break;
    25e4:	03 00 37    	bra       0x25ec <.L1>

000025e6 <.L5>:

    case STATE_END_TRANSACTION:  //interrupt for last character finished shifting out to master
        i2c2_state = STATE_WAIT_FOR_ADDR;
    25e6:	28 28 ef    	clr.w     0x828
        break;
    25e8:	01 00 37    	bra       0x25ec <.L1>

000025ea <.L17>:

    default:
        i2c2_state = STATE_WAIT_FOR_ADDR;
    25ea:	28 28 ef    	clr.w     0x828

000025ec <.L1>:

    } // end of switch statements
}   // end of ISR
    25ec:	00 80 fa    	ulnk      
    25ee:	34 00 f9    	pop       0x34
    25f0:	32 00 f9    	pop       0x32
    25f2:	4f 00 be    	mov.d     [--w15], w0
    25f4:	00 40 06    	retfie    
Disassembly of section .text:

000025f6 <_init_elecanisms>:
*/

#include "elecanisms.h"

void init_elecanisms(void) {
    25f6:	00 00 fa    	lnk       #0x0
    CLKDIV = 0x0100;        // RCDIV = 001 (4MHz, div2), 
    25f8:	00 10 20    	mov.w     #0x100, w0
    25fa:	20 3a 88    	mov.w     w0, 0x744
                            // CPDIV = 00 (FOSC = 32MHz, FCY = 16MHz)

    // Configure all pins on the digital headers to be inputs
    D0_DIR = IN;
    25fc:	d8 a2 a8    	bset.b    0x2d8, #0x5
    D1_DIR = IN;
    25fe:	d8 82 a8    	bset.b    0x2d8, #0x4
    D2_DIR = IN;
    2600:	e8 82 a8    	bset.b    0x2e8, #0x4
    D3_DIR = IN;
    2602:	e8 a2 a8    	bset.b    0x2e8, #0x5
    D4_DIR = IN;
    2604:	c9 e2 a8    	bset.b    0x2c9, #0x7
    D5_DIR = IN;
    2606:	e8 62 a8    	bset.b    0x2e8, #0x3
    D6_DIR = IN;
    2608:	d9 02 a8    	bset.b    0x2d9, #0x0
    D7_DIR = IN;
    260a:	d9 62 a8    	bset.b    0x2d9, #0x3
    D8_DIR = IN;
    260c:	d9 22 a8    	bset.b    0x2d9, #0x1
    D9_DIR = IN;
    260e:	d9 42 a8    	bset.b    0x2d9, #0x2
    D10_DIR = IN;
    2610:	d8 02 a8    	bset.b    0x2d8, #0x0
    D11_DIR = IN;
    2612:	d8 22 a8    	bset.b    0x2d8, #0x1
    D12_DIR = IN;
    2614:	d8 42 a8    	bset.b    0x2d8, #0x2
    D13_DIR = IN;
    2616:	d8 62 a8    	bset.b    0x2d8, #0x3

    // Configure all pins on the analog header to be inputs
    A0_DIR = IN;
    2618:	c8 a2 a8    	bset.b    0x2c8, #0x5
    A1_DIR = IN;
    261a:	c8 82 a8    	bset.b    0x2c8, #0x4
    A2_DIR = IN;
    261c:	c8 62 a8    	bset.b    0x2c8, #0x3
    A3_DIR = IN;
    261e:	c8 42 a8    	bset.b    0x2c8, #0x2
    A4_DIR = IN;
    2620:	c8 22 a8    	bset.b    0x2c8, #0x1
    A5_DIR = IN;
    2622:	c8 02 a8    	bset.b    0x2c8, #0x0

    // Make all pins digital I/Os except for A0,...,A5
    ANSB = 0x003F;
    2624:	f0 03 20    	mov.w     #0x3f, w0
    2626:	10 27 88    	mov.w     w0, 0x4e2
    ANSC = 0;
    2628:	e4 24 ef    	clr.w     0x4e4
    ANSD = 0;
    262a:	e6 24 ef    	clr.w     0x4e6
    ANSF = 0;
    262c:	ea 24 ef    	clr.w     0x4ea
    ANSG = 0;
    262e:	ec 24 ef    	clr.w     0x4ec

    // Configure and enable the ADC module: 
    //   set output data format to integer (FORM<1:0> = 0b00)
    //   set conversion trigger source select bits to internal counter 
    //     (SSRC<2:0> = 0b111)
    //   set auto-sample time bits to 12*TAD (SAMC<4:0> = 12)
    //   set conversion clock select bits to 64*TCY (ADCS<7:0> = 64)
    //   set initial channel selection to A0
    AD1CON1 = 0x00E0; 
    2630:	00 0e 20    	mov.w     #0xe0, w0
    2632:	00 19 88    	mov.w     w0, 0x320
    AD1CON2 = 0;
    2634:	22 23 ef    	clr.w     0x322
    AD1CON3 = 0x0C40;
    2636:	00 c4 20    	mov.w     #0xc40, w0
    2638:	20 19 88    	mov.w     w0, 0x324
    AD1CHS = A0_AN;
    263a:	50 00 20    	mov.w     #0x5, w0
    263c:	40 19 88    	mov.w     w0, 0x328
    AD1CON1bits.ADON = 1;
    263e:	21 e3 a8    	bset.b    0x321, #0x7

    // Configure LED pins as outputs, set to low (off)
    LED1_DIR = OUT; LED1 = 0;
    2640:	d8 e2 a9    	bclr.b    0x2d8, #0x7
    2642:	dc e2 a9    	bclr.b    0x2dc, #0x7
    LED2_DIR = OUT; LED2 = 0;
    2644:	e8 02 a9    	bclr.b    0x2e8, #0x0
    2646:	ec 02 a9    	bclr.b    0x2ec, #0x0
    LED3_DIR = OUT; LED3 = 0;
    2648:	e8 22 a9    	bclr.b    0x2e8, #0x1
    264a:	ec 22 a9    	bclr.b    0x2ec, #0x1

    // Configure SW pins as inputs
    SW1_DIR = IN;
    264c:	d1 e2 a8    	bset.b    0x2d1, #0x7
    SW2_DIR = IN;
    264e:	d1 82 a8    	bset.b    0x2d1, #0x4
    SW3_DIR = IN;
    2650:	c9 82 a8    	bset.b    0x2c9, #0x4
}
    2652:	00 80 fa    	ulnk      
    2654:	00 00 06    	return    

00002656 <_read_analog>:

uint16_t read_analog(uint16_t pin_an) {
    2656:	02 00 fa    	lnk       #0x2
    2658:	00 0f 78    	mov.w     w0, [w14]
    AD1CHS = pin_an;
    265a:	9e 00 78    	mov.w     [w14], w1
    265c:	41 19 88    	mov.w     w1, 0x328
    AD1CON1bits.SAMP = 1;
    265e:	20 23 a8    	bset.b    0x320, #0x1
    while (AD1CON1bits.DONE == 0) {}
    2660:	00 00 00    	nop       

00002662 <.L3>:
    2662:	00 19 80    	mov.w     0x320, w0
    2664:	61 00 60    	and.w     w0, #0x1, w0
    2666:	00 00 e0    	cp0.w     w0
    2668:	fc ff 32    	bra       Z, 0x2662 <.L3>
    return ADC1BUF0;
    266a:	00 18 80    	mov.w     0x300, w0
}
    266c:	00 80 fa    	ulnk      
    266e:	00 00 06    	return    

00002670 <_parity>:

#include "common.h"

uint8_t parity(uint16_t v)
{
    2670:	02 00 fa    	lnk       #0x2
    2672:	00 0f 78    	mov.w     w0, [w14]
    v ^= v >> 8;
    2674:	1e 00 78    	mov.w     [w14], w0
    2676:	48 00 de    	lsr.w     w0, #0x8, w0
    2678:	1e 0f 68    	xor.w     w0, [w14], [w14]
    v ^= v >> 4;
    267a:	1e 00 78    	mov.w     [w14], w0
    267c:	44 00 de    	lsr.w     w0, #0x4, w0
    267e:	1e 0f 68    	xor.w     w0, [w14], [w14]
    v ^= v >> 2;
    2680:	1e 00 78    	mov.w     [w14], w0
    2682:	42 00 de    	lsr.w     w0, #0x2, w0
    2684:	1e 0f 68    	xor.w     w0, [w14], [w14]
    v ^= v >> 1;
    2686:	1e 00 78    	mov.w     [w14], w0
    2688:	00 00 d1    	lsr.w     w0, w0
    268a:	1e 0f 68    	xor.w     w0, [w14], [w14]
    return v & 1;
    268c:	1e 00 78    	mov.w     [w14], w0
    268e:	00 40 78    	mov.b     w0, w0
    2690:	61 40 60    	and.b     w0, #0x1, w0
}
    2692:	00 80 fa    	ulnk      
    2694:	00 00 06    	return    
Disassembly of section .dinit:

00002696 <.dinit>:
    2696:	3a 08 00    	nop       
    2698:	06 00 00    	nop       
    269a:	80 00 00    	nop       
    269c:	00 08 00    	nop       
    269e:	1e 00 00    	nop       
    26a0:	80 00 00    	nop       
    26a2:	2a 08 00    	nop       
    26a4:	10 00 00    	nop       
    26a6:	80 00 00    	nop       
    26a8:	1e 08 00    	nop       
    26aa:	0c 00 00    	nop       
    26ac:	80 00 00    	nop       
    26ae:	00 00 00    	nop       
Disassembly of section .isr:

000026b0 <__DefaultInterrupt>:
    26b0:	00 40 da    	break     
    26b2:	00 00 fe    	reset     
