
codeword.elf:     file format elf32-pic30

Disassembly of section .aivt._AltADC1Interrupt:

0000012e <.aivt._AltADC1Interrupt>:
 12e:	92 24 00    	nop       
Disassembly of section .aivt._AltAddressError:

00000108 <.aivt._AltAddressError>:
 108:	92 24 00    	nop       
Disassembly of section .aivt._AltCNInterrupt:

0000013a <.aivt._AltCNInterrupt>:
 13a:	92 24 00    	nop       
Disassembly of section .aivt._AltCRCInterrupt:

0000019a <.aivt._AltCRCInterrupt>:
 19a:	92 24 00    	nop       
Disassembly of section .aivt._AltCTMUInterrupt:

000001ae <.aivt._AltCTMUInterrupt>:
 1ae:	92 24 00    	nop       
Disassembly of section .aivt._AltCompInterrupt:

00000138 <.aivt._AltCompInterrupt>:
 138:	92 24 00    	nop       
Disassembly of section .aivt._AltIC1Interrupt:

00000116 <.aivt._AltIC1Interrupt>:
 116:	92 24 00    	nop       
Disassembly of section .aivt._AltIC2Interrupt:

0000011e <.aivt._AltIC2Interrupt>:
 11e:	92 24 00    	nop       
Disassembly of section .aivt._AltIC3Interrupt:

0000015e <.aivt._AltIC3Interrupt>:
 15e:	92 24 00    	nop       
Disassembly of section .aivt._AltIC4Interrupt:

00000160 <.aivt._AltIC4Interrupt>:
 160:	92 24 00    	nop       
Disassembly of section .aivt._AltIC5Interrupt:

00000162 <.aivt._AltIC5Interrupt>:
 162:	92 24 00    	nop       
Disassembly of section .aivt._AltIC6Interrupt:

00000164 <.aivt._AltIC6Interrupt>:
 164:	92 24 00    	nop       
Disassembly of section .aivt._AltIC7Interrupt:

00000140 <.aivt._AltIC7Interrupt>:
 140:	92 24 00    	nop       
Disassembly of section .aivt._AltIC8Interrupt:

00000142 <.aivt._AltIC8Interrupt>:
 142:	92 24 00    	nop       
Disassembly of section .aivt._AltIC9Interrupt:

000001ce <.aivt._AltIC9Interrupt>:
 1ce:	92 24 00    	nop       
Disassembly of section .aivt._AltINT0Interrupt:

00000114 <.aivt._AltINT0Interrupt>:
 114:	92 24 00    	nop       
Disassembly of section .aivt._AltINT1Interrupt:

0000013c <.aivt._AltINT1Interrupt>:
 13c:	92 24 00    	nop       
Disassembly of section .aivt._AltINT2Interrupt:

0000014e <.aivt._AltINT2Interrupt>:
 14e:	92 24 00    	nop       
Disassembly of section .aivt._AltINT3Interrupt:

0000017e <.aivt._AltINT3Interrupt>:
 17e:	92 24 00    	nop       
Disassembly of section .aivt._AltINT4Interrupt:

00000180 <.aivt._AltINT4Interrupt>:
 180:	92 24 00    	nop       
Disassembly of section .aivt._AltInterrupt14:

00000130 <.aivt._AltInterrupt14>:
 130:	92 24 00    	nop       
Disassembly of section .aivt._AltInterrupt15:

00000132 <.aivt._AltInterrupt15>:
 132:	92 24 00    	nop       
Disassembly of section .aivt._AltInterrupt21:

0000013e <.aivt._AltInterrupt21>:
 13e:	92 24 00    	nop       
Disassembly of section .aivt._AltInterrupt24:

00000144 <.aivt._AltInterrupt24>:
 144:	92 24 00    	nop       
Disassembly of section .aivt._AltInterrupt34:

00000158 <.aivt._AltInterrupt34>:
 158:	92 24 00    	nop       
Disassembly of section .aivt._AltInterrupt35:

0000015a <.aivt._AltInterrupt35>:
 15a:	92 24 00    	nop       
Disassembly of section .aivt._AltInterrupt36:

0000015c <.aivt._AltInterrupt36>:
 15c:	92 24 00    	nop       
Disassembly of section .aivt._AltInterrupt4:

0000011c <.aivt._AltInterrupt4>:
 11c:	92 24 00    	nop       
Disassembly of section .aivt._AltInterrupt46:

00000170 <.aivt._AltInterrupt46>:
 170:	92 24 00    	nop       
Disassembly of section .aivt._AltInterrupt47:

00000172 <.aivt._AltInterrupt47>:
 172:	92 24 00    	nop       
Disassembly of section .aivt._AltInterrupt48:

00000174 <.aivt._AltInterrupt48>:
 174:	92 24 00    	nop       
Disassembly of section .aivt._AltInterrupt51:

0000017a <.aivt._AltInterrupt51>:
 17a:	92 24 00    	nop       
Disassembly of section .aivt._AltInterrupt52:

0000017c <.aivt._AltInterrupt52>:
 17c:	92 24 00    	nop       
Disassembly of section .aivt._AltInterrupt55:

00000182 <.aivt._AltInterrupt55>:
 182:	92 24 00    	nop       
Disassembly of section .aivt._AltInterrupt56:

00000184 <.aivt._AltInterrupt56>:
 184:	92 24 00    	nop       
Disassembly of section .aivt._AltInterrupt57:

00000186 <.aivt._AltInterrupt57>:
 186:	92 24 00    	nop       
Disassembly of section .aivt._AltInterrupt58:

00000188 <.aivt._AltInterrupt58>:
 188:	92 24 00    	nop       
Disassembly of section .aivt._AltInterrupt59:

0000018a <.aivt._AltInterrupt59>:
 18a:	92 24 00    	nop       
Disassembly of section .aivt._AltInterrupt60:

0000018c <.aivt._AltInterrupt60>:
 18c:	92 24 00    	nop       
Disassembly of section .aivt._AltInterrupt61:

0000018e <.aivt._AltInterrupt61>:
 18e:	92 24 00    	nop       
Disassembly of section .aivt._AltInterrupt63:

00000192 <.aivt._AltInterrupt63>:
 192:	92 24 00    	nop       
Disassembly of section .aivt._AltInterrupt64:

00000194 <.aivt._AltInterrupt64>:
 194:	92 24 00    	nop       
Disassembly of section .aivt._AltInterrupt68:

0000019c <.aivt._AltInterrupt68>:
 19c:	92 24 00    	nop       
Disassembly of section .aivt._AltInterrupt69:

0000019e <.aivt._AltInterrupt69>:
 19e:	92 24 00    	nop       
Disassembly of section .aivt._AltInterrupt70:

000001a0 <.aivt._AltInterrupt70>:
 1a0:	92 24 00    	nop       
Disassembly of section .aivt._AltInterrupt71:

000001a2 <.aivt._AltInterrupt71>:
 1a2:	92 24 00    	nop       
Disassembly of section .aivt._AltInterrupt73:

000001a6 <.aivt._AltInterrupt73>:
 1a6:	92 24 00    	nop       
Disassembly of section .aivt._AltInterrupt74:

000001a8 <.aivt._AltInterrupt74>:
 1a8:	92 24 00    	nop       
Disassembly of section .aivt._AltInterrupt75:

000001aa <.aivt._AltInterrupt75>:
 1aa:	92 24 00    	nop       
Disassembly of section .aivt._AltInterrupt76:

000001ac <.aivt._AltInterrupt76>:
 1ac:	92 24 00    	nop       
Disassembly of section .aivt._AltInterrupt78:

000001b0 <.aivt._AltInterrupt78>:
 1b0:	92 24 00    	nop       
Disassembly of section .aivt._AltInterrupt79:

000001b2 <.aivt._AltInterrupt79>:
 1b2:	92 24 00    	nop       
Disassembly of section .aivt._AltInterrupt80:

000001b4 <.aivt._AltInterrupt80>:
 1b4:	92 24 00    	nop       
Disassembly of section .aivt._AltLVDInterrupt:

000001a4 <.aivt._AltLVDInterrupt>:
 1a4:	92 24 00    	nop       
Disassembly of section .aivt._AltMI2C1Interrupt:

00000136 <.aivt._AltMI2C1Interrupt>:
 136:	92 24 00    	nop       
Disassembly of section .aivt._AltMI2C2Interrupt:

00000178 <.aivt._AltMI2C2Interrupt>:
 178:	92 24 00    	nop       
Disassembly of section .aivt._AltMI2C3Interrupt:

000001be <.aivt._AltMI2C3Interrupt>:
 1be:	92 24 00    	nop       
Disassembly of section .aivt._AltMathError:

0000010c <.aivt._AltMathError>:
 10c:	92 24 00    	nop       
Disassembly of section .aivt._AltOC1Interrupt:

00000118 <.aivt._AltOC1Interrupt>:
 118:	92 24 00    	nop       
Disassembly of section .aivt._AltOC2Interrupt:

00000120 <.aivt._AltOC2Interrupt>:
 120:	92 24 00    	nop       
Disassembly of section .aivt._AltOC3Interrupt:

00000146 <.aivt._AltOC3Interrupt>:
 146:	92 24 00    	nop       
Disassembly of section .aivt._AltOC4Interrupt:

00000148 <.aivt._AltOC4Interrupt>:
 148:	92 24 00    	nop       
Disassembly of section .aivt._AltOC5Interrupt:

00000166 <.aivt._AltOC5Interrupt>:
 166:	92 24 00    	nop       
Disassembly of section .aivt._AltOC6Interrupt:

00000168 <.aivt._AltOC6Interrupt>:
 168:	92 24 00    	nop       
Disassembly of section .aivt._AltOC7Interrupt:

0000016a <.aivt._AltOC7Interrupt>:
 16a:	92 24 00    	nop       
Disassembly of section .aivt._AltOC8Interrupt:

0000016c <.aivt._AltOC8Interrupt>:
 16c:	92 24 00    	nop       
Disassembly of section .aivt._AltOC9Interrupt:

000001cc <.aivt._AltOC9Interrupt>:
 1cc:	92 24 00    	nop       
Disassembly of section .aivt._AltOscillatorFail:

00000106 <.aivt._AltOscillatorFail>:
 106:	92 24 00    	nop       
Disassembly of section .aivt._AltPMPInterrupt:

0000016e <.aivt._AltPMPInterrupt>:
 16e:	92 24 00    	nop       
Disassembly of section .aivt._AltRTCCInterrupt:

00000190 <.aivt._AltRTCCInterrupt>:
 190:	92 24 00    	nop       
Disassembly of section .aivt._AltReservedTrap0:

00000104 <.aivt._AltReservedTrap0>:
 104:	92 24 00    	nop       
Disassembly of section .aivt._AltReservedTrap5:

0000010e <.aivt._AltReservedTrap5>:
 10e:	92 24 00    	nop       
Disassembly of section .aivt._AltReservedTrap6:

00000110 <.aivt._AltReservedTrap6>:
 110:	92 24 00    	nop       
Disassembly of section .aivt._AltReservedTrap7:

00000112 <.aivt._AltReservedTrap7>:
 112:	92 24 00    	nop       
Disassembly of section .aivt._AltSI2C1Interrupt:

00000134 <.aivt._AltSI2C1Interrupt>:
 134:	92 24 00    	nop       
Disassembly of section .aivt._AltSI2C2Interrupt:

00000176 <.aivt._AltSI2C2Interrupt>:
 176:	92 24 00    	nop       
Disassembly of section .aivt._AltSI2C3Interrupt:

000001bc <.aivt._AltSI2C3Interrupt>:
 1bc:	92 24 00    	nop       
Disassembly of section .aivt._AltSPI1ErrInterrupt:

00000126 <.aivt._AltSPI1ErrInterrupt>:
 126:	92 24 00    	nop       
Disassembly of section .aivt._AltSPI1Interrupt:

00000128 <.aivt._AltSPI1Interrupt>:
 128:	92 24 00    	nop       
Disassembly of section .aivt._AltSPI2ErrInterrupt:

00000154 <.aivt._AltSPI2ErrInterrupt>:
 154:	92 24 00    	nop       
Disassembly of section .aivt._AltSPI2Interrupt:

00000156 <.aivt._AltSPI2Interrupt>:
 156:	92 24 00    	nop       
Disassembly of section .aivt._AltSPI3ErrInterrupt:

000001c8 <.aivt._AltSPI3ErrInterrupt>:
 1c8:	92 24 00    	nop       
Disassembly of section .aivt._AltSPI3Interrupt:

000001ca <.aivt._AltSPI3Interrupt>:
 1ca:	92 24 00    	nop       
Disassembly of section .aivt._AltStackError:

0000010a <.aivt._AltStackError>:
 10a:	92 24 00    	nop       
Disassembly of section .aivt._AltT1Interrupt:

0000011a <.aivt._AltT1Interrupt>:
 11a:	92 24 00    	nop       
Disassembly of section .aivt._AltT2Interrupt:

00000122 <.aivt._AltT2Interrupt>:
 122:	92 24 00    	nop       
Disassembly of section .aivt._AltT3Interrupt:

00000124 <.aivt._AltT3Interrupt>:
 124:	92 24 00    	nop       
Disassembly of section .aivt._AltT4Interrupt:

0000014a <.aivt._AltT4Interrupt>:
 14a:	92 24 00    	nop       
Disassembly of section .aivt._AltT5Interrupt:

0000014c <.aivt._AltT5Interrupt>:
 14c:	92 24 00    	nop       
Disassembly of section .aivt._AltU1ErrInterrupt:

00000196 <.aivt._AltU1ErrInterrupt>:
 196:	92 24 00    	nop       
Disassembly of section .aivt._AltU1RXInterrupt:

0000012a <.aivt._AltU1RXInterrupt>:
 12a:	92 24 00    	nop       
Disassembly of section .aivt._AltU1TXInterrupt:

0000012c <.aivt._AltU1TXInterrupt>:
 12c:	92 24 00    	nop       
Disassembly of section .aivt._AltU2ErrInterrupt:

00000198 <.aivt._AltU2ErrInterrupt>:
 198:	92 24 00    	nop       
Disassembly of section .aivt._AltU2RXInterrupt:

00000150 <.aivt._AltU2RXInterrupt>:
 150:	92 24 00    	nop       
Disassembly of section .aivt._AltU2TXInterrupt:

00000152 <.aivt._AltU2TXInterrupt>:
 152:	92 24 00    	nop       
Disassembly of section .aivt._AltU3ErrInterrupt:

000001b6 <.aivt._AltU3ErrInterrupt>:
 1b6:	92 24 00    	nop       
Disassembly of section .aivt._AltU3RXInterrupt:

000001b8 <.aivt._AltU3RXInterrupt>:
 1b8:	92 24 00    	nop       
Disassembly of section .aivt._AltU3TXInterrupt:

000001ba <.aivt._AltU3TXInterrupt>:
 1ba:	92 24 00    	nop       
Disassembly of section .aivt._AltU4ErrInterrupt:

000001c2 <.aivt._AltU4ErrInterrupt>:
 1c2:	92 24 00    	nop       
Disassembly of section .aivt._AltU4RXInterrupt:

000001c4 <.aivt._AltU4RXInterrupt>:
 1c4:	92 24 00    	nop       
Disassembly of section .aivt._AltU4TXInterrupt:

000001c6 <.aivt._AltU4TXInterrupt>:
 1c6:	92 24 00    	nop       
Disassembly of section .aivt._AltUSB1Interrupt:

000001c0 <.aivt._AltUSB1Interrupt>:
 1c0:	92 24 00    	nop       
Disassembly of section .reset:

00000000 <.reset>:
   0:	10 11 04    	goto      0x1110 <__reset>
   2:	00 00 00 
Disassembly of section .text:

00001110 <__reset>:
    1110:	0f 84 20    	mov.w     #0x840, w15
    1112:	0e ff 27    	mov.w     #0x7ff0, w14
    1114:	0e 01 88    	mov.w     w14, 0x20
    1116:	00 00 00    	nop       
    1118:	00 00 20    	mov.w     #0x0, w0
    111a:	00 00 e0    	cp0.w     w0
    111c:	02 00 32    	bra       Z, 0x1122 <CORCON_RESET>
    111e:	00 01 20    	mov.w     #0x10, w0
    1120:	20 02 88    	mov.w     w0, 0x44

00001122 <CORCON_RESET>:
    1122:	14 00 07    	rcall     0x114c <__psv_init>
    1124:	7d 00 07    	rcall     0x1220 <__crt_start_mode> <__crt_start_mode_normal>
    1126:	00 00 e0    	cp0.w     w0
    1128:	03 00 3a    	bra       NZ, 0x1130 <L11>
    112a:	80 47 22    	mov.w     #0x2478, w0
    112c:	01 00 20    	mov.w     #0x0, w1
    112e:	02 00 37    	bra       0x1134 <L21>

00001130 <L11>:
    1130:	00 00 20    	mov.w     #0x0, w0
    1132:	01 00 20    	mov.w     #0x0, w1

00001134 <L21>:
    1134:	81 0f 70    	ior.w     w0, w1, [w15]
    1136:	01 00 32    	bra       Z, 0x113a <L12>
    1138:	14 00 07    	rcall     0x1162 <__data_init> <__data_init_da>

0000113a <L12>:
    113a:	00 00 20    	mov.w     #0x0, w0
    113c:	00 00 e0    	cp0.w     w0
    113e:	02 00 32    	bra       Z, 0x1144 <L13>
    1140:	00 00 02    	call      0x0 <__DEFAULT_VECTOR-0x110c>
    1142:	00 00 00 

00001144 <L13>:
    1144:	da 1a 02    	call      0x1ada <_main>
    1146:	00 00 00 
    1148:	00 40 da    	break     
    114a:	00 00 fe    	reset     

0000114c <__psv_init>:
    114c:	44 40 a9    	bclr.b    0x44, #0x2
    114e:	e0 3c 20    	mov.w     #0x3ce, w0
    1150:	00 00 e0    	cp0.w     w0
    1152:	03 00 32    	bra       Z, 0x115a <L14>
    1154:	00 20 20    	mov.w     #0x200, w0
    1156:	90 01 88    	mov.w     w0, 0x32
    1158:	44 40 a8    	bset.b    0x44, #0x2

0000115a <L14>:
    115a:	00 00 06    	return    

0000115c <__long_indirect_call>:
    115c:	8a 1f 78    	mov.w     w10, [w15++]
    115e:	8b 1f 78    	mov.w     w11, [w15++]
    1160:	00 00 06    	return    

00001162 <__data_init>:
    1162:	a1 02 88    	mov.w     w1, 0x54
    1164:	80 04 78    	mov.w     w0, w9
    1166:	00 00 eb    	clr.w     w0
    1168:	1f 00 37    	bra       0x11a8 <L41>

0000116a <L11>:
    116a:	e2 84 44    	add.w     w9, #0x2, w9
    116c:	54 a0 b4    	addc.w    0x54
    116e:	99 05 ba    	tblrdl.w  [w9], w11
    1170:	e2 84 44    	add.w     w9, #0x2, w9
    1172:	54 a0 b4    	addc.w    0x54
    1174:	99 06 ba    	tblrdl.w  [w9], w13
    1176:	e2 84 44    	add.w     w9, #0x2, w9
    1178:	54 a0 b4    	addc.w    0x54
    117a:	00 06 eb    	clr.w     w12
    117c:	47 6f de    	lsr.w     w13, #0x7, w14
    117e:	fd 07 b2    	and.w     #0x7f, w13
    1180:	ae 01 88    	mov.w     w14, 0x34
    1182:	63 6c e1    	cp.b      w13, #0x3
    1184:	03 00 3a    	bra       NZ, 0x118c <L21>
    1186:	ea ff 07    	rcall     0x115c <__long_indirect_call>
    1188:	00 00 eb    	clr.w     w0
    118a:	0e 00 37    	bra       0x11a8 <L41>

0000118c <L21>:
    118c:	60 6c e1    	cp.b      w13, #0x0
    118e:	08 00 3a    	bra       NZ, 0x11a0 <L22>

00001190 <L91>:
    1190:	00 4d eb    	clr.b     [w10]
    1192:	0a 05 e8    	inc.w     w10, w10
    1194:	02 00 39    	bra       NC, 0x119a <L81>
    1196:	34 20 ec    	inc.w     0x34
    1198:	0a f0 a0    	bset.w    w10, #0xf

0000119a <L81>:
    119a:	8b 05 e9    	dec.w     w11, w11
    119c:	f9 ff 3e    	bra       GTU, 0x1190 <L91>
    119e:	04 00 37    	bra       0x11a8 <L41>

000011a0 <L22>:
    11a0:	61 68 e1    	cp.w      w13, #0x1
    11a2:	01 00 32    	bra       Z, 0x11a6 <L31>
    11a4:	00 86 eb    	setm.w    w12

000011a6 <L31>:
    11a6:	0b 00 07    	rcall     0x11be <L13> <__memcpyd3extended>

000011a8 <L41>:
    11a8:	19 c7 ba    	tblrdh.b  [w9], w14
    11aa:	19 05 ba    	tblrdl.w  [w9], w10
    11ac:	0e 04 e0    	cp0.b     w14
    11ae:	03 00 3a    	bra       NZ, 0x11b6 <L12>
    11b0:	0a 00 e0    	cp0.w     w10
    11b2:	db ff 3a    	bra       NZ, 0x116a <L11>
    11b4:	00 00 06    	return    

000011b6 <L12>:
    11b6:	fe 07 b2    	and.w     #0x7f, w14
    11b8:	ae 02 88    	mov.w     w14, 0x54
    11ba:	8a 04 78    	mov.w     w10, w9
    11bc:	f5 ff 37    	bra       0x11a8 <L41>

000011be <L13>:
    11be:	0c d0 a3    	btst.c    w12, #0xd
    11c0:	e2 0f 4d    	addc.w    w10, #0x2, [w15]
    11c2:	1c 00 39    	bra       NC, 0x11fc <L23>
    11c4:	89 02 78    	mov.w     w9, w5
    11c6:	35 4d ba    	tblrdl.b  [w5++], [w10]
    11c8:	0a 05 e8    	inc.w     w10, w10
    11ca:	02 00 39    	bra       NC, 0x11d0 <L32>
    11cc:	34 20 ec    	inc.w     0x34
    11ce:	0a f0 a0    	bset.w    w10, #0xf

000011d0 <L32>:
    11d0:	8b 05 e9    	dec.w     w11, w11
    11d2:	0f 00 32    	bra       Z, 0x11f2 <L42>
    11d4:	25 4d ba    	tblrdl.b  [w5--], [w10]
    11d6:	0a 05 e8    	inc.w     w10, w10
    11d8:	02 00 39    	bra       NC, 0x11de <L33>
    11da:	34 20 ec    	inc.w     0x34
    11dc:	0a f0 a0    	bset.w    w10, #0xf

000011de <L33>:
    11de:	8b 05 e9    	dec.w     w11, w11
    11e0:	08 00 32    	bra       Z, 0x11f2 <L42>
    11e2:	0c 00 e0    	cp0.w     w12
    11e4:	06 00 32    	bra       Z, 0x11f2 <L42>
    11e6:	15 cd ba    	tblrdh.b  [w5], [w10]
    11e8:	0a 05 e8    	inc.w     w10, w10
    11ea:	02 00 39    	bra       NC, 0x11f0 <L34>
    11ec:	34 20 ec    	inc.w     0x34
    11ee:	0a f0 a0    	bset.w    w10, #0xf

000011f0 <L34>:
    11f0:	8b 05 e9    	dec.w     w11, w11

000011f2 <L42>:
    11f2:	89 84 e8    	inc2.w    w9, w9
    11f4:	54 a0 b4    	addc.w    0x54
    11f6:	0b 00 e0    	cp0.w     w11
    11f8:	e2 ff 3a    	bra       NZ, 0x11be <L13> <__memcpyd3extended>
    11fa:	00 00 06    	return    

000011fc <L23>:
    11fc:	99 02 ba    	tblrdl.w  [w9], w5
    11fe:	05 5d 78    	mov.b     w5, [w10++]
    1200:	8b 05 e9    	dec.w     w11, w11
    1202:	f7 ff 32    	bra       Z, 0x11f2 <L42>
    1204:	c8 2a de    	lsr.w     w5, #0x8, w5
    1206:	05 5d 78    	mov.b     w5, [w10++]
    1208:	8b 05 e9    	dec.w     w11, w11
    120a:	f3 ff 32    	bra       Z, 0x11f2 <L42>
    120c:	0c 00 e0    	cp0.w     w12
    120e:	f1 ff 32    	bra       Z, 0x11f2 <L42>
    1210:	19 dd ba    	tblrdh.b  [w9], [w10++]
    1212:	ee ff 37    	bra       0x11f0 <L34>

00001214 <.handle>:
    1214:	56 1d 04    	goto      0x1d56 <_run>
    1216:	00 00 00 
    1218:	2a 1e 04    	goto      0x1e2a <_end_win>
    121a:	00 00 00 
    121c:	46 1e 04    	goto      0x1e46 <_end_fail>
    121e:	00 00 00 

00001220 <__crt_start_mode>:
    1220:	00 00 05    	retlw.w   #0x0, w0
Disassembly of section .application_ivt:

00001000 <__DEFAULT_VECTOR-0x10c>:
    1000:	10 11 04    	goto      0x1110 <__reset>
    1002:	00 00 00 
    1004:	92 24 04    	goto      0x2492 <__DefaultInterrupt>
    1006:	00 00 00 
    1008:	92 24 04    	goto      0x2492 <__DefaultInterrupt>
    100a:	00 00 00 
    100c:	92 24 04    	goto      0x2492 <__DefaultInterrupt>
    100e:	00 00 00 
    1010:	92 24 04    	goto      0x2492 <__DefaultInterrupt>
    1012:	00 00 00 
    1014:	92 24 04    	goto      0x2492 <__DefaultInterrupt>
    1016:	00 00 00 
    1018:	92 24 04    	goto      0x2492 <__DefaultInterrupt>
    101a:	00 00 00 
    101c:	92 24 04    	goto      0x2492 <__DefaultInterrupt>
    101e:	00 00 00 
    1020:	92 24 04    	goto      0x2492 <__DefaultInterrupt>
    1022:	00 00 00 
    1024:	92 24 04    	goto      0x2492 <__DefaultInterrupt>
    1026:	00 00 00 
    1028:	92 24 04    	goto      0x2492 <__DefaultInterrupt>
    102a:	00 00 00 
    102c:	92 24 04    	goto      0x2492 <__DefaultInterrupt>
    102e:	00 00 00 
    1030:	f6 21 04    	goto      0x21f6 <__T2Interrupt>
    1032:	00 00 00 
    1034:	92 24 04    	goto      0x2492 <__DefaultInterrupt>
    1036:	00 00 00 
    1038:	92 24 04    	goto      0x2492 <__DefaultInterrupt>
    103a:	00 00 00 
    103c:	92 24 04    	goto      0x2492 <__DefaultInterrupt>
    103e:	00 00 00 
    1040:	92 24 04    	goto      0x2492 <__DefaultInterrupt>
    1042:	00 00 00 
    1044:	92 24 04    	goto      0x2492 <__DefaultInterrupt>
    1046:	00 00 00 
    1048:	92 24 04    	goto      0x2492 <__DefaultInterrupt>
    104a:	00 00 00 
    104c:	92 24 04    	goto      0x2492 <__DefaultInterrupt>
    104e:	00 00 00 
    1050:	92 24 04    	goto      0x2492 <__DefaultInterrupt>
    1052:	00 00 00 
    1054:	92 24 04    	goto      0x2492 <__DefaultInterrupt>
    1056:	00 00 00 
    1058:	d2 21 04    	goto      0x21d2 <__CNInterrupt>
    105a:	00 00 00 
    105c:	92 24 04    	goto      0x2492 <__DefaultInterrupt>
    105e:	00 00 00 
    1060:	92 24 04    	goto      0x2492 <__DefaultInterrupt>
    1062:	00 00 00 
    1064:	92 24 04    	goto      0x2492 <__DefaultInterrupt>
    1066:	00 00 00 
    1068:	92 24 04    	goto      0x2492 <__DefaultInterrupt>
    106a:	00 00 00 
    106c:	92 24 04    	goto      0x2492 <__DefaultInterrupt>
    106e:	00 00 00 
    1070:	92 24 04    	goto      0x2492 <__DefaultInterrupt>
    1072:	00 00 00 
    1074:	92 24 04    	goto      0x2492 <__DefaultInterrupt>
    1076:	00 00 00 
    1078:	92 24 04    	goto      0x2492 <__DefaultInterrupt>
    107a:	00 00 00 
    107c:	92 24 04    	goto      0x2492 <__DefaultInterrupt>
    107e:	00 00 00 
    1080:	92 24 04    	goto      0x2492 <__DefaultInterrupt>
    1082:	00 00 00 
    1084:	92 24 04    	goto      0x2492 <__DefaultInterrupt>
    1086:	00 00 00 
    1088:	92 24 04    	goto      0x2492 <__DefaultInterrupt>
    108a:	00 00 00 
    108c:	92 24 04    	goto      0x2492 <__DefaultInterrupt>
    108e:	00 00 00 
    1090:	92 24 04    	goto      0x2492 <__DefaultInterrupt>
    1092:	00 00 00 
    1094:	92 24 04    	goto      0x2492 <__DefaultInterrupt>
    1096:	00 00 00 
    1098:	92 24 04    	goto      0x2492 <__DefaultInterrupt>
    109a:	00 00 00 
    109c:	92 24 04    	goto      0x2492 <__DefaultInterrupt>
    109e:	00 00 00 
    10a0:	92 24 04    	goto      0x2492 <__DefaultInterrupt>
    10a2:	00 00 00 
    10a4:	92 24 04    	goto      0x2492 <__DefaultInterrupt>
    10a6:	00 00 00 
    10a8:	92 24 04    	goto      0x2492 <__DefaultInterrupt>
    10aa:	00 00 00 
    10ac:	92 24 04    	goto      0x2492 <__DefaultInterrupt>
    10ae:	00 00 00 
    10b0:	92 24 04    	goto      0x2492 <__DefaultInterrupt>
    10b2:	00 00 00 
    10b4:	92 24 04    	goto      0x2492 <__DefaultInterrupt>
    10b6:	00 00 00 
    10b8:	92 24 04    	goto      0x2492 <__DefaultInterrupt>
    10ba:	00 00 00 
    10bc:	92 24 04    	goto      0x2492 <__DefaultInterrupt>
    10be:	00 00 00 
    10c0:	92 24 04    	goto      0x2492 <__DefaultInterrupt>
    10c2:	00 00 00 
    10c4:	92 24 04    	goto      0x2492 <__DefaultInterrupt>
    10c6:	00 00 00 
    10c8:	92 24 04    	goto      0x2492 <__DefaultInterrupt>
    10ca:	00 00 00 
    10cc:	92 24 04    	goto      0x2492 <__DefaultInterrupt>
    10ce:	00 00 00 
    10d0:	92 24 04    	goto      0x2492 <__DefaultInterrupt>
    10d2:	00 00 00 
    10d4:	92 24 04    	goto      0x2492 <__DefaultInterrupt>
    10d6:	00 00 00 
    10d8:	92 24 04    	goto      0x2492 <__DefaultInterrupt>
    10da:	00 00 00 
    10dc:	92 24 04    	goto      0x2492 <__DefaultInterrupt>
    10de:	00 00 00 
    10e0:	92 24 04    	goto      0x2492 <__DefaultInterrupt>
    10e2:	00 00 00 
    10e4:	12 23 04    	goto      0x2312 <__SI2C3Interrupt>
    10e6:	00 00 00 
    10e8:	92 24 04    	goto      0x2492 <__DefaultInterrupt>
    10ea:	00 00 00 
    10ec:	92 24 04    	goto      0x2492 <__DefaultInterrupt>
    10ee:	00 00 00 
    10f0:	92 24 04    	goto      0x2492 <__DefaultInterrupt>
    10f2:	00 00 00 
    10f4:	92 24 04    	goto      0x2492 <__DefaultInterrupt>
    10f6:	00 00 00 
    10f8:	92 24 04    	goto      0x2492 <__DefaultInterrupt>
    10fa:	00 00 00 
    10fc:	92 24 04    	goto      0x2492 <__DefaultInterrupt>
    10fe:	00 00 00 
    1100:	92 24 04    	goto      0x2492 <__DefaultInterrupt>
    1102:	00 00 00 
    1104:	92 24 04    	goto      0x2492 <__DefaultInterrupt>
    1106:	00 00 00 
    1108:	92 24 04    	goto      0x2492 <__DefaultInterrupt>
    110a:	00 00 00 

0000110c <__DEFAULT_VECTOR>:
    110c:	92 24 04    	goto      0x2492 <__DefaultInterrupt>
    110e:	00 00 00 
Disassembly of section .ivt:

00000004 <.ivt>:
   4:	04 10 00    	nop       
   6:	08 10 00    	nop       
   8:	0c 10 00    	nop       
   a:	10 10 00    	nop       
   c:	14 10 00    	nop       
   e:	0c 11 00    	nop       
  10:	0c 11 00    	nop       
  12:	0c 11 00    	nop       
  14:	18 10 00    	nop       
  16:	1c 10 00    	nop       
  18:	20 10 00    	nop       
  1a:	24 10 00    	nop       
  1c:	0c 11 00    	nop       
  1e:	28 10 00    	nop       
  20:	2c 10 00    	nop       
  22:	30 10 00    	nop       
  24:	34 10 00    	nop       
  26:	38 10 00    	nop       
  28:	3c 10 00    	nop       
  2a:	40 10 00    	nop       
  2c:	44 10 00    	nop       
  2e:	48 10 00    	nop       
  30:	0c 11 00    	nop       
  32:	0c 11 00    	nop       
  34:	4c 10 00    	nop       
  36:	50 10 00    	nop       
  38:	54 10 00    	nop       
  3a:	58 10 00    	nop       
  3c:	5c 10 00    	nop       
  3e:	0c 11 00    	nop       
  40:	60 10 00    	nop       
  42:	64 10 00    	nop       
  44:	0c 11 00    	nop       
  46:	68 10 00    	nop       
  48:	6c 10 00    	nop       
  4a:	70 10 00    	nop       
  4c:	74 10 00    	nop       
  4e:	78 10 00    	nop       
  50:	7c 10 00    	nop       
  52:	80 10 00    	nop       
  54:	84 10 00    	nop       
  56:	88 10 00    	nop       
  58:	0c 11 00    	nop       
  5a:	0c 11 00    	nop       
  5c:	0c 11 00    	nop       
  5e:	8c 10 00    	nop       
  60:	90 10 00    	nop       
  62:	94 10 00    	nop       
  64:	98 10 00    	nop       
  66:	9c 10 00    	nop       
  68:	a0 10 00    	nop       
  6a:	a4 10 00    	nop       
  6c:	a8 10 00    	nop       
  6e:	ac 10 00    	nop       
  70:	0c 11 00    	nop       
  72:	0c 11 00    	nop       
  74:	0c 11 00    	nop       
  76:	b0 10 00    	nop       
  78:	b4 10 00    	nop       
  7a:	0c 11 00    	nop       
  7c:	0c 11 00    	nop       
  7e:	b8 10 00    	nop       
  80:	bc 10 00    	nop       
  82:	0c 11 00    	nop       
  84:	0c 11 00    	nop       
  86:	0c 11 00    	nop       
  88:	0c 11 00    	nop       
  8a:	0c 11 00    	nop       
  8c:	0c 11 00    	nop       
  8e:	0c 11 00    	nop       
  90:	c0 10 00    	nop       
  92:	0c 11 00    	nop       
  94:	0c 11 00    	nop       
  96:	c4 10 00    	nop       
  98:	c8 10 00    	nop       
  9a:	cc 10 00    	nop       
  9c:	0c 11 00    	nop       
  9e:	0c 11 00    	nop       
  a0:	0c 11 00    	nop       
  a2:	0c 11 00    	nop       
  a4:	d0 10 00    	nop       
  a6:	0c 11 00    	nop       
  a8:	0c 11 00    	nop       
  aa:	0c 11 00    	nop       
  ac:	0c 11 00    	nop       
  ae:	d4 10 00    	nop       
  b0:	0c 11 00    	nop       
  b2:	0c 11 00    	nop       
  b4:	0c 11 00    	nop       
  b6:	d8 10 00    	nop       
  b8:	dc 10 00    	nop       
  ba:	e0 10 00    	nop       
  bc:	e4 10 00    	nop       
  be:	e8 10 00    	nop       
  c0:	ec 10 00    	nop       
  c2:	f0 10 00    	nop       
  c4:	f4 10 00    	nop       
  c6:	f8 10 00    	nop       
  c8:	fc 10 00    	nop       
  ca:	00 11 00    	nop       
  cc:	04 11 00    	nop       
  ce:	08 11 00    	nop       
  d0:	0c 11 00    	nop       
  d2:	0c 11 00    	nop       
  d4:	0c 11 00    	nop       
  d6:	0c 11 00    	nop       
  d8:	0c 11 00    	nop       
  da:	0c 11 00    	nop       
  dc:	0c 11 00    	nop       
  de:	0c 11 00    	nop       
  e0:	0c 11 00    	nop       
  e2:	0c 11 00    	nop       
  e4:	0c 11 00    	nop       
  e6:	0c 11 00    	nop       
  e8:	0c 11 00    	nop       
  ea:	0c 11 00    	nop       
  ec:	0c 11 00    	nop       
  ee:	0c 11 00    	nop       
  f0:	0c 11 00    	nop       
  f2:	0c 11 00    	nop       
  f4:	0c 11 00    	nop       
  f6:	0c 11 00    	nop       
  f8:	0c 11 00    	nop       
  fa:	0c 11 00    	nop       
  fc:	0c 11 00    	nop       
  fe:	0c 11 00    	nop       
Disassembly of section .const:

00009222 <.LC0-0x2ee>:
    9222:	61 62       	.word 0x6261
    9224:	6f 75       	.word 0x756f
    9226:	74 00       	.word 0x74
    9228:	65 76       	.word 0x7665
    922a:	65 72       	.word 0x7265
    922c:	79 00       	.word 0x79
    922e:	6c 61       	.word 0x616c
    9230:	72 67       	.word 0x6772
    9232:	65 00       	.word 0x65
    9234:	70 6c       	.word 0x6c70
    9236:	61 6e       	.word 0x6e61
    9238:	74 00       	.word 0x74
    923a:	73 70       	.word 0x7073
    923c:	65 6c       	.word 0x6c65
    923e:	6c 00       	.word 0x6c
    9240:	74 68       	.word 0x6874
    9242:	65 73       	.word 0x7365
    9244:	65 00       	.word 0x65
    9246:	77 68       	.word 0x6877
    9248:	65 72       	.word 0x7265
    924a:	65 00       	.word 0x65
    924c:	61 66       	.word 0x6661
    924e:	74 65       	.word 0x6574
    9250:	72 00       	.word 0x72
    9252:	66 69       	.word 0x6966
    9254:	72 73       	.word 0x7372
    9256:	74 00       	.word 0x74
    9258:	6c 65       	.word 0x656c
    925a:	61 72       	.word 0x7261
    925c:	6e 00       	.word 0x6e
    925e:	70 6f       	.word 0x6f70
    9260:	69 6e       	.word 0x6e69
    9262:	74 00       	.word 0x74
    9264:	73 74       	.word 0x7473
    9266:	69 6c       	.word 0x6c69
    9268:	6c 00       	.word 0x6c
    926a:	74 68       	.word 0x6874
    926c:	69 6e       	.word 0x6e69
    926e:	67 00       	.word 0x67
    9270:	77 68       	.word 0x6877
    9272:	69 63       	.word 0x6369
    9274:	68 00       	.word 0x68
    9276:	61 67       	.word 0x6761
    9278:	61 69       	.word 0x6961
    927a:	6e 00       	.word 0x6e
    927c:	66 6f       	.word 0x6f66
    927e:	75 6e       	.word 0x6e75
    9280:	64 00       	.word 0x64
    9282:	6e 65       	.word 0x656e
    9284:	76 65       	.word 0x6576
    9286:	72 00       	.word 0x72
    9288:	72 69       	.word 0x6972
    928a:	67 68       	.word 0x6867
    928c:	74 00       	.word 0x74
    928e:	73 74       	.word 0x7473
    9290:	75 64       	.word 0x6475
    9292:	79 00       	.word 0x79
    9294:	74 68       	.word 0x6874
    9296:	69 6e       	.word 0x6e69
    9298:	6b 00       	.word 0x6b
    929a:	77 6f       	.word 0x6f77
    929c:	72 6c       	.word 0x6c72
    929e:	64 00       	.word 0x64
    92a0:	62 65       	.word 0x6562
    92a2:	6c 6f       	.word 0x6f6c
    92a4:	77 00       	.word 0x77
    92a6:	67 72       	.word 0x7267
    92a8:	65 61       	.word 0x6165
    92aa:	74 00       	.word 0x74
    92ac:	6f 74       	.word 0x746f
    92ae:	68 65       	.word 0x6568
    92b0:	72 00       	.word 0x72
    92b2:	73 6d       	.word 0x6d73
    92b4:	61 6c       	.word 0x6c61
    92b6:	6c 00       	.word 0x6c
    92b8:	74 68       	.word 0x6874
    92ba:	65 69       	.word 0x6965
    92bc:	72 00       	.word 0x72
    92be:	74 68       	.word 0x6874
    92c0:	72 65       	.word 0x6572
    92c2:	65 00       	.word 0x65
    92c4:	77 6f       	.word 0x6f77
    92c6:	75 6c       	.word 0x6c75
    92c8:	64 00       	.word 0x64
    92ca:	63 6f       	.word 0x6f63
    92cc:	75 6c       	.word 0x6c75
    92ce:	64 00       	.word 0x64
    92d0:	68 6f       	.word 0x6f68
    92d2:	75 73       	.word 0x7375
    92d4:	65 00       	.word 0x65
    92d6:	70 6c       	.word 0x6c70
    92d8:	61 63       	.word 0x6361
    92da:	65 00       	.word 0x65
    92dc:	73 6f       	.word 0x6f73
    92de:	75 6e       	.word 0x6e75
    92e0:	64 00       	.word 0x64
    92e2:	74 68       	.word 0x6874
    92e4:	65 72       	.word 0x7265
    92e6:	65 00       	.word 0x65
    92e8:	77 61       	.word 0x6177
    92ea:	74 65       	.word 0x6574
    92ec:	72 00       	.word 0x72
    92ee:	77 72       	.word 0x7277
    92f0:	69 74       	.word 0x7469
    92f2:	65 00       	.word 0x65
    92f4:	57 52       	.word 0x5257
    92f6:	49 54       	.word 0x5449
    92f8:	45 47       	.word 0x4745
    92fa:	59 51       	.word 0x5159
    92fc:	57 56       	.word 0x5657
    92fe:	4d 52       	.word 0x524d
    9300:	54 45       	.word 0x4554
    9302:	50 49       	.word 0x4950
    9304:	58 5a       	.word 0x5a58
    9306:	46 4d       	.word 0x4d46
    9308:	49 4a       	.word 0x4a49
    930a:	59 4a       	.word 0x4a59
    930c:	54 46       	.word 0x4654
    930e:	50 42       	.word 0x4250
    9310:	41 4d       	.word 0x4d41
    9312:	45 51       	.word 0x5145
    9314:	50 47       	.word 0x4750
    9316:	58 00       	.word 0x58
    9318:	53 54       	.word 0x5453
    931a:	49 4c       	.word 0x4c49
    931c:	4c 53       	.word 0x534c
    931e:	47 43       	.word 0x4347
    9320:	42 57       	.word 0x5742
    9322:	54 52       	.word 0x5254
    9324:	54 56       	.word 0x5654
    9326:	5a 53       	.word 0x535a
    9328:	4a 56       	.word 0x564a
    932a:	49 44       	.word 0x4449
    932c:	52 46       	.word 0x4652
    932e:	50 4c       	.word 0x4c50
    9330:	4a 4f       	.word 0x4f4a
    9332:	4b 55       	.word 0x554b
    9334:	53 49       	.word 0x4953
    9336:	4a 4c       	.word 0x4c4a
    9338:	41 46       	.word 0x4641
    933a:	5a 00       	.word 0x5a
    933c:	45 56       	.word 0x5645
    933e:	45 52       	.word 0x5245
    9340:	59 4b       	.word 0x4b59
    9342:	45 58       	.word 0x5845
    9344:	4d 59       	.word 0x594d
    9346:	5a 4d       	.word 0x4d5a
    9348:	53 43       	.word 0x4353
    934a:	54 56       	.word 0x5654
    934c:	50 41       	.word 0x4150
    934e:	47 4e       	.word 0x4e47
    9350:	44 45       	.word 0x4544
    9352:	46 44       	.word 0x4446
    9354:	48 45       	.word 0x4548
    9356:	52 51       	.word 0x5152
    9358:	4a 48       	.word 0x484a
    935a:	4d 57       	.word 0x574d
    935c:	4e 59       	.word 0x594e
    935e:	58 00       	.word 0x58
    9360:	57 4f       	.word 0x4f57
    9362:	52 4c       	.word 0x4c52
    9364:	44 47       	.word 0x4744
    9366:	57 51       	.word 0x5157
    9368:	41 50       	.word 0x5041
    936a:	4e 57       	.word 0x574e
    936c:	45 4f       	.word 0x4f45
    936e:	4b 4d       	.word 0x4d4b
    9370:	51 51       	.word 0x5151
    9372:	57 52       	.word 0x5257
    9374:	5a 59       	.word 0x595a
    9376:	4a 50       	.word 0x504a
    9378:	44 4c       	.word 0x4c44
    937a:	4a 42       	.word 0x424a
    937c:	49 4e       	.word 0x4e49
    937e:	53 49       	.word 0x4953
    9380:	43 44       	.word 0x4443
    9382:	48 00       	.word 0x48
    9384:	57 52       	.word 0x5257
    9386:	49 54       	.word 0x5449
    9388:	45 47       	.word 0x4745
    938a:	57 4a       	.word 0x4a57
    938c:	58 44       	.word 0x4458
    938e:	4c 5a       	.word 0x5a4c
    9390:	50 4c       	.word 0x4c50
    9392:	58 49       	.word 0x4958
    9394:	52 4a       	.word 0x4a52
    9396:	54 43       	.word 0x4354
    9398:	49 46       	.word 0x4649
    939a:	53 54       	.word 0x5453
    939c:	46 48       	.word 0x4846
    939e:	42 49       	.word 0x4942
    93a0:	4f 53       	.word 0x534f
    93a2:	51 58       	.word 0x5851
    93a4:	55 4a       	.word 0x4a55
    93a6:	45 00       	.word 0x45
    93a8:	46 4f       	.word 0x4f46
    93aa:	55 4e       	.word 0x4e55
    93ac:	44 5a       	.word 0x5a44
    93ae:	49 4a       	.word 0x4a49
    93b0:	43 45       	.word 0x4543
    93b2:	46 4f       	.word 0x4f46
    93b4:	47 4d       	.word 0x4d47
    93b6:	51 59       	.word 0x5951
    93b8:	4e 51       	.word 0x514e
    93ba:	42 56       	.word 0x5642
    93bc:	45 55       	.word 0x5545
    93be:	4a 5a       	.word 0x5a4a
    93c0:	4e 4f       	.word 0x4f4e
    93c2:	55 57       	.word 0x5755
    93c4:	4a 51       	.word 0x514a
    93c6:	47 4c       	.word 0x4c47
    93c8:	49 44       	.word 0x4449
    93ca:	50 00       	.word 0x50
    93cc:	43 4f       	.word 0x4f43
    93ce:	55 4c       	.word 0x4c55
    93d0:	44 44       	.word 0x4444
    93d2:	58 43       	.word 0x4358
    93d4:	55 4a       	.word 0x4a55
    93d6:	54 4f       	.word 0x4f54
    93d8:	5a 55       	.word 0x555a
    93da:	50 51       	.word 0x5150
    93dc:	59 4d       	.word 0x4d59
    93de:	4b 58       	.word 0x584b
    93e0:	56 55       	.word 0x5556
    93e2:	53 4c       	.word 0x4c53
    93e4:	4b 52       	.word 0x524b
    93e6:	51 56       	.word 0x5651
    93e8:	57 4d       	.word 0x4d57
    93ea:	48 44       	.word 0x4448
    93ec:	56 51       	.word 0x5156
    93ee:	4a 00       	.word 0x4a
    93f0:	54 48       	.word 0x4854
    93f2:	45 53       	.word 0x5345
    93f4:	45 58       	.word 0x5845
    93f6:	54 4b       	.word 0x4b54
    93f8:	44 4c       	.word 0x4c44
    93fa:	56 47       	.word 0x4756
    93fc:	48 49       	.word 0x4948
    93fe:	54 50       	.word 0x5054
    9400:	53 45       	.word 0x4553
    9402:	51 49       	.word 0x4951
    9404:	56 54       	.word 0x5456
    9406:	4d 45       	.word 0x454d
    9408:	48 44       	.word 0x4448
    940a:	4f 4e       	.word 0x4e4f
    940c:	53 56       	.word 0x5653
    940e:	59 4d       	.word 0x4d59
    9410:	45 46       	.word 0x4645
    9412:	42 00       	.word 0x42
    9414:	4f 54       	.word 0x544f
    9416:	48 45       	.word 0x4548
    9418:	52 52       	.word 0x5252
    941a:	49 42       	.word 0x4249
    941c:	4f 43       	.word 0x434f
    941e:	45 54       	.word 0x5445
    9420:	4e 52       	.word 0x524e
    9422:	4b 4a       	.word 0x4a4b
    9424:	42 4e       	.word 0x4e42
    9426:	4a 55       	.word 0x554a
    9428:	48 47       	.word 0x4748
    942a:	45 47       	.word 0x4745
    942c:	4a 56       	.word 0x564a
    942e:	57 4b       	.word 0x4b57
    9430:	45 4b       	.word 0x4b45
    9432:	44 56       	.word 0x5644
    9434:	52 50       	.word 0x5052
    9436:	4d 00       	.word 0x4d
    9438:	57 4f       	.word 0x4f57
    943a:	52 4c       	.word 0x4c52
    943c:	44 54       	.word 0x5444
    943e:	58 53       	.word 0x5358
    9440:	55 52       	.word 0x5255
    9442:	57 46       	.word 0x4657
    9444:	57 4f       	.word 0x4f57
    9446:	51 59       	.word 0x5951
    9448:	52 56       	.word 0x5652
    944a:	52 51       	.word 0x5152
    944c:	47 4e       	.word 0x4e47
    944e:	4a 59       	.word 0x594a
    9450:	42 4b       	.word 0x4b42
    9452:	4c 51       	.word 0x514c
    9454:	4f 48       	.word 0x484f
    9456:	58 44       	.word 0x4458
    9458:	45 49       	.word 0x4945
    945a:	51 00       	.word 0x51
    945c:	53 4d       	.word 0x4d53
    945e:	41 4c       	.word 0x4c41
    9460:	4c 49       	.word 0x494c
    9462:	56 52       	.word 0x5256
    9464:	58 53       	.word 0x5358
    9466:	55 58       	.word 0x5855
    9468:	44 43       	.word 0x4344
    946a:	4d 52       	.word 0x524d
    946c:	59 41       	.word 0x4159
    946e:	51 54       	.word 0x5451
    9470:	46 50       	.word 0x5046
    9472:	4a 56       	.word 0x564a
    9474:	50 48       	.word 0x4850
    9476:	46 4c       	.word 0x4c46
    9478:	58 51       	.word 0x5158
    947a:	4c 52       	.word 0x524c
    947c:	4f 42       	.word 0x424f
    947e:	48 00       	.word 0x48
    9480:	54 48       	.word 0x4854
    9482:	45 53       	.word 0x5345
    9484:	45 4b       	.word 0x4b45
    9486:	50 54       	.word 0x5450
    9488:	52 4c       	.word 0x4c52
    948a:	42 48       	.word 0x4842
    948c:	4b 56       	.word 0x564b
    948e:	55 4e       	.word 0x4e55
    9490:	44 51       	.word 0x5144
    9492:	47 4c       	.word 0x4c47
    9494:	45 4a       	.word 0x4a45
    9496:	53 58       	.word 0x5853
    9498:	41 4d       	.word 0x4d41
    949a:	53 56       	.word 0x5653
    949c:	44 57       	.word 0x5744
    949e:	41 4f       	.word 0x4f41
    94a0:	45 46       	.word 0x4645
    94a2:	4e 00       	.word 0x4e
    94a4:	57 52       	.word 0x5257
    94a6:	49 54       	.word 0x5449
    94a8:	45 56       	.word 0x5645
    94aa:	57 49       	.word 0x4957
    94ac:	58 59       	.word 0x5958
    94ae:	48 57       	.word 0x5748
    94b0:	4b 58       	.word 0x584b
    94b2:	42 47       	.word 0x4742
    94b4:	52 46       	.word 0x4652
    94b6:	45 4c       	.word 0x4c45
    94b8:	59 49       	.word 0x4959
    94ba:	50 55       	.word 0x5550
    94bc:	41 44       	.word 0x4441
    94be:	54 52       	.word 0x5254
    94c0:	4e 4c       	.word 0x4c4e
    94c2:	56 45       	.word 0x4556
    94c4:	41 51       	.word 0x5141
    94c6:	55 00       	.word 0x55
    94c8:	47 52       	.word 0x5247
    94ca:	45 41       	.word 0x4145
    94cc:	54 4c       	.word 0x4c54
    94ce:	4f 47       	.word 0x474f
    94d0:	4d 58       	.word 0x584d
    94d2:	56 59       	.word 0x5956
    94d4:	43 4e       	.word 0x4e43
    94d6:	52 57       	.word 0x5752
    94d8:	4b 48       	.word 0x484b
    94da:	56 50       	.word 0x5056
    94dc:	45 42       	.word 0x4245
    94de:	49 5a       	.word 0x5a49
    94e0:	41 50       	.word 0x5041
    94e2:	57 56       	.word 0x5657
    94e4:	46 57       	.word 0x5746
    94e6:	48 46       	.word 0x4648
    94e8:	53 54       	.word 0x5453
    94ea:	51 00       	.word 0x51
    94ec:	4f 54       	.word 0x544f
    94ee:	48 45       	.word 0x4548
    94f0:	52 46       	.word 0x4652
    94f2:	47 49       	.word 0x4947
    94f4:	4f 44       	.word 0x444f
    94f6:	48 42       	.word 0x4248
    94f8:	54 50       	.word 0x5054
    94fa:	58 53       	.word 0x5358
    94fc:	49 43       	.word 0x4349
    94fe:	47 45       	.word 0x4547
    9500:	4c 50       	.word 0x504c
    9502:	48 41       	.word 0x4148
    9504:	44 45       	.word 0x4544
    9506:	4a 49       	.word 0x494a
    9508:	5a 4e       	.word 0x4e5a
    950a:	41 50       	.word 0x5041
    950c:	4b 49       	.word 0x494b
    950e:	52 00       	.word 0x52

00009510 <.LC0>:
    9510:	57 4f       	.word 0x4f57
    9512:	52 4c       	.word 0x4c52
    9514:	44 47       	.word 0x4744
    9516:	57 51       	.word 0x5157
    9518:	41 50       	.word 0x5041
    951a:	4e 57       	.word 0x574e
    951c:	45 4f       	.word 0x4f45
    951e:	4b 4d       	.word 0x4d4b
    9520:	51 51       	.word 0x5151
    9522:	57 52       	.word 0x5257
    9524:	5a 59       	.word 0x595a
    9526:	4a 50       	.word 0x504a
    9528:	44 4c       	.word 0x4c44
    952a:	4a 42       	.word 0x424a
    952c:	49 4e       	.word 0x4e49
    952e:	53 49       	.word 0x4953
    9530:	43 44       	.word 0x4443
    9532:	48 00       	.word 0x48

00009534 <.LC3>:
    9534:	00 20       	.word 0x2000

00009535 <.LC1>:
	...

0000953c <.LC2>:
    953c:	20 6f       	.word 0x6f20
    953e:	20 20       	.word 0x2020
    9540:	6f 20       	.word 0x206f
    9542:	20 6f       	.word 0x6f20
    9544:	20 20       	.word 0x2020
    9546:	6f 20       	.word 0x206f
    9548:	20 6f       	.word 0x6f20
    954a:	20 00       	.word 0x20
    954c:	00 20       	.word 0x2000

0000954d <.LC4>:
    954d:	00 00       	.word 0
    954f:	00 00       	.word 0
    9551:	00 00       	.word 0
    9553:	00 00       	.word 0
    9555:	00 00       	.word 0
    9557:	00 00       	.word 0
    9559:	00 00       	.word 0
    955b:	00 00       	.word 0
	...

0000955e <.LC0>:
    955e:	20 20       	.word 0x2020
    9560:	20 20       	.word 0x2020
    9562:	20 20       	.word 0x2020
    9564:	20 20       	.word 0x2020
    9566:	20 20       	.word 0x2020
    9568:	20 20       	.word 0x2020
    956a:	20 20       	.word 0x2020
    956c:	20 20       	.word 0x2020
    956e:	20 20       	.word 0x2020
    9570:	20 20       	.word 0x2020
    9572:	20 20       	.word 0x2020
    9574:	20 20       	.word 0x2020
    9576:	20 20       	.word 0x2020
    9578:	20 20       	.word 0x2020
    957a:	20 20       	.word 0x2020
    957c:	20 20       	.word 0x2020
    957e:	20 20       	.word 0x2020
    9580:	20 20       	.word 0x2020
    9582:	20 20       	.word 0x2020
    9584:	20 20       	.word 0x2020
    9586:	20 20       	.word 0x2020
    9588:	20 20       	.word 0x2020
    958a:	20 20       	.word 0x2020
    958c:	20 20       	.word 0x2020
    958e:	20 20       	.word 0x2020
    9590:	20 20       	.word 0x2020
    9592:	20 20       	.word 0x2020
    9594:	20 20       	.word 0x2020
    9596:	00 20       	.word 0x2000

00009597 <.LC1>:
    9597:	00 00       	.word 0
    9599:	00 00       	.word 0
    959b:	00 00       	.word 0
    959d:	00 00       	.word 0
    959f:	00 00       	.word 0
    95a1:	00 00       	.word 0
    95a3:	00 00       	.word 0
    95a5:	00 00       	.word 0
	...

000095a8 <.LC2>:
    95a8:	7a 79       	.word 0x797a
    95aa:	78 77       	.word 0x7778
    95ac:	76 75       	.word 0x7576
    95ae:	74 73       	.word 0x7374
    95b0:	72 71       	.word 0x7172
    95b2:	70 6f       	.word 0x6f70
    95b4:	6e 6d       	.word 0x6d6e
    95b6:	6c 6b       	.word 0x6b6c
    95b8:	6a 69       	.word 0x696a
    95ba:	68 67       	.word 0x6768
    95bc:	66 65       	.word 0x6566
    95be:	64 63       	.word 0x6364
    95c0:	62 61       	.word 0x6162
    95c2:	39 38       	.word 0x3839
    95c4:	37 36       	.word 0x3637
    95c6:	35 34       	.word 0x3435
    95c8:	33 32       	.word 0x3233
    95ca:	31 30       	.word 0x3031
    95cc:	31 32       	.word 0x3231
    95ce:	33 34       	.word 0x3433
    95d0:	35 36       	.word 0x3635
    95d2:	37 38       	.word 0x3837
    95d4:	39 61       	.word 0x6139
    95d6:	62 63       	.word 0x6362
    95d8:	64 65       	.word 0x6564
    95da:	66 67       	.word 0x6766
    95dc:	68 69       	.word 0x6968
    95de:	6a 6b       	.word 0x6b6a
    95e0:	6c 6d       	.word 0x6d6c
    95e2:	6e 6f       	.word 0x6f6e
    95e4:	70 71       	.word 0x7170
    95e6:	72 73       	.word 0x7372
    95e8:	74 75       	.word 0x7574
    95ea:	76 77       	.word 0x7776
    95ec:	78 79       	.word 0x7978
    95ee:	7a 00       	.word 0x7a
Disassembly of section .text:

000015f0 <___lcd_i2c_write>:
#define DR_READ 0x0B

_LCD lcd[3];

void __lcd_i2c_write(_LCD *self, uint8_t ch) {
    15f0:	04 00 fa    	lnk       #0x4
    15f2:	00 0f 78    	mov.w     w0, [w14]
    15f4:	21 47 98    	mov.b     w1, [w14+2]
    i2c_start();
    15f6:	bf 04 07    	rcall     0x1f76 <_i2c_start> <.LFB2> <.LFE1>
    send_i2c_byte(self->addr_write);
    15f8:	1e 00 78    	mov.w     [w14], w0
    15fa:	10 40 78    	mov.b     [w0], w0
    15fc:	00 80 fb    	ze        w0, w0
    15fe:	0a 05 07    	rcall     0x2014 <_send_i2c_byte> <.LFB5> <.LFE4>
    send_i2c_byte(ch);
    1600:	2e 40 90    	mov.b     [w14+2], w0
    1602:	00 80 fb    	ze        w0, w0
    1604:	07 05 07    	rcall     0x2014 <_send_i2c_byte> <.LFB5> <.LFE4>
    reset_i2c_bus();
    1606:	eb 04 07    	rcall     0x1fde <_reset_i2c_bus> <.LFB4> <.LFE3>
}
    1608:	00 80 fa    	ulnk      
    160a:	00 00 06    	return    

0000160c <___lcd_enablePulse>:

// Pulse enable pin high and then low to shift in 4 bits of data
void __lcd_enablePulse(_LCD *self) {
    160c:	02 00 fa    	lnk       #0x2
    160e:	00 0f 78    	mov.w     w0, [w14]
    self->io_write_val ^= ENABLE_TOGGLE;
    1610:	1e 00 78    	mov.w     [w14], w0
    1612:	20 40 90    	mov.b     [w0+2], w0
    1614:	80 40 78    	mov.b     w0, w1
    1616:	01 24 a2    	btg.b     w1, #0x2
    1618:	1e 00 78    	mov.w     [w14], w0
    161a:	21 40 98    	mov.b     w1, [w0+2]
    __lcd_i2c_write(self, self->io_write_val);
    161c:	1e 00 78    	mov.w     [w14], w0
    161e:	20 40 90    	mov.b     [w0+2], w0
    1620:	80 40 78    	mov.b     w0, w1
    1622:	1e 00 78    	mov.w     [w14], w0
    1624:	e5 ff 07    	rcall     0x15f0 <___lcd_i2c_write> <.L0> <.LFB0> <.Ltext0>
    delay_by_nop(100);
    1626:	40 06 20    	mov.w     #0x64, w0
    1628:	01 00 20    	mov.w     #0x0, w1
    162a:	85 04 07    	rcall     0x1f36 <_delay_by_nop> <.L0> <.LFB0> <.LFE10> <.Letext0> <.Ltext0>
    self->io_write_val ^= ENABLE_TOGGLE;
    162c:	1e 00 78    	mov.w     [w14], w0
    162e:	20 40 90    	mov.b     [w0+2], w0
    1630:	80 40 78    	mov.b     w0, w1
    1632:	01 24 a2    	btg.b     w1, #0x2
    1634:	1e 00 78    	mov.w     [w14], w0
    1636:	21 40 98    	mov.b     w1, [w0+2]
    __lcd_i2c_write(self, self->io_write_val);
    1638:	1e 00 78    	mov.w     [w14], w0
    163a:	20 40 90    	mov.b     [w0+2], w0
    163c:	80 40 78    	mov.b     w0, w1
    163e:	1e 00 78    	mov.w     [w14], w0
    1640:	d7 ff 07    	rcall     0x15f0 <___lcd_i2c_write> <.L0> <.LFB0> <.Ltext0>
    // delay_by_nop(1000);
}
    1642:	00 80 fa    	ulnk      
    1644:	00 00 06    	return    

00001646 <___lcd_send>:

/* Send 8 bits of data as one 4-bit nibble, shifting in, second 4-bit nibble, and
shifting in */
void __lcd_send(_LCD *self, uint8_t value, uint8_t command) {
    1646:	06 00 fa    	lnk       #0x6
    1648:	10 07 98    	mov.w     w0, [w14+2]
    164a:	41 47 98    	mov.b     w1, [w14+4]
    164c:	52 47 98    	mov.b     w2, [w14+5]
    uint8_t MS = value & 0x78;
    164e:	4e 40 90    	mov.b     [w14+4], w0
    1650:	81 c7 b3    	mov.b     #0x78, w1
    1652:	01 4f 60    	and.b     w0, w1, [w14]
    uint8_t LS = value << 4;
    1654:	ce 40 90    	mov.b     [w14+4], w1
    1656:	40 00 20    	mov.w     #0x4, w0
    1658:	00 08 dd    	sl.w      w1, w0, w0
    165a:	10 47 98    	mov.b     w0, [w14+1]
    self->io_write_val = command | MS;
    165c:	5e 40 90    	mov.b     [w14+5], w0
    165e:	9e 40 70    	ior.b     w0, [w14], w1
    1660:	1e 00 90    	mov.w     [w14+2], w0
    1662:	21 40 98    	mov.b     w1, [w0+2]
    __lcd_i2c_write(self, self->io_write_val);
    1664:	1e 00 90    	mov.w     [w14+2], w0
    1666:	20 40 90    	mov.b     [w0+2], w0
    1668:	80 40 78    	mov.b     w0, w1
    166a:	1e 00 90    	mov.w     [w14+2], w0
    166c:	c1 ff 07    	rcall     0x15f0 <___lcd_i2c_write> <.L0> <.LFB0> <.Ltext0>
    __lcd_enablePulse(self);
    166e:	1e 00 90    	mov.w     [w14+2], w0
    1670:	cd ff 07    	rcall     0x160c <___lcd_enablePulse> <.LFB1> <.LFE0>
    self->io_write_val= command | LS;
    1672:	de 40 90    	mov.b     [w14+5], w1
    1674:	1e 40 90    	mov.b     [w14+1], w0
    1676:	80 c0 70    	ior.b     w1, w0, w1
    1678:	1e 00 90    	mov.w     [w14+2], w0
    167a:	21 40 98    	mov.b     w1, [w0+2]
    __lcd_i2c_write(self, self->io_write_val);
    167c:	1e 00 90    	mov.w     [w14+2], w0
    167e:	20 40 90    	mov.b     [w0+2], w0
    1680:	80 40 78    	mov.b     w0, w1
    1682:	1e 00 90    	mov.w     [w14+2], w0
    1684:	b5 ff 07    	rcall     0x15f0 <___lcd_i2c_write> <.L0> <.LFB0> <.Ltext0>
    __lcd_enablePulse(self);
    1686:	1e 00 90    	mov.w     [w14+2], w0
    1688:	c1 ff 07    	rcall     0x160c <___lcd_enablePulse> <.LFB1> <.LFE0>
}
    168a:	00 80 fa    	ulnk      
    168c:	00 00 06    	return    

0000168e <___lcd_send8>:

void __lcd_send8(_LCD *self, uint8_t value, uint8_t command) {
    168e:	04 00 fa    	lnk       #0x4
    1690:	00 0f 78    	mov.w     w0, [w14]
    1692:	21 47 98    	mov.b     w1, [w14+2]
    1694:	32 47 98    	mov.b     w2, [w14+3]
    value = value << 4;
    1696:	ae 40 90    	mov.b     [w14+2], w1
    1698:	40 00 20    	mov.w     #0x4, w0
    169a:	00 08 dd    	sl.w      w1, w0, w0
    169c:	20 47 98    	mov.b     w0, [w14+2]
    self->io_write_val = command | value;
    169e:	be 40 90    	mov.b     [w14+3], w1
    16a0:	2e 40 90    	mov.b     [w14+2], w0
    16a2:	80 c0 70    	ior.b     w1, w0, w1
    16a4:	1e 00 78    	mov.w     [w14], w0
    16a6:	21 40 98    	mov.b     w1, [w0+2]
    __lcd_i2c_write(self, self->io_write_val);
    16a8:	1e 00 78    	mov.w     [w14], w0
    16aa:	20 40 90    	mov.b     [w0+2], w0
    16ac:	80 40 78    	mov.b     w0, w1
    16ae:	1e 00 78    	mov.w     [w14], w0
    16b0:	9f ff 07    	rcall     0x15f0 <___lcd_i2c_write> <.L0> <.LFB0> <.Ltext0>
    __lcd_enablePulse(self);
    16b2:	1e 00 78    	mov.w     [w14], w0
    16b4:	ab ff 07    	rcall     0x160c <___lcd_enablePulse> <.LFB1> <.LFE0>
}
    16b6:	00 80 fa    	ulnk      
    16b8:	00 00 06    	return    

000016ba <_init_lcd>:

/* Some code from last year's Spaceteam project that sets up three LCD screens on
 one bus with corresponding IO extender types and hard-wired addresses */
void init_lcd(uint8_t initiator) {
    16ba:	02 00 fa    	lnk       #0x2
    16bc:	00 4f 78    	mov.b     w0, [w14]

    i2c_init(1e3);
    16be:	80 3e 20    	mov.w     #0x3e8, w0
    16c0:	4d 04 07    	rcall     0x1f5c <_i2c_init> <.LFB1> <.LFE0>

    switch (initiator) {
    16c2:	1e 80 fb    	ze        [w14], w0
    16c4:	e1 0f 50    	sub.w     w0, #0x1, [w15]
    16c6:	17 00 32    	bra       Z, 0x16f6 <.L8>
    16c8:	e1 0f 50    	sub.w     w0, #0x1, [w15]
    16ca:	03 00 3c    	bra       GT, 0x16d2 <.L11>
    16cc:	00 00 e0    	cp0.w     w0
    16ce:	06 00 32    	bra       Z, 0x16dc <.L7>
    16d0:	39 00 37    	bra       0x1744 <.L5>

000016d2 <.L11>:
    16d2:	e2 0f 50    	sub.w     w0, #0x2, [w15]
    16d4:	1d 00 32    	bra       Z, 0x1710 <.L9>
    16d6:	e3 0f 50    	sub.w     w0, #0x3, [w15]
    16d8:	28 00 32    	bra       Z, 0x172a <.L10>
    16da:	34 00 37    	bra       0x1744 <.L5>

000016dc <.L7>:
        case 0: // Central
            lcd_init(&lcd[0], 0x05,'A');
    16dc:	12 c4 b3    	mov.b     #0x41, w2
    16de:	51 c0 b3    	mov.b     #0x5, w1
    16e0:	a0 82 20    	mov.w     #0x82a, w0
    16e2:	32 00 07    	rcall     0x1748 <_lcd_init> <.LFB5> <.LFE4>
            lcd_init(&lcd[1], 0x07,'A');
    16e4:	12 c4 b3    	mov.b     #0x41, w2
    16e6:	71 c0 b3    	mov.b     #0x7, w1
    16e8:	f0 82 20    	mov.w     #0x82f, w0
    16ea:	2e 00 07    	rcall     0x1748 <_lcd_init> <.LFB5> <.LFE4>
            lcd_init(&lcd[2], 0x06,'T');
    16ec:	42 c5 b3    	mov.b     #0x54, w2
    16ee:	61 c0 b3    	mov.b     #0x6, w1
    16f0:	40 83 20    	mov.w     #0x834, w0
    16f2:	2a 00 07    	rcall     0x1748 <_lcd_init> <.LFB5> <.LFE4>
            break;
    16f4:	27 00 37    	bra       0x1744 <.L5>

000016f6 <.L8>:
        case 1:
            lcd_init(&lcd[0], 0x07,'A');
    16f6:	12 c4 b3    	mov.b     #0x41, w2
    16f8:	71 c0 b3    	mov.b     #0x7, w1
    16fa:	a0 82 20    	mov.w     #0x82a, w0
    16fc:	25 00 07    	rcall     0x1748 <_lcd_init> <.LFB5> <.LFE4>
            lcd_init(&lcd[2], 0x06,'A');
    16fe:	12 c4 b3    	mov.b     #0x41, w2
    1700:	61 c0 b3    	mov.b     #0x6, w1
    1702:	40 83 20    	mov.w     #0x834, w0
    1704:	21 00 07    	rcall     0x1748 <_lcd_init> <.LFB5> <.LFE4>
            lcd_init(&lcd[1], 0x05,'A');
    1706:	12 c4 b3    	mov.b     #0x41, w2
    1708:	51 c0 b3    	mov.b     #0x5, w1
    170a:	f0 82 20    	mov.w     #0x82f, w0
    170c:	1d 00 07    	rcall     0x1748 <_lcd_init> <.LFB5> <.LFE4>
            break;
    170e:	1a 00 37    	bra       0x1744 <.L5>

00001710 <.L9>:
        case 2:
            lcd_init(&lcd[0], 0x07,'T');
    1710:	42 c5 b3    	mov.b     #0x54, w2
    1712:	71 c0 b3    	mov.b     #0x7, w1
    1714:	a0 82 20    	mov.w     #0x82a, w0
    1716:	18 00 07    	rcall     0x1748 <_lcd_init> <.LFB5> <.LFE4>
            lcd_init(&lcd[1], 0x06,'A');
    1718:	12 c4 b3    	mov.b     #0x41, w2
    171a:	61 c0 b3    	mov.b     #0x6, w1
    171c:	f0 82 20    	mov.w     #0x82f, w0
    171e:	14 00 07    	rcall     0x1748 <_lcd_init> <.LFB5> <.LFE4>
            lcd_init(&lcd[2], 0x05,'A');
    1720:	12 c4 b3    	mov.b     #0x41, w2
    1722:	51 c0 b3    	mov.b     #0x5, w1
    1724:	40 83 20    	mov.w     #0x834, w0
    1726:	10 00 07    	rcall     0x1748 <_lcd_init> <.LFB5> <.LFE4>
            break;
    1728:	0d 00 37    	bra       0x1744 <.L5>

0000172a <.L10>:
        case 3:
            lcd_init(&lcd[0], 0x07,'A');
    172a:	12 c4 b3    	mov.b     #0x41, w2
    172c:	71 c0 b3    	mov.b     #0x7, w1
    172e:	a0 82 20    	mov.w     #0x82a, w0
    1730:	0b 00 07    	rcall     0x1748 <_lcd_init> <.LFB5> <.LFE4>
            lcd_init(&lcd[1], 0x06,'A');
    1732:	12 c4 b3    	mov.b     #0x41, w2
    1734:	61 c0 b3    	mov.b     #0x6, w1
    1736:	f0 82 20    	mov.w     #0x82f, w0
    1738:	07 00 07    	rcall     0x1748 <_lcd_init> <.LFB5> <.LFE4>
            lcd_init(&lcd[2], 0x05,'A');
    173a:	12 c4 b3    	mov.b     #0x41, w2
    173c:	51 c0 b3    	mov.b     #0x5, w1
    173e:	40 83 20    	mov.w     #0x834, w0
    1740:	03 00 07    	rcall     0x1748 <_lcd_init> <.LFB5> <.LFE4>
            break;
    1742:	00 00 00    	nop       

00001744 <.L5>:
    }
}
    1744:	00 80 fa    	ulnk      
    1746:	00 00 06    	return    

00001748 <_lcd_init>:

// Initializes the LCD screen hardware as per pg. 46 of the datasheet
void lcd_init(_LCD *self, uint8_t addr, char vendor) {
    1748:	04 00 fa    	lnk       #0x4
    174a:	00 0f 78    	mov.w     w0, [w14]
    174c:	21 47 98    	mov.b     w1, [w14+2]
    174e:	32 47 98    	mov.b     w2, [w14+3]
    switch(vendor){
    1750:	3e 40 90    	mov.b     [w14+3], w0
    1752:	00 00 fb    	se        w0, w0
    1754:	11 04 20    	mov.w     #0x41, w1
    1756:	81 0f 50    	sub.w     w0, w1, [w15]
    1758:	10 00 32    	bra       Z, 0x177a <.L14>
    175a:	41 05 20    	mov.w     #0x54, w1
    175c:	81 0f 50    	sub.w     w0, w1, [w15]
    175e:	1a 00 3a    	bra       NZ, 0x1794 <.L13>
        case 'T':// 0x40 == vendor prefix for PCF8574T
            self->addr_write = 0x40 + (addr << 1);
    1760:	2e 40 90    	mov.b     [w14+2], w0
    1762:	00 40 40    	add.b     w0, w0, w0
    1764:	02 c4 b3    	mov.b     #0x40, w2
    1766:	82 40 40    	add.b     w0, w2, w1
    1768:	1e 00 78    	mov.w     [w14], w0
    176a:	01 48 78    	mov.b     w1, [w0]
            self->addr_read = 0x40 + (addr << 1)+1;
    176c:	2e 40 90    	mov.b     [w14+2], w0
    176e:	00 40 40    	add.b     w0, w0, w0
    1770:	12 c4 b3    	mov.b     #0x41, w2
    1772:	82 40 40    	add.b     w0, w2, w1
    1774:	1e 00 78    	mov.w     [w14], w0
    1776:	11 40 98    	mov.b     w1, [w0+1]
            break;
    1778:	0d 00 37    	bra       0x1794 <.L13>

0000177a <.L14>:
        case 'A':// 0x70 == vendor prefix PCF8574AT
            self->addr_write = 0x70 + (addr << 1);
    177a:	2e 40 90    	mov.b     [w14+2], w0
    177c:	00 40 40    	add.b     w0, w0, w0
    177e:	02 c7 b3    	mov.b     #0x70, w2
    1780:	82 40 40    	add.b     w0, w2, w1
    1782:	1e 00 78    	mov.w     [w14], w0
    1784:	01 48 78    	mov.b     w1, [w0]
            self->addr_read = 0x70 + (addr << 1)+1;
    1786:	2e 40 90    	mov.b     [w14+2], w0
    1788:	00 40 40    	add.b     w0, w0, w0
    178a:	12 c7 b3    	mov.b     #0x71, w2
    178c:	82 40 40    	add.b     w0, w2, w1
    178e:	1e 00 78    	mov.w     [w14], w0
    1790:	11 40 98    	mov.b     w1, [w0+1]
            break;
    1792:	00 00 00    	nop       

00001794 <.L13>:
    }

    self->display_control = 0x00;
    1794:	1e 00 78    	mov.w     [w14], w0
    1796:	80 40 eb    	clr.b     w1
    1798:	31 40 98    	mov.b     w1, [w0+3]
    self->display_mode = 0x00;
    179a:	1e 00 78    	mov.w     [w14], w0
    179c:	80 40 eb    	clr.b     w1
    179e:	41 40 98    	mov.b     w1, [w0+4]

    self->io_write_val = 0x00;
    17a0:	1e 00 78    	mov.w     [w14], w0
    17a2:	80 40 eb    	clr.b     w1
    17a4:	21 40 98    	mov.b     w1, [w0+2]

    __lcd_i2c_write(self, 0x00);
    17a6:	80 40 eb    	clr.b     w1
    17a8:	1e 00 78    	mov.w     [w14], w0
    17aa:	22 ff 07    	rcall     0x15f0 <___lcd_i2c_write> <.L0> <.LFB0> <.Ltext0>

    delay_by_nop(15000);
    17ac:	80 a9 23    	mov.w     #0x3a98, w0
    17ae:	01 00 20    	mov.w     #0x0, w1
    17b0:	c2 03 07    	rcall     0x1f36 <_delay_by_nop> <.L0> <.LFB0> <.LFE10> <.Letext0> <.Ltext0>

    // Some bullshit according to pg 46
    __lcd_send8(self, 0x03, INTERNAL_WRITE);
    17b2:	82 c0 b3    	mov.b     #0x8, w2
    17b4:	31 c0 b3    	mov.b     #0x3, w1
    17b6:	1e 00 78    	mov.w     [w14], w0
    17b8:	6a ff 07    	rcall     0x168e <___lcd_send8> <.LFB3> <.LFE2>
    delay_by_nop(5000);
    17ba:	80 38 21    	mov.w     #0x1388, w0
    17bc:	01 00 20    	mov.w     #0x0, w1
    17be:	bb 03 07    	rcall     0x1f36 <_delay_by_nop> <.L0> <.LFB0> <.LFE10> <.Letext0> <.Ltext0>

    __lcd_send8(self, 0x03, INTERNAL_WRITE);//0b00110000
    17c0:	82 c0 b3    	mov.b     #0x8, w2
    17c2:	31 c0 b3    	mov.b     #0x3, w1
    17c4:	1e 00 78    	mov.w     [w14], w0
    17c6:	63 ff 07    	rcall     0x168e <___lcd_send8> <.LFB3> <.LFE2>
    delay_by_nop(5000);
    17c8:	80 38 21    	mov.w     #0x1388, w0
    17ca:	01 00 20    	mov.w     #0x0, w1
    17cc:	b4 03 07    	rcall     0x1f36 <_delay_by_nop> <.L0> <.LFB0> <.LFE10> <.Letext0> <.Ltext0>

    __lcd_send8(self, 0x03, INTERNAL_WRITE);//0b00110000
    17ce:	82 c0 b3    	mov.b     #0x8, w2
    17d0:	31 c0 b3    	mov.b     #0x3, w1
    17d2:	1e 00 78    	mov.w     [w14], w0
    17d4:	5c ff 07    	rcall     0x168e <___lcd_send8> <.LFB3> <.LFE2>
    delay_by_nop(5000);
    17d6:	80 38 21    	mov.w     #0x1388, w0
    17d8:	01 00 20    	mov.w     #0x0, w1
    17da:	ad 03 07    	rcall     0x1f36 <_delay_by_nop> <.L0> <.LFB0> <.LFE10> <.Letext0> <.Ltext0>

    // Put it in 4 bit mode
    __lcd_send8(self, 0x02, INTERNAL_WRITE);//0b00110000
    17dc:	82 c0 b3    	mov.b     #0x8, w2
    17de:	21 c0 b3    	mov.b     #0x2, w1
    17e0:	1e 00 78    	mov.w     [w14], w0
    17e2:	55 ff 07    	rcall     0x168e <___lcd_send8> <.LFB3> <.LFE2>
    delay_by_nop(5000);
    17e4:	80 38 21    	mov.w     #0x1388, w0
    17e6:	01 00 20    	mov.w     #0x0, w1
    17e8:	a6 03 07    	rcall     0x1f36 <_delay_by_nop> <.L0> <.LFB0> <.LFE10> <.Letext0> <.Ltext0>

    __lcd_send(self, 0x28, INTERNAL_WRITE); // Set rows and direction
    17ea:	82 c0 b3    	mov.b     #0x8, w2
    17ec:	81 c2 b3    	mov.b     #0x28, w1
    17ee:	1e 00 78    	mov.w     [w14], w0
    17f0:	2a ff 07    	rcall     0x1646 <___lcd_send> <.LFB2> <.LFE1>
    delay_by_nop(50);
    17f2:	20 03 20    	mov.w     #0x32, w0
    17f4:	01 00 20    	mov.w     #0x0, w1
    17f6:	9f 03 07    	rcall     0x1f36 <_delay_by_nop> <.L0> <.LFB0> <.LFE10> <.Letext0> <.Ltext0>

    __lcd_send(self, 0x80, INTERNAL_WRITE); // Display off, cursor off
    17f8:	82 c0 b3    	mov.b     #0x8, w2
    17fa:	01 c8 b3    	mov.b     #0x80, w1
    17fc:	1e 00 78    	mov.w     [w14], w0
    17fe:	23 ff 07    	rcall     0x1646 <___lcd_send> <.LFB2> <.LFE1>
    delay_by_nop(50);
    1800:	20 03 20    	mov.w     #0x32, w0
    1802:	01 00 20    	mov.w     #0x0, w1
    1804:	98 03 07    	rcall     0x1f36 <_delay_by_nop> <.L0> <.LFB0> <.LFE10> <.Letext0> <.Ltext0>

    __lcd_send(self, 0x01, INTERNAL_WRITE); // Go to home position
    1806:	82 c0 b3    	mov.b     #0x8, w2
    1808:	11 c0 b3    	mov.b     #0x1, w1
    180a:	1e 00 78    	mov.w     [w14], w0
    180c:	1c ff 07    	rcall     0x1646 <___lcd_send> <.LFB2> <.LFE1>
    delay_by_nop(2000);
    180e:	00 7d 20    	mov.w     #0x7d0, w0
    1810:	01 00 20    	mov.w     #0x0, w1
    1812:	91 03 07    	rcall     0x1f36 <_delay_by_nop> <.L0> <.LFB0> <.LFE10> <.Letext0> <.Ltext0>

    __lcd_send(self, 0x06, INTERNAL_WRITE); // Set curson direction
    1814:	82 c0 b3    	mov.b     #0x8, w2
    1816:	61 c0 b3    	mov.b     #0x6, w1
    1818:	1e 00 78    	mov.w     [w14], w0
    181a:	15 ff 07    	rcall     0x1646 <___lcd_send> <.LFB2> <.LFE1>
    delay_by_nop(5000);
    181c:	80 38 21    	mov.w     #0x1388, w0
    181e:	01 00 20    	mov.w     #0x0, w1
    1820:	8a 03 07    	rcall     0x1f36 <_delay_by_nop> <.L0> <.LFB0> <.LFE10> <.Letext0> <.Ltext0>

    __lcd_send(self, 0x0C, INTERNAL_WRITE); // Display on, cursor off
    1822:	82 c0 b3    	mov.b     #0x8, w2
    1824:	c1 c0 b3    	mov.b     #0xc, w1
    1826:	1e 00 78    	mov.w     [w14], w0
    1828:	0e ff 07    	rcall     0x1646 <___lcd_send> <.LFB2> <.LFE1>
}
    182a:	00 80 fa    	ulnk      
    182c:	00 00 06    	return    

0000182e <_lcd_stop>:

// Stops lcd I2C transfer
void lcd_stop(_LCD *self) {
    182e:	02 00 fa    	lnk       #0x2
    1830:	00 0f 78    	mov.w     w0, [w14]
    reset_i2c_bus();
    1832:	d5 03 07    	rcall     0x1fde <_reset_i2c_bus> <.LFB4> <.LFE3>
}
    1834:	00 80 fa    	ulnk      
    1836:	00 00 06    	return    

00001838 <_lcd_display>:

// Sends show display command to LCD
void lcd_display(_LCD *self, uint8_t on) {
    1838:	04 00 fa    	lnk       #0x4
    183a:	00 0f 78    	mov.w     w0, [w14]
    183c:	21 47 98    	mov.b     w1, [w14+2]
    if (on) {
    183e:	2e 40 90    	mov.b     [w14+2], w0
    1840:	00 04 e0    	cp0.b     w0
    1842:	07 00 32    	bra       Z, 0x1852 <.L18>
        self->display_control |= LCD_DISPLAYON;
    1844:	1e 00 78    	mov.w     [w14], w0
    1846:	30 40 90    	mov.b     [w0+3], w0
    1848:	80 40 78    	mov.b     w0, w1
    184a:	01 24 a0    	bset.b    w1, #0x2
    184c:	1e 00 78    	mov.w     [w14], w0
    184e:	31 40 98    	mov.b     w1, [w0+3]
    1850:	06 00 37    	bra       0x185e <.L19>

00001852 <.L18>:
    } else {
        self->display_control &= ~LCD_DISPLAYON;
    1852:	1e 00 78    	mov.w     [w14], w0
    1854:	b0 40 90    	mov.b     [w0+3], w1
    1856:	b0 cf b3    	mov.b     #0xfb, w0
    1858:	80 c0 60    	and.b     w1, w0, w1
    185a:	1e 00 78    	mov.w     [w14], w0
    185c:	31 40 98    	mov.b     w1, [w0+3]

0000185e <.L19>:
    }
    __lcd_send(self, self->display_control | LCD_DISPLAYCONTROL, INTERNAL_WRITE);
    185e:	1e 00 78    	mov.w     [w14], w0
    1860:	30 40 90    	mov.b     [w0+3], w0
    1862:	00 34 a0    	bset.b    w0, #0x3
    1864:	82 c0 b3    	mov.b     #0x8, w2
    1866:	80 40 78    	mov.b     w0, w1
    1868:	1e 00 78    	mov.w     [w14], w0
    186a:	ed fe 07    	rcall     0x1646 <___lcd_send> <.LFB2> <.LFE1>
}
    186c:	00 80 fa    	ulnk      
    186e:	00 00 06    	return    

00001870 <_lcd_clear>:

// Sends clear display command to LCD
void lcd_clear(_LCD *self) {
    1870:	02 00 fa    	lnk       #0x2
    1872:	00 0f 78    	mov.w     w0, [w14]
    __lcd_send(self, LCD_CLEARDISPLAY, INTERNAL_WRITE);
    1874:	82 c0 b3    	mov.b     #0x8, w2
    1876:	11 c0 b3    	mov.b     #0x1, w1
    1878:	1e 00 78    	mov.w     [w14], w0
    187a:	e5 fe 07    	rcall     0x1646 <___lcd_send> <.LFB2> <.LFE1>
    delay_by_nop(2000);
    187c:	00 7d 20    	mov.w     #0x7d0, w0
    187e:	01 00 20    	mov.w     #0x0, w1
    1880:	5a 03 07    	rcall     0x1f36 <_delay_by_nop> <.L0> <.LFB0> <.LFE10> <.Letext0> <.Ltext0>
}
    1882:	00 80 fa    	ulnk      
    1884:	00 00 06    	return    

00001886 <_lcd_putc>:

// Sends single character to LCD display
void lcd_putc(_LCD *self, char c) {
    1886:	04 00 fa    	lnk       #0x4
    1888:	00 0f 78    	mov.w     w0, [w14]
    188a:	21 47 98    	mov.b     w1, [w14+2]
    __lcd_send(self, c, DR_WRITE);
    188c:	2e 40 90    	mov.b     [w14+2], w0
    188e:	92 c0 b3    	mov.b     #0x9, w2
    1890:	80 40 78    	mov.b     w0, w1
    1892:	1e 00 78    	mov.w     [w14], w0
    1894:	d8 fe 07    	rcall     0x1646 <___lcd_send> <.LFB2> <.LFE1>
    // delay_by_nop(1000);
}
    1896:	00 80 fa    	ulnk      
    1898:	00 00 06    	return    

0000189a <_lcd_goto>:

// Sends commands to move LCD cursor to specified location
void lcd_goto(_LCD *self, uint8_t line, uint8_t col) { //x=col, y=row
    189a:	06 00 fa    	lnk       #0x6
    189c:	10 07 98    	mov.w     w0, [w14+2]
    189e:	41 47 98    	mov.b     w1, [w14+4]
    18a0:	52 47 98    	mov.b     w2, [w14+5]
    uint8_t address;
    switch(line) {
    18a2:	4e 40 90    	mov.b     [w14+4], w0
    18a4:	00 80 fb    	ze        w0, w0
    18a6:	e1 0f 50    	sub.w     w0, #0x1, [w15]
    18a8:	03 00 32    	bra       Z, 0x18b0 <.L24>
    18aa:	e2 0f 50    	sub.w     w0, #0x2, [w15]
    18ac:	04 00 32    	bra       Z, 0x18b6 <.L25>
    18ae:	06 00 37    	bra       0x18bc <.L27>

000018b0 <.L24>:
        case 1:
            address = 0x00;
    18b0:	00 40 eb    	clr.b     w0
    18b2:	00 4f 78    	mov.b     w0, [w14]
            break;
    18b4:	06 00 37    	bra       0x18c2 <.L26>

000018b6 <.L25>:
        case 2:
            address = 0x40;
    18b6:	00 c4 b3    	mov.b     #0x40, w0
    18b8:	00 4f 78    	mov.b     w0, [w14]
            break;
    18ba:	03 00 37    	bra       0x18c2 <.L26>

000018bc <.L27>:
        default:
            address = 0x00;
    18bc:	00 40 eb    	clr.b     w0
    18be:	00 4f 78    	mov.b     w0, [w14]
            break;
    18c0:	00 00 00    	nop       

000018c2 <.L26>:
    }

    address = address+col;
    18c2:	5e 40 90    	mov.b     [w14+5], w0
    18c4:	1e 4f 40    	add.b     w0, [w14], [w14]
    __lcd_send(self, LCD_SETDDRAMADDR | address, INTERNAL_WRITE);
    18c6:	1e 40 78    	mov.b     [w14], w0
    18c8:	00 74 a0    	bset.b    w0, #0x7
    18ca:	82 c0 b3    	mov.b     #0x8, w2
    18cc:	80 40 78    	mov.b     w0, w1
    18ce:	1e 00 90    	mov.w     [w14+2], w0
    18d0:	ba fe 07    	rcall     0x1646 <___lcd_send> <.LFB2> <.LFE1>
}
    18d2:	00 80 fa    	ulnk      
    18d4:	00 00 06    	return    

000018d6 <_lcd_cursor>:


void lcd_cursor(_LCD *self, uint8_t cur) {
    18d6:	04 00 fa    	lnk       #0x4
    18d8:	00 0f 78    	mov.w     w0, [w14]
    18da:	21 47 98    	mov.b     w1, [w14+2]
    switch(cur) {
    18dc:	2e 40 90    	mov.b     [w14+2], w0
    18de:	00 80 fb    	ze        w0, w0
    18e0:	00 00 e0    	cp0.w     w0
    18e2:	03 00 32    	bra       Z, 0x18ea <.L30>
    18e4:	e1 0f 50    	sub.w     w0, #0x1, [w15]
    18e6:	06 00 32    	bra       Z, 0x18f4 <.L31>
        case 0:
            __lcd_send(self, 0x0C, INTERNAL_WRITE);
            break;
        case 1:
            __lcd_send(self, 0x0E, INTERNAL_WRITE);
            break;
        default:
            break;
    18e8:	0a 00 37    	bra       0x18fe <.L28>

000018ea <.L30>:
    18ea:	82 c0 b3    	mov.b     #0x8, w2
    18ec:	c1 c0 b3    	mov.b     #0xc, w1
    18ee:	1e 00 78    	mov.w     [w14], w0
    18f0:	aa fe 07    	rcall     0x1646 <___lcd_send> <.LFB2> <.LFE1>
    18f2:	05 00 37    	bra       0x18fe <.L28>

000018f4 <.L31>:
    18f4:	82 c0 b3    	mov.b     #0x8, w2
    18f6:	e1 c0 b3    	mov.b     #0xe, w1
    18f8:	1e 00 78    	mov.w     [w14], w0
    18fa:	a5 fe 07    	rcall     0x1646 <___lcd_send> <.LFB2> <.LFE1>
    18fc:	00 00 00    	nop       

000018fe <.L28>:
    }
}
    18fe:	00 80 fa    	ulnk      
    1900:	00 00 06    	return    

00001902 <_lcd_print1>:

void lcd_print1(_LCD *self, char *str) {
    1902:	04 00 fa    	lnk       #0x4
    1904:	00 0f 78    	mov.w     w0, [w14]
    1906:	11 07 98    	mov.w     w1, [w14+2]
    lcd_clear(self);
    1908:	1e 00 78    	mov.w     [w14], w0
    190a:	b2 ff 07    	rcall     0x1870 <_lcd_clear> <.LFB8> <.LFE7>
    while (*str) {
    190c:	08 00 37    	bra       0x191e <.L34>

0000190e <.L35>:
        lcd_putc(self, *str);
    190e:	1e 00 90    	mov.w     [w14+2], w0
    1910:	10 40 78    	mov.b     [w0], w0
    1912:	80 40 78    	mov.b     w0, w1
    1914:	1e 00 78    	mov.w     [w14], w0
    1916:	b7 ff 07    	rcall     0x1886 <_lcd_putc> <.LFB9> <.LFE8>
        str++;
    1918:	1e 00 90    	mov.w     [w14+2], w0
    191a:	00 00 e8    	inc.w     w0, w0
    191c:	10 07 98    	mov.w     w0, [w14+2]

0000191e <.L34>:
    191e:	1e 00 90    	mov.w     [w14+2], w0
    1920:	10 40 78    	mov.b     [w0], w0
    1922:	00 04 e0    	cp0.b     w0
    1924:	f4 ff 3a    	bra       NZ, 0x190e <.L35>
    }
}
    1926:	00 80 fa    	ulnk      
    1928:	00 00 06    	return    

0000192a <_lcd_print2>:

void lcd_print2(_LCD *self, char* line1, char* line2){
    192a:	42 00 fa    	lnk       #0x42
    192c:	60 1f 98    	mov.w     w0, [w14+60]
    192e:	71 1f 98    	mov.w     w1, [w14+62]
    1930:	02 27 98    	mov.w     w2, [w14+64]
    lcd_clear(self);
    1932:	6e 18 90    	mov.w     [w14+60], w0
    1934:	9d ff 07    	rcall     0x1870 <_lcd_clear> <.LFB8> <.LFE7>
    char str[56] ="                                                        ";
    1936:	e0 55 29    	mov.w     #0x955e, w0
    1938:	e4 00 47    	add.w     w14, #0x4, w1
    193a:	37 00 09    	repeat    #0x37
    193c:	b0 58 78    	mov.b     [w0++], [w1++]
    193e:	80 03 b1    	sub.w     #0x38, w0
    int i =0;
    1940:	00 00 eb    	clr.w     w0
    1942:	00 0f 78    	mov.w     w0, [w14]
    while (*line1){
    1944:	09 00 37    	bra       0x1958 <.L37>

00001946 <.L38>:
        str[i]=*line1;
    1946:	7e 18 90    	mov.w     [w14+62], w0
    1948:	90 40 78    	mov.b     [w0], w1
    194a:	64 00 47    	add.w     w14, #0x4, w0
    194c:	1e 00 40    	add.w     w0, [w14], w0
    194e:	01 48 78    	mov.b     w1, [w0]
        i=i+1;
    1950:	1e 0f e8    	inc.w     [w14], [w14]
        line1++;
    1952:	7e 18 90    	mov.w     [w14+62], w0
    1954:	00 00 e8    	inc.w     w0, w0
    1956:	70 1f 98    	mov.w     w0, [w14+62]

00001958 <.L37>:
    1958:	7e 18 90    	mov.w     [w14+62], w0
    195a:	10 40 78    	mov.b     [w0], w0
    195c:	00 04 e0    	cp0.b     w0
    195e:	f3 ff 3a    	bra       NZ, 0x1946 <.L38>
    }
    i =40;
    1960:	80 02 20    	mov.w     #0x28, w0
    1962:	00 0f 78    	mov.w     w0, [w14]
    while (*line2){
    1964:	09 00 37    	bra       0x1978 <.L39>

00001966 <.L40>:
        str[i]=*line2;
    1966:	0e 20 90    	mov.w     [w14+64], w0
    1968:	90 40 78    	mov.b     [w0], w1
    196a:	64 00 47    	add.w     w14, #0x4, w0
    196c:	1e 00 40    	add.w     w0, [w14], w0
    196e:	01 48 78    	mov.b     w1, [w0]
        i=i+1;
    1970:	1e 0f e8    	inc.w     [w14], [w14]
        line2++;
    1972:	0e 20 90    	mov.w     [w14+64], w0
    1974:	00 00 e8    	inc.w     w0, w0
    1976:	00 27 98    	mov.w     w0, [w14+64]

00001978 <.L39>:
    1978:	0e 20 90    	mov.w     [w14+64], w0
    197a:	10 40 78    	mov.b     [w0], w0
    197c:	00 04 e0    	cp0.b     w0
    197e:	f3 ff 3a    	bra       NZ, 0x1966 <.L40>
    }
    char* strptr=str;
    1980:	64 00 47    	add.w     w14, #0x4, w0
    1982:	10 07 98    	mov.w     w0, [w14+2]
    lcd_print1(self,strptr);
    1984:	9e 00 90    	mov.w     [w14+2], w1
    1986:	6e 18 90    	mov.w     [w14+60], w0
    1988:	bc ff 07    	rcall     0x1902 <_lcd_print1> <.LFB12> <.LFE11>
}
    198a:	00 80 fa    	ulnk      
    198c:	00 00 06    	return    

0000198e <_lcd_print>:

void lcd_print(_LCD *self, char* message) {
    198e:	30 00 fa    	lnk       #0x30
    1990:	60 17 98    	mov.w     w0, [w14+44]
    1992:	71 17 98    	mov.w     w1, [w14+46]
    char newstr1[17] = "                ";
    1994:	70 59 29    	mov.w     #0x9597, w0
    1996:	ea 00 47    	add.w     w14, #0xa, w1
    1998:	10 00 09    	repeat    #0x10
    199a:	b0 58 78    	mov.b     [w0++], [w1++]
    199c:	10 01 b1    	sub.w     #0x11, w0
    char* newstrptr1= newstr1;
    199e:	6a 0f 47    	add.w     w14, #0xa, [w14]
    char newstr2[17] = "                ";
    19a0:	70 59 29    	mov.w     #0x9597, w0
    19a2:	fb 00 47    	add.w     w14, #0x1b, w1
    19a4:	10 00 09    	repeat    #0x10
    19a6:	b0 58 78    	mov.b     [w0++], [w1++]
    19a8:	10 01 b1    	sub.w     #0x11, w0
    char* newstrptr2= newstr2;
    19aa:	7b 00 47    	add.w     w14, #0x1b, w0
    19ac:	10 07 98    	mov.w     w0, [w14+2]
    char* temp1 = newstrptr1;
    19ae:	9e 00 78    	mov.w     [w14], w1
    19b0:	31 07 98    	mov.w     w1, [w14+6]
    char* temp2 = newstrptr2;
    19b2:	9e 00 90    	mov.w     [w14+2], w1
    19b4:	41 07 98    	mov.w     w1, [w14+8]
    uint8_t i=0;
    19b6:	00 40 eb    	clr.b     w0
    19b8:	40 47 98    	mov.b     w0, [w14+4]
    while (i <17){
    19ba:	0f 00 37    	bra       0x19da <.L42>

000019bc <.L44>:
        if (*message){
    19bc:	7e 10 90    	mov.w     [w14+46], w0
    19be:	10 40 78    	mov.b     [w0], w0
    19c0:	00 04 e0    	cp0.b     w0
    19c2:	08 00 32    	bra       Z, 0x19d4 <.L43>
            *newstrptr1=*message;
    19c4:	7e 10 90    	mov.w     [w14+46], w0
    19c6:	90 40 78    	mov.b     [w0], w1
    19c8:	1e 00 78    	mov.w     [w14], w0
    19ca:	01 48 78    	mov.b     w1, [w0]
            message++;
    19cc:	7e 10 90    	mov.w     [w14+46], w0
    19ce:	00 00 e8    	inc.w     w0, w0
    19d0:	70 17 98    	mov.w     w0, [w14+46]
            newstrptr1++;
    19d2:	1e 0f e8    	inc.w     [w14], [w14]

000019d4 <.L43>:
        }
        i++;
    19d4:	4e 40 90    	mov.b     [w14+4], w0
    19d6:	00 40 e8    	inc.b     w0, w0
    19d8:	40 47 98    	mov.b     w0, [w14+4]

000019da <.L42>:
    19da:	4e 40 90    	mov.b     [w14+4], w0
    19dc:	f0 4f 50    	sub.b     w0, #0x10, [w15]
    19de:	ee ff 36    	bra       LEU, 0x19bc <.L44>
    }
    i=0;
    19e0:	00 40 eb    	clr.b     w0
    19e2:	40 47 98    	mov.b     w0, [w14+4]
    message--; //SKETCHY!
    19e4:	7e 10 90    	mov.w     [w14+46], w0
    19e6:	00 00 e9    	dec.w     w0, w0
    19e8:	70 17 98    	mov.w     w0, [w14+46]
    while (i <17){
    19ea:	11 00 37    	bra       0x1a0e <.L45>

000019ec <.L47>:
        if (*message){
    19ec:	7e 10 90    	mov.w     [w14+46], w0
    19ee:	10 40 78    	mov.b     [w0], w0
    19f0:	00 04 e0    	cp0.b     w0
    19f2:	0a 00 32    	bra       Z, 0x1a08 <.L46>
            *newstrptr2=*message;
    19f4:	7e 10 90    	mov.w     [w14+46], w0
    19f6:	90 40 78    	mov.b     [w0], w1
    19f8:	1e 00 90    	mov.w     [w14+2], w0
    19fa:	01 48 78    	mov.b     w1, [w0]
            message++;
    19fc:	7e 10 90    	mov.w     [w14+46], w0
    19fe:	00 00 e8    	inc.w     w0, w0
    1a00:	70 17 98    	mov.w     w0, [w14+46]
            newstrptr2++;
    1a02:	1e 00 90    	mov.w     [w14+2], w0
    1a04:	00 00 e8    	inc.w     w0, w0
    1a06:	10 07 98    	mov.w     w0, [w14+2]

00001a08 <.L46>:
        }
        i++;
    1a08:	4e 40 90    	mov.b     [w14+4], w0
    1a0a:	00 40 e8    	inc.b     w0, w0
    1a0c:	40 47 98    	mov.b     w0, [w14+4]

00001a0e <.L45>:
    1a0e:	4e 40 90    	mov.b     [w14+4], w0
    1a10:	f0 4f 50    	sub.b     w0, #0x10, [w15]
    1a12:	ec ff 36    	bra       LEU, 0x19ec <.L47>
    }
    lcd_print2(self, temp1, temp2);
    1a14:	4e 01 90    	mov.w     [w14+8], w2
    1a16:	be 00 90    	mov.w     [w14+6], w1
    1a18:	6e 10 90    	mov.w     [w14+44], w0
    1a1a:	87 ff 07    	rcall     0x192a <_lcd_print2> <.LFB13> <.LFE12>
}
    1a1c:	00 80 fa    	ulnk      
    1a1e:	00 00 06    	return    

00001a20 <_lcd_broadcast>:

void lcd_broadcast(char* message) {
    1a20:	04 00 fa    	lnk       #0x4
    1a22:	10 07 98    	mov.w     w0, [w14+2]
    uint8_t i;
    for (i = 0; i < 3; i++)
    1a24:	00 40 eb    	clr.b     w0
    1a26:	00 4f 78    	mov.b     w0, [w14]
    1a28:	08 00 37    	bra       0x1a3a <.L49>

00001a2a <.L50>:
        lcd_print(&lcd[i], message);
    1a2a:	1e 80 fb    	ze        [w14], w0
    1a2c:	65 00 b9    	mul.su    w0, #0x5, w0
    1a2e:	80 00 78    	mov.w     w0, w1
    1a30:	a0 82 20    	mov.w     #0x82a, w0
    1a32:	00 80 40    	add.w     w1, w0, w0
    1a34:	9e 00 90    	mov.w     [w14+2], w1
    1a36:	ab ff 07    	rcall     0x198e <_lcd_print> <.LFB14> <.LFE13>
    1a38:	1e 4f e8    	inc.b     [w14], [w14]

00001a3a <.L49>:
    1a3a:	1e 40 78    	mov.b     [w14], w0
    1a3c:	e2 4f 50    	sub.b     w0, #0x2, [w15]
    1a3e:	f5 ff 36    	bra       LEU, 0x1a2a <.L50>
}
    1a40:	00 80 fa    	ulnk      
    1a42:	00 00 06    	return    

00001a44 <_itoa>:

char * itoa (int value, char *result, int base) {
    1a44:	0e 00 fa    	lnk       #0xe
    1a46:	40 07 98    	mov.w     w0, [w14+8]
    1a48:	51 07 98    	mov.w     w1, [w14+10]
    1a4a:	62 07 98    	mov.w     w2, [w14+12]
    // check that the base if valid
    if (base < 2 || base > 36) { *result = '\0'; return result; }
    1a4c:	6e 00 90    	mov.w     [w14+12], w0
    1a4e:	e1 0f 50    	sub.w     w0, #0x1, [w15]
    1a50:	04 00 34    	bra       LE, 0x1a5a <.L52>
    1a52:	ee 00 90    	mov.w     [w14+12], w1
    1a54:	40 02 20    	mov.w     #0x24, w0
    1a56:	80 8f 50    	sub.w     w1, w0, [w15]
    1a58:	05 00 34    	bra       LE, 0x1a64 <.L53>

00001a5a <.L52>:
    1a5a:	5e 00 90    	mov.w     [w14+10], w0
    1a5c:	80 40 eb    	clr.b     w1
    1a5e:	01 48 78    	mov.b     w1, [w0]
    1a60:	5e 00 90    	mov.w     [w14+10], w0
    1a62:	39 00 37    	bra       0x1ad6 <.L54>

00001a64 <.L53>:

    char* ptr = result, *ptr1 = result, tmp_char;
    1a64:	de 00 90    	mov.w     [w14+10], w1
    1a66:	01 0f 78    	mov.w     w1, [w14]
    1a68:	5e 01 90    	mov.w     [w14+10], w2
    1a6a:	12 07 98    	mov.w     w2, [w14+2]

00001a6c <.L55>:
    int tmp_value;

    do {
        tmp_value = value;
    1a6c:	ce 00 90    	mov.w     [w14+8], w1
    1a6e:	21 07 98    	mov.w     w1, [w14+4]
        value /= base;
    1a70:	ce 00 90    	mov.w     [w14+8], w1
    1a72:	6e 00 90    	mov.w     [w14+12], w0
    1a74:	00 01 78    	mov.w     w0, w2
    1a76:	11 00 09    	repeat    #0x11
    1a78:	82 00 d8    	div.sw    w1, w2
    1a7a:	40 07 98    	mov.w     w0, [w14+8]
        *ptr++ = "zyxwvutsrqponmlkjihgfedcba9876543210123456789abcdefghijklmnopqrstuvwxyz" [35 + (tmp_value - value * base)];
    1a7c:	ce 00 90    	mov.w     [w14+8], w1
    1a7e:	6e 00 90    	mov.w     [w14+12], w0
    1a80:	00 88 b9    	mul.ss    w1, w0, w0
    1a82:	00 00 78    	mov.w     w0, w0
    1a84:	ae 00 90    	mov.w     [w14+4], w1
    1a86:	00 80 50    	sub.w     w1, w0, w0
    1a88:	30 02 b0    	add.w     #0x23, w0
    1a8a:	81 5a 29    	mov.w     #0x95a8, w1
    1a8c:	e1 40 78    	mov.b     [w1+w0], w1
    1a8e:	1e 00 78    	mov.w     [w14], w0
    1a90:	01 48 78    	mov.b     w1, [w0]
    1a92:	1e 0f e8    	inc.w     [w14], [w14]
    } while ( value );
    1a94:	4e 00 90    	mov.w     [w14+8], w0
    1a96:	00 00 e0    	cp0.w     w0
    1a98:	e9 ff 3a    	bra       NZ, 0x1a6c <.L55>

    // Apply negative sign
    if (tmp_value < 0) *ptr++ = '-';
    1a9a:	2e 00 90    	mov.w     [w14+4], w0
    1a9c:	00 00 e0    	cp0.w     w0
    1a9e:	04 00 3d    	bra       GE, 0x1aa8 <.L56>
    1aa0:	1e 00 78    	mov.w     [w14], w0
    1aa2:	d1 c2 b3    	mov.b     #0x2d, w1
    1aa4:	01 48 78    	mov.b     w1, [w0]
    1aa6:	1e 0f e8    	inc.w     [w14], [w14]

00001aa8 <.L56>:
    *ptr-- = '\0';
    1aa8:	1e 00 78    	mov.w     [w14], w0
    1aaa:	80 40 eb    	clr.b     w1
    1aac:	01 48 78    	mov.b     w1, [w0]
    1aae:	1e 0f e9    	dec.w     [w14], [w14]
    while (ptr1 < ptr) {
    1ab0:	0e 00 37    	bra       0x1ace <.L57>

00001ab2 <.L58>:
        tmp_char = *ptr;
    1ab2:	1e 00 78    	mov.w     [w14], w0
    1ab4:	90 40 78    	mov.b     [w0], w1
    1ab6:	61 47 98    	mov.b     w1, [w14+6]
        *ptr--= *ptr1;
    1ab8:	1e 00 90    	mov.w     [w14+2], w0
    1aba:	90 40 78    	mov.b     [w0], w1
    1abc:	1e 00 78    	mov.w     [w14], w0
    1abe:	01 48 78    	mov.b     w1, [w0]
    1ac0:	1e 0f e9    	dec.w     [w14], [w14]
        *ptr1++ = tmp_char;
    1ac2:	1e 00 90    	mov.w     [w14+2], w0
    1ac4:	6e 41 90    	mov.b     [w14+6], w2
    1ac6:	02 48 78    	mov.b     w2, [w0]
    1ac8:	1e 00 90    	mov.w     [w14+2], w0
    1aca:	00 00 e8    	inc.w     w0, w0
    1acc:	10 07 98    	mov.w     w0, [w14+2]

00001ace <.L57>:
    1ace:	1e 00 90    	mov.w     [w14+2], w0
    1ad0:	9e 0f 50    	sub.w     w0, [w14], [w15]
    1ad2:	ef ff 39    	bra       NC, 0x1ab2 <.L58>
    }
    return result;
    1ad4:	5e 00 90    	mov.w     [w14+10], w0

00001ad6 <.L54>:
}
    1ad6:	00 80 fa    	ulnk      
    1ad8:	00 00 06    	return    

00001ada <_main>:
    1ada:	60 00 fa    	lnk       #0x60
    1adc:	88 1f 78    	mov.w     w8, [w15++]
    1ade:	7c 04 07    	rcall     0x23d8 <.LFE0> <_init_elecanisms> <.L0> <.LFB0> <.Ltext0>
    1ae0:	f0 01 07    	rcall     0x1ec2 <_toggleSwitchSetup> <.LFB9> <.LFE8>
    1ae2:	80 3e 20    	mov.w     #0x3e8, w0
    1ae4:	3b 02 07    	rcall     0x1f5c <_i2c_init> <.LFB1> <.LFE0>
    1ae6:	12 c4 b3    	mov.b     #0x41, w2
    1ae8:	61 c0 b3    	mov.b     #0x6, w1
    1aea:	a0 83 20    	mov.w     #0x83a, w0
    1aec:	2d fe 07    	rcall     0x1748 <_lcd_init> <.LFB5> <.LFE4>
    1aee:	a0 83 20    	mov.w     #0x83a, w0
    1af0:	bf fe 07    	rcall     0x1870 <_lcd_clear> <.LFB8> <.LFE7>
    1af2:	50 16 80    	mov.w     0x2ca, w0
    1af4:	45 00 de    	lsr.w     w0, #0x5, w0
    1af6:	61 40 60    	and.b     w0, #0x1, w0
    1af8:	00 80 fb    	ze        w0, w0
    1afa:	9e 04 07    	rcall     0x2438 <_read_analog> <.LFB1> <.LFE0>
    1afc:	b0 40 88    	mov.w     w0, 0x816
    1afe:	00 40 eb    	clr.b     w0
    1b00:	00 4f 78    	mov.b     w0, [w14]
    1b02:	02 00 37    	bra       0x1b08 <.L2>

00001b04 <.L3>:
    1b04:	01 02 07    	rcall     0x1f08 <_rand_next> <.LFB10> <.LFE9>
    1b06:	1e 4f e8    	inc.b     [w14], [w14]

00001b08 <.L2>:
    1b08:	1e 84 fb    	ze        [w14], w8
    1b0a:	50 16 80    	mov.w     0x2ca, w0
    1b0c:	45 00 de    	lsr.w     w0, #0x5, w0
    1b0e:	61 40 60    	and.b     w0, #0x1, w0
    1b10:	00 80 fb    	ze        w0, w0
    1b12:	92 04 07    	rcall     0x2438 <_read_analog> <.LFB1> <.LFE0>
    1b14:	74 00 40    	add.w     w0, #0x14, w0
    1b16:	80 0f 54    	sub.w     w8, w0, [w15]
    1b18:	f5 ff 39    	bra       NC, 0x1b04 <.L3>
    1b1a:	00 40 eb    	clr.b     w0
    1b1c:	00 4f 78    	mov.b     w0, [w14]
    1b1e:	13 00 37    	bra       0x1b46 <.L4>

00001b20 <.L5>:
    1b20:	11 40 80    	mov.w     0x802, w1
    1b22:	1e 80 fb    	ze        [w14], w0
    1b24:	00 82 40    	add.w     w1, w0, w4
    1b26:	9e 81 fb    	ze        [w14], w3
    1b28:	b2 40 80    	mov.w     0x816, w2
    1b2a:	90 88 28    	mov.w     #0x8889, w0
    1b2c:	00 10 b8    	mul.uu    w2, w0, w0
    1b2e:	43 08 de    	lsr.w     w1, #0x3, w0
    1b30:	6f 00 b9    	mul.su    w0, #0xf, w0
    1b32:	00 00 78    	mov.w     w0, w0
    1b34:	00 00 51    	sub.w     w2, w0, w0
    1b36:	41 02 20    	mov.w     #0x24, w1
    1b38:	01 99 b9    	mul.ss    w3, w1, w2
    1b3a:	82 00 78    	mov.w     w2, w1
    1b3c:	00 80 40    	add.w     w1, w0, w0
    1b3e:	41 2f 29    	mov.w     #0x92f4, w1
    1b40:	61 40 78    	mov.b     [w1+w0], w0
    1b42:	00 4a 78    	mov.b     w0, [w4]
    1b44:	1e 4f e8    	inc.b     [w14], [w14]

00001b46 <.L4>:
    1b46:	30 c2 b3    	mov.b     #0x23, w0
    1b48:	9e 40 78    	mov.b     [w14], w1
    1b4a:	80 cf 50    	sub.b     w1, w0, [w15]
    1b4c:	e9 ff 36    	bra       LEU, 0x1b20 <.L5>
    1b4e:	00 51 29    	mov.w     #0x9510, w0
    1b50:	10 40 88    	mov.w     w0, 0x802
    1b52:	50 53 29    	mov.w     #0x9535, w0
    1b54:	90 40 78    	mov.b     [w0], w1
    1b56:	51 67 98    	mov.b     w1, [w14+37]
    1b58:	90 40 90    	mov.b     [w0+1], w1
    1b5a:	61 67 98    	mov.b     w1, [w14+38]
    1b5c:	8e 00 78    	mov.w     w14, w1
    1b5e:	71 02 b0    	add.w     #0x27, w1
    1b60:	04 00 09    	repeat    #0x4
    1b62:	80 58 eb    	clr.b     [w1++]
    1b64:	00 40 eb    	clr.b     w0
    1b66:	00 4f 78    	mov.b     w0, [w14]
    1b68:	08 00 37    	bra       0x1b7a <.L6>

00001b6a <.L7>:
    1b6a:	1e 80 fb    	ze        [w14], w0
    1b6c:	12 40 80    	mov.w     0x802, w2
    1b6e:	9e 80 fb    	ze        [w14], w1
    1b70:	81 00 41    	add.w     w2, w1, w1
    1b72:	91 40 78    	mov.b     [w1], w1
    1b74:	00 00 47    	add.w     w14, w0, w0
    1b76:	51 60 98    	mov.b     w1, [w0+37]
    1b78:	1e 4f e8    	inc.b     [w14], [w14]

00001b7a <.L6>:
    1b7a:	1e 40 78    	mov.b     [w14], w0
    1b7c:	e4 4f 50    	sub.b     w0, #0x4, [w15]
    1b7e:	f5 ff 36    	bra       LEU, 0x1b6a <.L7>
    1b80:	50 02 20    	mov.w     #0x25, w0
    1b82:	0e 00 40    	add.w     w0, w14, w0
    1b84:	70 40 88    	mov.w     w0, 0x80e
    1b86:	00 02 20    	mov.w     #0x20, w0
    1b88:	01 00 20    	mov.w     #0x0, w1
    1b8a:	60 17 98    	mov.w     w0, [w14+44]
    1b8c:	71 17 98    	mov.w     w1, [w14+46]
    1b8e:	8e 00 78    	mov.w     w14, w1
    1b90:	01 03 b0    	add.w     #0x30, w1
    1b92:	00 00 09    	repeat    #0x0
    1b94:	80 18 eb    	clr.w     [w1++]
    1b96:	80 58 eb    	clr.b     [w1++]
    1b98:	00 40 eb    	clr.b     w0
    1b9a:	00 4f 78    	mov.b     w0, [w14]
    1b9c:	09 00 37    	bra       0x1bb0 <.L8>

00001b9e <.L9>:
    1b9e:	1e 80 fb    	ze        [w14], w0
    1ba0:	12 40 80    	mov.w     0x802, w2
    1ba2:	9e 80 fb    	ze        [w14], w1
    1ba4:	e5 80 40    	add.w     w1, #0x5, w1
    1ba6:	81 00 41    	add.w     w2, w1, w1
    1ba8:	91 40 78    	mov.b     [w1], w1
    1baa:	00 00 47    	add.w     w14, w0, w0
    1bac:	41 68 98    	mov.b     w1, [w0+44]
    1bae:	1e 4f e8    	inc.b     [w14], [w14]

00001bb0 <.L8>:
    1bb0:	1e 40 78    	mov.b     [w14], w0
    1bb2:	e5 4f 50    	sub.b     w0, #0x5, [w15]
    1bb4:	f4 ff 36    	bra       LEU, 0x1b9e <.L9>
    1bb6:	c0 02 20    	mov.w     #0x2c, w0
    1bb8:	0e 00 40    	add.w     w0, w14, w0
    1bba:	20 40 88    	mov.w     w0, 0x804
    1bbc:	50 53 29    	mov.w     #0x9535, w0
    1bbe:	90 40 78    	mov.b     [w0], w1
    1bc0:	31 77 98    	mov.b     w1, [w14+51]
    1bc2:	90 40 90    	mov.b     [w0+1], w1
    1bc4:	41 77 98    	mov.b     w1, [w14+52]
    1bc6:	8e 00 78    	mov.w     w14, w1
    1bc8:	51 03 b0    	add.w     #0x35, w1
    1bca:	04 00 09    	repeat    #0x4
    1bcc:	80 58 eb    	clr.b     [w1++]
    1bce:	00 40 eb    	clr.b     w0
    1bd0:	00 4f 78    	mov.b     w0, [w14]
    1bd2:	09 00 37    	bra       0x1be6 <.L10>

00001bd4 <.L11>:
    1bd4:	1e 80 fb    	ze        [w14], w0
    1bd6:	12 40 80    	mov.w     0x802, w2
    1bd8:	9e 80 fb    	ze        [w14], w1
    1bda:	eb 80 40    	add.w     w1, #0xb, w1
    1bdc:	81 00 41    	add.w     w2, w1, w1
    1bde:	91 40 78    	mov.b     [w1], w1
    1be0:	00 00 47    	add.w     w14, w0, w0
    1be2:	31 70 98    	mov.b     w1, [w0+51]
    1be4:	1e 4f e8    	inc.b     [w14], [w14]

00001be6 <.L10>:
    1be6:	1e 40 78    	mov.b     [w14], w0
    1be8:	e5 4f 50    	sub.b     w0, #0x5, [w15]
    1bea:	f4 ff 36    	bra       LEU, 0x1bd4 <.L11>
    1bec:	30 03 20    	mov.w     #0x33, w0
    1bee:	0e 00 40    	add.w     w0, w14, w0
    1bf0:	30 40 88    	mov.w     w0, 0x806
    1bf2:	00 02 20    	mov.w     #0x20, w0
    1bf4:	01 00 20    	mov.w     #0x0, w1
    1bf6:	50 1f 98    	mov.w     w0, [w14+58]
    1bf8:	61 1f 98    	mov.w     w1, [w14+60]
    1bfa:	8e 00 78    	mov.w     w14, w1
    1bfc:	e1 03 b0    	add.w     #0x3e, w1
    1bfe:	00 00 09    	repeat    #0x0
    1c00:	80 18 eb    	clr.w     [w1++]
    1c02:	80 58 eb    	clr.b     [w1++]
    1c04:	00 40 eb    	clr.b     w0
    1c06:	00 4f 78    	mov.b     w0, [w14]
    1c08:	09 00 37    	bra       0x1c1c <.L12>

00001c0a <.L13>:
    1c0a:	1e 80 fb    	ze        [w14], w0
    1c0c:	12 40 80    	mov.w     0x802, w2
    1c0e:	9e 80 fb    	ze        [w14], w1
    1c10:	f1 80 40    	add.w     w1, #0x11, w1
    1c12:	81 00 41    	add.w     w2, w1, w1
    1c14:	91 40 78    	mov.b     [w1], w1
    1c16:	00 00 47    	add.w     w14, w0, w0
    1c18:	21 78 98    	mov.b     w1, [w0+58]
    1c1a:	1e 4f e8    	inc.b     [w14], [w14]

00001c1c <.L12>:
    1c1c:	1e 40 78    	mov.b     [w14], w0
    1c1e:	e5 4f 50    	sub.b     w0, #0x5, [w15]
    1c20:	f4 ff 36    	bra       LEU, 0x1c0a <.L13>
    1c22:	a0 03 20    	mov.w     #0x3a, w0
    1c24:	0e 00 40    	add.w     w0, w14, w0
    1c26:	40 40 88    	mov.w     w0, 0x808
    1c28:	50 53 29    	mov.w     #0x9535, w0
    1c2a:	90 40 78    	mov.b     [w0], w1
    1c2c:	11 c7 98    	mov.b     w1, [w14+65]
    1c2e:	90 40 90    	mov.b     [w0+1], w1
    1c30:	21 c7 98    	mov.b     w1, [w14+66]
    1c32:	8e 00 78    	mov.w     w14, w1
    1c34:	31 04 b0    	add.w     #0x43, w1
    1c36:	04 00 09    	repeat    #0x4
    1c38:	80 58 eb    	clr.b     [w1++]
    1c3a:	00 40 eb    	clr.b     w0
    1c3c:	00 4f 78    	mov.b     w0, [w14]
    1c3e:	09 00 37    	bra       0x1c52 <.L14>

00001c40 <.L15>:
    1c40:	1e 80 fb    	ze        [w14], w0
    1c42:	12 40 80    	mov.w     0x802, w2
    1c44:	9e 80 fb    	ze        [w14], w1
    1c46:	f7 80 40    	add.w     w1, #0x17, w1
    1c48:	81 00 41    	add.w     w2, w1, w1
    1c4a:	91 40 78    	mov.b     [w1], w1
    1c4c:	00 00 47    	add.w     w14, w0, w0
    1c4e:	11 c0 98    	mov.b     w1, [w0+65]
    1c50:	1e 4f e8    	inc.b     [w14], [w14]

00001c52 <.L14>:
    1c52:	1e 40 78    	mov.b     [w14], w0
    1c54:	e5 4f 50    	sub.b     w0, #0x5, [w15]
    1c56:	f4 ff 36    	bra       LEU, 0x1c40 <.L15>
    1c58:	10 04 20    	mov.w     #0x41, w0
    1c5a:	0e 00 40    	add.w     w0, w14, w0
    1c5c:	50 40 88    	mov.w     w0, 0x80a
    1c5e:	00 02 20    	mov.w     #0x20, w0
    1c60:	01 00 20    	mov.w     #0x0, w1
    1c62:	40 27 98    	mov.w     w0, [w14+72]
    1c64:	51 27 98    	mov.w     w1, [w14+74]
    1c66:	8e 00 78    	mov.w     w14, w1
    1c68:	c1 04 b0    	add.w     #0x4c, w1
    1c6a:	00 00 09    	repeat    #0x0
    1c6c:	80 18 eb    	clr.w     [w1++]
    1c6e:	80 58 eb    	clr.b     [w1++]
    1c70:	00 40 eb    	clr.b     w0
    1c72:	00 4f 78    	mov.b     w0, [w14]
    1c74:	09 00 37    	bra       0x1c88 <.L16>

00001c76 <.L17>:
    1c76:	1e 80 fb    	ze        [w14], w0
    1c78:	12 40 80    	mov.w     0x802, w2
    1c7a:	9e 80 fb    	ze        [w14], w1
    1c7c:	fd 80 40    	add.w     w1, #0x1d, w1
    1c7e:	81 00 41    	add.w     w2, w1, w1
    1c80:	91 40 78    	mov.b     [w1], w1
    1c82:	00 00 47    	add.w     w14, w0, w0
    1c84:	01 c8 98    	mov.b     w1, [w0+72]
    1c86:	1e 4f e8    	inc.b     [w14], [w14]

00001c88 <.L16>:
    1c88:	1e 40 78    	mov.b     [w14], w0
    1c8a:	e5 4f 50    	sub.b     w0, #0x5, [w15]
    1c8c:	f4 ff 36    	bra       LEU, 0x1c76 <.L17>
    1c8e:	80 04 20    	mov.w     #0x48, w0
    1c90:	0e 00 40    	add.w     w0, w14, w0
    1c92:	60 40 88    	mov.w     w0, 0x80c
    1c94:	b2 40 80    	mov.w     0x816, w2
    1c96:	d0 cc 2c    	mov.w     #0xcccd, w0
    1c98:	00 10 b8    	mul.uu    w2, w0, w0
    1c9a:	42 08 de    	lsr.w     w1, #0x2, w0
    1c9c:	65 00 b9    	mul.su    w0, #0x5, w0
    1c9e:	00 00 78    	mov.w     w0, w0
    1ca0:	00 00 51    	sub.w     w2, w0, w0
    1ca2:	00 40 78    	mov.b     w0, w0
    1ca4:	10 e8 b7    	mov.b     WREG, 0x810
    1ca6:	30 01 07    	rcall     0x1f08 <_rand_next> <.LFB10> <.LFE9>
    1ca8:	b2 40 80    	mov.w     0x816, w2
    1caa:	d0 cc 2c    	mov.w     #0xcccd, w0
    1cac:	00 10 b8    	mul.uu    w2, w0, w0
    1cae:	42 08 de    	lsr.w     w1, #0x2, w0
    1cb0:	65 00 b9    	mul.su    w0, #0x5, w0
    1cb2:	00 00 78    	mov.w     w0, w0
    1cb4:	00 00 51    	sub.w     w2, w0, w0
    1cb6:	00 40 78    	mov.b     w0, w0
    1cb8:	11 e8 b7    	mov.b     WREG, 0x811
    1cba:	26 01 07    	rcall     0x1f08 <_rand_next> <.LFB10> <.LFE9>
    1cbc:	b2 40 80    	mov.w     0x816, w2
    1cbe:	d0 cc 2c    	mov.w     #0xcccd, w0
    1cc0:	00 10 b8    	mul.uu    w2, w0, w0
    1cc2:	42 08 de    	lsr.w     w1, #0x2, w0
    1cc4:	65 00 b9    	mul.su    w0, #0x5, w0
    1cc6:	00 00 78    	mov.w     w0, w0
    1cc8:	00 00 51    	sub.w     w2, w0, w0
    1cca:	00 40 78    	mov.b     w0, w0
    1ccc:	12 e8 b7    	mov.b     WREG, 0x812
    1cce:	1c 01 07    	rcall     0x1f08 <_rand_next> <.LFB10> <.LFE9>
    1cd0:	b2 40 80    	mov.w     0x816, w2
    1cd2:	d0 cc 2c    	mov.w     #0xcccd, w0
    1cd4:	00 10 b8    	mul.uu    w2, w0, w0
    1cd6:	42 08 de    	lsr.w     w1, #0x2, w0
    1cd8:	65 00 b9    	mul.su    w0, #0x5, w0
    1cda:	00 00 78    	mov.w     w0, w0
    1cdc:	00 00 51    	sub.w     w2, w0, w0
    1cde:	00 40 78    	mov.b     w0, w0
    1ce0:	13 e8 b7    	mov.b     WREG, 0x813
    1ce2:	12 01 07    	rcall     0x1f08 <_rand_next> <.LFB10> <.LFE9>
    1ce4:	b2 40 80    	mov.w     0x816, w2
    1ce6:	d0 cc 2c    	mov.w     #0xcccd, w0
    1ce8:	00 10 b8    	mul.uu    w2, w0, w0
    1cea:	42 08 de    	lsr.w     w1, #0x2, w0
    1cec:	65 00 b9    	mul.su    w0, #0x5, w0
    1cee:	00 00 78    	mov.w     w0, w0
    1cf0:	00 00 51    	sub.w     w2, w0, w0
    1cf2:	00 40 78    	mov.b     w0, w0
    1cf4:	14 e8 b7    	mov.b     WREG, 0x814
    1cf6:	c0 53 29    	mov.w     #0x953c, w0
    1cf8:	f1 04 20    	mov.w     #0x4f, w1
    1cfa:	81 00 47    	add.w     w14, w1, w1
    1cfc:	0f 00 09    	repeat    #0xf
    1cfe:	b0 58 78    	mov.b     [w0++], [w1++]
    1d00:	00 01 b1    	sub.w     #0x10, w0
    1d02:	00 40 eb    	clr.b     w0
    1d04:	70 df 98    	mov.b     w0, [w14+95]
    1d06:	f0 04 20    	mov.w     #0x4f, w0
    1d08:	0e 00 40    	add.w     w0, w14, w0
    1d0a:	00 40 88    	mov.w     w0, 0x800
    1d0c:	00 40 80    	mov.w     0x800, w0
    1d0e:	42 53 29    	mov.w     #0x9534, w2
    1d10:	80 00 78    	mov.w     w0, w1
    1d12:	a0 83 20    	mov.w     #0x83a, w0
    1d14:	0a fe 07    	rcall     0x192a <_lcd_print2> <.LFB13> <.LFE12>
    1d16:	00 02 20    	mov.w     #0x20, w0
    1d18:	80 08 88    	mov.w     w0, 0x110
    1d1a:	00 71 22    	mov.w     #0x2710, w0
    1d1c:	60 08 88    	mov.w     w0, 0x10c
    1d1e:	06 21 ef    	clr.w     0x106
    1d20:	84 e0 a9    	bclr.b    0x84, #0x7
    1d22:	94 e0 a8    	bset.b    0x94, #0x7
    1d24:	11 e1 a9    	bclr.b    0x111, #0x7
    1d26:	60 d5 21    	mov.w     #0x1d56, w0
    1d28:	c0 40 88    	mov.w     w0, 0x818

00001d2a <.L18>:
    1d2a:	c0 40 80    	mov.w     0x818, w0
    1d2c:	00 00 01    	call      w0
    1d2e:	fd ff 37    	bra       0x1d2a <.L18>

00001d30 <_setup>:
    1d30:	00 00 fa    	lnk       #0x0
    1d32:	c1 40 80    	mov.w     0x818, w1
    1d34:	d0 40 80    	mov.w     0x81a, w0
    1d36:	80 8f 50    	sub.w     w1, w0, [w15]
    1d38:	02 00 32    	bra       Z, 0x1d3e <.L20>
    1d3a:	c0 40 80    	mov.w     0x818, w0
    1d3c:	d0 40 88    	mov.w     w0, 0x81a

00001d3e <.L20>:
    1d3e:	24 c8 bf    	mov.b     0x824, WREG
    1d40:	e1 4f 50    	sub.b     w0, #0x1, [w15]
    1d42:	05 00 32    	bra       Z, 0x1d4e <.L21>
    1d44:	91 16 80    	mov.w     0x2d2, w1
    1d46:	00 00 21    	mov.w     #0x1000, w0
    1d48:	00 80 60    	and.w     w1, w0, w0
    1d4a:	00 00 e0    	cp0.w     w0
    1d4c:	02 00 3a    	bra       NZ, 0x1d52 <.L22>

00001d4e <.L21>:
    1d4e:	60 d5 21    	mov.w     #0x1d56, w0
    1d50:	c0 40 88    	mov.w     w0, 0x818

00001d52 <.L22>:
    1d52:	00 80 fa    	ulnk      
    1d54:	00 00 06    	return    

00001d56 <_run>:
    1d56:	00 00 fa    	lnk       #0x0
    1d58:	c1 40 80    	mov.w     0x818, w1
    1d5a:	d0 40 80    	mov.w     0x81a, w0
    1d5c:	80 8f 50    	sub.w     w1, w0, [w15]
    1d5e:	02 00 32    	bra       Z, 0x1d64 <.L24>
    1d60:	c0 40 80    	mov.w     0x818, w0
    1d62:	d0 40 88    	mov.w     w0, 0x81a

00001d64 <.L24>:
    1d64:	7e 00 07    	rcall     0x1e62 <_updateDisplay> <.LFB8> <.LFE5>
    1d66:	21 40 80    	mov.w     0x804, w1
    1d68:	10 c8 bf    	mov.b     0x810, WREG
    1d6a:	00 80 fb    	ze        w0, w0
    1d6c:	00 80 40    	add.w     w1, w0, w0
    1d6e:	90 40 78    	mov.b     [w0], w1
    1d70:	70 40 80    	mov.w     0x80e, w0
    1d72:	10 40 78    	mov.b     [w0], w0
    1d74:	80 cf 50    	sub.b     w1, w0, [w15]
    1d76:	2f 00 3a    	bra       NZ, 0x1dd6 <.L25>
    1d78:	31 40 80    	mov.w     0x806, w1
    1d7a:	11 c8 bf    	mov.b     0x811, WREG
    1d7c:	00 80 fb    	ze        w0, w0
    1d7e:	00 80 40    	add.w     w1, w0, w0
    1d80:	90 40 78    	mov.b     [w0], w1
    1d82:	70 40 80    	mov.w     0x80e, w0
    1d84:	00 00 e8    	inc.w     w0, w0
    1d86:	10 40 78    	mov.b     [w0], w0
    1d88:	80 cf 50    	sub.b     w1, w0, [w15]
    1d8a:	25 00 3a    	bra       NZ, 0x1dd6 <.L25>
    1d8c:	41 40 80    	mov.w     0x808, w1
    1d8e:	12 c8 bf    	mov.b     0x812, WREG
    1d90:	00 80 fb    	ze        w0, w0
    1d92:	00 80 40    	add.w     w1, w0, w0
    1d94:	90 40 78    	mov.b     [w0], w1
    1d96:	70 40 80    	mov.w     0x80e, w0
    1d98:	00 80 e8    	inc2.w    w0, w0
    1d9a:	10 40 78    	mov.b     [w0], w0
    1d9c:	80 cf 50    	sub.b     w1, w0, [w15]
    1d9e:	1b 00 3a    	bra       NZ, 0x1dd6 <.L25>
    1da0:	51 40 80    	mov.w     0x80a, w1
    1da2:	13 c8 bf    	mov.b     0x813, WREG
    1da4:	00 80 fb    	ze        w0, w0
    1da6:	00 80 40    	add.w     w1, w0, w0
    1da8:	90 40 78    	mov.b     [w0], w1
    1daa:	70 40 80    	mov.w     0x80e, w0
    1dac:	63 00 40    	add.w     w0, #0x3, w0
    1dae:	10 40 78    	mov.b     [w0], w0
    1db0:	80 cf 50    	sub.b     w1, w0, [w15]
    1db2:	11 00 3a    	bra       NZ, 0x1dd6 <.L25>
    1db4:	61 40 80    	mov.w     0x80c, w1
    1db6:	14 c8 bf    	mov.b     0x814, WREG
    1db8:	00 80 fb    	ze        w0, w0
    1dba:	00 80 40    	add.w     w1, w0, w0
    1dbc:	90 40 78    	mov.b     [w0], w1
    1dbe:	70 40 80    	mov.w     0x80e, w0
    1dc0:	64 00 40    	add.w     w0, #0x4, w0
    1dc2:	10 40 78    	mov.b     [w0], w0
    1dc4:	80 cf 50    	sub.b     w1, w0, [w15]
    1dc6:	07 00 3a    	bra       NZ, 0x1dd6 <.L25>
    1dc8:	ec 22 a8    	bset.b    0x2ec, #0x1
    1dca:	00 40 80    	mov.w     0x800, w0
    1dcc:	d2 54 29    	mov.w     #0x954d, w2
    1dce:	80 00 78    	mov.w     w0, w1
    1dd0:	a0 83 20    	mov.w     #0x83a, w0
    1dd2:	ab fd 07    	rcall     0x192a <_lcd_print2> <.LFB13> <.LFE12>
    1dd4:	06 00 37    	bra       0x1de2 <.L26>

00001dd6 <.L25>:
    1dd6:	ec 22 a9    	bclr.b    0x2ec, #0x1
    1dd8:	00 40 80    	mov.w     0x800, w0
    1dda:	42 53 29    	mov.w     #0x9534, w2
    1ddc:	80 00 78    	mov.w     w0, w1
    1dde:	a0 83 20    	mov.w     #0x83a, w0
    1de0:	a4 fd 07    	rcall     0x192a <_lcd_print2> <.LFB13> <.LFE12>

00001de2 <.L26>:
    1de2:	00 53 27    	mov.w     #0x7530, w0
    1de4:	01 00 20    	mov.w     #0x0, w1
    1de6:	a7 00 07    	rcall     0x1f36 <_delay_by_nop> <.L0> <.LFB0> <.LFE10> <.Letext0> <.Ltext0>
    1de8:	25 c8 bf    	mov.b     0x825, WREG
    1dea:	e1 4f 50    	sub.b     w0, #0x1, [w15]
    1dec:	03 00 3a    	bra       NZ, 0x1df4 <.L27>
    1dee:	a0 e2 21    	mov.w     #0x1e2a, w0
    1df0:	c0 40 88    	mov.w     w0, 0x818
    1df2:	05 00 37    	bra       0x1dfe <.L28>

00001df4 <.L27>:
    1df4:	26 c8 bf    	mov.b     0x826, WREG
    1df6:	e1 4f 50    	sub.b     w0, #0x1, [w15]
    1df8:	02 00 3a    	bra       NZ, 0x1dfe <.L28>
    1dfa:	60 e4 21    	mov.w     #0x1e46, w0
    1dfc:	c0 40 88    	mov.w     w0, 0x818

00001dfe <.L28>:
    1dfe:	00 80 fa    	ulnk      
    1e00:	00 00 06    	return    

00001e02 <_solved>:
    1e02:	00 00 fa    	lnk       #0x0
    1e04:	c1 40 80    	mov.w     0x818, w1
    1e06:	d0 40 80    	mov.w     0x81a, w0
    1e08:	80 8f 50    	sub.w     w1, w0, [w15]
    1e0a:	02 00 32    	bra       Z, 0x1e10 <.L30>
    1e0c:	c0 40 80    	mov.w     0x818, w0
    1e0e:	d0 40 88    	mov.w     w0, 0x81a

00001e10 <.L30>:
    1e10:	25 c8 bf    	mov.b     0x825, WREG
    1e12:	e1 4f 50    	sub.b     w0, #0x1, [w15]
    1e14:	03 00 3a    	bra       NZ, 0x1e1c <.L31>
    1e16:	a0 e2 21    	mov.w     #0x1e2a, w0
    1e18:	c0 40 88    	mov.w     w0, 0x818
    1e1a:	05 00 37    	bra       0x1e26 <.L32>

00001e1c <.L31>:
    1e1c:	26 c8 bf    	mov.b     0x826, WREG
    1e1e:	e1 4f 50    	sub.b     w0, #0x1, [w15]
    1e20:	02 00 3a    	bra       NZ, 0x1e26 <.L32>
    1e22:	60 e4 21    	mov.w     #0x1e46, w0
    1e24:	c0 40 88    	mov.w     w0, 0x818

00001e26 <.L32>:
    1e26:	00 80 fa    	ulnk      
    1e28:	00 00 06    	return    

00001e2a <_end_win>:
    1e2a:	00 00 fa    	lnk       #0x0
    1e2c:	c1 40 80    	mov.w     0x818, w1
    1e2e:	d0 40 80    	mov.w     0x81a, w0
    1e30:	80 8f 50    	sub.w     w1, w0, [w15]
    1e32:	02 00 32    	bra       Z, 0x1e38 <.L34>
    1e34:	c0 40 80    	mov.w     0x818, w0
    1e36:	d0 40 88    	mov.w     w0, 0x81a

00001e38 <.L34>:
    1e38:	24 c8 bf    	mov.b     0x824, WREG
    1e3a:	e1 4f 50    	sub.b     w0, #0x1, [w15]
    1e3c:	02 00 3a    	bra       NZ, 0x1e42 <.L35>
    1e3e:	60 d5 21    	mov.w     #0x1d56, w0
    1e40:	c0 40 88    	mov.w     w0, 0x818

00001e42 <.L35>:
    1e42:	00 80 fa    	ulnk      
    1e44:	00 00 06    	return    

00001e46 <_end_fail>:
    1e46:	00 00 fa    	lnk       #0x0
    1e48:	c1 40 80    	mov.w     0x818, w1
    1e4a:	d0 40 80    	mov.w     0x81a, w0
    1e4c:	80 8f 50    	sub.w     w1, w0, [w15]
    1e4e:	02 00 32    	bra       Z, 0x1e54 <.L37>
    1e50:	c0 40 80    	mov.w     0x818, w0
    1e52:	d0 40 88    	mov.w     w0, 0x81a

00001e54 <.L37>:
    1e54:	24 c8 bf    	mov.b     0x824, WREG
    1e56:	e1 4f 50    	sub.b     w0, #0x1, [w15]
    1e58:	02 00 3a    	bra       NZ, 0x1e5e <.L38>
    1e5a:	60 d5 21    	mov.w     #0x1d56, w0
    1e5c:	c0 40 88    	mov.w     w0, 0x818

00001e5e <.L38>:
    1e5e:	00 80 fa    	ulnk      
    1e60:	00 00 06    	return    

00001e62 <_updateDisplay>:
    1e62:	00 00 fa    	lnk       #0x0
    1e64:	00 40 80    	mov.w     0x800, w0
    1e66:	00 00 e8    	inc.w     w0, w0
    1e68:	22 40 80    	mov.w     0x804, w2
    1e6a:	01 81 20    	mov.w     #0x810, w1
    1e6c:	91 40 78    	mov.b     [w1], w1
    1e6e:	81 80 fb    	ze        w1, w1
    1e70:	81 00 41    	add.w     w2, w1, w1
    1e72:	91 40 78    	mov.b     [w1], w1
    1e74:	01 48 78    	mov.b     w1, [w0]
    1e76:	00 40 80    	mov.w     0x800, w0
    1e78:	64 00 40    	add.w     w0, #0x4, w0
    1e7a:	32 40 80    	mov.w     0x806, w2
    1e7c:	11 81 20    	mov.w     #0x811, w1
    1e7e:	91 40 78    	mov.b     [w1], w1
    1e80:	81 80 fb    	ze        w1, w1
    1e82:	81 00 41    	add.w     w2, w1, w1
    1e84:	91 40 78    	mov.b     [w1], w1
    1e86:	01 48 78    	mov.b     w1, [w0]
    1e88:	00 40 80    	mov.w     0x800, w0
    1e8a:	67 00 40    	add.w     w0, #0x7, w0
    1e8c:	42 40 80    	mov.w     0x808, w2
    1e8e:	21 81 20    	mov.w     #0x812, w1
    1e90:	91 40 78    	mov.b     [w1], w1
    1e92:	81 80 fb    	ze        w1, w1
    1e94:	81 00 41    	add.w     w2, w1, w1
    1e96:	91 40 78    	mov.b     [w1], w1
    1e98:	01 48 78    	mov.b     w1, [w0]
    1e9a:	00 40 80    	mov.w     0x800, w0
    1e9c:	6a 00 40    	add.w     w0, #0xa, w0
    1e9e:	52 40 80    	mov.w     0x80a, w2
    1ea0:	31 81 20    	mov.w     #0x813, w1
    1ea2:	91 40 78    	mov.b     [w1], w1
    1ea4:	81 80 fb    	ze        w1, w1
    1ea6:	81 00 41    	add.w     w2, w1, w1
    1ea8:	91 40 78    	mov.b     [w1], w1
    1eaa:	01 48 78    	mov.b     w1, [w0]
    1eac:	00 40 80    	mov.w     0x800, w0
    1eae:	6d 00 40    	add.w     w0, #0xd, w0
    1eb0:	62 40 80    	mov.w     0x80c, w2
    1eb2:	41 81 20    	mov.w     #0x814, w1
    1eb4:	91 40 78    	mov.b     [w1], w1
    1eb6:	81 80 fb    	ze        w1, w1
    1eb8:	81 00 41    	add.w     w2, w1, w1
    1eba:	91 40 78    	mov.b     [w1], w1
    1ebc:	01 48 78    	mov.b     w1, [w0]
    1ebe:	00 80 fa    	ulnk      
    1ec0:	00 00 06    	return    

00001ec2 <_toggleSwitchSetup>:
    1ec2:	00 00 fa    	lnk       #0x0
    1ec4:	d8 a2 a8    	bset.b    0x2d8, #0x5
    1ec6:	d8 82 a8    	bset.b    0x2d8, #0x4
    1ec8:	e8 82 a8    	bset.b    0x2e8, #0x4
    1eca:	e8 a2 a8    	bset.b    0x2e8, #0x5
    1ecc:	c9 e2 a8    	bset.b    0x2c9, #0x7
    1ece:	e8 62 a8    	bset.b    0x2e8, #0x3
    1ed0:	d9 02 a8    	bset.b    0x2d9, #0x0
    1ed2:	d9 62 a8    	bset.b    0x2d9, #0x3
    1ed4:	d9 22 a8    	bset.b    0x2d9, #0x1
    1ed6:	d9 42 a8    	bset.b    0x2d9, #0x2
    1ed8:	6f c0 a8    	bset.b    0x6f, #0x6
    1eda:	6f a0 a8    	bset.b    0x6f, #0x5
    1edc:	70 20 a8    	bset.b    0x70, #0x1
    1ede:	70 40 a8    	bset.b    0x70, #0x2
    1ee0:	6f 80 a8    	bset.b    0x6f, #0x4
    1ee2:	76 e0 a8    	bset.b    0x76, #0x7
    1ee4:	74 a0 a8    	bset.b    0x74, #0x5
    1ee6:	75 00 a8    	bset.b    0x75, #0x0
    1ee8:	74 c0 a8    	bset.b    0x74, #0x6
    1eea:	74 e0 a8    	bset.b    0x74, #0x7
    1eec:	63 c0 a8    	bset.b    0x63, #0x6
    1eee:	63 a0 a8    	bset.b    0x63, #0x5
    1ef0:	64 20 a8    	bset.b    0x64, #0x1
    1ef2:	64 40 a8    	bset.b    0x64, #0x2
    1ef4:	63 80 a8    	bset.b    0x63, #0x4
    1ef6:	6a e0 a8    	bset.b    0x6a, #0x7
    1ef8:	68 a0 a8    	bset.b    0x68, #0x5
    1efa:	69 00 a8    	bset.b    0x69, #0x0
    1efc:	68 c0 a8    	bset.b    0x68, #0x6
    1efe:	68 e0 a8    	bset.b    0x68, #0x7
    1f00:	86 60 a9    	bclr.b    0x86, #0x3
    1f02:	96 60 a8    	bset.b    0x96, #0x3
    1f04:	00 80 fa    	ulnk      
    1f06:	00 00 06    	return    

00001f08 <_rand_next>:
    1f08:	02 00 fa    	lnk       #0x2
    1f0a:	b0 40 80    	mov.w     0x816, w0
    1f0c:	c2 00 de    	lsr.w     w0, #0x2, w1
    1f0e:	b0 40 80    	mov.w     0x816, w0
    1f10:	80 80 68    	xor.w     w1, w0, w1
    1f12:	b0 40 80    	mov.w     0x816, w0
    1f14:	4d 00 de    	lsr.w     w0, #0xd, w0
    1f16:	80 80 68    	xor.w     w1, w0, w1
    1f18:	b0 40 80    	mov.w     0x816, w0
    1f1a:	42 01 de    	lsr.w     w0, #0x2, w2
    1f1c:	b0 40 80    	mov.w     0x816, w0
    1f1e:	43 00 de    	lsr.w     w0, #0x3, w0
    1f20:	00 00 61    	and.w     w2, w0, w0
    1f22:	00 80 68    	xor.w     w1, w0, w0
    1f24:	61 0f 60    	and.w     w0, #0x1, [w14]
    1f26:	b0 40 80    	mov.w     0x816, w0
    1f28:	80 00 d1    	lsr.w     w0, w1
    1f2a:	1e 00 78    	mov.w     [w14], w0
    1f2c:	4f 00 dd    	sl.w      w0, #0xf, w0
    1f2e:	01 00 70    	ior.w     w0, w1, w0
    1f30:	b0 40 88    	mov.w     w0, 0x816
    1f32:	00 80 fa    	ulnk      
    1f34:	00 00 06    	return    

00001f36 <_delay_by_nop>:
// From https://web.archive.org/web/20161223060411/http://www.engscope.com/pic24-tutorial/10-2-i2c-basic-functions/

#include "i2c_reg.h"

void delay_by_nop(uint32_t num_nops){    // 1 nop= 375ns
    1f36:	08 00 fa    	lnk       #0x8
    1f38:	20 07 98    	mov.w     w0, [w14+4]
    1f3a:	31 07 98    	mov.w     w1, [w14+6]
    uint32_t count = 0;
    1f3c:	60 00 b8    	mul.uu    w0, #0x0, w0
    1f3e:	00 8f be    	mov.d     w0, [w14]
    while (count < num_nops){
    1f40:	05 00 37    	bra       0x1f4c <.L2>

00001f42 <.L3>:
        __asm__("nop");
    1f42:	00 00 00    	nop       
        count +=1;
    1f44:	12 00 20    	mov.w     #0x1, w2
    1f46:	03 00 20    	mov.w     #0x0, w3
    1f48:	1e 0f 41    	add.w     w2, [w14], [w14]
    1f4a:	5e 97 49    	addc.w    w3, [++w14], [w14--]

00001f4c <.L2>:
    1f4c:	2e 00 90    	mov.w     [w14+4], w0
    1f4e:	be 00 90    	mov.w     [w14+6], w1
    1f50:	1e 01 be    	mov.d     [w14], w2
    1f52:	80 0f 51    	sub.w     w2, w0, [w15]
    1f54:	81 8f 59    	subb.w    w3, w1, [w15]
    1f56:	f5 ff 39    	bra       NC, 0x1f42 <.L3>
    }
}
    1f58:	00 80 fa    	ulnk      
    1f5a:	00 00 06    	return    

00001f5c <_i2c_init>:

// initiates I2C3 module to baud rate BRG
void i2c_init(int BRG){      // I2CBRG = 157 for 16Mhz OSC with 100kHz I2C clock
    1f5c:	04 00 fa    	lnk       #0x4
    1f5e:	10 07 98    	mov.w     w0, [w14+2]
   int temp;
   I2C3BRG = BRG;           // Sets freq to 100kHz
    1f60:	1e 00 90    	mov.w     [w14+2], w0
    1f62:	a0 13 88    	mov.w     w0, 0x274
   I2C3CONbits.I2CEN = 0;	// Disable I2C Mode
    1f64:	77 e2 a9    	bclr.b    0x277, #0x7
   I2C3CONbits.DISSLW = 1;	// Disable slew rate control
    1f66:	77 22 a8    	bset.b    0x277, #0x1
   IFS5bits.MI2C3IF = 0;	 // Clear Interrupt
    1f68:	8e a0 a9    	bclr.b    0x8e, #0x5
   I2C3CONbits.I2CEN = 1;	// Enable I2C Mode
    1f6a:	77 e2 a8    	bset.b    0x277, #0x7
   temp = I2C3RCV;	 // read buffer to clear buffer full
    1f6c:	80 13 80    	mov.w     0x270, w0
    1f6e:	00 0f 78    	mov.w     w0, [w14]
   reset_i2c_bus();	 // set bus to idle
    1f70:	36 00 07    	rcall     0x1fde <_reset_i2c_bus> <.LFB4> <.LFE3>
}
    1f72:	00 80 fa    	ulnk      
    1f74:	00 00 06    	return    

00001f76 <_i2c_start>:

//function iniates a start condition on bus
void i2c_start(void){
    1f76:	02 00 fa    	lnk       #0x2
   int x = 0;
    1f78:	00 00 eb    	clr.w     w0
    1f7a:	00 0f 78    	mov.w     w0, [w14]
   I2C3CONbits.ACKDT = 0;	//Reset any previous Ack
    1f7c:	76 a2 a9    	bclr.b    0x276, #0x5
   delay_by_nop(10);
    1f7e:	a0 00 20    	mov.w     #0xa, w0
    1f80:	01 00 20    	mov.w     #0x0, w1
    1f82:	d9 ff 07    	rcall     0x1f36 <_delay_by_nop> <.L0> <.LFB0> <.LFE10> <.Letext0> <.Ltext0>
   I2C3CONbits.SEN = 1;	//Initiate Start condition
    1f84:	76 02 a8    	bset.b    0x276, #0x0
   __asm__("nop");
    1f86:	00 00 00    	nop       

   while (I2C3CONbits.SEN){    //the hardware will automatically clear Start Bit
    1f88:	07 00 37    	bra       0x1f98 <.L6>

00001f8a <.L8>:
      delay_by_nop(1);      //wait for automatic clear before proceding
    1f8a:	10 00 20    	mov.w     #0x1, w0
    1f8c:	01 00 20    	mov.w     #0x0, w1
    1f8e:	d3 ff 07    	rcall     0x1f36 <_delay_by_nop> <.L0> <.LFB0> <.LFE10> <.Letext0> <.Ltext0>
      x++;
    1f90:	1e 0f e8    	inc.w     [w14], [w14]
      if (x > 20)
    1f92:	1e 00 78    	mov.w     [w14], w0
    1f94:	f4 0f 50    	sub.w     w0, #0x14, [w15]
    1f96:	05 00 3c    	bra       GT, 0x1fa2 <.L9>

00001f98 <.L6>:
    1f98:	b0 13 80    	mov.w     0x276, w0
    1f9a:	61 00 60    	and.w     w0, #0x1, w0
    1f9c:	00 00 e0    	cp0.w     w0
    1f9e:	f5 ff 3a    	bra       NZ, 0x1f8a <.L8>
    1fa0:	01 00 37    	bra       0x1fa4 <.L7>

00001fa2 <.L9>:
      break;
    1fa2:	00 00 00    	nop       

00001fa4 <.L7>:
   }
   delay_by_nop(2);
    1fa4:	20 00 20    	mov.w     #0x2, w0
    1fa6:	01 00 20    	mov.w     #0x0, w1
    1fa8:	c6 ff 07    	rcall     0x1f36 <_delay_by_nop> <.L0> <.LFB0> <.LFE10> <.Letext0> <.Ltext0>
}
    1faa:	00 80 fa    	ulnk      
    1fac:	00 00 06    	return    

00001fae <_i2c_restart>:

void i2c_restart(void){
    1fae:	02 00 fa    	lnk       #0x2
   int x = 0;
    1fb0:	00 00 eb    	clr.w     w0
    1fb2:	00 0f 78    	mov.w     w0, [w14]
   I2C3CONbits.RSEN = 1;	//Initiate restart condition
    1fb4:	76 22 a8    	bset.b    0x276, #0x1
   __asm__("nop");
    1fb6:	00 00 00    	nop       
   //the hardware will automatically clear restart bit
   //wait for automatic clear before proceding
   while (I2C3CONbits.RSEN){
    1fb8:	07 00 37    	bra       0x1fc8 <.L11>

00001fba <.L13>:
      delay_by_nop(1);
    1fba:	10 00 20    	mov.w     #0x1, w0
    1fbc:	01 00 20    	mov.w     #0x0, w1
    1fbe:	bb ff 07    	rcall     0x1f36 <_delay_by_nop> <.L0> <.LFB0> <.LFE10> <.Letext0> <.Ltext0>
      x++;
    1fc0:	1e 0f e8    	inc.w     [w14], [w14]
      if (x > 20)	break;
    1fc2:	1e 00 78    	mov.w     [w14], w0
    1fc4:	f4 0f 50    	sub.w     w0, #0x14, [w15]
    1fc6:	05 00 3c    	bra       GT, 0x1fd2 <.L14>

00001fc8 <.L11>:
    1fc8:	b0 13 80    	mov.w     0x276, w0
    1fca:	62 00 60    	and.w     w0, #0x2, w0
    1fcc:	00 00 e0    	cp0.w     w0
    1fce:	f5 ff 3a    	bra       NZ, 0x1fba <.L13>
    1fd0:	01 00 37    	bra       0x1fd4 <.L12>

00001fd2 <.L14>:
    1fd2:	00 00 00    	nop       

00001fd4 <.L12>:
   }
   delay_by_nop(2);
    1fd4:	20 00 20    	mov.w     #0x2, w0
    1fd6:	01 00 20    	mov.w     #0x0, w1
    1fd8:	ae ff 07    	rcall     0x1f36 <_delay_by_nop> <.L0> <.LFB0> <.LFE10> <.Letext0> <.Ltext0>
}
    1fda:	00 80 fa    	ulnk      
    1fdc:	00 00 06    	return    

00001fde <_reset_i2c_bus>:


//Resets the I2C bus to Idle
void reset_i2c_bus(void){
    1fde:	02 00 fa    	lnk       #0x2
   int x = 0;
    1fe0:	00 00 eb    	clr.w     w0
    1fe2:	00 0f 78    	mov.w     w0, [w14]
   I2C3CONbits.PEN = 1;     //initiate stop bit
    1fe4:	76 42 a8    	bset.b    0x276, #0x2
   while (I2C3CONbits.PEN) {     //wait for hardware clear of stop bit
    1fe6:	07 00 37    	bra       0x1ff6 <.L16>

00001fe8 <.L18>:
      // delay_by_nop(1);
      delay_by_nop(1);
    1fe8:	10 00 20    	mov.w     #0x1, w0
    1fea:	01 00 20    	mov.w     #0x0, w1
    1fec:	a4 ff 07    	rcall     0x1f36 <_delay_by_nop> <.L0> <.LFB0> <.LFE10> <.Letext0> <.Ltext0>
      x ++;
    1fee:	1e 0f e8    	inc.w     [w14], [w14]
      if (x > 20) break;
    1ff0:	1e 00 78    	mov.w     [w14], w0
    1ff2:	f4 0f 50    	sub.w     w0, #0x14, [w15]
    1ff4:	05 00 3c    	bra       GT, 0x2000 <.L19>

00001ff6 <.L16>:
    1ff6:	b0 13 80    	mov.w     0x276, w0
    1ff8:	64 00 60    	and.w     w0, #0x4, w0
    1ffa:	00 00 e0    	cp0.w     w0
    1ffc:	f5 ff 3a    	bra       NZ, 0x1fe8 <.L18>
    1ffe:	01 00 37    	bra       0x2002 <.L17>

00002000 <.L19>:
    2000:	00 00 00    	nop       

00002002 <.L17>:
   }

   I2C3CONbits.RCEN = 0;
    2002:	76 62 a9    	bclr.b    0x276, #0x3
   IFS5bits.MI2C3IF = 0; // Clear Interrupt
    2004:	8e a0 a9    	bclr.b    0x8e, #0x5
   I2C3STATbits.IWCOL = 0;
    2006:	78 e2 a9    	bclr.b    0x278, #0x7
   I2C3STATbits.BCL = 0;
    2008:	79 42 a9    	bclr.b    0x279, #0x2
   // delay_by_nop(10);
   delay_by_nop(20);
    200a:	40 01 20    	mov.w     #0x14, w0
    200c:	01 00 20    	mov.w     #0x0, w1
    200e:	93 ff 07    	rcall     0x1f36 <_delay_by_nop> <.L0> <.LFB0> <.LFE10> <.Letext0> <.Ltext0>
}
    2010:	00 80 fa    	ulnk      
    2012:	00 00 06    	return    

00002014 <_send_i2c_byte>:


//basic I2C byte send
char send_i2c_byte(int data){
    2014:	04 00 fa    	lnk       #0x4
    2016:	10 07 98    	mov.w     w0, [w14+2]
   int i;
   while (I2C3STATbits.TBF) { }
    2018:	00 00 00    	nop       

0000201a <.L21>:
    201a:	c0 13 80    	mov.w     0x278, w0
    201c:	61 00 60    	and.w     w0, #0x1, w0
    201e:	00 00 e0    	cp0.w     w0
    2020:	fc ff 3a    	bra       NZ, 0x201a <.L21>
   IFS5bits.MI2C3IF = 0; // Clear Interrupt
    2022:	8e a0 a9    	bclr.b    0x8e, #0x5
   I2C3TRN = data; // load the outgoing data byte
    2024:	1e 00 90    	mov.w     [w14+2], w0
    2026:	90 13 88    	mov.w     w0, 0x272

   for (i=0; i<500; i++){           // wait for transmission
    2028:	00 00 eb    	clr.w     w0
    202a:	00 0f 78    	mov.w     w0, [w14]
    202c:	09 00 37    	bra       0x2040 <.L22>

0000202e <.L25>:
      if (!I2C3STATbits.TRSTAT) break; // if master transmit not in progress break
    202e:	c1 13 80    	mov.w     0x278, w1
    2030:	00 00 24    	mov.w     #0x4000, w0
    2032:	00 80 60    	and.w     w1, w0, w0
    2034:	00 00 e0    	cp0.w     w0
    2036:	09 00 32    	bra       Z, 0x204a <.L29>
      delay_by_nop(1); }
    2038:	10 00 20    	mov.w     #0x1, w0
    203a:	01 00 20    	mov.w     #0x0, w1
    203c:	7c ff 07    	rcall     0x1f36 <_delay_by_nop> <.L0> <.LFB0> <.LFE10> <.Letext0> <.Ltext0>
    203e:	1e 0f e8    	inc.w     [w14], [w14]

00002040 <.L22>:
    2040:	30 1f 20    	mov.w     #0x1f3, w0
    2042:	9e 00 78    	mov.w     [w14], w1
    2044:	80 8f 50    	sub.w     w1, w0, [w15]
    2046:	f3 ff 34    	bra       LE, 0x202e <.L25>
    2048:	01 00 37    	bra       0x204c <.L24>

0000204a <.L29>:
    204a:	00 00 00    	nop       

0000204c <.L24>:

    if (i == 500) {     // if i got to 500, then there was an issue`
    204c:	40 1f 20    	mov.w     #0x1f4, w0
    204e:	9e 00 78    	mov.w     [w14], w1
    2050:	80 8f 50    	sub.w     w1, w0, [w15]
    2052:	02 00 3a    	bra       NZ, 0x2058 <.L26>
        return(1); }    // return 1 to indicate failure
    2054:	10 c0 b3    	mov.b     #0x1, w0
    2056:	0c 00 37    	bra       0x2070 <.L27>

00002058 <.L26>:

   if (I2C3STATbits.ACKSTAT == 1){   // Check for NO_ACK from slave,
    2058:	c1 13 80    	mov.w     0x278, w1
    205a:	00 00 28    	mov.w     #0x8000, w0
    205c:	00 80 60    	and.w     w1, w0, w0
    205e:	00 00 e0    	cp0.w     w0
    2060:	03 00 32    	bra       Z, 0x2068 <.L28>
      reset_i2c_bus();
    2062:	bd ff 07    	rcall     0x1fde <_reset_i2c_bus> <.LFB4> <.LFE3>
      return(1); }            // abort if not found
    2064:	10 c0 b3    	mov.b     #0x1, w0
    2066:	04 00 37    	bra       0x2070 <.L27>

00002068 <.L28>:

   delay_by_nop(2);
    2068:	20 00 20    	mov.w     #0x2, w0
    206a:	01 00 20    	mov.w     #0x0, w1
    206c:	64 ff 07    	rcall     0x1f36 <_delay_by_nop> <.L0> <.LFB0> <.LFE10> <.Letext0> <.Ltext0>
   return(0);
    206e:	00 40 eb    	clr.b     w0

00002070 <.L27>:
}
    2070:	00 80 fa    	ulnk      
    2072:	00 00 06    	return    

00002074 <_i2c_read>:


//function reads data, returns the read data, no ack
// helper function
char i2c_read(void){
    2074:	04 00 fa    	lnk       #0x4
   int i = 0;
    2076:	00 00 eb    	clr.w     w0
    2078:	00 0f 78    	mov.w     w0, [w14]
   char data = 0;
    207a:	00 40 eb    	clr.b     w0
    207c:	20 47 98    	mov.b     w0, [w14+2]
   I2C3CONbits.RCEN = 1;            //set I2C module to receive
    207e:	76 62 a8    	bset.b    0x276, #0x3

   while (!I2C3STATbits.RBF) {           //if no response, break
    2080:	05 00 37    	bra       0x208c <.L31>

00002082 <.L33>:
      i ++;
    2082:	1e 0f e8    	inc.w     [w14], [w14]
      if (i > 2000) break;  }
    2084:	00 7d 20    	mov.w     #0x7d0, w0
    2086:	9e 00 78    	mov.w     [w14], w1
    2088:	80 8f 50    	sub.w     w1, w0, [w15]
    208a:	05 00 3c    	bra       GT, 0x2096 <.L34>

0000208c <.L31>:
    208c:	c0 13 80    	mov.w     0x278, w0
    208e:	62 00 60    	and.w     w0, #0x2, w0
    2090:	00 00 e0    	cp0.w     w0
    2092:	f7 ff 32    	bra       Z, 0x2082 <.L33>
    2094:	01 00 37    	bra       0x2098 <.L32>

00002096 <.L34>:
    2096:	00 00 00    	nop       

00002098 <.L32>:

   data = I2C3RCV;       //get data from I2C3RCV register
    2098:	80 13 80    	mov.w     0x270, w0
    209a:	20 47 98    	mov.b     w0, [w14+2]
   return data;
    209c:	2e 40 90    	mov.b     [w14+2], w0
}
    209e:	00 80 fa    	ulnk      
    20a0:	00 00 06    	return    

000020a2 <_i2c_read_ack>:


//function reads data, returns the read data, with ack
char i2c_read_ack(void){	//does not reset bus!!!
    20a2:	04 00 fa    	lnk       #0x4
   int i = 0;
    20a4:	00 00 eb    	clr.w     w0
    20a6:	00 0f 78    	mov.w     w0, [w14]
   char data = 0;
    20a8:	00 40 eb    	clr.b     w0
    20aa:	20 47 98    	mov.b     w0, [w14+2]
   I2C3CONbits.RCEN = 1;            //set I2C module to receive
    20ac:	76 62 a8    	bset.b    0x276, #0x3

   while (!I2C3STATbits.RBF) {       //if no response, break
    20ae:	05 00 37    	bra       0x20ba <.L36>

000020b0 <.L38>:
      i++;
    20b0:	1e 0f e8    	inc.w     [w14], [w14]
      if (i > 2000) break;}
    20b2:	00 7d 20    	mov.w     #0x7d0, w0
    20b4:	9e 00 78    	mov.w     [w14], w1
    20b6:	80 8f 50    	sub.w     w1, w0, [w15]
    20b8:	05 00 3c    	bra       GT, 0x20c4 <.L39>

000020ba <.L36>:
    20ba:	c0 13 80    	mov.w     0x278, w0
    20bc:	62 00 60    	and.w     w0, #0x2, w0
    20be:	00 00 e0    	cp0.w     w0
    20c0:	f7 ff 32    	bra       Z, 0x20b0 <.L38>
    20c2:	01 00 37    	bra       0x20c6 <.L37>

000020c4 <.L39>:
    20c4:	00 00 00    	nop       

000020c6 <.L37>:

   data = I2C3RCV;               //get data from I2C3RCV register
    20c6:	80 13 80    	mov.w     0x270, w0
    20c8:	20 47 98    	mov.b     w0, [w14+2]
   I2C3CONbits.ACKEN = 1;        //start ACK generation
    20ca:	76 82 a8    	bset.b    0x276, #0x4
   delay_by_nop(10);             //wait before exiting
    20cc:	a0 00 20    	mov.w     #0xa, w0
    20ce:	01 00 20    	mov.w     #0x0, w1
    20d0:	32 ff 07    	rcall     0x1f36 <_delay_by_nop> <.L0> <.LFB0> <.LFE10> <.Letext0> <.Ltext0>
   return data;
    20d2:	2e 40 90    	mov.b     [w14+2], w0
}
    20d4:	00 80 fa    	ulnk      
    20d6:	00 00 06    	return    

000020d8 <_i2c_read_nack>:

char i2c_read_nack(void){	//does not reset bus!!!
    20d8:	04 00 fa    	lnk       #0x4
   int i = 0;
    20da:	00 00 eb    	clr.w     w0
    20dc:	00 0f 78    	mov.w     w0, [w14]
   char data = 0;
    20de:	00 40 eb    	clr.b     w0
    20e0:	20 47 98    	mov.b     w0, [w14+2]
   I2C3CONbits.RCEN = 1;            //set I2C module to receive
    20e2:	76 62 a8    	bset.b    0x276, #0x3

   while (!I2C3STATbits.RBF) {       //if no response, break
    20e4:	05 00 37    	bra       0x20f0 <.L41>

000020e6 <.L43>:
      i++;
    20e6:	1e 0f e8    	inc.w     [w14], [w14]
      if (i > 2000) break;}
    20e8:	00 7d 20    	mov.w     #0x7d0, w0
    20ea:	9e 00 78    	mov.w     [w14], w1
    20ec:	80 8f 50    	sub.w     w1, w0, [w15]
    20ee:	05 00 3c    	bra       GT, 0x20fa <.L44>

000020f0 <.L41>:
    20f0:	c0 13 80    	mov.w     0x278, w0
    20f2:	62 00 60    	and.w     w0, #0x2, w0
    20f4:	00 00 e0    	cp0.w     w0
    20f6:	f7 ff 32    	bra       Z, 0x20e6 <.L43>
    20f8:	01 00 37    	bra       0x20fc <.L42>

000020fa <.L44>:
    20fa:	00 00 00    	nop       

000020fc <.L42>:

   data = I2C3RCV;               //get data from I2C3RCV register
    20fc:	80 13 80    	mov.w     0x270, w0
    20fe:	20 47 98    	mov.b     w0, [w14+2]
   I2C3CONbits.ACKDT = 1;        // set mastrer to nack instead of ack
    2100:	76 a2 a8    	bset.b    0x276, #0x5
   I2C3CONbits.ACKEN = 1;        //start ack generation
    2102:	76 82 a8    	bset.b    0x276, #0x4
   delay_by_nop(10);             //wait before exiting
    2104:	a0 00 20    	mov.w     #0xa, w0
    2106:	01 00 20    	mov.w     #0x0, w1
    2108:	16 ff 07    	rcall     0x1f36 <_delay_by_nop> <.L0> <.LFB0> <.LFE10> <.Letext0> <.Ltext0>
   return data;
    210a:	2e 40 90    	mov.b     [w14+2], w0
}
    210c:	00 80 fa    	ulnk      
    210e:	00 00 06    	return    

00002110 <_I2Cwrite>:

// function puts together I2C protocol for random write
void I2Cwrite(char addr, char subaddr, char value){
    2110:	04 00 fa    	lnk       #0x4
    2112:	00 4f 78    	mov.b     w0, [w14]
    2114:	11 47 98    	mov.b     w1, [w14+1]
    2116:	22 47 98    	mov.b     w2, [w14+2]
   i2c_start();
    2118:	2e ff 07    	rcall     0x1f76 <_i2c_start> <.LFB2> <.LFE1>
   send_i2c_byte(addr & 0xfffe); // set /W bit, turns least sig, bit to 0
    211a:	1e 00 fb    	se        [w14], w0
    211c:	80 00 78    	mov.w     w0, w1
    211e:	e0 ff 2f    	mov.w     #0xfffe, w0
    2120:	00 80 60    	and.w     w1, w0, w0
    2122:	78 ff 07    	rcall     0x2014 <_send_i2c_byte> <.LFB5> <.LFE4>
   send_i2c_byte(subaddr);
    2124:	1e 40 90    	mov.b     [w14+1], w0
    2126:	00 00 fb    	se        w0, w0
    2128:	75 ff 07    	rcall     0x2014 <_send_i2c_byte> <.LFB5> <.LFE4>
   send_i2c_byte(value);
    212a:	2e 40 90    	mov.b     [w14+2], w0
    212c:	00 00 fb    	se        w0, w0
    212e:	72 ff 07    	rcall     0x2014 <_send_i2c_byte> <.LFB5> <.LFE4>
   reset_i2c_bus();
    2130:	56 ff 07    	rcall     0x1fde <_reset_i2c_bus> <.LFB4> <.LFE3>
}
    2132:	00 80 fa    	ulnk      
    2134:	00 00 06    	return    

00002136 <_I2Cread>:

// function puts together I2C protocol for random read
char I2Cread(char addr, char subaddr){
    2136:	04 00 fa    	lnk       #0x4
    2138:	20 47 98    	mov.b     w0, [w14+2]
    213a:	31 47 98    	mov.b     w1, [w14+3]
   char temp;
   i2c_start();
    213c:	1c ff 07    	rcall     0x1f76 <_i2c_start> <.LFB2> <.LFE1>
   send_i2c_byte(addr);
    213e:	2e 40 90    	mov.b     [w14+2], w0
    2140:	00 00 fb    	se        w0, w0
    2142:	68 ff 07    	rcall     0x2014 <_send_i2c_byte> <.LFB5> <.LFE4>
   send_i2c_byte(subaddr);
    2144:	3e 40 90    	mov.b     [w14+3], w0
    2146:	00 00 fb    	se        w0, w0
    2148:	65 ff 07    	rcall     0x2014 <_send_i2c_byte> <.LFB5> <.LFE4>
   delay_by_nop(10);
    214a:	a0 00 20    	mov.w     #0xa, w0
    214c:	01 00 20    	mov.w     #0x0, w1
    214e:	f3 fe 07    	rcall     0x1f36 <_delay_by_nop> <.L0> <.LFB0> <.LFE10> <.Letext0> <.Ltext0>
   i2c_restart();
    2150:	2e ff 07    	rcall     0x1fae <_i2c_restart> <.LFB3> <.LFE2>

   send_i2c_byte(addr | 0x01); // set R bit, turn least sig. bit to 1
    2152:	2e 40 90    	mov.b     [w14+2], w0
    2154:	00 04 a0    	bset.b    w0, #0x0
    2156:	00 00 fb    	se        w0, w0
    2158:	5d ff 07    	rcall     0x2014 <_send_i2c_byte> <.LFB5> <.LFE4>
   temp = i2c_read();
    215a:	8c ff 07    	rcall     0x2074 <_i2c_read> <.LFB6> <.LFE5>
    215c:	00 4f 78    	mov.b     w0, [w14]

   reset_i2c_bus();
    215e:	3f ff 07    	rcall     0x1fde <_reset_i2c_bus> <.LFB4> <.LFE3>
   return temp;
    2160:	1e 40 78    	mov.b     [w14], w0
}
    2162:	00 80 fa    	ulnk      
    2164:	00 00 06    	return    

00002166 <_I2Cpoll>:

// function checks if device at addr is on bus
// 1 means it is not there, 0 means it is there
unsigned char I2Cpoll(char addr){
    2166:	04 00 fa    	lnk       #0x4
    2168:	20 47 98    	mov.b     w0, [w14+2]
   unsigned char temp = 0;
    216a:	00 40 eb    	clr.b     w0
    216c:	00 4f 78    	mov.b     w0, [w14]
   i2c_start();
    216e:	03 ff 07    	rcall     0x1f76 <_i2c_start> <.LFB2> <.LFE1>
   temp = send_i2c_byte((addr) & (0xfffe)); // set /W bit
    2170:	2e 40 90    	mov.b     [w14+2], w0
    2172:	00 00 fb    	se        w0, w0
    2174:	80 00 78    	mov.w     w0, w1
    2176:	e0 ff 2f    	mov.w     #0xfffe, w0
    2178:	00 80 60    	and.w     w1, w0, w0
    217a:	4c ff 07    	rcall     0x2014 <_send_i2c_byte> <.LFB5> <.LFE4>
    217c:	00 4f 78    	mov.b     w0, [w14]
   reset_i2c_bus();
    217e:	2f ff 07    	rcall     0x1fde <_reset_i2c_bus> <.LFB4> <.LFE3>
   return temp;
    2180:	1e 40 78    	mov.b     [w14], w0
}
    2182:	00 80 fa    	ulnk      
    2184:	00 00 06    	return    

00002186 <_I2Cwritearray>:

// function writes a byte array over i2c
unsigned char I2Cwritearray(char addr, char dat[], uint8_t len) {
    2186:	08 00 fa    	lnk       #0x8
    2188:	20 47 98    	mov.b     w0, [w14+2]
    218a:	21 07 98    	mov.w     w1, [w14+4]
    218c:	62 47 98    	mov.b     w2, [w14+6]
  unsigned char err = 0;
    218e:	00 40 eb    	clr.b     w0
    2190:	00 4f 78    	mov.b     w0, [w14]
  i2c_start();
    2192:	f1 fe 07    	rcall     0x1f76 <_i2c_start> <.LFB2> <.LFE1>
  err = send_i2c_byte(addr & (0xfffe)); // takes 7 bit address and adds /W bit
    2194:	2e 40 90    	mov.b     [w14+2], w0
    2196:	00 00 fb    	se        w0, w0
    2198:	80 00 78    	mov.w     w0, w1
    219a:	e0 ff 2f    	mov.w     #0xfffe, w0
    219c:	00 80 60    	and.w     w1, w0, w0
    219e:	3a ff 07    	rcall     0x2014 <_send_i2c_byte> <.LFB5> <.LFE4>
    21a0:	00 4f 78    	mov.b     w0, [w14]
  uint8_t j;
  for (j = 0; j < len; j++) { // keep sending data bytes til we're done unless it misses an ack
    21a2:	00 40 eb    	clr.b     w0
    21a4:	10 47 98    	mov.b     w0, [w14+1]
    21a6:	0d 00 37    	bra       0x21c2 <.L49>

000021a8 <.L50>:
    err |= send_i2c_byte(dat[j]);
    21a8:	1e 40 90    	mov.b     [w14+1], w0
    21aa:	00 80 fb    	ze        w0, w0
    21ac:	ae 00 90    	mov.w     [w14+4], w1
    21ae:	00 80 40    	add.w     w1, w0, w0
    21b0:	10 40 78    	mov.b     [w0], w0
    21b2:	00 00 fb    	se        w0, w0
    21b4:	2f ff 07    	rcall     0x2014 <_send_i2c_byte> <.LFB5> <.LFE4>
    21b6:	9e 40 78    	mov.b     [w14], w1
    21b8:	01 40 70    	ior.b     w0, w1, w0
    21ba:	00 4f 78    	mov.b     w0, [w14]
    21bc:	1e 40 90    	mov.b     [w14+1], w0
    21be:	00 40 e8    	inc.b     w0, w0
    21c0:	10 47 98    	mov.b     w0, [w14+1]

000021c2 <.L49>:
    21c2:	9e 40 90    	mov.b     [w14+1], w1
    21c4:	6e 40 90    	mov.b     [w14+6], w0
    21c6:	80 cf 50    	sub.b     w1, w0, [w15]
    21c8:	ef ff 39    	bra       NC, 0x21a8 <.L50>
  }
  reset_i2c_bus();
    21ca:	09 ff 07    	rcall     0x1fde <_reset_i2c_bus> <.LFB4> <.LFE3>
  return err;
    21cc:	1e 40 78    	mov.b     [w14], w0
}
    21ce:	00 80 fa    	ulnk      
    21d0:	00 00 06    	return    
Disassembly of section .isr.text:

000021d2 <__CNInterrupt>:
    21d2:	32 00 f8    	push      0x32
    21d4:	34 00 f8    	push      0x34
    21d6:	88 1f 78    	mov.w     w8, [w15++]
    21d8:	18 00 20    	mov.w     #0x1, w8
    21da:	a8 01 88    	mov.w     w8, 0x34
    21dc:	08 20 20    	mov.w     #0x200, w8
    21de:	98 01 88    	mov.w     w8, 0x32
    21e0:	4f 04 78    	mov.w     [--w15], w8
    21e2:	00 00 fa    	lnk       #0x0
    21e4:	86 60 a9    	bclr.b    0x86, #0x3
    21e6:	06 21 ef    	clr.w     0x106
    21e8:	84 e0 a9    	bclr.b    0x84, #0x7
    21ea:	11 e1 a8    	bset.b    0x111, #0x7
    21ec:	dc e2 a8    	bset.b    0x2dc, #0x7
    21ee:	00 80 fa    	ulnk      
    21f0:	34 00 f9    	pop       0x34
    21f2:	32 00 f9    	pop       0x32
    21f4:	00 40 06    	retfie    

000021f6 <__T2Interrupt>:
    21f6:	36 00 f8    	push      0x36
    21f8:	80 9f be    	mov.d     w0, [w15++]
    21fa:	82 9f be    	mov.d     w2, [w15++]
    21fc:	84 9f be    	mov.d     w4, [w15++]
    21fe:	86 9f be    	mov.d     w6, [w15++]
    2200:	32 00 f8    	push      0x32
    2202:	34 00 f8    	push      0x34
    2204:	10 00 20    	mov.w     #0x1, w0
    2206:	a0 01 88    	mov.w     w0, 0x34
    2208:	00 20 20    	mov.w     #0x200, w0
    220a:	90 01 88    	mov.w     w0, 0x32
    220c:	00 00 fa    	lnk       #0x0
    220e:	84 e0 a9    	bclr.b    0x84, #0x7
    2210:	11 e1 a9    	bclr.b    0x111, #0x7
    2212:	dc e2 a9    	bclr.b    0x2dc, #0x7
    2214:	d1 16 80    	mov.w     0x2da, w1
    2216:	00 02 20    	mov.w     #0x20, w0
    2218:	00 80 60    	and.w     w1, w0, w0
    221a:	00 00 e0    	cp0.w     w0
    221c:	0b 00 3a    	bra       NZ, 0x2234 <.L41>
    221e:	10 c8 bf    	mov.b     0x810, WREG
    2220:	00 80 fb    	ze        w0, w0
    2222:	80 00 e8    	inc.w     w0, w1
    2224:	50 00 20    	mov.w     #0x5, w0
    2226:	00 01 78    	mov.w     w0, w2
    2228:	11 00 09    	repeat    #0x11
    222a:	82 00 d8    	div.sw    w1, w2
    222c:	80 00 fd    	exch      w0, w1
    222e:	00 40 78    	mov.b     w0, w0
    2230:	10 e8 b7    	mov.b     WREG, 0x810
    2232:	07 00 37    	bra       0x2242 <.L42>

00002234 <.L41>:
    2234:	d0 16 80    	mov.w     0x2da, w0
    2236:	70 00 60    	and.w     w0, #0x10, w0
    2238:	00 00 e0    	cp0.w     w0
    223a:	03 00 3a    	bra       NZ, 0x2242 <.L42>
    223c:	10 c8 bf    	mov.b     0x810, WREG
    223e:	00 40 e9    	dec.b     w0, w0
    2240:	10 e8 b7    	mov.b     WREG, 0x810

00002242 <.L42>:
    2242:	50 17 80    	mov.w     0x2ea, w0
    2244:	70 00 60    	and.w     w0, #0x10, w0
    2246:	00 00 e0    	cp0.w     w0
    2248:	0b 00 3a    	bra       NZ, 0x2260 <.L43>
    224a:	11 c8 bf    	mov.b     0x811, WREG
    224c:	00 80 fb    	ze        w0, w0
    224e:	80 00 e8    	inc.w     w0, w1
    2250:	50 00 20    	mov.w     #0x5, w0
    2252:	00 01 78    	mov.w     w0, w2
    2254:	11 00 09    	repeat    #0x11
    2256:	82 00 d8    	div.sw    w1, w2
    2258:	80 00 fd    	exch      w0, w1
    225a:	00 40 78    	mov.b     w0, w0
    225c:	11 e8 b7    	mov.b     WREG, 0x811
    225e:	08 00 37    	bra       0x2270 <.L44>

00002260 <.L43>:
    2260:	51 17 80    	mov.w     0x2ea, w1
    2262:	00 02 20    	mov.w     #0x20, w0
    2264:	00 80 60    	and.w     w1, w0, w0
    2266:	00 00 e0    	cp0.w     w0
    2268:	03 00 3a    	bra       NZ, 0x2270 <.L44>
    226a:	11 c8 bf    	mov.b     0x811, WREG
    226c:	00 40 e9    	dec.b     w0, w0
    226e:	11 e8 b7    	mov.b     WREG, 0x811

00002270 <.L44>:
    2270:	51 16 80    	mov.w     0x2ca, w1
    2272:	00 00 28    	mov.w     #0x8000, w0
    2274:	00 80 60    	and.w     w1, w0, w0
    2276:	00 00 e0    	cp0.w     w0
    2278:	0b 00 3a    	bra       NZ, 0x2290 <.L45>
    227a:	12 c8 bf    	mov.b     0x812, WREG
    227c:	00 80 fb    	ze        w0, w0
    227e:	80 00 e8    	inc.w     w0, w1
    2280:	50 00 20    	mov.w     #0x5, w0
    2282:	00 01 78    	mov.w     w0, w2
    2284:	11 00 09    	repeat    #0x11
    2286:	82 00 d8    	div.sw    w1, w2
    2288:	80 00 fd    	exch      w0, w1
    228a:	00 40 78    	mov.b     w0, w0
    228c:	12 e8 b7    	mov.b     WREG, 0x812
    228e:	07 00 37    	bra       0x229e <.L46>

00002290 <.L45>:
    2290:	50 17 80    	mov.w     0x2ea, w0
    2292:	68 00 60    	and.w     w0, #0x8, w0
    2294:	00 00 e0    	cp0.w     w0
    2296:	03 00 3a    	bra       NZ, 0x229e <.L46>
    2298:	12 c8 bf    	mov.b     0x812, WREG
    229a:	00 40 e9    	dec.b     w0, w0
    229c:	12 e8 b7    	mov.b     WREG, 0x812

0000229e <.L46>:
    229e:	d1 16 80    	mov.w     0x2da, w1
    22a0:	00 10 20    	mov.w     #0x100, w0
    22a2:	00 80 60    	and.w     w1, w0, w0
    22a4:	00 00 e0    	cp0.w     w0
    22a6:	0b 00 3a    	bra       NZ, 0x22be <.L47>
    22a8:	13 c8 bf    	mov.b     0x813, WREG
    22aa:	00 80 fb    	ze        w0, w0
    22ac:	80 00 e8    	inc.w     w0, w1
    22ae:	50 00 20    	mov.w     #0x5, w0
    22b0:	00 01 78    	mov.w     w0, w2
    22b2:	11 00 09    	repeat    #0x11
    22b4:	82 00 d8    	div.sw    w1, w2
    22b6:	80 00 fd    	exch      w0, w1
    22b8:	00 40 78    	mov.b     w0, w0
    22ba:	13 e8 b7    	mov.b     WREG, 0x813
    22bc:	08 00 37    	bra       0x22ce <.L48>

000022be <.L47>:
    22be:	d1 16 80    	mov.w     0x2da, w1
    22c0:	00 80 20    	mov.w     #0x800, w0
    22c2:	00 80 60    	and.w     w1, w0, w0
    22c4:	00 00 e0    	cp0.w     w0
    22c6:	03 00 3a    	bra       NZ, 0x22ce <.L48>
    22c8:	13 c8 bf    	mov.b     0x813, WREG
    22ca:	00 40 e9    	dec.b     w0, w0
    22cc:	13 e8 b7    	mov.b     WREG, 0x813

000022ce <.L48>:
    22ce:	d1 16 80    	mov.w     0x2da, w1
    22d0:	00 20 20    	mov.w     #0x200, w0
    22d2:	00 80 60    	and.w     w1, w0, w0
    22d4:	00 00 e0    	cp0.w     w0
    22d6:	0b 00 3a    	bra       NZ, 0x22ee <.L49>
    22d8:	14 c8 bf    	mov.b     0x814, WREG
    22da:	00 80 fb    	ze        w0, w0
    22dc:	80 00 e8    	inc.w     w0, w1
    22de:	50 00 20    	mov.w     #0x5, w0
    22e0:	00 01 78    	mov.w     w0, w2
    22e2:	11 00 09    	repeat    #0x11
    22e4:	82 00 d8    	div.sw    w1, w2
    22e6:	80 00 fd    	exch      w0, w1
    22e8:	00 40 78    	mov.b     w0, w0
    22ea:	14 e8 b7    	mov.b     WREG, 0x814
    22ec:	08 00 37    	bra       0x22fe <.L50>

000022ee <.L49>:
    22ee:	d1 16 80    	mov.w     0x2da, w1
    22f0:	00 40 20    	mov.w     #0x400, w0
    22f2:	00 80 60    	and.w     w1, w0, w0
    22f4:	00 00 e0    	cp0.w     w0
    22f6:	03 00 3a    	bra       NZ, 0x22fe <.L50>
    22f8:	14 c8 bf    	mov.b     0x814, WREG
    22fa:	00 40 e9    	dec.b     w0, w0
    22fc:	14 e8 b7    	mov.b     WREG, 0x814

000022fe <.L50>:
    22fe:	b1 fd 07    	rcall     0x1e62 <_updateDisplay> <.LFB8> <.LFE5>
    2300:	00 80 fa    	ulnk      
    2302:	34 00 f9    	pop       0x34
    2304:	32 00 f9    	pop       0x32
    2306:	4f 03 be    	mov.d     [--w15], w6
    2308:	4f 02 be    	mov.d     [--w15], w4
    230a:	4f 01 be    	mov.d     [--w15], w2
    230c:	4f 00 be    	mov.d     [--w15], w0
    230e:	36 00 f9    	pop       0x36
    2310:	00 40 06    	retfie    

00002312 <__SI2C3Interrupt>:
uint8_t lose_flag = 0;

volatile I2CSTATE i2c3_state = STATE_WAIT_FOR_ADDR;

void __attribute__((interrupt, auto_psv)) _SI2C3Interrupt(void) {
    2312:	80 9f be    	mov.d     w0, [w15++]
    2314:	32 00 f8    	push      0x32
    2316:	34 00 f8    	push      0x34
    2318:	10 00 20    	mov.w     #0x1, w0
    231a:	a0 01 88    	mov.w     w0, 0x34
    231c:	00 20 20    	mov.w     #0x200, w0
    231e:	90 01 88    	mov.w     w0, 0x32
    2320:	02 00 fa    	lnk       #0x2
    uint8_t u8_c;
    _SI2C3IF = 0;
    2322:	8e 80 a9    	bclr.b    0x8e, #0x4

    switch (i2c3_state) {
    2324:	40 41 80    	mov.w     0x828, w0
    2326:	e1 0f 50    	sub.w     w0, #0x1, [w15]
    2328:	23 00 32    	bra       Z, 0x2370 <.L4>
    232a:	e1 0f 50    	sub.w     w0, #0x1, [w15]
    232c:	03 00 39    	bra       NC, 0x2334 <.L3>
    232e:	e2 0f 50    	sub.w     w0, #0x2, [w15]
    2330:	4b 00 32    	bra       Z, 0x23c8 <.L5>
    2332:	4c 00 37    	bra       0x23cc <.L17>

00002334 <.L3>:

    case STATE_WAIT_FOR_ADDR:
        u8_c = I2C3RCV;     //clear RBF bit for address
    2334:	80 13 80    	mov.w     0x270, w0
    2336:	00 4f 78    	mov.b     w0, [w14]
        if (I2C3STATbits.R_W) {   // if data transfer is out from slave // check R/W bit of address byte
    2338:	c0 13 80    	mov.w     0x278, w0
    233a:	64 00 60    	and.w     w0, #0x4, w0
    233c:	00 00 e0    	cp0.w     w0
    233e:	15 00 32    	bra       Z, 0x236a <.L6>
            _byte_to_master = (complete_flag << 7) | ((num_strikes & 0b111) << 4) | (error_code & 0b1111) ; // assemble
    2340:	21 c8 bf    	mov.b     0x821, WREG
    2342:	00 80 fb    	ze        w0, w0
    2344:	47 00 dd    	sl.w      w0, #0x7, w0
    2346:	80 40 78    	mov.b     w0, w1
    2348:	22 c8 bf    	mov.b     0x822, WREG
    234a:	00 80 fb    	ze        w0, w0
    234c:	67 00 60    	and.w     w0, #0x7, w0
    234e:	44 00 dd    	sl.w      w0, #0x4, w0
    2350:	00 40 78    	mov.b     w0, w0
    2352:	80 c0 70    	ior.b     w1, w0, w1
    2354:	23 c8 bf    	mov.b     0x823, WREG
    2356:	6f 40 60    	and.b     w0, #0xf, w0
    2358:	00 c0 70    	ior.b     w1, w0, w0
    235a:	1e e8 b7    	mov.b     WREG, 0x81e
            I2C3TRN = _byte_to_master;   //Set transmit register to first data byte to send back to master
    235c:	1e c8 bf    	mov.b     0x81e, WREG
    235e:	00 80 fb    	ze        w0, w0
    2360:	90 13 88    	mov.w     w0, 0x272
            I2C3CONbits.SCLREL = 1;    //  SCL released during slave read so master can drive it
    2362:	77 82 a8    	bset.b    0x277, #0x4
            i2c3_state = STATE_END_TRANSACTION; //goes to read transaction
    2364:	20 00 20    	mov.w     #0x2, w0
    2366:	40 41 88    	mov.w     w0, 0x828
        }
        else i2c3_state = STATE_RECEIVE_FROM_MASTER;     // goes to write transaction
        break;
    2368:	32 00 37    	bra       0x23ce <.L1>

0000236a <.L6>:
    236a:	10 00 20    	mov.w     #0x1, w0
    236c:	40 41 88    	mov.w     w0, 0x828
    236e:	2f 00 37    	bra       0x23ce <.L1>

00002370 <.L4>:

    case STATE_RECEIVE_FROM_MASTER:     // write transaction state, character arrived, place in buffer
        _data_from_master = I2C3RCV;        //read the byte
    2370:	80 13 80    	mov.w     0x270, w0
    2372:	00 40 78    	mov.b     w0, w0
    2374:	1f e8 b7    	mov.b     WREG, 0x81f
        switch (_data_from_master >> 5){
    2376:	1f c8 bf    	mov.b     0x81f, WREG
    2378:	00 80 fb    	ze        w0, w0
    237a:	45 00 de    	lsr.w     w0, #0x5, w0
    237c:	00 40 78    	mov.b     w0, w0
    237e:	00 80 fb    	ze        w0, w0
    2380:	e2 0f 50    	sub.w     w0, #0x2, [w15]
    2382:	1a 00 32    	bra       Z, 0x23b8 <.L12>
    2384:	e2 0f 50    	sub.w     w0, #0x2, [w15]
    2386:	05 00 3c    	bra       GT, 0x2392 <.L15>
    2388:	00 00 e0    	cp0.w     w0
    238a:	10 00 32    	bra       Z, 0x23ac <.L10>
    238c:	e1 0f 50    	sub.w     w0, #0x1, [w15]
    238e:	11 00 32    	bra       Z, 0x23b2 <.L11>
    2390:	16 00 37    	bra       0x23be <.L9>

00002392 <.L15>:
    2392:	e4 0f 50    	sub.w     w0, #0x4, [w15]
    2394:	03 00 32    	bra       Z, 0x239c <.L13>
    2396:	e7 0f 50    	sub.w     w0, #0x7, [w15]
    2398:	05 00 32    	bra       Z, 0x23a4 <.L14>
    239a:	11 00 37    	bra       0x23be <.L9>

0000239c <.L13>:
            case HEADER_SERIAL_NUMBER: // 100
                serial_number = _data_from_master & 0b00011111 ;
    239c:	1f c8 bf    	mov.b     0x81f, WREG
    239e:	7f 40 60    	and.b     w0, #0x1f, w0
    23a0:	20 e8 b7    	mov.b     WREG, 0x820
            break;
    23a2:	10 00 37    	bra       0x23c4 <.L16>

000023a4 <.L14>:
            case HEADER_NUM_STRIKES:    // 111
                num_strikes = _data_from_master & 0b00011111 ;
    23a4:	1f c8 bf    	mov.b     0x81f, WREG
    23a6:	7f 40 60    	and.b     w0, #0x1f, w0
    23a8:	22 e8 b7    	mov.b     WREG, 0x822
            break;
    23aa:	0c 00 37    	bra       0x23c4 <.L16>

000023ac <.L10>:
            case HEADER_START_GAME:    // 000
                start_flag = 1 ;
    23ac:	10 c0 b3    	mov.b     #0x1, w0
    23ae:	24 e8 b7    	mov.b     WREG, 0x824
            break;
    23b0:	09 00 37    	bra       0x23c4 <.L16>

000023b2 <.L11>:
            case HEADER_END_WIN:    // 001
                win_flag = 1 ;
    23b2:	10 c0 b3    	mov.b     #0x1, w0
    23b4:	25 e8 b7    	mov.b     WREG, 0x825
            break;
    23b6:	06 00 37    	bra       0x23c4 <.L16>

000023b8 <.L12>:
            case HEADER_END_LOSE:    // 010
                lose_flag = 1 ;
    23b8:	10 c0 b3    	mov.b     #0x1, w0
    23ba:	26 e8 b7    	mov.b     WREG, 0x826
            break;
    23bc:	03 00 37    	bra       0x23c4 <.L16>

000023be <.L9>:

            default: error_code ++ ;
    23be:	23 c8 bf    	mov.b     0x823, WREG
    23c0:	00 40 e8    	inc.b     w0, w0
    23c2:	23 e8 b7    	mov.b     WREG, 0x823

000023c4 <.L16>:

        }
        i2c3_state = STATE_WAIT_FOR_ADDR;    // go to wait for next transaction
    23c4:	28 28 ef    	clr.w     0x828
        break;
    23c6:	03 00 37    	bra       0x23ce <.L1>

000023c8 <.L5>:

    case STATE_END_TRANSACTION:  //interrupt for last character finished shifting out to master
        i2c3_state = STATE_WAIT_FOR_ADDR;
    23c8:	28 28 ef    	clr.w     0x828
        break;
    23ca:	01 00 37    	bra       0x23ce <.L1>

000023cc <.L17>:

    default:
        i2c3_state = STATE_WAIT_FOR_ADDR;
    23cc:	28 28 ef    	clr.w     0x828

000023ce <.L1>:

    } // end of switch statements
}   // end of ISR
    23ce:	00 80 fa    	ulnk      
    23d0:	34 00 f9    	pop       0x34
    23d2:	32 00 f9    	pop       0x32
    23d4:	4f 00 be    	mov.d     [--w15], w0
    23d6:	00 40 06    	retfie    
Disassembly of section .text:

000023d8 <_init_elecanisms>:
*/

#include "elecanisms.h"

void init_elecanisms(void) {
    23d8:	00 00 fa    	lnk       #0x0
    CLKDIV = 0x0100;        // RCDIV = 001 (4MHz, div2), 
    23da:	00 10 20    	mov.w     #0x100, w0
    23dc:	20 3a 88    	mov.w     w0, 0x744
                            // CPDIV = 00 (FOSC = 32MHz, FCY = 16MHz)

    // Configure all pins on the digital headers to be inputs
    D0_DIR = IN;
    23de:	d8 a2 a8    	bset.b    0x2d8, #0x5
    D1_DIR = IN;
    23e0:	d8 82 a8    	bset.b    0x2d8, #0x4
    D2_DIR = IN;
    23e2:	e8 82 a8    	bset.b    0x2e8, #0x4
    D3_DIR = IN;
    23e4:	e8 a2 a8    	bset.b    0x2e8, #0x5
    D4_DIR = IN;
    23e6:	c9 e2 a8    	bset.b    0x2c9, #0x7
    D5_DIR = IN;
    23e8:	e8 62 a8    	bset.b    0x2e8, #0x3
    D6_DIR = IN;
    23ea:	d9 02 a8    	bset.b    0x2d9, #0x0
    D7_DIR = IN;
    23ec:	d9 62 a8    	bset.b    0x2d9, #0x3
    D8_DIR = IN;
    23ee:	d9 22 a8    	bset.b    0x2d9, #0x1
    D9_DIR = IN;
    23f0:	d9 42 a8    	bset.b    0x2d9, #0x2
    D10_DIR = IN;
    23f2:	d8 02 a8    	bset.b    0x2d8, #0x0
    D11_DIR = IN;
    23f4:	d8 22 a8    	bset.b    0x2d8, #0x1
    D12_DIR = IN;
    23f6:	d8 42 a8    	bset.b    0x2d8, #0x2
    D13_DIR = IN;
    23f8:	d8 62 a8    	bset.b    0x2d8, #0x3

    // Configure all pins on the analog header to be inputs
    A0_DIR = IN;
    23fa:	c8 a2 a8    	bset.b    0x2c8, #0x5
    A1_DIR = IN;
    23fc:	c8 82 a8    	bset.b    0x2c8, #0x4
    A2_DIR = IN;
    23fe:	c8 62 a8    	bset.b    0x2c8, #0x3
    A3_DIR = IN;
    2400:	c8 42 a8    	bset.b    0x2c8, #0x2
    A4_DIR = IN;
    2402:	c8 22 a8    	bset.b    0x2c8, #0x1
    A5_DIR = IN;
    2404:	c8 02 a8    	bset.b    0x2c8, #0x0

    // Make all pins digital I/Os except for A0,...,A5
    ANSB = 0x003F;
    2406:	f0 03 20    	mov.w     #0x3f, w0
    2408:	10 27 88    	mov.w     w0, 0x4e2
    ANSC = 0;
    240a:	e4 24 ef    	clr.w     0x4e4
    ANSD = 0;
    240c:	e6 24 ef    	clr.w     0x4e6
    ANSF = 0;
    240e:	ea 24 ef    	clr.w     0x4ea
    ANSG = 0;
    2410:	ec 24 ef    	clr.w     0x4ec

    // Configure and enable the ADC module: 
    //   set output data format to integer (FORM<1:0> = 0b00)
    //   set conversion trigger source select bits to internal counter 
    //     (SSRC<2:0> = 0b111)
    //   set auto-sample time bits to 12*TAD (SAMC<4:0> = 12)
    //   set conversion clock select bits to 64*TCY (ADCS<7:0> = 64)
    //   set initial channel selection to A0
    AD1CON1 = 0x00E0; 
    2412:	00 0e 20    	mov.w     #0xe0, w0
    2414:	00 19 88    	mov.w     w0, 0x320
    AD1CON2 = 0;
    2416:	22 23 ef    	clr.w     0x322
    AD1CON3 = 0x0C40;
    2418:	00 c4 20    	mov.w     #0xc40, w0
    241a:	20 19 88    	mov.w     w0, 0x324
    AD1CHS = A0_AN;
    241c:	50 00 20    	mov.w     #0x5, w0
    241e:	40 19 88    	mov.w     w0, 0x328
    AD1CON1bits.ADON = 1;
    2420:	21 e3 a8    	bset.b    0x321, #0x7

    // Configure LED pins as outputs, set to low (off)
    LED1_DIR = OUT; LED1 = 0;
    2422:	d8 e2 a9    	bclr.b    0x2d8, #0x7
    2424:	dc e2 a9    	bclr.b    0x2dc, #0x7
    LED2_DIR = OUT; LED2 = 0;
    2426:	e8 02 a9    	bclr.b    0x2e8, #0x0
    2428:	ec 02 a9    	bclr.b    0x2ec, #0x0
    LED3_DIR = OUT; LED3 = 0;
    242a:	e8 22 a9    	bclr.b    0x2e8, #0x1
    242c:	ec 22 a9    	bclr.b    0x2ec, #0x1

    // Configure SW pins as inputs
    SW1_DIR = IN;
    242e:	d1 e2 a8    	bset.b    0x2d1, #0x7
    SW2_DIR = IN;
    2430:	d1 82 a8    	bset.b    0x2d1, #0x4
    SW3_DIR = IN;
    2432:	c9 82 a8    	bset.b    0x2c9, #0x4
}
    2434:	00 80 fa    	ulnk      
    2436:	00 00 06    	return    

00002438 <_read_analog>:

uint16_t read_analog(uint16_t pin_an) {
    2438:	02 00 fa    	lnk       #0x2
    243a:	00 0f 78    	mov.w     w0, [w14]
    AD1CHS = pin_an;
    243c:	9e 00 78    	mov.w     [w14], w1
    243e:	41 19 88    	mov.w     w1, 0x328
    AD1CON1bits.SAMP = 1;
    2440:	20 23 a8    	bset.b    0x320, #0x1
    while (AD1CON1bits.DONE == 0) {}
    2442:	00 00 00    	nop       

00002444 <.L3>:
    2444:	00 19 80    	mov.w     0x320, w0
    2446:	61 00 60    	and.w     w0, #0x1, w0
    2448:	00 00 e0    	cp0.w     w0
    244a:	fc ff 32    	bra       Z, 0x2444 <.L3>
    return ADC1BUF0;
    244c:	00 18 80    	mov.w     0x300, w0
}
    244e:	00 80 fa    	ulnk      
    2450:	00 00 06    	return    

00002452 <_parity>:

#include "common.h"

uint8_t parity(uint16_t v)
{
    2452:	02 00 fa    	lnk       #0x2
    2454:	00 0f 78    	mov.w     w0, [w14]
    v ^= v >> 8;
    2456:	1e 00 78    	mov.w     [w14], w0
    2458:	48 00 de    	lsr.w     w0, #0x8, w0
    245a:	1e 0f 68    	xor.w     w0, [w14], [w14]
    v ^= v >> 4;
    245c:	1e 00 78    	mov.w     [w14], w0
    245e:	44 00 de    	lsr.w     w0, #0x4, w0
    2460:	1e 0f 68    	xor.w     w0, [w14], [w14]
    v ^= v >> 2;
    2462:	1e 00 78    	mov.w     [w14], w0
    2464:	42 00 de    	lsr.w     w0, #0x2, w0
    2466:	1e 0f 68    	xor.w     w0, [w14], [w14]
    v ^= v >> 1;
    2468:	1e 00 78    	mov.w     [w14], w0
    246a:	00 00 d1    	lsr.w     w0, w0
    246c:	1e 0f 68    	xor.w     w0, [w14], [w14]
    return v & 1;
    246e:	1e 00 78    	mov.w     [w14], w0
    2470:	00 40 78    	mov.b     w0, w0
    2472:	61 40 60    	and.b     w0, #0x1, w0
}
    2474:	00 80 fa    	ulnk      
    2476:	00 00 06    	return    
Disassembly of section .dinit:

00002478 <.dinit>:
    2478:	3a 08 00    	nop       
    247a:	06 00 00    	nop       
    247c:	80 00 00    	nop       
    247e:	00 08 00    	nop       
    2480:	1e 00 00    	nop       
    2482:	80 00 00    	nop       
    2484:	2a 08 00    	nop       
    2486:	10 00 00    	nop       
    2488:	80 00 00    	nop       
    248a:	1e 08 00    	nop       
    248c:	0c 00 00    	nop       
    248e:	80 00 00    	nop       
    2490:	00 00 00    	nop       
Disassembly of section .isr:

00002492 <__DefaultInterrupt>:
    2492:	00 40 da    	break     
    2494:	00 00 fe    	reset     
