
encodertest.elf:     file format elf32-pic30

Disassembly of section .aivt._AltADC1Interrupt:

0000012e <.aivt._AltADC1Interrupt>:
 12e:	0e 1f 00    	nop       
Disassembly of section .aivt._AltAddressError:

00000108 <.aivt._AltAddressError>:
 108:	0e 1f 00    	nop       
Disassembly of section .aivt._AltCNInterrupt:

0000013a <.aivt._AltCNInterrupt>:
 13a:	0e 1f 00    	nop       
Disassembly of section .aivt._AltCRCInterrupt:

0000019a <.aivt._AltCRCInterrupt>:
 19a:	0e 1f 00    	nop       
Disassembly of section .aivt._AltCTMUInterrupt:

000001ae <.aivt._AltCTMUInterrupt>:
 1ae:	0e 1f 00    	nop       
Disassembly of section .aivt._AltCompInterrupt:

00000138 <.aivt._AltCompInterrupt>:
 138:	0e 1f 00    	nop       
Disassembly of section .aivt._AltIC1Interrupt:

00000116 <.aivt._AltIC1Interrupt>:
 116:	0e 1f 00    	nop       
Disassembly of section .aivt._AltIC2Interrupt:

0000011e <.aivt._AltIC2Interrupt>:
 11e:	0e 1f 00    	nop       
Disassembly of section .aivt._AltIC3Interrupt:

0000015e <.aivt._AltIC3Interrupt>:
 15e:	0e 1f 00    	nop       
Disassembly of section .aivt._AltIC4Interrupt:

00000160 <.aivt._AltIC4Interrupt>:
 160:	0e 1f 00    	nop       
Disassembly of section .aivt._AltIC5Interrupt:

00000162 <.aivt._AltIC5Interrupt>:
 162:	0e 1f 00    	nop       
Disassembly of section .aivt._AltIC6Interrupt:

00000164 <.aivt._AltIC6Interrupt>:
 164:	0e 1f 00    	nop       
Disassembly of section .aivt._AltIC7Interrupt:

00000140 <.aivt._AltIC7Interrupt>:
 140:	0e 1f 00    	nop       
Disassembly of section .aivt._AltIC8Interrupt:

00000142 <.aivt._AltIC8Interrupt>:
 142:	0e 1f 00    	nop       
Disassembly of section .aivt._AltIC9Interrupt:

000001ce <.aivt._AltIC9Interrupt>:
 1ce:	0e 1f 00    	nop       
Disassembly of section .aivt._AltINT0Interrupt:

00000114 <.aivt._AltINT0Interrupt>:
 114:	0e 1f 00    	nop       
Disassembly of section .aivt._AltINT1Interrupt:

0000013c <.aivt._AltINT1Interrupt>:
 13c:	0e 1f 00    	nop       
Disassembly of section .aivt._AltINT2Interrupt:

0000014e <.aivt._AltINT2Interrupt>:
 14e:	0e 1f 00    	nop       
Disassembly of section .aivt._AltINT3Interrupt:

0000017e <.aivt._AltINT3Interrupt>:
 17e:	0e 1f 00    	nop       
Disassembly of section .aivt._AltINT4Interrupt:

00000180 <.aivt._AltINT4Interrupt>:
 180:	0e 1f 00    	nop       
Disassembly of section .aivt._AltInterrupt14:

00000130 <.aivt._AltInterrupt14>:
 130:	0e 1f 00    	nop       
Disassembly of section .aivt._AltInterrupt15:

00000132 <.aivt._AltInterrupt15>:
 132:	0e 1f 00    	nop       
Disassembly of section .aivt._AltInterrupt21:

0000013e <.aivt._AltInterrupt21>:
 13e:	0e 1f 00    	nop       
Disassembly of section .aivt._AltInterrupt24:

00000144 <.aivt._AltInterrupt24>:
 144:	0e 1f 00    	nop       
Disassembly of section .aivt._AltInterrupt34:

00000158 <.aivt._AltInterrupt34>:
 158:	0e 1f 00    	nop       
Disassembly of section .aivt._AltInterrupt35:

0000015a <.aivt._AltInterrupt35>:
 15a:	0e 1f 00    	nop       
Disassembly of section .aivt._AltInterrupt36:

0000015c <.aivt._AltInterrupt36>:
 15c:	0e 1f 00    	nop       
Disassembly of section .aivt._AltInterrupt4:

0000011c <.aivt._AltInterrupt4>:
 11c:	0e 1f 00    	nop       
Disassembly of section .aivt._AltInterrupt46:

00000170 <.aivt._AltInterrupt46>:
 170:	0e 1f 00    	nop       
Disassembly of section .aivt._AltInterrupt47:

00000172 <.aivt._AltInterrupt47>:
 172:	0e 1f 00    	nop       
Disassembly of section .aivt._AltInterrupt48:

00000174 <.aivt._AltInterrupt48>:
 174:	0e 1f 00    	nop       
Disassembly of section .aivt._AltInterrupt51:

0000017a <.aivt._AltInterrupt51>:
 17a:	0e 1f 00    	nop       
Disassembly of section .aivt._AltInterrupt52:

0000017c <.aivt._AltInterrupt52>:
 17c:	0e 1f 00    	nop       
Disassembly of section .aivt._AltInterrupt55:

00000182 <.aivt._AltInterrupt55>:
 182:	0e 1f 00    	nop       
Disassembly of section .aivt._AltInterrupt56:

00000184 <.aivt._AltInterrupt56>:
 184:	0e 1f 00    	nop       
Disassembly of section .aivt._AltInterrupt57:

00000186 <.aivt._AltInterrupt57>:
 186:	0e 1f 00    	nop       
Disassembly of section .aivt._AltInterrupt58:

00000188 <.aivt._AltInterrupt58>:
 188:	0e 1f 00    	nop       
Disassembly of section .aivt._AltInterrupt59:

0000018a <.aivt._AltInterrupt59>:
 18a:	0e 1f 00    	nop       
Disassembly of section .aivt._AltInterrupt60:

0000018c <.aivt._AltInterrupt60>:
 18c:	0e 1f 00    	nop       
Disassembly of section .aivt._AltInterrupt61:

0000018e <.aivt._AltInterrupt61>:
 18e:	0e 1f 00    	nop       
Disassembly of section .aivt._AltInterrupt63:

00000192 <.aivt._AltInterrupt63>:
 192:	0e 1f 00    	nop       
Disassembly of section .aivt._AltInterrupt64:

00000194 <.aivt._AltInterrupt64>:
 194:	0e 1f 00    	nop       
Disassembly of section .aivt._AltInterrupt68:

0000019c <.aivt._AltInterrupt68>:
 19c:	0e 1f 00    	nop       
Disassembly of section .aivt._AltInterrupt69:

0000019e <.aivt._AltInterrupt69>:
 19e:	0e 1f 00    	nop       
Disassembly of section .aivt._AltInterrupt70:

000001a0 <.aivt._AltInterrupt70>:
 1a0:	0e 1f 00    	nop       
Disassembly of section .aivt._AltInterrupt71:

000001a2 <.aivt._AltInterrupt71>:
 1a2:	0e 1f 00    	nop       
Disassembly of section .aivt._AltInterrupt73:

000001a6 <.aivt._AltInterrupt73>:
 1a6:	0e 1f 00    	nop       
Disassembly of section .aivt._AltInterrupt74:

000001a8 <.aivt._AltInterrupt74>:
 1a8:	0e 1f 00    	nop       
Disassembly of section .aivt._AltInterrupt75:

000001aa <.aivt._AltInterrupt75>:
 1aa:	0e 1f 00    	nop       
Disassembly of section .aivt._AltInterrupt76:

000001ac <.aivt._AltInterrupt76>:
 1ac:	0e 1f 00    	nop       
Disassembly of section .aivt._AltInterrupt78:

000001b0 <.aivt._AltInterrupt78>:
 1b0:	0e 1f 00    	nop       
Disassembly of section .aivt._AltInterrupt79:

000001b2 <.aivt._AltInterrupt79>:
 1b2:	0e 1f 00    	nop       
Disassembly of section .aivt._AltInterrupt80:

000001b4 <.aivt._AltInterrupt80>:
 1b4:	0e 1f 00    	nop       
Disassembly of section .aivt._AltLVDInterrupt:

000001a4 <.aivt._AltLVDInterrupt>:
 1a4:	0e 1f 00    	nop       
Disassembly of section .aivt._AltMI2C1Interrupt:

00000136 <.aivt._AltMI2C1Interrupt>:
 136:	0e 1f 00    	nop       
Disassembly of section .aivt._AltMI2C2Interrupt:

00000178 <.aivt._AltMI2C2Interrupt>:
 178:	0e 1f 00    	nop       
Disassembly of section .aivt._AltMI2C3Interrupt:

000001be <.aivt._AltMI2C3Interrupt>:
 1be:	0e 1f 00    	nop       
Disassembly of section .aivt._AltMathError:

0000010c <.aivt._AltMathError>:
 10c:	0e 1f 00    	nop       
Disassembly of section .aivt._AltOC1Interrupt:

00000118 <.aivt._AltOC1Interrupt>:
 118:	0e 1f 00    	nop       
Disassembly of section .aivt._AltOC2Interrupt:

00000120 <.aivt._AltOC2Interrupt>:
 120:	0e 1f 00    	nop       
Disassembly of section .aivt._AltOC3Interrupt:

00000146 <.aivt._AltOC3Interrupt>:
 146:	0e 1f 00    	nop       
Disassembly of section .aivt._AltOC4Interrupt:

00000148 <.aivt._AltOC4Interrupt>:
 148:	0e 1f 00    	nop       
Disassembly of section .aivt._AltOC5Interrupt:

00000166 <.aivt._AltOC5Interrupt>:
 166:	0e 1f 00    	nop       
Disassembly of section .aivt._AltOC6Interrupt:

00000168 <.aivt._AltOC6Interrupt>:
 168:	0e 1f 00    	nop       
Disassembly of section .aivt._AltOC7Interrupt:

0000016a <.aivt._AltOC7Interrupt>:
 16a:	0e 1f 00    	nop       
Disassembly of section .aivt._AltOC8Interrupt:

0000016c <.aivt._AltOC8Interrupt>:
 16c:	0e 1f 00    	nop       
Disassembly of section .aivt._AltOC9Interrupt:

000001cc <.aivt._AltOC9Interrupt>:
 1cc:	0e 1f 00    	nop       
Disassembly of section .aivt._AltOscillatorFail:

00000106 <.aivt._AltOscillatorFail>:
 106:	0e 1f 00    	nop       
Disassembly of section .aivt._AltPMPInterrupt:

0000016e <.aivt._AltPMPInterrupt>:
 16e:	0e 1f 00    	nop       
Disassembly of section .aivt._AltRTCCInterrupt:

00000190 <.aivt._AltRTCCInterrupt>:
 190:	0e 1f 00    	nop       
Disassembly of section .aivt._AltReservedTrap0:

00000104 <.aivt._AltReservedTrap0>:
 104:	0e 1f 00    	nop       
Disassembly of section .aivt._AltReservedTrap5:

0000010e <.aivt._AltReservedTrap5>:
 10e:	0e 1f 00    	nop       
Disassembly of section .aivt._AltReservedTrap6:

00000110 <.aivt._AltReservedTrap6>:
 110:	0e 1f 00    	nop       
Disassembly of section .aivt._AltReservedTrap7:

00000112 <.aivt._AltReservedTrap7>:
 112:	0e 1f 00    	nop       
Disassembly of section .aivt._AltSI2C1Interrupt:

00000134 <.aivt._AltSI2C1Interrupt>:
 134:	0e 1f 00    	nop       
Disassembly of section .aivt._AltSI2C2Interrupt:

00000176 <.aivt._AltSI2C2Interrupt>:
 176:	0e 1f 00    	nop       
Disassembly of section .aivt._AltSI2C3Interrupt:

000001bc <.aivt._AltSI2C3Interrupt>:
 1bc:	0e 1f 00    	nop       
Disassembly of section .aivt._AltSPI1ErrInterrupt:

00000126 <.aivt._AltSPI1ErrInterrupt>:
 126:	0e 1f 00    	nop       
Disassembly of section .aivt._AltSPI1Interrupt:

00000128 <.aivt._AltSPI1Interrupt>:
 128:	0e 1f 00    	nop       
Disassembly of section .aivt._AltSPI2ErrInterrupt:

00000154 <.aivt._AltSPI2ErrInterrupt>:
 154:	0e 1f 00    	nop       
Disassembly of section .aivt._AltSPI2Interrupt:

00000156 <.aivt._AltSPI2Interrupt>:
 156:	0e 1f 00    	nop       
Disassembly of section .aivt._AltSPI3ErrInterrupt:

000001c8 <.aivt._AltSPI3ErrInterrupt>:
 1c8:	0e 1f 00    	nop       
Disassembly of section .aivt._AltSPI3Interrupt:

000001ca <.aivt._AltSPI3Interrupt>:
 1ca:	0e 1f 00    	nop       
Disassembly of section .aivt._AltStackError:

0000010a <.aivt._AltStackError>:
 10a:	0e 1f 00    	nop       
Disassembly of section .aivt._AltT1Interrupt:

0000011a <.aivt._AltT1Interrupt>:
 11a:	0e 1f 00    	nop       
Disassembly of section .aivt._AltT2Interrupt:

00000122 <.aivt._AltT2Interrupt>:
 122:	0e 1f 00    	nop       
Disassembly of section .aivt._AltT3Interrupt:

00000124 <.aivt._AltT3Interrupt>:
 124:	0e 1f 00    	nop       
Disassembly of section .aivt._AltT4Interrupt:

0000014a <.aivt._AltT4Interrupt>:
 14a:	0e 1f 00    	nop       
Disassembly of section .aivt._AltT5Interrupt:

0000014c <.aivt._AltT5Interrupt>:
 14c:	0e 1f 00    	nop       
Disassembly of section .aivt._AltU1ErrInterrupt:

00000196 <.aivt._AltU1ErrInterrupt>:
 196:	0e 1f 00    	nop       
Disassembly of section .aivt._AltU1RXInterrupt:

0000012a <.aivt._AltU1RXInterrupt>:
 12a:	0e 1f 00    	nop       
Disassembly of section .aivt._AltU1TXInterrupt:

0000012c <.aivt._AltU1TXInterrupt>:
 12c:	0e 1f 00    	nop       
Disassembly of section .aivt._AltU2ErrInterrupt:

00000198 <.aivt._AltU2ErrInterrupt>:
 198:	0e 1f 00    	nop       
Disassembly of section .aivt._AltU2RXInterrupt:

00000150 <.aivt._AltU2RXInterrupt>:
 150:	0e 1f 00    	nop       
Disassembly of section .aivt._AltU2TXInterrupt:

00000152 <.aivt._AltU2TXInterrupt>:
 152:	0e 1f 00    	nop       
Disassembly of section .aivt._AltU3ErrInterrupt:

000001b6 <.aivt._AltU3ErrInterrupt>:
 1b6:	0e 1f 00    	nop       
Disassembly of section .aivt._AltU3RXInterrupt:

000001b8 <.aivt._AltU3RXInterrupt>:
 1b8:	0e 1f 00    	nop       
Disassembly of section .aivt._AltU3TXInterrupt:

000001ba <.aivt._AltU3TXInterrupt>:
 1ba:	0e 1f 00    	nop       
Disassembly of section .aivt._AltU4ErrInterrupt:

000001c2 <.aivt._AltU4ErrInterrupt>:
 1c2:	0e 1f 00    	nop       
Disassembly of section .aivt._AltU4RXInterrupt:

000001c4 <.aivt._AltU4RXInterrupt>:
 1c4:	0e 1f 00    	nop       
Disassembly of section .aivt._AltU4TXInterrupt:

000001c6 <.aivt._AltU4TXInterrupt>:
 1c6:	0e 1f 00    	nop       
Disassembly of section .aivt._AltUSB1Interrupt:

000001c0 <.aivt._AltUSB1Interrupt>:
 1c0:	0e 1f 00    	nop       
Disassembly of section .reset:

00000000 <.reset>:
   0:	10 11 04    	goto      0x1110 <__reset>
   2:	00 00 00 
Disassembly of section .text:

00001110 <__reset>:
    1110:	0f a8 20    	mov.w     #0xa80, w15
    1112:	0e ff 27    	mov.w     #0x7ff0, w14
    1114:	0e 01 88    	mov.w     w14, 0x20
    1116:	00 00 00    	nop       
    1118:	00 00 20    	mov.w     #0x0, w0
    111a:	00 00 e0    	cp0.w     w0
    111c:	02 00 32    	bra       Z, 0x1122 <CORCON_RESET>
    111e:	00 01 20    	mov.w     #0x10, w0
    1120:	20 02 88    	mov.w     w0, 0x44

00001122 <CORCON_RESET>:
    1122:	14 00 07    	rcall     0x114c <__psv_init>
    1124:	7d 00 07    	rcall     0x1220 <__crt_start_mode> <__crt_start_mode_normal>
    1126:	00 00 e0    	cp0.w     w0
    1128:	03 00 3a    	bra       NZ, 0x1130 <L11>
    112a:	a0 ef 21    	mov.w     #0x1efa, w0
    112c:	01 00 20    	mov.w     #0x0, w1
    112e:	02 00 37    	bra       0x1134 <L21>

00001130 <L11>:
    1130:	00 00 20    	mov.w     #0x0, w0
    1132:	01 00 20    	mov.w     #0x0, w1

00001134 <L21>:
    1134:	81 0f 70    	ior.w     w0, w1, [w15]
    1136:	01 00 32    	bra       Z, 0x113a <L12>
    1138:	14 00 07    	rcall     0x1162 <__data_init> <__data_init_da>

0000113a <L12>:
    113a:	00 00 20    	mov.w     #0x0, w0
    113c:	00 00 e0    	cp0.w     w0
    113e:	02 00 32    	bra       Z, 0x1144 <L13>
    1140:	00 00 02    	call      0x0 <__DEFAULT_VECTOR-0x110c>
    1142:	00 00 00 

00001144 <L13>:
    1144:	e4 1d 02    	call      0x1de4 <_main>
    1146:	00 00 00 
    1148:	00 40 da    	break     
    114a:	00 00 fe    	reset     

0000114c <__psv_init>:
    114c:	44 40 a9    	bclr.b    0x44, #0x2
    114e:	a0 06 20    	mov.w     #0x6a, w0
    1150:	00 00 e0    	cp0.w     w0
    1152:	03 00 32    	bra       Z, 0x115a <L14>
    1154:	00 20 20    	mov.w     #0x200, w0
    1156:	90 01 88    	mov.w     w0, 0x32
    1158:	44 40 a8    	bset.b    0x44, #0x2

0000115a <L14>:
    115a:	00 00 06    	return    

0000115c <__long_indirect_call>:
    115c:	8a 1f 78    	mov.w     w10, [w15++]
    115e:	8b 1f 78    	mov.w     w11, [w15++]
    1160:	00 00 06    	return    

00001162 <__data_init>:
    1162:	a1 02 88    	mov.w     w1, 0x54
    1164:	80 04 78    	mov.w     w0, w9
    1166:	00 00 eb    	clr.w     w0
    1168:	1f 00 37    	bra       0x11a8 <L41>

0000116a <L11>:
    116a:	e2 84 44    	add.w     w9, #0x2, w9
    116c:	54 a0 b4    	addc.w    0x54
    116e:	99 05 ba    	tblrdl.w  [w9], w11
    1170:	e2 84 44    	add.w     w9, #0x2, w9
    1172:	54 a0 b4    	addc.w    0x54
    1174:	99 06 ba    	tblrdl.w  [w9], w13
    1176:	e2 84 44    	add.w     w9, #0x2, w9
    1178:	54 a0 b4    	addc.w    0x54
    117a:	00 06 eb    	clr.w     w12
    117c:	47 6f de    	lsr.w     w13, #0x7, w14
    117e:	fd 07 b2    	and.w     #0x7f, w13
    1180:	ae 01 88    	mov.w     w14, 0x34
    1182:	63 6c e1    	cp.b      w13, #0x3
    1184:	03 00 3a    	bra       NZ, 0x118c <L21>
    1186:	ea ff 07    	rcall     0x115c <__long_indirect_call>
    1188:	00 00 eb    	clr.w     w0
    118a:	0e 00 37    	bra       0x11a8 <L41>

0000118c <L21>:
    118c:	60 6c e1    	cp.b      w13, #0x0
    118e:	08 00 3a    	bra       NZ, 0x11a0 <L22>

00001190 <L91>:
    1190:	00 4d eb    	clr.b     [w10]
    1192:	0a 05 e8    	inc.w     w10, w10
    1194:	02 00 39    	bra       NC, 0x119a <L81>
    1196:	34 20 ec    	inc.w     0x34
    1198:	0a f0 a0    	bset.w    w10, #0xf

0000119a <L81>:
    119a:	8b 05 e9    	dec.w     w11, w11
    119c:	f9 ff 3e    	bra       GTU, 0x1190 <L91>
    119e:	04 00 37    	bra       0x11a8 <L41>

000011a0 <L22>:
    11a0:	61 68 e1    	cp.w      w13, #0x1
    11a2:	01 00 32    	bra       Z, 0x11a6 <L31>
    11a4:	00 86 eb    	setm.w    w12

000011a6 <L31>:
    11a6:	0b 00 07    	rcall     0x11be <L13> <__memcpyd3extended>

000011a8 <L41>:
    11a8:	19 c7 ba    	tblrdh.b  [w9], w14
    11aa:	19 05 ba    	tblrdl.w  [w9], w10
    11ac:	0e 04 e0    	cp0.b     w14
    11ae:	03 00 3a    	bra       NZ, 0x11b6 <L12>
    11b0:	0a 00 e0    	cp0.w     w10
    11b2:	db ff 3a    	bra       NZ, 0x116a <L11>
    11b4:	00 00 06    	return    

000011b6 <L12>:
    11b6:	fe 07 b2    	and.w     #0x7f, w14
    11b8:	ae 02 88    	mov.w     w14, 0x54
    11ba:	8a 04 78    	mov.w     w10, w9
    11bc:	f5 ff 37    	bra       0x11a8 <L41>

000011be <L13>:
    11be:	0c d0 a3    	btst.c    w12, #0xd
    11c0:	e2 0f 4d    	addc.w    w10, #0x2, [w15]
    11c2:	1c 00 39    	bra       NC, 0x11fc <L23>
    11c4:	89 02 78    	mov.w     w9, w5
    11c6:	35 4d ba    	tblrdl.b  [w5++], [w10]
    11c8:	0a 05 e8    	inc.w     w10, w10
    11ca:	02 00 39    	bra       NC, 0x11d0 <L32>
    11cc:	34 20 ec    	inc.w     0x34
    11ce:	0a f0 a0    	bset.w    w10, #0xf

000011d0 <L32>:
    11d0:	8b 05 e9    	dec.w     w11, w11
    11d2:	0f 00 32    	bra       Z, 0x11f2 <L42>
    11d4:	25 4d ba    	tblrdl.b  [w5--], [w10]
    11d6:	0a 05 e8    	inc.w     w10, w10
    11d8:	02 00 39    	bra       NC, 0x11de <L33>
    11da:	34 20 ec    	inc.w     0x34
    11dc:	0a f0 a0    	bset.w    w10, #0xf

000011de <L33>:
    11de:	8b 05 e9    	dec.w     w11, w11
    11e0:	08 00 32    	bra       Z, 0x11f2 <L42>
    11e2:	0c 00 e0    	cp0.w     w12
    11e4:	06 00 32    	bra       Z, 0x11f2 <L42>
    11e6:	15 cd ba    	tblrdh.b  [w5], [w10]
    11e8:	0a 05 e8    	inc.w     w10, w10
    11ea:	02 00 39    	bra       NC, 0x11f0 <L34>
    11ec:	34 20 ec    	inc.w     0x34
    11ee:	0a f0 a0    	bset.w    w10, #0xf

000011f0 <L34>:
    11f0:	8b 05 e9    	dec.w     w11, w11

000011f2 <L42>:
    11f2:	89 84 e8    	inc2.w    w9, w9
    11f4:	54 a0 b4    	addc.w    0x54
    11f6:	0b 00 e0    	cp0.w     w11
    11f8:	e2 ff 3a    	bra       NZ, 0x11be <L13> <__memcpyd3extended>
    11fa:	00 00 06    	return    

000011fc <L23>:
    11fc:	99 02 ba    	tblrdl.w  [w9], w5
    11fe:	05 5d 78    	mov.b     w5, [w10++]
    1200:	8b 05 e9    	dec.w     w11, w11
    1202:	f7 ff 32    	bra       Z, 0x11f2 <L42>
    1204:	c8 2a de    	lsr.w     w5, #0x8, w5
    1206:	05 5d 78    	mov.b     w5, [w10++]
    1208:	8b 05 e9    	dec.w     w11, w11
    120a:	f3 ff 32    	bra       Z, 0x11f2 <L42>
    120c:	0c 00 e0    	cp0.w     w12
    120e:	f1 ff 32    	bra       Z, 0x11f2 <L42>
    1210:	19 dd ba    	tblrdh.b  [w9], [w10++]
    1212:	ee ff 37    	bra       0x11f0 <L34>

00001214 <.handle>:
    1214:	aa 1c 04    	goto      0x1caa <_vendor_requests>
    1216:	00 00 00 
    1218:	ca 12 04    	goto      0x12ca <_usb_set_address_callback>
    121a:	00 00 00 
    121c:	10 1b 04    	goto      0x1b10 <_usb_send_data_packet>
    121e:	00 00 00 

00001220 <__crt_start_mode>:
    1220:	00 00 05    	retlw.w   #0x0, w0
Disassembly of section .application_ivt:

00001000 <__DEFAULT_VECTOR-0x10c>:
    1000:	10 11 04    	goto      0x1110 <__reset>
    1002:	00 00 00 
    1004:	0e 1f 04    	goto      0x1f0e <__DefaultInterrupt>
    1006:	00 00 00 
    1008:	0e 1f 04    	goto      0x1f0e <__DefaultInterrupt>
    100a:	00 00 00 
    100c:	0e 1f 04    	goto      0x1f0e <__DefaultInterrupt>
    100e:	00 00 00 
    1010:	0e 1f 04    	goto      0x1f0e <__DefaultInterrupt>
    1012:	00 00 00 
    1014:	0e 1f 04    	goto      0x1f0e <__DefaultInterrupt>
    1016:	00 00 00 
    1018:	0e 1f 04    	goto      0x1f0e <__DefaultInterrupt>
    101a:	00 00 00 
    101c:	0e 1f 04    	goto      0x1f0e <__DefaultInterrupt>
    101e:	00 00 00 
    1020:	0e 1f 04    	goto      0x1f0e <__DefaultInterrupt>
    1022:	00 00 00 
    1024:	0e 1f 04    	goto      0x1f0e <__DefaultInterrupt>
    1026:	00 00 00 
    1028:	0e 1f 04    	goto      0x1f0e <__DefaultInterrupt>
    102a:	00 00 00 
    102c:	0e 1f 04    	goto      0x1f0e <__DefaultInterrupt>
    102e:	00 00 00 
    1030:	0e 1f 04    	goto      0x1f0e <__DefaultInterrupt>
    1032:	00 00 00 
    1034:	0e 1f 04    	goto      0x1f0e <__DefaultInterrupt>
    1036:	00 00 00 
    1038:	0e 1f 04    	goto      0x1f0e <__DefaultInterrupt>
    103a:	00 00 00 
    103c:	0e 1f 04    	goto      0x1f0e <__DefaultInterrupt>
    103e:	00 00 00 
    1040:	0e 1f 04    	goto      0x1f0e <__DefaultInterrupt>
    1042:	00 00 00 
    1044:	0e 1f 04    	goto      0x1f0e <__DefaultInterrupt>
    1046:	00 00 00 
    1048:	0e 1f 04    	goto      0x1f0e <__DefaultInterrupt>
    104a:	00 00 00 
    104c:	0e 1f 04    	goto      0x1f0e <__DefaultInterrupt>
    104e:	00 00 00 
    1050:	0e 1f 04    	goto      0x1f0e <__DefaultInterrupt>
    1052:	00 00 00 
    1054:	0e 1f 04    	goto      0x1f0e <__DefaultInterrupt>
    1056:	00 00 00 
    1058:	0e 1f 04    	goto      0x1f0e <__DefaultInterrupt>
    105a:	00 00 00 
    105c:	0e 1f 04    	goto      0x1f0e <__DefaultInterrupt>
    105e:	00 00 00 
    1060:	0e 1f 04    	goto      0x1f0e <__DefaultInterrupt>
    1062:	00 00 00 
    1064:	0e 1f 04    	goto      0x1f0e <__DefaultInterrupt>
    1066:	00 00 00 
    1068:	0e 1f 04    	goto      0x1f0e <__DefaultInterrupt>
    106a:	00 00 00 
    106c:	0e 1f 04    	goto      0x1f0e <__DefaultInterrupt>
    106e:	00 00 00 
    1070:	0e 1f 04    	goto      0x1f0e <__DefaultInterrupt>
    1072:	00 00 00 
    1074:	0e 1f 04    	goto      0x1f0e <__DefaultInterrupt>
    1076:	00 00 00 
    1078:	0e 1f 04    	goto      0x1f0e <__DefaultInterrupt>
    107a:	00 00 00 
    107c:	0e 1f 04    	goto      0x1f0e <__DefaultInterrupt>
    107e:	00 00 00 
    1080:	0e 1f 04    	goto      0x1f0e <__DefaultInterrupt>
    1082:	00 00 00 
    1084:	0e 1f 04    	goto      0x1f0e <__DefaultInterrupt>
    1086:	00 00 00 
    1088:	0e 1f 04    	goto      0x1f0e <__DefaultInterrupt>
    108a:	00 00 00 
    108c:	0e 1f 04    	goto      0x1f0e <__DefaultInterrupt>
    108e:	00 00 00 
    1090:	0e 1f 04    	goto      0x1f0e <__DefaultInterrupt>
    1092:	00 00 00 
    1094:	0e 1f 04    	goto      0x1f0e <__DefaultInterrupt>
    1096:	00 00 00 
    1098:	0e 1f 04    	goto      0x1f0e <__DefaultInterrupt>
    109a:	00 00 00 
    109c:	0e 1f 04    	goto      0x1f0e <__DefaultInterrupt>
    109e:	00 00 00 
    10a0:	0e 1f 04    	goto      0x1f0e <__DefaultInterrupt>
    10a2:	00 00 00 
    10a4:	0e 1f 04    	goto      0x1f0e <__DefaultInterrupt>
    10a6:	00 00 00 
    10a8:	0e 1f 04    	goto      0x1f0e <__DefaultInterrupt>
    10aa:	00 00 00 
    10ac:	0e 1f 04    	goto      0x1f0e <__DefaultInterrupt>
    10ae:	00 00 00 
    10b0:	0e 1f 04    	goto      0x1f0e <__DefaultInterrupt>
    10b2:	00 00 00 
    10b4:	0e 1f 04    	goto      0x1f0e <__DefaultInterrupt>
    10b6:	00 00 00 
    10b8:	0e 1f 04    	goto      0x1f0e <__DefaultInterrupt>
    10ba:	00 00 00 
    10bc:	0e 1f 04    	goto      0x1f0e <__DefaultInterrupt>
    10be:	00 00 00 
    10c0:	0e 1f 04    	goto      0x1f0e <__DefaultInterrupt>
    10c2:	00 00 00 
    10c4:	0e 1f 04    	goto      0x1f0e <__DefaultInterrupt>
    10c6:	00 00 00 
    10c8:	0e 1f 04    	goto      0x1f0e <__DefaultInterrupt>
    10ca:	00 00 00 
    10cc:	0e 1f 04    	goto      0x1f0e <__DefaultInterrupt>
    10ce:	00 00 00 
    10d0:	0e 1f 04    	goto      0x1f0e <__DefaultInterrupt>
    10d2:	00 00 00 
    10d4:	0e 1f 04    	goto      0x1f0e <__DefaultInterrupt>
    10d6:	00 00 00 
    10d8:	0e 1f 04    	goto      0x1f0e <__DefaultInterrupt>
    10da:	00 00 00 
    10dc:	0e 1f 04    	goto      0x1f0e <__DefaultInterrupt>
    10de:	00 00 00 
    10e0:	0e 1f 04    	goto      0x1f0e <__DefaultInterrupt>
    10e2:	00 00 00 
    10e4:	0e 1f 04    	goto      0x1f0e <__DefaultInterrupt>
    10e6:	00 00 00 
    10e8:	0e 1f 04    	goto      0x1f0e <__DefaultInterrupt>
    10ea:	00 00 00 
    10ec:	ce 1e 04    	goto      0x1ece <__USB1Interrupt>
    10ee:	00 00 00 
    10f0:	0e 1f 04    	goto      0x1f0e <__DefaultInterrupt>
    10f2:	00 00 00 
    10f4:	0e 1f 04    	goto      0x1f0e <__DefaultInterrupt>
    10f6:	00 00 00 
    10f8:	0e 1f 04    	goto      0x1f0e <__DefaultInterrupt>
    10fa:	00 00 00 
    10fc:	0e 1f 04    	goto      0x1f0e <__DefaultInterrupt>
    10fe:	00 00 00 
    1100:	0e 1f 04    	goto      0x1f0e <__DefaultInterrupt>
    1102:	00 00 00 
    1104:	0e 1f 04    	goto      0x1f0e <__DefaultInterrupt>
    1106:	00 00 00 
    1108:	0e 1f 04    	goto      0x1f0e <__DefaultInterrupt>
    110a:	00 00 00 

0000110c <__DEFAULT_VECTOR>:
    110c:	0e 1f 04    	goto      0x1f0e <__DefaultInterrupt>
    110e:	00 00 00 
Disassembly of section .ivt:

00000004 <.ivt>:
   4:	04 10 00    	nop       
   6:	08 10 00    	nop       
   8:	0c 10 00    	nop       
   a:	10 10 00    	nop       
   c:	14 10 00    	nop       
   e:	0c 11 00    	nop       
  10:	0c 11 00    	nop       
  12:	0c 11 00    	nop       
  14:	18 10 00    	nop       
  16:	1c 10 00    	nop       
  18:	20 10 00    	nop       
  1a:	24 10 00    	nop       
  1c:	0c 11 00    	nop       
  1e:	28 10 00    	nop       
  20:	2c 10 00    	nop       
  22:	30 10 00    	nop       
  24:	34 10 00    	nop       
  26:	38 10 00    	nop       
  28:	3c 10 00    	nop       
  2a:	40 10 00    	nop       
  2c:	44 10 00    	nop       
  2e:	48 10 00    	nop       
  30:	0c 11 00    	nop       
  32:	0c 11 00    	nop       
  34:	4c 10 00    	nop       
  36:	50 10 00    	nop       
  38:	54 10 00    	nop       
  3a:	58 10 00    	nop       
  3c:	5c 10 00    	nop       
  3e:	0c 11 00    	nop       
  40:	60 10 00    	nop       
  42:	64 10 00    	nop       
  44:	0c 11 00    	nop       
  46:	68 10 00    	nop       
  48:	6c 10 00    	nop       
  4a:	70 10 00    	nop       
  4c:	74 10 00    	nop       
  4e:	78 10 00    	nop       
  50:	7c 10 00    	nop       
  52:	80 10 00    	nop       
  54:	84 10 00    	nop       
  56:	88 10 00    	nop       
  58:	0c 11 00    	nop       
  5a:	0c 11 00    	nop       
  5c:	0c 11 00    	nop       
  5e:	8c 10 00    	nop       
  60:	90 10 00    	nop       
  62:	94 10 00    	nop       
  64:	98 10 00    	nop       
  66:	9c 10 00    	nop       
  68:	a0 10 00    	nop       
  6a:	a4 10 00    	nop       
  6c:	a8 10 00    	nop       
  6e:	ac 10 00    	nop       
  70:	0c 11 00    	nop       
  72:	0c 11 00    	nop       
  74:	0c 11 00    	nop       
  76:	b0 10 00    	nop       
  78:	b4 10 00    	nop       
  7a:	0c 11 00    	nop       
  7c:	0c 11 00    	nop       
  7e:	b8 10 00    	nop       
  80:	bc 10 00    	nop       
  82:	0c 11 00    	nop       
  84:	0c 11 00    	nop       
  86:	0c 11 00    	nop       
  88:	0c 11 00    	nop       
  8a:	0c 11 00    	nop       
  8c:	0c 11 00    	nop       
  8e:	0c 11 00    	nop       
  90:	c0 10 00    	nop       
  92:	0c 11 00    	nop       
  94:	0c 11 00    	nop       
  96:	c4 10 00    	nop       
  98:	c8 10 00    	nop       
  9a:	cc 10 00    	nop       
  9c:	0c 11 00    	nop       
  9e:	0c 11 00    	nop       
  a0:	0c 11 00    	nop       
  a2:	0c 11 00    	nop       
  a4:	d0 10 00    	nop       
  a6:	0c 11 00    	nop       
  a8:	0c 11 00    	nop       
  aa:	0c 11 00    	nop       
  ac:	0c 11 00    	nop       
  ae:	d4 10 00    	nop       
  b0:	0c 11 00    	nop       
  b2:	0c 11 00    	nop       
  b4:	0c 11 00    	nop       
  b6:	d8 10 00    	nop       
  b8:	dc 10 00    	nop       
  ba:	e0 10 00    	nop       
  bc:	e4 10 00    	nop       
  be:	e8 10 00    	nop       
  c0:	ec 10 00    	nop       
  c2:	f0 10 00    	nop       
  c4:	f4 10 00    	nop       
  c6:	f8 10 00    	nop       
  c8:	fc 10 00    	nop       
  ca:	00 11 00    	nop       
  cc:	04 11 00    	nop       
  ce:	08 11 00    	nop       
  d0:	0c 11 00    	nop       
  d2:	0c 11 00    	nop       
  d4:	0c 11 00    	nop       
  d6:	0c 11 00    	nop       
  d8:	0c 11 00    	nop       
  da:	0c 11 00    	nop       
  dc:	0c 11 00    	nop       
  de:	0c 11 00    	nop       
  e0:	0c 11 00    	nop       
  e2:	0c 11 00    	nop       
  e4:	0c 11 00    	nop       
  e6:	0c 11 00    	nop       
  e8:	0c 11 00    	nop       
  ea:	0c 11 00    	nop       
  ec:	0c 11 00    	nop       
  ee:	0c 11 00    	nop       
  f0:	0c 11 00    	nop       
  f2:	0c 11 00    	nop       
  f4:	0c 11 00    	nop       
  f6:	0c 11 00    	nop       
  f8:	0c 11 00    	nop       
  fa:	0c 11 00    	nop       
  fc:	0c 11 00    	nop       
  fe:	0c 11 00    	nop       
Disassembly of section .const:

00009222 <_Device>:
    9222:	12 01       	.word 0x112
    9224:	00 02       	.word 0x200
    9226:	00 00       	.word 0
    9228:	00 40       	.word 0x4000
    922a:	66 66       	.word 0x6666
    922c:	03 00       	.word 0x3
    922e:	00 00       	.word 0
    9230:	01 02       	.word 0x201
    9232:	00 01       	.word 0x100

00009234 <_Configuration1>:
    9234:	09 02       	.word 0x209
    9236:	12 00       	.word 0x12
    9238:	01 01       	.word 0x101
    923a:	00 a0       	.word 0xa000
    923c:	32 09       	.word 0x932
    923e:	04 00       	.word 0x4
    9240:	00 00       	.word 0
    9242:	ff 00       	.word 0xff
    9244:	ff 00       	.word 0xff

00009246 <_Configurations>:
    9246:	34 92       	.word 0x9234

00009248 <_String0>:
    9248:	04 03       	.word 0x304
    924a:	09 04       	.word 0x409

0000924c <_String1>:
    924c:	1a 03       	.word 0x31a
    924e:	4f 00       	.word 0x4f
    9250:	6c 00       	.word 0x6c
    9252:	69 00       	.word 0x69
    9254:	6e 00       	.word 0x6e
    9256:	20 00       	.word 0x20
    9258:	43 00       	.word 0x43
    925a:	6f 00       	.word 0x6f
    925c:	6c 00       	.word 0x6c
    925e:	6c 00       	.word 0x6c
    9260:	65 00       	.word 0x65
    9262:	67 00       	.word 0x67
    9264:	65 00       	.word 0x65

00009266 <_String2>:
    9266:	20 03       	.word 0x320
    9268:	50 00       	.word 0x50
    926a:	49 00       	.word 0x49
    926c:	43 00       	.word 0x43
    926e:	32 00       	.word 0x32
    9270:	34 00       	.word 0x34
    9272:	46 00       	.word 0x46
    9274:	4a 00       	.word 0x4a
    9276:	31 00       	.word 0x31
    9278:	32 00       	.word 0x32
    927a:	38 00       	.word 0x38
    927c:	47 00       	.word 0x47
    927e:	42 00       	.word 0x42
    9280:	32 00       	.word 0x32
    9282:	30 00       	.word 0x30
    9284:	36 00       	.word 0x36

00009286 <_Strings>:
    9286:	48 92       	.word 0x9248
    9288:	4c 92       	.word 0x924c
    928a:	66 92       	.word 0x9266
Disassembly of section .text:

0000128c <_usb_disable_endpoints>:
    usb_service();
}
#endif

void usb_disable_endpoints(uint8_t starting_ep) {
    128c:	06 00 fa    	lnk       #0x6
    128e:	40 47 98    	mov.b     w0, [w14+4]
    uint16_t *U1EP;
    uint8_t ep;

    U1EP = (uint16_t *)&U1EP0;
    1290:	a0 4a 20    	mov.w     #0x4aa, w0
    1292:	10 07 98    	mov.w     w0, [w14+2]
    for (ep = starting_ep; ep < 16; ep++) {
    1294:	ce 40 90    	mov.b     [w14+4], w1
    1296:	01 4f 78    	mov.b     w1, [w14]
    1298:	13 00 37    	bra       0x12c0 <.L3>

0000129a <.L4>:
        U1EP[ep] = ENDPT_DISABLED;
    129a:	1e 80 fb    	ze        [w14], w0
    129c:	00 00 40    	add.w     w0, w0, w0
    129e:	9e 00 90    	mov.w     [w14+2], w1
    12a0:	00 80 40    	add.w     w1, w0, w0
    12a2:	80 00 eb    	clr.w     w1
    12a4:	01 08 78    	mov.w     w1, [w0]
        USB_in_callbacks[ep] = (USB_CALLBACK_T)NULL;
    12a6:	1e 80 fb    	ze        [w14], w0
    12a8:	80 00 40    	add.w     w0, w0, w1
    12aa:	80 8a 20    	mov.w     #0x8a8, w0
    12ac:	00 80 40    	add.w     w1, w0, w0
    12ae:	80 00 eb    	clr.w     w1
    12b0:	01 08 78    	mov.w     w1, [w0]
        USB_out_callbacks[ep] = (USB_CALLBACK_T)NULL;
    12b2:	1e 80 fb    	ze        [w14], w0
    12b4:	80 00 40    	add.w     w0, w0, w1
    12b6:	80 8c 20    	mov.w     #0x8c8, w0
    12b8:	00 80 40    	add.w     w1, w0, w0
    12ba:	80 00 eb    	clr.w     w1
    12bc:	01 08 78    	mov.w     w1, [w0]
    12be:	1e 4f e8    	inc.b     [w14], [w14]

000012c0 <.L3>:
    12c0:	1e 40 78    	mov.b     [w14], w0
    12c2:	ef 4f 50    	sub.b     w0, #0xf, [w15]
    12c4:	ea ff 36    	bra       LEU, 0x129a <.L4>
    }
}
    12c6:	00 80 fa    	ulnk      
    12c8:	00 00 06    	return    

000012ca <_usb_set_address_callback>:

void usb_set_address_callback(void) {
    12ca:	00 00 fa    	lnk       #0x0
    switch (U1ADDR = USB_request.setup.wValue.b[0]) {
    12cc:	c0 89 20    	mov.w     #0x89c, w0
    12ce:	10 40 78    	mov.b     [w0], w0
    12d0:	00 80 fb    	ze        w0, w0
    12d2:	b0 24 88    	mov.w     w0, 0x496
    12d4:	b0 24 80    	mov.w     0x496, w0
    12d6:	00 00 e0    	cp0.w     w0
    12d8:	03 00 3a    	bra       NZ, 0x12e0 <.L9>
        case 0:
            USB_USWSTAT = DEFAULT_STATE;
    12da:	10 c0 b3    	mov.b     #0x1, w0
    12dc:	10 e8 b7    	mov.b     WREG, 0x810
            break;
    12de:	02 00 37    	bra       0x12e4 <.L8>

000012e0 <.L9>:
        default:
            USB_USWSTAT = ADDRESS_STATE;
    12e0:	20 c0 b3    	mov.b     #0x2, w0
    12e2:	10 e8 b7    	mov.b     WREG, 0x810

000012e4 <.L8>:
    }
    USB_in_callbacks[0] = (USB_CALLBACK_T)NULL;
    12e4:	00 00 eb    	clr.w     w0
    12e6:	40 45 88    	mov.w     w0, 0x8a8
}
    12e8:	00 80 fa    	ulnk      
    12ea:	00 00 06    	return    

000012ec <_init_usb>:

void init_usb(void) {
    12ec:	00 00 fa    	lnk       #0x0
    IEC5bits.USB1IE = 0;                    // disable USB interrupt
    12ee:	9e c0 a9    	bclr.b    0x9e, #0x6

    U1CONbits.PPBRST = 1;
    12f0:	94 24 a8    	bset.b    0x494, #0x1
    U1ADDR = 0;
    12f2:	96 24 ef    	clr.w     0x496
    U1EIR = 0xFF;
    12f4:	f0 0f 20    	mov.w     #0xff, w0
    12f6:	70 24 88    	mov.w     w0, 0x48e
    U1CONbits.PPBRST = 0;
    12f8:	94 24 a9    	bclr.b    0x494, #0x1
    usb_disable_endpoints(0);               // disable all endpoints
    12fa:	00 40 eb    	clr.b     w0
    12fc:	c7 ff 07    	rcall     0x128c <_usb_disable_endpoints> <.L0> <.LFB1> <.Ltext0>
    U1EP0 = ENDPT_CONTROL;
    12fe:	d0 00 20    	mov.w     #0xd, w0
    1300:	50 25 88    	mov.w     w0, 0x4aa
    BD[EP0OUT].bytecount = MAX_PACKET_SIZE;
    1302:	00 a0 20    	mov.w     #0xa00, w0
    1304:	01 c4 b3    	mov.b     #0x40, w1
    1306:	01 48 78    	mov.b     w1, [w0]
    BD[EP0OUT].address = EP0_OUT_buffer;    // EP0 OUT gets a buffer
    1308:	a0 81 20    	mov.w     #0x81a, w0
    130a:	10 50 88    	mov.w     w0, 0xa02
    BD[EP0OUT].status = UOWN | DTSEN;       // set UOWN bit (USB can write)
    130c:	10 a0 20    	mov.w     #0xa01, w0
    130e:	81 c8 b3    	mov.b     #0x88, w1
    1310:	01 48 78    	mov.b     w1, [w0]
    BD[EP0IN].address = EP0_IN_buffer;      // EP0 IN gets a buffer
    1312:	a0 85 20    	mov.w     #0x85a, w0
    1314:	30 50 88    	mov.w     w0, 0xa06
    BD[EP0IN].status = DTSEN;               // clear UOWN bit (MCU can write)
    1316:	50 a0 20    	mov.w     #0xa05, w0
    1318:	81 c0 b3    	mov.b     #0x8, w1
    131a:	01 48 78    	mov.b     w1, [w0]
    U1CNFG1 = 0;
    131c:	a6 24 ef    	clr.w     0x4a6
    U1CNFG2 = 0;
    131e:	a8 24 ef    	clr.w     0x4a8
    U1BDTP1 = (uint16_t)BD >> 8;
    1320:	00 a0 20    	mov.w     #0xa00, w0
    1322:	48 00 de    	lsr.w     w0, #0x8, w0
    1324:	c0 24 88    	mov.w     w0, 0x498
    U1OTGCONbits.OTGEN = 1;
    1326:	86 44 a8    	bset.b    0x486, #0x2
    U1OTGCONbits.DPPULUP = 1;
    1328:	86 e4 a8    	bset.b    0x486, #0x7
    U1PWRCbits.USBPWR = 1;
    132a:	88 04 a8    	bset.b    0x488, #0x0
    U1CONbits.PKTDIS = 0;
    132c:	94 a4 a9    	bclr.b    0x494, #0x5
    USB_curr_config = 0;
    132e:	0d 68 ef    	clr.b     0x80d
    USB_USWSTAT = POWERED_STATE;
    1330:	10 68 ef    	clr.b     0x810
    USB_device_status = 1;
    1332:	10 c0 b3    	mov.b     #0x1, w0
    1334:	0e e8 b7    	mov.b     WREG, 0x80e
    USB_request.setup.bmRequestType = NO_REQUEST;
    1336:	a0 89 20    	mov.w     #0x89a, w0
    1338:	80 c0 eb    	setm.b    w1
    133a:	01 48 78    	mov.b     w1, [w0]
    USB_request.setup.bRequest = NO_REQUEST;
    133c:	b0 89 20    	mov.w     #0x89b, w0
    133e:	80 c0 eb    	setm.b    w1
    1340:	01 48 78    	mov.b     w1, [w0]
    USB_request.bytes_left.w = 0;
    1342:	00 00 eb    	clr.w     w0
    1344:	20 45 88    	mov.w     w0, 0x8a4
    USB_request.done_callback = (USB_CALLBACK_T)NULL;
    1346:	00 00 eb    	clr.w     w0
    1348:	30 45 88    	mov.w     w0, 0x8a6
    while (U1CONbits.SE0) {}
    134a:	00 00 00    	nop       

0000134c <.L11>:
    134c:	a1 24 80    	mov.w     0x494, w1
    134e:	00 04 20    	mov.w     #0x40, w0
    1350:	00 80 60    	and.w     w1, w0, w0
    1352:	00 00 e0    	cp0.w     w0
    1354:	fb ff 3a    	bra       NZ, 0x134c <.L11>

#ifdef USB_INTERRUPT
    U1IE = 0xFF;
    1356:	f0 0f 20    	mov.w     #0xff, w0
    1358:	60 24 88    	mov.w     w0, 0x48c
    U1EIE = 0xFF;
    135a:	f0 0f 20    	mov.w     #0xff, w0
    135c:	80 24 88    	mov.w     w0, 0x490
    IFS5bits.USB1IF = 0;
    135e:	8e c0 a9    	bclr.b    0x8e, #0x6
    IEC5bits.USB1IE = 1;
    1360:	9e c0 a8    	bset.b    0x9e, #0x6
#endif
}
    1362:	00 80 fa    	ulnk      
    1364:	00 00 06    	return    

00001366 <_usb_service>:

void usb_service(void) {
    1366:	04 00 fa    	lnk       #0x4
    BUFDESC *buf_desc_ptr;
    uint8_t ep;

    if (U1IRbits.UERRIF) {
    1368:	50 24 80    	mov.w     0x48a, w0
    136a:	62 00 60    	and.w     w0, #0x2, w0
    136c:	00 00 e0    	cp0.w     w0
    136e:	05 00 32    	bra       Z, 0x137a <.L13>
        U1EIR = 0xFF;                       // clear all flags in U1EIR to clear U1EIR
    1370:	f0 0f 20    	mov.w     #0xff, w0
    1372:	70 24 88    	mov.w     w0, 0x48e
        U1IR = U1IR_UERRIF;                 // clear UERRIF
    1374:	20 00 20    	mov.w     #0x2, w0
    1376:	50 24 88    	mov.w     w0, 0x48a
    1378:	ba 00 37    	bra       0x14ee <.L14>

0000137a <.L13>:
    } else if (U1IRbits.SOFIF) {
    137a:	50 24 80    	mov.w     0x48a, w0
    137c:	64 00 60    	and.w     w0, #0x4, w0
    137e:	00 00 e0    	cp0.w     w0
    1380:	03 00 32    	bra       Z, 0x1388 <.L15>
        U1IR = U1IR_SOFIF;                  // clear SOFIF
    1382:	40 00 20    	mov.w     #0x4, w0
    1384:	50 24 88    	mov.w     w0, 0x48a
    1386:	b3 00 37    	bra       0x14ee <.L14>

00001388 <.L15>:
    } else if (U1IRbits.IDLEIF) {
    1388:	50 24 80    	mov.w     0x48a, w0
    138a:	70 00 60    	and.w     w0, #0x10, w0
    138c:	00 00 e0    	cp0.w     w0
    138e:	03 00 32    	bra       Z, 0x1396 <.L16>
        U1IR = U1IR_IDLEIF;                 // clear IDLEIF
    1390:	00 01 20    	mov.w     #0x10, w0
    1392:	50 24 88    	mov.w     w0, 0x48a
    1394:	ac 00 37    	bra       0x14ee <.L14>

00001396 <.L16>:
//      U1PWRCbits.USUSPND = 1;             // put USB module in suspend mode
    } else if (U1IRbits.RESUMEIF) {
    1396:	51 24 80    	mov.w     0x48a, w1
    1398:	00 02 20    	mov.w     #0x20, w0
    139a:	00 80 60    	and.w     w1, w0, w0
    139c:	00 00 e0    	cp0.w     w0
    139e:	03 00 32    	bra       Z, 0x13a6 <.L17>
        U1IR = U1IR_RESUMEIF;               // clear RESUMEIF
    13a0:	00 02 20    	mov.w     #0x20, w0
    13a2:	50 24 88    	mov.w     w0, 0x48a
    13a4:	a4 00 37    	bra       0x14ee <.L14>

000013a6 <.L17>:
//      U1PWRCbits.USUSPND = 0;             // resume USB module operation
    } else if (U1IRbits.STALLIF) {
    13a6:	51 24 80    	mov.w     0x48a, w1
    13a8:	00 08 20    	mov.w     #0x80, w0
    13aa:	00 80 60    	and.w     w1, w0, w0
    13ac:	00 00 e0    	cp0.w     w0
    13ae:	03 00 32    	bra       Z, 0x13b6 <.L18>
        U1IR = U1IR_STALLIF;                // clear STALLIF
    13b0:	00 08 20    	mov.w     #0x80, w0
    13b2:	50 24 88    	mov.w     w0, 0x48a
    13b4:	9c 00 37    	bra       0x14ee <.L14>

000013b6 <.L18>:
    } else if (U1IRbits.URSTIF) {
    13b6:	50 24 80    	mov.w     0x48a, w0
    13b8:	61 00 60    	and.w     w0, #0x1, w0
    13ba:	00 00 e0    	cp0.w     w0
    13bc:	27 00 32    	bra       Z, 0x140c <.L19>
        USB_curr_config = 0;
    13be:	0d 68 ef    	clr.b     0x80d
        while (U1IRbits.TRNIF) {
    13c0:	08 00 37    	bra       0x13d2 <.L20>

000013c2 <.L21>:
            U1IR = U1IR_TRNIF;              // clear TRNIF to advance the U1STAT FIFO
    13c2:	80 00 20    	mov.w     #0x8, w0
    13c4:	50 24 88    	mov.w     w0, 0x48a
	...

000013d2 <.L20>:
    13d2:	50 24 80    	mov.w     0x48a, w0
    13d4:	68 00 60    	and.w     w0, #0x8, w0
    13d6:	00 00 e0    	cp0.w     w0
    13d8:	f4 ff 3a    	bra       NZ, 0x13c2 <.L21>
            __builtin_nop();                // wait for six instruction cycles...
            __builtin_nop();
            __builtin_nop();
            __builtin_nop();
            __builtin_nop();
            __builtin_nop();                // ...to allow a pending TRNIF to appear
        }
        usb_disable_endpoints(0);           // disable all endpoints
    13da:	00 40 eb    	clr.b     w0
    13dc:	57 ff 07    	rcall     0x128c <_usb_disable_endpoints> <.L0> <.LFB1> <.Ltext0>
        BD[EP0OUT].bytecount = MAX_PACKET_SIZE;
    13de:	00 a0 20    	mov.w     #0xa00, w0
    13e0:	01 c4 b3    	mov.b     #0x40, w1
    13e2:	01 48 78    	mov.b     w1, [w0]
        BD[EP0OUT].address = EP0_OUT_buffer;    // EP0 OUT gets a buffer
    13e4:	a0 81 20    	mov.w     #0x81a, w0
    13e6:	10 50 88    	mov.w     w0, 0xa02
        BD[EP0OUT].status = UOWN | DTSEN;   // set UOWN bit (USB can write)
    13e8:	10 a0 20    	mov.w     #0xa01, w0
    13ea:	81 c8 b3    	mov.b     #0x88, w1
    13ec:	01 48 78    	mov.b     w1, [w0]
        BD[EP0IN].address = EP0_IN_buffer;  // EP0 IN gets a buffer
    13ee:	a0 85 20    	mov.w     #0x85a, w0
    13f0:	30 50 88    	mov.w     w0, 0xa06
        BD[EP0IN].status = DTSEN;           // clear UOWN bit (MCU can write)
    13f2:	50 a0 20    	mov.w     #0xa05, w0
    13f4:	81 c0 b3    	mov.b     #0x8, w1
    13f6:	01 48 78    	mov.b     w1, [w0]
        U1ADDR = 0;                         // set USB Address to 0
    13f8:	96 24 ef    	clr.w     0x496
        U1IR = 0xFF;                        // clear all the USB interrupt flags
    13fa:	f0 0f 20    	mov.w     #0xff, w0
    13fc:	50 24 88    	mov.w     w0, 0x48a
        U1EP0 = ENDPT_CONTROL;              // EP0 is a control pipe and requires an ACK
    13fe:	d0 00 20    	mov.w     #0xd, w0
    1400:	50 25 88    	mov.w     w0, 0x4aa
//      U1EIE = 0x00FF;                     // enable all USB error interrupts
        USB_USWSTAT = DEFAULT_STATE;
    1402:	10 c0 b3    	mov.b     #0x1, w0
    1404:	10 e8 b7    	mov.b     WREG, 0x810
        USB_device_status = 1;              // self powered, remote wakeup disabled
    1406:	10 c0 b3    	mov.b     #0x1, w0
    1408:	0e e8 b7    	mov.b     WREG, 0x80e
    140a:	71 00 37    	bra       0x14ee <.L14>

0000140c <.L19>:
    } else if (U1IRbits.TRNIF) {
    140c:	50 24 80    	mov.w     0x48a, w0
    140e:	68 00 60    	and.w     w0, #0x8, w0
    1410:	00 00 e0    	cp0.w     w0
    1412:	6d 00 32    	bra       Z, 0x14ee <.L14>
        buf_desc_ptr = &BD[U1STAT >> 3];    // ENDPT and DIR bits of U1STAT provide the offset into the buffer descriptor table
    1414:	90 24 80    	mov.w     0x492, w0
    1416:	43 00 de    	lsr.w     w0, #0x3, w0
    1418:	c2 00 dd    	sl.w      w0, #0x2, w1
    141a:	00 a0 20    	mov.w     #0xa00, w0
    141c:	00 8f 40    	add.w     w1, w0, [w14]
        USB_buffer_desc.status = buf_desc_ptr->status;
    141e:	1e 00 78    	mov.w     [w14], w0
    1420:	10 40 90    	mov.b     [w0+1], w0
    1422:	01 e8 b7    	mov.b     WREG, 0x801
        USB_buffer_desc.bytecount = buf_desc_ptr->bytecount;
    1424:	1e 00 78    	mov.w     [w14], w0
    1426:	10 40 78    	mov.b     [w0], w0
    1428:	00 e8 b7    	mov.b     WREG, 0x800
        USB_buffer_desc.address = buf_desc_ptr->address;
    142a:	1e 00 78    	mov.w     [w14], w0
    142c:	10 00 90    	mov.w     [w0+2], w0
    142e:	10 40 88    	mov.w     w0, 0x802
        USB_USTAT = U1STAT;                 // save the USB status register
    1430:	90 24 80    	mov.w     0x492, w0
    1432:	00 40 78    	mov.b     w0, w0
    1434:	0f e8 b7    	mov.b     WREG, 0x80f
        U1IR = U1IR_TRNIF;                  // clear TRNIF
    1436:	80 00 20    	mov.w     #0x8, w0
    1438:	50 24 88    	mov.w     w0, 0x48a
        USB_error_flags = 0;                // clear USB error flags
    143a:	0c 68 ef    	clr.b     0x80c
        switch (USB_buffer_desc.status & 0x3C) {    // extract PID bits
    143c:	01 c8 bf    	mov.b     0x801, WREG
    143e:	80 80 fb    	ze        w0, w1
    1440:	c0 03 20    	mov.w     #0x3c, w0
    1442:	00 80 60    	and.w     w1, w0, w0
    1444:	41 02 20    	mov.w     #0x24, w1
    1446:	81 0f 50    	sub.w     w0, w1, [w15]
    1448:	08 00 32    	bra       Z, 0x145a <.L24>
    144a:	41 03 20    	mov.w     #0x34, w1
    144c:	81 0f 50    	sub.w     w0, w1, [w15]
    144e:	03 00 32    	bra       Z, 0x1456 <.L25>
    1450:	e4 0f 50    	sub.w     w0, #0x4, [w15]
    1452:	17 00 32    	bra       Z, 0x1482 <.L23>
    1454:	3d 00 37    	bra       0x14d0 <.L22>

00001456 <.L25>:
            case TOKEN_SETUP:
                usb_process_setup_token();
    1456:	4e 00 07    	rcall     0x14f4 <_usb_process_setup_token> <.LFB5> <.LFE4>
                break;
    1458:	3b 00 37    	bra       0x14d0 <.L22>

0000145a <.L24>:
            case TOKEN_IN:
                ep = (USB_USTAT >> 4) & 0x0F;
    145a:	0f c8 bf    	mov.b     0x80f, WREG
    145c:	00 80 fb    	ze        w0, w0
    145e:	44 00 de    	lsr.w     w0, #0x4, w0
    1460:	20 47 98    	mov.b     w0, [w14+2]
                if (USB_in_callbacks[ep])
    1462:	2e 40 90    	mov.b     [w14+2], w0
    1464:	00 80 fb    	ze        w0, w0
    1466:	80 00 40    	add.w     w0, w0, w1
    1468:	80 8a 20    	mov.w     #0x8a8, w0
    146a:	00 80 40    	add.w     w1, w0, w0
    146c:	10 00 78    	mov.w     [w0], w0
    146e:	00 00 e0    	cp0.w     w0
    1470:	2e 00 32    	bra       Z, 0x14ce <.L28>
                    USB_in_callbacks[ep]();
    1472:	2e 40 90    	mov.b     [w14+2], w0
    1474:	00 80 fb    	ze        w0, w0
    1476:	80 00 40    	add.w     w0, w0, w1
    1478:	80 8a 20    	mov.w     #0x8a8, w0
    147a:	00 80 40    	add.w     w1, w0, w0
    147c:	10 00 78    	mov.w     [w0], w0
    147e:	00 00 01    	call      w0
                break;
    1480:	27 00 37    	bra       0x14d0 <.L22>

00001482 <.L23>:
            case TOKEN_OUT:
                ep = (USB_USTAT >> 4) & 0x0F;
    1482:	0f c8 bf    	mov.b     0x80f, WREG
    1484:	00 80 fb    	ze        w0, w0
    1486:	44 00 de    	lsr.w     w0, #0x4, w0
    1488:	20 47 98    	mov.b     w0, [w14+2]
                if (USB_out_callbacks[ep])
    148a:	2e 40 90    	mov.b     [w14+2], w0
    148c:	00 80 fb    	ze        w0, w0
    148e:	80 00 40    	add.w     w0, w0, w1
    1490:	80 8c 20    	mov.w     #0x8c8, w0
    1492:	00 80 40    	add.w     w1, w0, w0
    1494:	10 00 78    	mov.w     [w0], w0
    1496:	00 00 e0    	cp0.w     w0
    1498:	07 00 32    	bra       Z, 0x14a8 <.L27>
                    USB_out_callbacks[ep]();
    149a:	2e 40 90    	mov.b     [w14+2], w0
    149c:	00 80 fb    	ze        w0, w0
    149e:	80 00 40    	add.w     w0, w0, w1
    14a0:	80 8c 20    	mov.w     #0x8c8, w0
    14a2:	00 80 40    	add.w     w1, w0, w0
    14a4:	10 00 78    	mov.w     [w0], w0
    14a6:	00 00 01    	call      w0

000014a8 <.L27>:
                if ((ep == 0) && (USB_request.bytes_left.w == 0)) {
    14a8:	2e 40 90    	mov.b     [w14+2], w0
    14aa:	00 04 e0    	cp0.b     w0
    14ac:	11 00 3a    	bra       NZ, 0x14d0 <.L22>
    14ae:	20 45 80    	mov.w     0x8a4, w0
    14b0:	00 00 e0    	cp0.w     w0
    14b2:	0e 00 3a    	bra       NZ, 0x14d0 <.L22>
                    BD[EP0OUT].bytecount = MAX_PACKET_SIZE; // reset EP0 OUT buffer
    14b4:	00 a0 20    	mov.w     #0xa00, w0
    14b6:	01 c4 b3    	mov.b     #0x40, w1
    14b8:	01 48 78    	mov.b     w1, [w0]
                    BD[EP0OUT].status = UOWN | DTSEN;
    14ba:	10 a0 20    	mov.w     #0xa01, w0
    14bc:	81 c8 b3    	mov.b     #0x88, w1
    14be:	01 48 78    	mov.b     w1, [w0]
                    BD[EP0IN].bytecount = 0;                // complete status phase of control transfer
    14c0:	40 a0 20    	mov.w     #0xa04, w0
    14c2:	80 40 eb    	clr.b     w1
    14c4:	01 48 78    	mov.b     w1, [w0]
                    BD[EP0IN].status = UOWN | DTS | DTSEN;  // send packet as DATA1, set UOWN bit
    14c6:	50 a0 20    	mov.w     #0xa05, w0
    14c8:	81 cc b3    	mov.b     #0xc8, w1
    14ca:	01 48 78    	mov.b     w1, [w0]
    14cc:	01 00 37    	bra       0x14d0 <.L22>

000014ce <.L28>:
    14ce:	00 00 00    	nop       

000014d0 <.L22>:
                }
        }
        if (USB_error_flags & REQUEST_ERROR) {      // if there was a Request Error...
    14d0:	0c c8 bf    	mov.b     0x80c, WREG
    14d2:	00 80 fb    	ze        w0, w0
    14d4:	61 00 60    	and.w     w0, #0x1, w0
    14d6:	00 40 78    	mov.b     w0, w0
    14d8:	00 04 e0    	cp0.b     w0
    14da:	09 00 32    	bra       Z, 0x14ee <.L14>
            BD[EP0OUT].bytecount = MAX_PACKET_SIZE; // ...get ready to receive the next Setup token...
    14dc:	00 a0 20    	mov.w     #0xa00, w0
    14de:	01 c4 b3    	mov.b     #0x40, w1
    14e0:	01 48 78    	mov.b     w1, [w0]
            BD[EP0IN].status = UOWN | BSTALL;
    14e2:	50 a0 20    	mov.w     #0xa05, w0
    14e4:	41 c8 b3    	mov.b     #0x84, w1
    14e6:	01 48 78    	mov.b     w1, [w0]
            BD[EP0OUT].status = UOWN | BSTALL;      // ...and issue a protocol stall on EP0
    14e8:	10 a0 20    	mov.w     #0xa01, w0
    14ea:	41 c8 b3    	mov.b     #0x84, w1
    14ec:	01 48 78    	mov.b     w1, [w0]

000014ee <.L14>:
        }
    }
    IFS5bits.USB1IF = 0;                    // clear USB Interrupt flag
    14ee:	8e c0 a9    	bclr.b    0x8e, #0x6
}
    14f0:	00 80 fa    	ulnk      
    14f2:	00 00 06    	return    

000014f4 <_usb_process_setup_token>:

void usb_process_setup_token(void) {
    14f4:	02 00 fa    	lnk       #0x2
    uint8_t *buf_ptr;

    buf_ptr = USB_buffer_desc.address;
    14f6:	11 40 80    	mov.w     0x802, w1
    14f8:	01 0f 78    	mov.w     w1, [w14]
    USB_setup.bmRequestType = *buf_ptr++;           // copy the setup packet received from the host
    14fa:	1e 00 78    	mov.w     [w14], w0
    14fc:	90 40 78    	mov.b     [w0], w1
    14fe:	40 80 20    	mov.w     #0x804, w0
    1500:	01 48 78    	mov.b     w1, [w0]
    1502:	1e 0f e8    	inc.w     [w14], [w14]
    USB_setup.bRequest = *buf_ptr++;
    1504:	1e 00 78    	mov.w     [w14], w0
    1506:	90 40 78    	mov.b     [w0], w1
    1508:	40 80 20    	mov.w     #0x804, w0
    150a:	11 40 98    	mov.b     w1, [w0+1]
    150c:	1e 0f e8    	inc.w     [w14], [w14]
    USB_setup.wValue.b[0] = *buf_ptr++;
    150e:	1e 00 78    	mov.w     [w14], w0
    1510:	90 40 78    	mov.b     [w0], w1
    1512:	40 80 20    	mov.w     #0x804, w0
    1514:	21 40 98    	mov.b     w1, [w0+2]
    1516:	1e 0f e8    	inc.w     [w14], [w14]
    USB_setup.wValue.b[1] = *buf_ptr++;
    1518:	1e 00 78    	mov.w     [w14], w0
    151a:	90 40 78    	mov.b     [w0], w1
    151c:	40 80 20    	mov.w     #0x804, w0
    151e:	31 40 98    	mov.b     w1, [w0+3]
    1520:	1e 0f e8    	inc.w     [w14], [w14]
    USB_setup.wIndex.b[0] = *buf_ptr++;
    1522:	1e 00 78    	mov.w     [w14], w0
    1524:	90 40 78    	mov.b     [w0], w1
    1526:	40 80 20    	mov.w     #0x804, w0
    1528:	41 40 98    	mov.b     w1, [w0+4]
    152a:	1e 0f e8    	inc.w     [w14], [w14]
    USB_setup.wIndex.b[1] = *buf_ptr++;
    152c:	1e 00 78    	mov.w     [w14], w0
    152e:	90 40 78    	mov.b     [w0], w1
    1530:	40 80 20    	mov.w     #0x804, w0
    1532:	51 40 98    	mov.b     w1, [w0+5]
    1534:	1e 0f e8    	inc.w     [w14], [w14]
    USB_setup.wLength.b[0] = *buf_ptr++;
    1536:	1e 00 78    	mov.w     [w14], w0
    1538:	90 40 78    	mov.b     [w0], w1
    153a:	40 80 20    	mov.w     #0x804, w0
    153c:	61 40 98    	mov.b     w1, [w0+6]
    153e:	1e 0f e8    	inc.w     [w14], [w14]
    USB_setup.wLength.b[1] = *buf_ptr++;
    1540:	1e 00 78    	mov.w     [w14], w0
    1542:	90 40 78    	mov.b     [w0], w1
    1544:	40 80 20    	mov.w     #0x804, w0
    1546:	71 40 98    	mov.b     w1, [w0+7]
    1548:	1e 0f e8    	inc.w     [w14], [w14]
    BD[EP0OUT].bytecount = MAX_PACKET_SIZE;         // reset the EP0 OUT byte count
    154a:	00 a0 20    	mov.w     #0xa00, w0
    154c:	01 c4 b3    	mov.b     #0x40, w1
    154e:	01 48 78    	mov.b     w1, [w0]
    BD[EP0IN].status = DTSEN;                       // return the EP0 IN buffer to us (dequeue any pending requests)
    1550:	50 a0 20    	mov.w     #0xa05, w0
    1552:	81 c0 b3    	mov.b     #0x8, w1
    1554:	01 48 78    	mov.b     w1, [w0]
    BD[EP0OUT].status = (!(USB_setup.bmRequestType & UOWN) && (USB_setup.wLength.w)) ? UOWN | DTS | DTSEN:0x88;    // set EP0 OUT UOWN back to USB and DATA0/DATA1 packet according to the request type
    1556:	40 80 20    	mov.w     #0x804, w0
    1558:	10 40 78    	mov.b     [w0], w0
    155a:	00 04 e0    	cp0.b     w0
    155c:	06 00 35    	bra       LT, 0x156a <.L30>
    155e:	40 80 20    	mov.w     #0x804, w0
    1560:	30 00 90    	mov.w     [w0+6], w0
    1562:	00 00 e0    	cp0.w     w0
    1564:	02 00 32    	bra       Z, 0x156a <.L30>
    1566:	80 cc b3    	mov.b     #0xc8, w0
    1568:	01 00 37    	bra       0x156c <.L31>

0000156a <.L30>:
    156a:	80 c8 b3    	mov.b     #0x88, w0

0000156c <.L31>:
    156c:	11 a0 20    	mov.w     #0xa01, w1
    156e:	80 48 78    	mov.b     w0, [w1]
    U1CONbits.PKTDIS = 0;                           // assuming there is nothing to dequeue, clear the packet disable bit
    1570:	94 a4 a9    	bclr.b    0x494, #0x5
    USB_request.setup.bmRequestType = NO_REQUEST;   // clear the device request in process
    1572:	a0 89 20    	mov.w     #0x89a, w0
    1574:	80 c0 eb    	setm.b    w1
    1576:	01 48 78    	mov.b     w1, [w0]
    USB_request.setup.bRequest = NO_REQUEST;
    1578:	b0 89 20    	mov.w     #0x89b, w0
    157a:	80 c0 eb    	setm.b    w1
    157c:	01 48 78    	mov.b     w1, [w0]
    USB_request.bytes_left.w = 0;
    157e:	00 00 eb    	clr.w     w0
    1580:	20 45 88    	mov.w     w0, 0x8a4
    USB_request.done_callback = (USB_CALLBACK_T)NULL;
    1582:	00 00 eb    	clr.w     w0
    1584:	30 45 88    	mov.w     w0, 0x8a6
    switch (USB_setup.bmRequestType & 0x60) {       // extract request type bits
    1586:	40 80 20    	mov.w     #0x804, w0
    1588:	10 40 78    	mov.b     [w0], w0
    158a:	80 80 fb    	ze        w0, w1
    158c:	00 06 20    	mov.w     #0x60, w0
    158e:	00 80 60    	and.w     w1, w0, w0
    1590:	01 02 20    	mov.w     #0x20, w1
    1592:	81 0f 50    	sub.w     w0, w1, [w15]
    1594:	11 00 32    	bra       Z, 0x15b8 <.L34>
    1596:	01 04 20    	mov.w     #0x40, w1
    1598:	81 0f 50    	sub.w     w0, w1, [w15]
    159a:	04 00 32    	bra       Z, 0x15a4 <.L35>
    159c:	00 00 e0    	cp0.w     w0
    159e:	16 00 3a    	bra       NZ, 0x15cc <.L41>
        case STANDARD_REQ:
            usb_standard_requests();
    15a0:	1a 00 07    	rcall     0x15d6 <_usb_standard_requests> <.LFB6> <.LFE5>
            break;
    15a2:	17 00 37    	bra       0x15d2 <.L29>

000015a4 <.L35>:
        case VENDOR_REQ:
            if (USB_setup_vendor_callback)
    15a4:	c0 40 80    	mov.w     0x818, w0
    15a6:	00 00 e0    	cp0.w     w0
    15a8:	03 00 32    	bra       Z, 0x15b0 <.L37>
                USB_setup_vendor_callback();
    15aa:	c0 40 80    	mov.w     0x818, w0
    15ac:	00 00 01    	call      w0
            else
                USB_error_flags |= REQUEST_ERROR;
            break;
    15ae:	11 00 37    	bra       0x15d2 <.L29>

000015b0 <.L37>:
    15b0:	0c c8 bf    	mov.b     0x80c, WREG
    15b2:	00 04 a0    	bset.b    w0, #0x0
    15b4:	0c e8 b7    	mov.b     WREG, 0x80c
    15b6:	0d 00 37    	bra       0x15d2 <.L29>

000015b8 <.L34>:
        case CLASS_REQ:
            if (USB_setup_class_callback)
    15b8:	b0 40 80    	mov.w     0x816, w0
    15ba:	00 00 e0    	cp0.w     w0
    15bc:	03 00 32    	bra       Z, 0x15c4 <.L39>
                USB_setup_class_callback();
    15be:	b0 40 80    	mov.w     0x816, w0
    15c0:	00 00 01    	call      w0
            else
                USB_error_flags |= REQUEST_ERROR;
            break;
    15c2:	07 00 37    	bra       0x15d2 <.L29>

000015c4 <.L39>:
    15c4:	0c c8 bf    	mov.b     0x80c, WREG
    15c6:	00 04 a0    	bset.b    w0, #0x0
    15c8:	0c e8 b7    	mov.b     WREG, 0x80c
    15ca:	03 00 37    	bra       0x15d2 <.L29>

000015cc <.L41>:
        default:
            USB_error_flags |= REQUEST_ERROR;
    15cc:	0c c8 bf    	mov.b     0x80c, WREG
    15ce:	00 04 a0    	bset.b    w0, #0x0
    15d0:	0c e8 b7    	mov.b     WREG, 0x80c

000015d2 <.L29>:
    }
}
    15d2:	00 80 fa    	ulnk      
    15d4:	00 00 06    	return    

000015d6 <_usb_standard_requests>:

void usb_standard_requests(void) {
    15d6:	06 00 fa    	lnk       #0x6
    BUFDESC *buf_desc_ptr;
    uint16_t *U1EP;
    uint8_t ep;

    switch (USB_setup.bRequest) {
    15d8:	40 80 20    	mov.w     #0x804, w0
    15da:	10 40 90    	mov.b     [w0+1], w0
    15dc:	00 80 fb    	ze        w0, w0
    15de:	e6 0f 50    	sub.w     w0, #0x6, [w15]
    15e0:	bc 01 32    	bra       Z, 0x195a <.L47>
    15e2:	e6 0f 50    	sub.w     w0, #0x6, [w15]
    15e4:	0c 00 3c    	bra       GT, 0x15fe <.L52>
    15e6:	e1 0f 50    	sub.w     w0, #0x1, [w15]
    15e8:	c1 00 32    	bra       Z, 0x176c <.L45>
    15ea:	e1 0f 50    	sub.w     w0, #0x1, [w15]
    15ec:	03 00 3c    	bra       GT, 0x15f4 <.L53>
    15ee:	00 00 e0    	cp0.w     w0
    15f0:	12 00 32    	bra       Z, 0x1616 <.L44>
    15f2:	87 02 37    	bra       0x1b02 <.L43>

000015f4 <.L53>:
    15f4:	e3 0f 50    	sub.w     w0, #0x3, [w15]
    15f6:	ba 00 32    	bra       Z, 0x176c <.L45>
    15f8:	e5 0f 50    	sub.w     w0, #0x5, [w15]
    15fa:	8d 01 32    	bra       Z, 0x1916 <.L46>
    15fc:	82 02 37    	bra       0x1b02 <.L43>

000015fe <.L52>:
    15fe:	e9 0f 50    	sub.w     w0, #0x9, [w15]
    1600:	22 02 32    	bra       Z, 0x1a46 <.L49>
    1602:	e9 0f 50    	sub.w     w0, #0x9, [w15]
    1604:	03 00 3c    	bra       GT, 0x160c <.L54>
    1606:	e8 0f 50    	sub.w     w0, #0x8, [w15]
    1608:	13 02 32    	bra       Z, 0x1a30 <.L48>
    160a:	7b 02 37    	bra       0x1b02 <.L43>

0000160c <.L54>:
    160c:	ea 0f 50    	sub.w     w0, #0xa, [w15]
    160e:	3d 02 32    	bra       Z, 0x1a8a <.L50>
    1610:	eb 0f 50    	sub.w     w0, #0xb, [w15]
    1612:	56 02 32    	bra       Z, 0x1ac0 <.L51>
    1614:	76 02 37    	bra       0x1b02 <.L43>

00001616 <.L44>:
        case GET_STATUS:
            switch (USB_setup.bmRequestType & 0x1F) {   // extract request recipient bits
    1616:	40 80 20    	mov.w     #0x804, w0
    1618:	10 40 78    	mov.b     [w0], w0
    161a:	00 80 fb    	ze        w0, w0
    161c:	7f 00 60    	and.w     w0, #0x1f, w0
    161e:	e1 0f 50    	sub.w     w0, #0x1, [w15]
    1620:	13 00 32    	bra       Z, 0x1648 <.L57>
    1622:	e2 0f 50    	sub.w     w0, #0x2, [w15]
    1624:	32 00 32    	bra       Z, 0x168a <.L58>
    1626:	00 00 e0    	cp0.w     w0
    1628:	9c 00 3a    	bra       NZ, 0x1762 <.L134>
                case RECIPIENT_DEVICE:
                    BD[EP0IN].address[0] = USB_device_status;
    162a:	30 50 80    	mov.w     0xa06, w0
    162c:	e1 80 20    	mov.w     #0x80e, w1
    162e:	91 40 78    	mov.b     [w1], w1
    1630:	01 48 78    	mov.b     w1, [w0]
                    BD[EP0IN].address[1] = 0;
    1632:	30 50 80    	mov.w     0xa06, w0
    1634:	00 00 e8    	inc.w     w0, w0
    1636:	80 40 eb    	clr.b     w1
    1638:	01 48 78    	mov.b     w1, [w0]
                    BD[EP0IN].bytecount = 2;
    163a:	40 a0 20    	mov.w     #0xa04, w0
    163c:	21 c0 b3    	mov.b     #0x2, w1
    163e:	01 48 78    	mov.b     w1, [w0]
                    BD[EP0IN].status = UOWN | DTS | DTSEN;  // send packet as DATA1, set UOWN bit
    1640:	50 a0 20    	mov.w     #0xa05, w0
    1642:	81 cc b3    	mov.b     #0xc8, w1
    1644:	01 48 78    	mov.b     w1, [w0]
                    break;
    1646:	91 00 37    	bra       0x176a <.L59>

00001648 <.L57>:
                case RECIPIENT_INTERFACE:
                    switch (USB_USWSTAT) {
    1648:	10 c8 bf    	mov.b     0x810, WREG
    164a:	00 80 fb    	ze        w0, w0
    164c:	e2 0f 50    	sub.w     w0, #0x2, [w15]
    164e:	03 00 32    	bra       Z, 0x1656 <.L61>
    1650:	e3 0f 50    	sub.w     w0, #0x3, [w15]
    1652:	05 00 32    	bra       Z, 0x165e <.L62>
    1654:	19 00 37    	bra       0x1688 <.L60>

00001656 <.L61>:
                        case ADDRESS_STATE:
                            USB_error_flags |= REQUEST_ERROR;
    1656:	0c c8 bf    	mov.b     0x80c, WREG
    1658:	00 04 a0    	bset.b    w0, #0x0
    165a:	0c e8 b7    	mov.b     WREG, 0x80c
                            break;
    165c:	15 00 37    	bra       0x1688 <.L60>

0000165e <.L62>:
                        case CONFIG_STATE:
                            if (USB_setup.wIndex.b[0] < NUM_INTERFACES) {
    165e:	40 80 20    	mov.w     #0x804, w0
    1660:	40 40 90    	mov.b     [w0+4], w0
    1662:	00 04 e0    	cp0.b     w0
    1664:	0e 00 3a    	bra       NZ, 0x1682 <.L63>
                                BD[EP0IN].address[0] = 0;
    1666:	30 50 80    	mov.w     0xa06, w0
    1668:	80 40 eb    	clr.b     w1
    166a:	01 48 78    	mov.b     w1, [w0]
                                BD[EP0IN].address[1] = 0;
    166c:	30 50 80    	mov.w     0xa06, w0
    166e:	00 00 e8    	inc.w     w0, w0
    1670:	80 40 eb    	clr.b     w1
    1672:	01 48 78    	mov.b     w1, [w0]
                                BD[EP0IN].bytecount = 2;
    1674:	40 a0 20    	mov.w     #0xa04, w0
    1676:	21 c0 b3    	mov.b     #0x2, w1
    1678:	01 48 78    	mov.b     w1, [w0]
                                BD[EP0IN].status = UOWN | DTS | DTSEN;  // send packet as DATA1, set UOWN bit
    167a:	50 a0 20    	mov.w     #0xa05, w0
    167c:	81 cc b3    	mov.b     #0xc8, w1
    167e:	01 48 78    	mov.b     w1, [w0]
    1680:	03 00 37    	bra       0x1688 <.L60>

00001682 <.L63>:
                            } else {
                                USB_error_flags |= REQUEST_ERROR;
    1682:	0c c8 bf    	mov.b     0x80c, WREG
    1684:	00 04 a0    	bset.b    w0, #0x0
    1686:	0c e8 b7    	mov.b     WREG, 0x80c

00001688 <.L60>:
                            }
                    }
                    break;
    1688:	70 00 37    	bra       0x176a <.L59>

0000168a <.L58>:
                case RECIPIENT_ENDPOINT:
                    switch (USB_USWSTAT) {
    168a:	10 c8 bf    	mov.b     0x810, WREG
    168c:	00 80 fb    	ze        w0, w0
    168e:	e2 0f 50    	sub.w     w0, #0x2, [w15]
    1690:	03 00 32    	bra       Z, 0x1698 <.L65>
    1692:	e3 0f 50    	sub.w     w0, #0x3, [w15]
    1694:	29 00 32    	bra       Z, 0x16e8 <.L66>
    1696:	61 00 37    	bra       0x175a <.L135>

00001698 <.L65>:
                        case ADDRESS_STATE:
                            if (!(USB_setup.wIndex.b[0] & 0x0F)) {  // get EP, strip off direction bit and see if it is EP0
    1698:	40 80 20    	mov.w     #0x804, w0
    169a:	40 40 90    	mov.b     [w0+4], w0
    169c:	00 80 fb    	ze        w0, w0
    169e:	6f 00 60    	and.w     w0, #0xf, w0
    16a0:	00 00 e0    	cp0.w     w0
    16a2:	1e 00 3a    	bra       NZ, 0x16e0 <.L67>
                                BD[EP0IN].address[0] = (((USB_setup.wIndex.b[0] & 0x80) ? BD[EP0IN].status : BD[EP0OUT].status) & 0x04) >> 2;   // return the BSTALL bit of EP0 IN or OUT, whichever was requested
    16a4:	31 50 80    	mov.w     0xa06, w1
    16a6:	40 80 20    	mov.w     #0x804, w0
    16a8:	40 40 90    	mov.b     [w0+4], w0
    16aa:	00 04 e0    	cp0.b     w0
    16ac:	07 00 3d    	bra       GE, 0x16bc <.L68>
    16ae:	50 a0 20    	mov.w     #0xa05, w0
    16b0:	10 40 78    	mov.b     [w0], w0
    16b2:	00 80 fb    	ze        w0, w0
    16b4:	64 00 60    	and.w     w0, #0x4, w0
    16b6:	42 80 de    	asr.w     w0, #0x2, w0
    16b8:	00 40 78    	mov.b     w0, w0
    16ba:	06 00 37    	bra       0x16c8 <.L69>

000016bc <.L68>:
    16bc:	10 a0 20    	mov.w     #0xa01, w0
    16be:	10 40 78    	mov.b     [w0], w0
    16c0:	00 80 fb    	ze        w0, w0
    16c2:	64 00 60    	and.w     w0, #0x4, w0
    16c4:	42 80 de    	asr.w     w0, #0x2, w0
    16c6:	00 40 78    	mov.b     w0, w0

000016c8 <.L69>:
    16c8:	80 48 78    	mov.b     w0, [w1]
                                BD[EP0IN].address[1] = 0;
    16ca:	30 50 80    	mov.w     0xa06, w0
    16cc:	00 00 e8    	inc.w     w0, w0
    16ce:	80 40 eb    	clr.b     w1
    16d0:	01 48 78    	mov.b     w1, [w0]
                                BD[EP0IN].bytecount = 2;
    16d2:	40 a0 20    	mov.w     #0xa04, w0
    16d4:	21 c0 b3    	mov.b     #0x2, w1
    16d6:	01 48 78    	mov.b     w1, [w0]
                                BD[EP0IN].status = UOWN | DTS | DTSEN;  // send packet as DATA1, set UOWN bit
    16d8:	50 a0 20    	mov.w     #0xa05, w0
    16da:	81 cc b3    	mov.b     #0xc8, w1
    16dc:	01 48 78    	mov.b     w1, [w0]
    16de:	03 00 37    	bra       0x16e6 <.L70>

000016e0 <.L67>:
                            } else {
                                USB_error_flags |= REQUEST_ERROR;
    16e0:	0c c8 bf    	mov.b     0x80c, WREG
    16e2:	00 04 a0    	bset.b    w0, #0x0
    16e4:	0c e8 b7    	mov.b     WREG, 0x80c

000016e6 <.L70>:
                            }
                            break;
    16e6:	3c 00 37    	bra       0x1760 <.L71>

000016e8 <.L66>:
                        case CONFIG_STATE:
                            U1EP = (uint16_t *)&U1EP0;
    16e8:	a0 4a 20    	mov.w     #0x4aa, w0
    16ea:	00 0f 78    	mov.w     w0, [w14]
                            ep = USB_setup.wIndex.b[0] & 0x0F;  // get EP and strip off direction bit for offset from U1EP0
    16ec:	40 80 20    	mov.w     #0x804, w0
    16ee:	40 40 90    	mov.b     [w0+4], w0
    16f0:	6f 40 60    	and.b     w0, #0xf, w0
    16f2:	20 47 98    	mov.b     w0, [w14+2]
                            buf_desc_ptr = &BD[EP0OUT] + ((ep << 1) | ((USB_setup.wIndex.b[0] & 0x80) ? 0x01 : 0x00));  // compute pointer to the buffer descriptor for the specified EP
    16f4:	2e 40 90    	mov.b     [w14+2], w0
    16f6:	00 80 fb    	ze        w0, w0
    16f8:	00 00 40    	add.w     w0, w0, w0
    16fa:	80 00 78    	mov.w     w0, w1
    16fc:	40 80 20    	mov.w     #0x804, w0
    16fe:	40 40 90    	mov.b     [w0+4], w0
    1700:	00 00 fb    	se        w0, w0
    1702:	4f 00 de    	lsr.w     w0, #0xf, w0
    1704:	01 00 70    	ior.w     w0, w1, w0
    1706:	c2 00 dd    	sl.w      w0, #0x2, w1
    1708:	00 a0 20    	mov.w     #0xa00, w0
    170a:	00 80 40    	add.w     w1, w0, w0
    170c:	20 07 98    	mov.w     w0, [w14+4]
                            if (U1EP[ep] & ((USB_setup.wIndex.b[0] & 0x80) ? 0x04 : 0x08)) {    // if the specified EP is enabled for transfers in the specified direction...
    170e:	2e 40 90    	mov.b     [w14+2], w0
    1710:	00 80 fb    	ze        w0, w0
    1712:	00 00 40    	add.w     w0, w0, w0
    1714:	1e 00 40    	add.w     w0, [w14], w0
    1716:	90 00 78    	mov.w     [w0], w1
    1718:	40 80 20    	mov.w     #0x804, w0
    171a:	40 40 90    	mov.b     [w0+4], w0
    171c:	00 04 e0    	cp0.b     w0
    171e:	02 00 3d    	bra       GE, 0x1724 <.L72>
    1720:	40 00 20    	mov.w     #0x4, w0
    1722:	01 00 37    	bra       0x1726 <.L73>

00001724 <.L72>:
    1724:	80 00 20    	mov.w     #0x8, w0

00001726 <.L73>:
    1726:	00 80 60    	and.w     w1, w0, w0
    1728:	00 00 e0    	cp0.w     w0
    172a:	13 00 32    	bra       Z, 0x1752 <.L74>
                                BD[EP0IN].address[0] = ((buf_desc_ptr->status) & 0x04) >> 2;    // ...return the BSTALL bit of the specified EP
    172c:	30 50 80    	mov.w     0xa06, w0
    172e:	ae 00 90    	mov.w     [w14+4], w1
    1730:	91 40 90    	mov.b     [w1+1], w1
    1732:	81 80 fb    	ze        w1, w1
    1734:	e4 80 60    	and.w     w1, #0x4, w1
    1736:	c2 88 de    	asr.w     w1, #0x2, w1
    1738:	81 40 78    	mov.b     w1, w1
    173a:	01 48 78    	mov.b     w1, [w0]
                                BD[EP0IN].address[1] = 0;
    173c:	30 50 80    	mov.w     0xa06, w0
    173e:	00 00 e8    	inc.w     w0, w0
    1740:	80 40 eb    	clr.b     w1
    1742:	01 48 78    	mov.b     w1, [w0]
                                BD[EP0IN].bytecount = 2;
    1744:	40 a0 20    	mov.w     #0xa04, w0
    1746:	21 c0 b3    	mov.b     #0x2, w1
    1748:	01 48 78    	mov.b     w1, [w0]
                                BD[EP0IN].status = UOWN | DTS | DTSEN;  // send packet as DATA1, set UOWN bit
    174a:	50 a0 20    	mov.w     #0xa05, w0
    174c:	81 cc b3    	mov.b     #0xc8, w1
    174e:	01 48 78    	mov.b     w1, [w0]
    1750:	03 00 37    	bra       0x1758 <.L75>

00001752 <.L74>:
                            } else {
                                USB_error_flags |= REQUEST_ERROR;
    1752:	0c c8 bf    	mov.b     0x80c, WREG
    1754:	00 04 a0    	bset.b    w0, #0x0
    1756:	0c e8 b7    	mov.b     WREG, 0x80c

00001758 <.L75>:
                            }
                            break;
    1758:	03 00 37    	bra       0x1760 <.L71>

0000175a <.L135>:
                        default:
                            USB_error_flags |= REQUEST_ERROR;
    175a:	0c c8 bf    	mov.b     0x80c, WREG
    175c:	00 04 a0    	bset.b    w0, #0x0
    175e:	0c e8 b7    	mov.b     WREG, 0x80c

00001760 <.L71>:
                    }
                    break;
    1760:	04 00 37    	bra       0x176a <.L59>

00001762 <.L134>:
                default:
                    USB_error_flags |= REQUEST_ERROR;
    1762:	0c c8 bf    	mov.b     0x80c, WREG
    1764:	00 04 a0    	bset.b    w0, #0x0
    1766:	0c e8 b7    	mov.b     WREG, 0x80c
            }
            break;
    1768:	d1 01 37    	bra       0x1b0c <.L42>

0000176a <.L59>:
    176a:	d0 01 37    	bra       0x1b0c <.L42>

0000176c <.L45>:
        case CLEAR_FEATURE:
        case SET_FEATURE:
            switch (USB_setup.bmRequestType & 0x1F) {       // extract request recipient bits
    176c:	40 80 20    	mov.w     #0x804, w0
    176e:	10 40 78    	mov.b     [w0], w0
    1770:	00 80 fb    	ze        w0, w0
    1772:	7f 00 60    	and.w     w0, #0x1f, w0
    1774:	00 00 e0    	cp0.w     w0
    1776:	03 00 32    	bra       Z, 0x177e <.L78>
    1778:	e2 0f 50    	sub.w     w0, #0x2, [w15]
    177a:	1e 00 32    	bra       Z, 0x17b8 <.L79>
    177c:	c7 00 37    	bra       0x190c <.L136>

0000177e <.L78>:
                case RECIPIENT_DEVICE:
                    switch (USB_setup.wValue.b[0]) {
    177e:	40 80 20    	mov.w     #0x804, w0
    1780:	20 40 90    	mov.b     [w0+2], w0
    1782:	00 80 fb    	ze        w0, w0
    1784:	e1 0f 50    	sub.w     w0, #0x1, [w15]
    1786:	14 00 3a    	bra       NZ, 0x17b0 <.L137>
                        case DEVICE_REMOTE_WAKEUP:
                            if (USB_setup.bRequest == CLEAR_FEATURE)
    1788:	40 80 20    	mov.w     #0x804, w0
    178a:	10 40 90    	mov.b     [w0+1], w0
    178c:	e1 4f 50    	sub.b     w0, #0x1, [w15]
    178e:	06 00 3a    	bra       NZ, 0x179c <.L82>
                                USB_device_status &= 0xFE;
    1790:	e1 80 20    	mov.w     #0x80e, w1
    1792:	91 40 78    	mov.b     [w1], w1
    1794:	e0 cf b3    	mov.b     #0xfe, w0
    1796:	00 c0 60    	and.b     w1, w0, w0
    1798:	0e e8 b7    	mov.b     WREG, 0x80e
    179a:	03 00 37    	bra       0x17a2 <.L83>

0000179c <.L82>:
                            else
                                USB_device_status |= 0x01;
    179c:	0e c8 bf    	mov.b     0x80e, WREG
    179e:	00 04 a0    	bset.b    w0, #0x0
    17a0:	0e e8 b7    	mov.b     WREG, 0x80e

000017a2 <.L83>:
                            BD[EP0IN].bytecount = 0;
    17a2:	40 a0 20    	mov.w     #0xa04, w0
    17a4:	80 40 eb    	clr.b     w1
    17a6:	01 48 78    	mov.b     w1, [w0]
                            BD[EP0IN].status = UOWN | DTS | DTSEN;  // send packet as DATA1, set UOWN bit
    17a8:	50 a0 20    	mov.w     #0xa05, w0
    17aa:	81 cc b3    	mov.b     #0xc8, w1
    17ac:	01 48 78    	mov.b     w1, [w0]
                            break;
    17ae:	03 00 37    	bra       0x17b6 <.L84>

000017b0 <.L137>:
                        default:
                            USB_error_flags |= REQUEST_ERROR;
    17b0:	0c c8 bf    	mov.b     0x80c, WREG
    17b2:	00 04 a0    	bset.b    w0, #0x0
    17b4:	0c e8 b7    	mov.b     WREG, 0x80c

000017b6 <.L84>:
                    }
                    break;
    17b6:	ae 00 37    	bra       0x1914 <.L85>

000017b8 <.L79>:
                case RECIPIENT_ENDPOINT:
                    switch (USB_USWSTAT) {
    17b8:	10 c8 bf    	mov.b     0x810, WREG
    17ba:	00 80 fb    	ze        w0, w0
    17bc:	e2 0f 50    	sub.w     w0, #0x2, [w15]
    17be:	03 00 32    	bra       Z, 0x17c6 <.L87>
    17c0:	e3 0f 50    	sub.w     w0, #0x3, [w15]
    17c2:	12 00 32    	bra       Z, 0x17e8 <.L88>
    17c4:	9f 00 37    	bra       0x1904 <.L138>

000017c6 <.L87>:
                        case ADDRESS_STATE:
                            if (!(USB_setup.wIndex.b[0] & 0x0F)) {  // get EP, strip off direction bit, and see if its EP0
    17c6:	40 80 20    	mov.w     #0x804, w0
    17c8:	40 40 90    	mov.b     [w0+4], w0
    17ca:	00 80 fb    	ze        w0, w0
    17cc:	6f 00 60    	and.w     w0, #0xf, w0
    17ce:	00 00 e0    	cp0.w     w0
    17d0:	07 00 3a    	bra       NZ, 0x17e0 <.L89>
                                BD[EP0IN].bytecount = 0;
    17d2:	40 a0 20    	mov.w     #0xa04, w0
    17d4:	80 40 eb    	clr.b     w1
    17d6:	01 48 78    	mov.b     w1, [w0]
                                BD[EP0IN].status = UOWN | DTS | DTSEN;  // send packet as DATA1, set UOWN bit
    17d8:	50 a0 20    	mov.w     #0xa05, w0
    17da:	81 cc b3    	mov.b     #0xc8, w1
    17dc:	01 48 78    	mov.b     w1, [w0]
    17de:	03 00 37    	bra       0x17e6 <.L90>

000017e0 <.L89>:
                            } else {
                                USB_error_flags |= REQUEST_ERROR;
    17e0:	0c c8 bf    	mov.b     0x80c, WREG
    17e2:	00 04 a0    	bset.b    w0, #0x0
    17e4:	0c e8 b7    	mov.b     WREG, 0x80c

000017e6 <.L90>:
                            }
                            break;
    17e6:	91 00 37    	bra       0x190a <.L91>

000017e8 <.L88>:
                        case CONFIG_STATE:
                            U1EP = (uint16_t *)&U1EP0;
    17e8:	a0 4a 20    	mov.w     #0x4aa, w0
    17ea:	00 0f 78    	mov.w     w0, [w14]
                            if (ep = USB_setup.wIndex.b[0] & 0x0F) {    // get EP and strip off direction bit for offset from U1EP0, if not EP0...
    17ec:	40 80 20    	mov.w     #0x804, w0
    17ee:	40 40 90    	mov.b     [w0+4], w0
    17f0:	6f 40 60    	and.b     w0, #0xf, w0
    17f2:	20 47 98    	mov.b     w0, [w14+2]
    17f4:	2e 40 90    	mov.b     [w14+2], w0
    17f6:	00 04 e0    	cp0.b     w0
    17f8:	79 00 32    	bra       Z, 0x18ec <.L92>
                                buf_desc_ptr = &BD[(ep << 1) | ((USB_setup.wIndex.b[0] & 0x80) ? 0x01 : 0x00)]; // compute pointer to the buffer descriptor for the specified EP
    17fa:	2e 40 90    	mov.b     [w14+2], w0
    17fc:	00 80 fb    	ze        w0, w0
    17fe:	00 00 40    	add.w     w0, w0, w0
    1800:	80 00 78    	mov.w     w0, w1
    1802:	40 80 20    	mov.w     #0x804, w0
    1804:	40 40 90    	mov.b     [w0+4], w0
    1806:	00 00 fb    	se        w0, w0
    1808:	4f 00 de    	lsr.w     w0, #0xf, w0
    180a:	01 00 70    	ior.w     w0, w1, w0
    180c:	c2 00 dd    	sl.w      w0, #0x2, w1
    180e:	00 a0 20    	mov.w     #0xa00, w0
    1810:	00 80 40    	add.w     w1, w0, w0
    1812:	20 07 98    	mov.w     w0, [w14+4]
                                if (USB_setup.wIndex.b[0] & 0x80) { // if the specified EP direction is IN...
    1814:	40 80 20    	mov.w     #0x804, w0
    1816:	40 40 90    	mov.b     [w0+4], w0
    1818:	00 04 e0    	cp0.b     w0
    181a:	30 00 3d    	bra       GE, 0x187c <.L93>
                                    if (U1EP[ep] & 0x04) {          // if EPn is enabled for IN transfers...
    181c:	2e 40 90    	mov.b     [w14+2], w0
    181e:	00 80 fb    	ze        w0, w0
    1820:	00 00 40    	add.w     w0, w0, w0
    1822:	1e 00 40    	add.w     w0, [w14], w0
    1824:	10 00 78    	mov.w     [w0], w0
    1826:	64 00 60    	and.w     w0, #0x4, w0
    1828:	00 00 e0    	cp0.w     w0
    182a:	24 00 32    	bra       Z, 0x1874 <.L94>
                                        if (USB_setup.bRequest == CLEAR_FEATURE) {
    182c:	40 80 20    	mov.w     #0x804, w0
    182e:	10 40 90    	mov.b     [w0+1], w0
    1830:	e1 4f 50    	sub.b     w0, #0x1, [w15]
    1832:	19 00 3a    	bra       NZ, 0x1866 <.L95>
                                            U1EP[ep] &= 0xFD;       // clear EPSTALL bit of U1EPn register
    1834:	2e 40 90    	mov.b     [w14+2], w0
    1836:	00 80 fb    	ze        w0, w0
    1838:	00 00 40    	add.w     w0, w0, w0
    183a:	9e 00 40    	add.w     w0, [w14], w1
    183c:	2e 40 90    	mov.b     [w14+2], w0
    183e:	00 80 fb    	ze        w0, w0
    1840:	00 00 40    	add.w     w0, w0, w0
    1842:	1e 00 40    	add.w     w0, [w14], w0
    1844:	10 01 78    	mov.w     [w0], w2
    1846:	d0 0f 20    	mov.w     #0xfd, w0
    1848:	00 00 61    	and.w     w2, w0, w0
    184a:	80 08 78    	mov.w     w0, [w1]
                                            buf_desc_ptr->status &= ~BSTALL;
    184c:	2e 00 90    	mov.w     [w14+4], w0
    184e:	90 40 90    	mov.b     [w0+1], w1
    1850:	b0 cf b3    	mov.b     #0xfb, w0
    1852:	80 c0 60    	and.b     w1, w0, w1
    1854:	2e 00 90    	mov.w     [w14+4], w0
    1856:	11 40 98    	mov.b     w1, [w0+1]
                                            buf_desc_ptr->status |= DTS;
    1858:	2e 00 90    	mov.w     [w14+4], w0
    185a:	10 40 90    	mov.b     [w0+1], w0
    185c:	80 40 78    	mov.b     w0, w1
    185e:	01 64 a0    	bset.b    w1, #0x6
    1860:	2e 00 90    	mov.w     [w14+4], w0
    1862:	11 40 98    	mov.b     w1, [w0+1]
    1864:	43 00 37    	bra       0x18ec <.L92>

00001866 <.L95>:
                                        } else {
                                            buf_desc_ptr->status |= BSTALL;
    1866:	2e 00 90    	mov.w     [w14+4], w0
    1868:	10 40 90    	mov.b     [w0+1], w0
    186a:	80 40 78    	mov.b     w0, w1
    186c:	01 24 a0    	bset.b    w1, #0x2
    186e:	2e 00 90    	mov.w     [w14+4], w0
    1870:	11 40 98    	mov.b     w1, [w0+1]
    1872:	3c 00 37    	bra       0x18ec <.L92>

00001874 <.L94>:
                                        }
                                    } else {
                                        USB_error_flags |= REQUEST_ERROR;
    1874:	0c c8 bf    	mov.b     0x80c, WREG
    1876:	00 04 a0    	bset.b    w0, #0x0
    1878:	0c e8 b7    	mov.b     WREG, 0x80c
    187a:	38 00 37    	bra       0x18ec <.L92>

0000187c <.L93>:
                                    }
                                } else {                    // ...otherwise the specified EP direction is OUT, so...
                                    if (U1EP[ep] & 0x08) {  // if the EP is enabled for OUT transfers...
    187c:	2e 40 90    	mov.b     [w14+2], w0
    187e:	00 80 fb    	ze        w0, w0
    1880:	00 00 40    	add.w     w0, w0, w0
    1882:	1e 00 40    	add.w     w0, [w14], w0
    1884:	10 00 78    	mov.w     [w0], w0
    1886:	68 00 60    	and.w     w0, #0x8, w0
    1888:	00 00 e0    	cp0.w     w0
    188a:	2d 00 32    	bra       Z, 0x18e6 <.L96>
                                        if (USB_setup.bRequest == CLEAR_FEATURE) {
    188c:	40 80 20    	mov.w     #0x804, w0
    188e:	10 40 90    	mov.b     [w0+1], w0
    1890:	e1 4f 50    	sub.b     w0, #0x1, [w15]
    1892:	19 00 3a    	bra       NZ, 0x18c6 <.L97>
                                            U1EP[ep] &= 0xFD;       // clear EPSTALL bit of U1EPn register
    1894:	2e 40 90    	mov.b     [w14+2], w0
    1896:	00 80 fb    	ze        w0, w0
    1898:	00 00 40    	add.w     w0, w0, w0
    189a:	9e 00 40    	add.w     w0, [w14], w1
    189c:	2e 40 90    	mov.b     [w14+2], w0
    189e:	00 80 fb    	ze        w0, w0
    18a0:	00 00 40    	add.w     w0, w0, w0
    18a2:	1e 00 40    	add.w     w0, [w14], w0
    18a4:	10 01 78    	mov.w     [w0], w2
    18a6:	d0 0f 20    	mov.w     #0xfd, w0
    18a8:	00 00 61    	and.w     w2, w0, w0
    18aa:	80 08 78    	mov.w     w0, [w1]
                                            buf_desc_ptr->status &= ~BSTALL;
    18ac:	2e 00 90    	mov.w     [w14+4], w0
    18ae:	90 40 90    	mov.b     [w0+1], w1
    18b0:	b0 cf b3    	mov.b     #0xfb, w0
    18b2:	80 c0 60    	and.b     w1, w0, w1
    18b4:	2e 00 90    	mov.w     [w14+4], w0
    18b6:	11 40 98    	mov.b     w1, [w0+1]
                                            buf_desc_ptr->status &= ~DTS;
    18b8:	2e 00 90    	mov.w     [w14+4], w0
    18ba:	90 40 90    	mov.b     [w0+1], w1
    18bc:	f0 cb b3    	mov.b     #0xbf, w0
    18be:	80 c0 60    	and.b     w1, w0, w1
    18c0:	2e 00 90    	mov.w     [w14+4], w0
    18c2:	11 40 98    	mov.b     w1, [w0+1]
    18c4:	06 00 37    	bra       0x18d2 <.L98>

000018c6 <.L97>:
                                        } else {
                                            buf_desc_ptr->status |= BSTALL;
    18c6:	2e 00 90    	mov.w     [w14+4], w0
    18c8:	10 40 90    	mov.b     [w0+1], w0
    18ca:	80 40 78    	mov.b     w0, w1
    18cc:	01 24 a0    	bset.b    w1, #0x2
    18ce:	2e 00 90    	mov.w     [w14+4], w0
    18d0:	11 40 98    	mov.b     w1, [w0+1]

000018d2 <.L98>:
                                        }
                                        buf_desc_ptr->status = (USB_setup.bRequest == CLEAR_FEATURE) ? (UOWN | DTSEN) : (UOWN | BSTALL);
    18d2:	40 80 20    	mov.w     #0x804, w0
    18d4:	10 40 90    	mov.b     [w0+1], w0
    18d6:	e1 4f 50    	sub.b     w0, #0x1, [w15]
    18d8:	02 00 3a    	bra       NZ, 0x18de <.L99>
    18da:	80 c8 b3    	mov.b     #0x88, w0
    18dc:	01 00 37    	bra       0x18e0 <.L100>

000018de <.L99>:
    18de:	40 c8 b3    	mov.b     #0x84, w0

000018e0 <.L100>:
    18e0:	ae 00 90    	mov.w     [w14+4], w1
    18e2:	90 40 98    	mov.b     w0, [w1+1]
    18e4:	03 00 37    	bra       0x18ec <.L92>

000018e6 <.L96>:
                                    } else {
                                        USB_error_flags |= REQUEST_ERROR;
    18e6:	0c c8 bf    	mov.b     0x80c, WREG
    18e8:	00 04 a0    	bset.b    w0, #0x0
    18ea:	0c e8 b7    	mov.b     WREG, 0x80c

000018ec <.L92>:
                                    }
                                }
                            }
                            if (!(USB_error_flags & REQUEST_ERROR)) {   // if there was no Request Error...
    18ec:	0c c8 bf    	mov.b     0x80c, WREG
    18ee:	00 80 fb    	ze        w0, w0
    18f0:	61 00 60    	and.w     w0, #0x1, w0
    18f2:	00 00 e0    	cp0.w     w0
    18f4:	06 00 3a    	bra       NZ, 0x1902 <.L101>
                                BD[EP0IN].bytecount = 0;
    18f6:	40 a0 20    	mov.w     #0xa04, w0
    18f8:	80 40 eb    	clr.b     w1
    18fa:	01 48 78    	mov.b     w1, [w0]
                                BD[EP0IN].status = UOWN | DTS | DTSEN;  // ...send packet as DATA1, set UOWN bit
    18fc:	50 a0 20    	mov.w     #0xa05, w0
    18fe:	81 cc b3    	mov.b     #0xc8, w1
    1900:	01 48 78    	mov.b     w1, [w0]

00001902 <.L101>:
                            }
                            break;
    1902:	03 00 37    	bra       0x190a <.L91>

00001904 <.L138>:
                        default:
                            USB_error_flags |= REQUEST_ERROR;
    1904:	0c c8 bf    	mov.b     0x80c, WREG
    1906:	00 04 a0    	bset.b    w0, #0x0
    1908:	0c e8 b7    	mov.b     WREG, 0x80c

0000190a <.L91>:
                    }
                    break;
    190a:	04 00 37    	bra       0x1914 <.L85>

0000190c <.L136>:
                default:
                    USB_error_flags |= REQUEST_ERROR;
    190c:	0c c8 bf    	mov.b     0x80c, WREG
    190e:	00 04 a0    	bset.b    w0, #0x0
    1910:	0c e8 b7    	mov.b     WREG, 0x80c
            }
            break;
    1912:	fc 00 37    	bra       0x1b0c <.L42>

00001914 <.L85>:
    1914:	fb 00 37    	bra       0x1b0c <.L42>

00001916 <.L46>:
        case SET_ADDRESS:
            if (USB_setup.wValue.b[0] > 0x7F) {     // if new device address is illegal, send Request Error
    1916:	40 80 20    	mov.w     #0x804, w0
    1918:	20 40 90    	mov.b     [w0+2], w0
    191a:	00 04 e0    	cp0.b     w0
    191c:	04 00 3d    	bra       GE, 0x1926 <.L102>
                USB_error_flags |= REQUEST_ERROR;
    191e:	0c c8 bf    	mov.b     0x80c, WREG
    1920:	00 04 a0    	bset.b    w0, #0x0
    1922:	0c e8 b7    	mov.b     WREG, 0x80c
            } else {
                USB_request.setup.bmRequestType = USB_setup.bmRequestType;  // processing a SET_ADDRESS request
                USB_request.setup.bRequest = USB_setup.bRequest;
                USB_request.setup.wValue.w = USB_setup.wValue.w;
                USB_request.setup.wIndex.w = USB_setup.wIndex.w;
                USB_request.setup.wLength.w = USB_setup.wLength.w;
                USB_in_callbacks[0] = usb_set_address_callback;
                BD[EP0IN].bytecount = 0;
                BD[EP0IN].status = UOWN | DTS | DTSEN;  // send packet as DATA1, set UOWN bit
            }
            break;
    1924:	f3 00 37    	bra       0x1b0c <.L42>

00001926 <.L102>:
    1926:	40 80 20    	mov.w     #0x804, w0
    1928:	90 40 78    	mov.b     [w0], w1
    192a:	a0 89 20    	mov.w     #0x89a, w0
    192c:	01 48 78    	mov.b     w1, [w0]
    192e:	40 80 20    	mov.w     #0x804, w0
    1930:	90 40 90    	mov.b     [w0+1], w1
    1932:	b0 89 20    	mov.w     #0x89b, w0
    1934:	01 48 78    	mov.b     w1, [w0]
    1936:	40 80 20    	mov.w     #0x804, w0
    1938:	10 00 90    	mov.w     [w0+2], w0
    193a:	e0 44 88    	mov.w     w0, 0x89c
    193c:	40 80 20    	mov.w     #0x804, w0
    193e:	20 00 90    	mov.w     [w0+4], w0
    1940:	f0 44 88    	mov.w     w0, 0x89e
    1942:	40 80 20    	mov.w     #0x804, w0
    1944:	30 00 90    	mov.w     [w0+6], w0
    1946:	00 45 88    	mov.w     w0, 0x8a0
    1948:	a0 2c 21    	mov.w     #0x12ca, w0
    194a:	40 45 88    	mov.w     w0, 0x8a8
    194c:	40 a0 20    	mov.w     #0xa04, w0
    194e:	80 40 eb    	clr.b     w1
    1950:	01 48 78    	mov.b     w1, [w0]
    1952:	50 a0 20    	mov.w     #0xa05, w0
    1954:	81 cc b3    	mov.b     #0xc8, w1
    1956:	01 48 78    	mov.b     w1, [w0]
    1958:	d9 00 37    	bra       0x1b0c <.L42>

0000195a <.L47>:
        case GET_DESCRIPTOR:
            USB_request.setup.bmRequestType = USB_setup.bmRequestType;  // processing a GET_DESCRIPTOR request
    195a:	40 80 20    	mov.w     #0x804, w0
    195c:	90 40 78    	mov.b     [w0], w1
    195e:	a0 89 20    	mov.w     #0x89a, w0
    1960:	01 48 78    	mov.b     w1, [w0]
            USB_request.setup.bRequest = USB_setup.bRequest;
    1962:	40 80 20    	mov.w     #0x804, w0
    1964:	90 40 90    	mov.b     [w0+1], w1
    1966:	b0 89 20    	mov.w     #0x89b, w0
    1968:	01 48 78    	mov.b     w1, [w0]
            USB_request.setup.wValue.w = USB_setup.wValue.w;
    196a:	40 80 20    	mov.w     #0x804, w0
    196c:	10 00 90    	mov.w     [w0+2], w0
    196e:	e0 44 88    	mov.w     w0, 0x89c
            USB_request.setup.wIndex.w = USB_setup.wIndex.w;
    1970:	40 80 20    	mov.w     #0x804, w0
    1972:	20 00 90    	mov.w     [w0+4], w0
    1974:	f0 44 88    	mov.w     w0, 0x89e
            USB_request.setup.wLength.w = USB_setup.wLength.w;
    1976:	40 80 20    	mov.w     #0x804, w0
    1978:	30 00 90    	mov.w     [w0+6], w0
    197a:	00 45 88    	mov.w     w0, 0x8a0
            switch (USB_setup.wValue.b[1]) {
    197c:	40 80 20    	mov.w     #0x804, w0
    197e:	30 40 90    	mov.b     [w0+3], w0
    1980:	00 80 fb    	ze        w0, w0
    1982:	e2 0f 50    	sub.w     w0, #0x2, [w15]
    1984:	0b 00 32    	bra       Z, 0x199c <.L106>
    1986:	e3 0f 50    	sub.w     w0, #0x3, [w15]
    1988:	24 00 32    	bra       Z, 0x19d2 <.L107>
    198a:	e1 0f 50    	sub.w     w0, #0x1, [w15]
    198c:	37 00 3a    	bra       NZ, 0x19fc <.L139>
                case DEVICE:
                    USB_request.data_ptr = Device;
    198e:	20 22 29    	mov.w     #0x9222, w0
    1990:	10 45 88    	mov.w     w0, 0x8a2
                    USB_request.bytes_left.w = (uint16_t)USB_request.data_ptr[0];
    1992:	10 45 80    	mov.w     0x8a2, w0
    1994:	10 40 78    	mov.b     [w0], w0
    1996:	00 80 fb    	ze        w0, w0
    1998:	20 45 88    	mov.w     w0, 0x8a4
                    break;
    199a:	39 00 37    	bra       0x1a0e <.L108>

0000199c <.L106>:
                case CONFIGURATION:
                    if (USB_setup.wValue.b[0] < NUM_CONFIGURATIONS) {
    199c:	40 80 20    	mov.w     #0x804, w0
    199e:	20 40 90    	mov.b     [w0+2], w0
    19a0:	00 04 e0    	cp0.b     w0
    19a2:	13 00 3a    	bra       NZ, 0x19ca <.L109>
                        USB_request.data_ptr = Configurations[USB_setup.wValue.b[0]];
    19a4:	40 80 20    	mov.w     #0x804, w0
    19a6:	20 40 90    	mov.b     [w0+2], w0
    19a8:	00 80 fb    	ze        w0, w0
    19aa:	80 00 40    	add.w     w0, w0, w1
    19ac:	60 24 29    	mov.w     #0x9246, w0
    19ae:	00 80 40    	add.w     w1, w0, w0
    19b0:	10 00 78    	mov.w     [w0], w0
    19b2:	10 45 88    	mov.w     w0, 0x8a2
                        USB_request.bytes_left.b[0] = USB_request.data_ptr[2];  // wTotalLength starting at an offset of 2
    19b4:	10 45 80    	mov.w     0x8a2, w0
    19b6:	00 80 e8    	inc2.w    w0, w0
    19b8:	90 40 78    	mov.b     [w0], w1
    19ba:	40 8a 20    	mov.w     #0x8a4, w0
    19bc:	01 48 78    	mov.b     w1, [w0]
                        USB_request.bytes_left.b[1] = USB_request.data_ptr[3];
    19be:	10 45 80    	mov.w     0x8a2, w0
    19c0:	63 00 40    	add.w     w0, #0x3, w0
    19c2:	90 40 78    	mov.b     [w0], w1
    19c4:	50 8a 20    	mov.w     #0x8a5, w0
    19c6:	01 48 78    	mov.b     w1, [w0]
                    } else
                        USB_error_flags |= REQUEST_ERROR;
                    break;
    19c8:	22 00 37    	bra       0x1a0e <.L108>

000019ca <.L109>:
    19ca:	0c c8 bf    	mov.b     0x80c, WREG
    19cc:	00 04 a0    	bset.b    w0, #0x0
    19ce:	0c e8 b7    	mov.b     WREG, 0x80c
    19d0:	1e 00 37    	bra       0x1a0e <.L108>

000019d2 <.L107>:
                case STRING:
                    if (USB_setup.wValue.b[0] < NUM_STRINGS) {
    19d2:	40 80 20    	mov.w     #0x804, w0
    19d4:	20 40 90    	mov.b     [w0+2], w0
    19d6:	e3 4f 50    	sub.b     w0, #0x3, [w15]
    19d8:	0d 00 3e    	bra       GTU, 0x19f4 <.L111>
                        USB_request.data_ptr = Strings[USB_setup.wValue.b[0]];
    19da:	40 80 20    	mov.w     #0x804, w0
    19dc:	20 40 90    	mov.b     [w0+2], w0
    19de:	00 80 fb    	ze        w0, w0
    19e0:	80 00 40    	add.w     w0, w0, w1
    19e2:	60 28 29    	mov.w     #0x9286, w0
    19e4:	00 80 40    	add.w     w1, w0, w0
    19e6:	10 00 78    	mov.w     [w0], w0
    19e8:	10 45 88    	mov.w     w0, 0x8a2
                        USB_request.bytes_left.w = (uint16_t)USB_request.data_ptr[0];
    19ea:	10 45 80    	mov.w     0x8a2, w0
    19ec:	10 40 78    	mov.b     [w0], w0
    19ee:	00 80 fb    	ze        w0, w0
    19f0:	20 45 88    	mov.w     w0, 0x8a4
                    } else
                        USB_error_flags |= REQUEST_ERROR;
                    break;
    19f2:	0d 00 37    	bra       0x1a0e <.L108>

000019f4 <.L111>:
    19f4:	0c c8 bf    	mov.b     0x80c, WREG
    19f6:	00 04 a0    	bset.b    w0, #0x0
    19f8:	0c e8 b7    	mov.b     WREG, 0x80c
    19fa:	09 00 37    	bra       0x1a0e <.L108>

000019fc <.L139>:
                default:
                    if (USB_get_descriptor_callback)
    19fc:	a0 40 80    	mov.w     0x814, w0
    19fe:	00 00 e0    	cp0.w     w0
    1a00:	03 00 32    	bra       Z, 0x1a08 <.L113>
                        USB_get_descriptor_callback();
    1a02:	a0 40 80    	mov.w     0x814, w0
    1a04:	00 00 01    	call      w0
    1a06:	03 00 37    	bra       0x1a0e <.L108>

00001a08 <.L113>:
                    else
                        USB_error_flags |= REQUEST_ERROR;
    1a08:	0c c8 bf    	mov.b     0x80c, WREG
    1a0a:	00 04 a0    	bset.b    w0, #0x0
    1a0c:	0c e8 b7    	mov.b     WREG, 0x80c

00001a0e <.L108>:
            }
            if (!(USB_error_flags & REQUEST_ERROR)) {
    1a0e:	0c c8 bf    	mov.b     0x80c, WREG
    1a10:	00 80 fb    	ze        w0, w0
    1a12:	61 00 60    	and.w     w0, #0x1, w0
    1a14:	00 00 e0    	cp0.w     w0
    1a16:	79 00 3a    	bra       NZ, 0x1b0a <.L144>
                USB_in_callbacks[0] = usb_send_data_packet;
    1a18:	00 b1 21    	mov.w     #0x1b10, w0
    1a1a:	40 45 88    	mov.w     w0, 0x8a8
                if (USB_setup.wLength.w < USB_request.bytes_left.w)
    1a1c:	40 80 20    	mov.w     #0x804, w0
    1a1e:	b0 00 90    	mov.w     [w0+6], w1
    1a20:	20 45 80    	mov.w     0x8a4, w0
    1a22:	80 8f 50    	sub.w     w1, w0, [w15]
    1a24:	03 00 31    	bra       C, 0x1a2c <.L115>
                    USB_request.bytes_left.w = USB_setup.wLength.w;
    1a26:	40 80 20    	mov.w     #0x804, w0
    1a28:	30 00 90    	mov.w     [w0+6], w0
    1a2a:	20 45 88    	mov.w     w0, 0x8a4

00001a2c <.L115>:
                usb_send_data_packet();
    1a2c:	71 00 07    	rcall     0x1b10 <_usb_send_data_packet> <.LFB7> <.LFE6>
            }
            break;
    1a2e:	6e 00 37    	bra       0x1b0c <.L42>

00001a30 <.L48>:
        case GET_CONFIGURATION:
            BD[EP0IN].address[0] = USB_curr_config; // copy current device configuration to EP0 IN buffer
    1a30:	30 50 80    	mov.w     0xa06, w0
    1a32:	d1 80 20    	mov.w     #0x80d, w1
    1a34:	91 40 78    	mov.b     [w1], w1
    1a36:	01 48 78    	mov.b     w1, [w0]
            BD[EP0IN].bytecount = 1;
    1a38:	40 a0 20    	mov.w     #0xa04, w0
    1a3a:	11 c0 b3    	mov.b     #0x1, w1
    1a3c:	01 48 78    	mov.b     w1, [w0]
            BD[EP0IN].status = UOWN | DTS | DTSEN;  // send packet as DATA1, set UOWN bit
    1a3e:	50 a0 20    	mov.w     #0xa05, w0
    1a40:	81 cc b3    	mov.b     #0xc8, w1
    1a42:	01 48 78    	mov.b     w1, [w0]
            break;
    1a44:	63 00 37    	bra       0x1b0c <.L42>

00001a46 <.L49>:
        case SET_CONFIGURATION:
            if (USB_setup.wValue.b[0] <= NUM_CONFIGURATIONS) {
    1a46:	40 80 20    	mov.w     #0x804, w0
    1a48:	20 40 90    	mov.b     [w0+2], w0
    1a4a:	e1 4f 50    	sub.b     w0, #0x1, [w15]
    1a4c:	1a 00 3e    	bra       GTU, 0x1a82 <.L116>
                usb_disable_endpoints(1);           // disable all endpoints except EP0
    1a4e:	10 c0 b3    	mov.b     #0x1, w0
    1a50:	1d fc 07    	rcall     0x128c <_usb_disable_endpoints> <.L0> <.LFB1> <.Ltext0>
                switch (USB_curr_config = USB_setup.wValue.b[0]) {
    1a52:	40 80 20    	mov.w     #0x804, w0
    1a54:	20 40 90    	mov.b     [w0+2], w0
    1a56:	0d e8 b7    	mov.b     WREG, 0x80d
    1a58:	0d c8 bf    	mov.b     0x80d, WREG
    1a5a:	00 80 fb    	ze        w0, w0
    1a5c:	00 00 e0    	cp0.w     w0
    1a5e:	03 00 3a    	bra       NZ, 0x1a66 <.L140>
                    case 0:
                        USB_USWSTAT = ADDRESS_STATE;
    1a60:	20 c0 b3    	mov.b     #0x2, w0
    1a62:	10 e8 b7    	mov.b     WREG, 0x810
                        break;
    1a64:	07 00 37    	bra       0x1a74 <.L119>

00001a66 <.L140>:
                    default:
                        USB_USWSTAT = CONFIG_STATE;
    1a66:	30 c0 b3    	mov.b     #0x3, w0
    1a68:	10 e8 b7    	mov.b     WREG, 0x810
                        if (USB_set_config_callback)
    1a6a:	90 40 80    	mov.w     0x812, w0
    1a6c:	00 00 e0    	cp0.w     w0
    1a6e:	02 00 32    	bra       Z, 0x1a74 <.L119>
                            USB_set_config_callback();
    1a70:	90 40 80    	mov.w     0x812, w0
    1a72:	00 00 01    	call      w0

00001a74 <.L119>:
                }
                BD[EP0IN].bytecount = 0;
    1a74:	40 a0 20    	mov.w     #0xa04, w0
    1a76:	80 40 eb    	clr.b     w1
    1a78:	01 48 78    	mov.b     w1, [w0]
                BD[EP0IN].status = UOWN | DTS | DTSEN;  // send packet as DATA1, set UOWN bit
    1a7a:	50 a0 20    	mov.w     #0xa05, w0
    1a7c:	81 cc b3    	mov.b     #0xc8, w1
    1a7e:	01 48 78    	mov.b     w1, [w0]
            } else {
                USB_error_flags |= REQUEST_ERROR;
            }
            break;
    1a80:	45 00 37    	bra       0x1b0c <.L42>

00001a82 <.L116>:
    1a82:	0c c8 bf    	mov.b     0x80c, WREG
    1a84:	00 04 a0    	bset.b    w0, #0x0
    1a86:	0c e8 b7    	mov.b     WREG, 0x80c
    1a88:	41 00 37    	bra       0x1b0c <.L42>

00001a8a <.L50>:
        case GET_INTERFACE:
            switch (USB_USWSTAT) {
    1a8a:	10 c8 bf    	mov.b     0x810, WREG
    1a8c:	00 80 fb    	ze        w0, w0
    1a8e:	e3 0f 50    	sub.w     w0, #0x3, [w15]
    1a90:	13 00 3a    	bra       NZ, 0x1ab8 <.L141>
                case CONFIG_STATE:
                    if (USB_setup.wIndex.b[0] < NUM_INTERFACES) {
    1a92:	40 80 20    	mov.w     #0x804, w0
    1a94:	40 40 90    	mov.b     [w0+4], w0
    1a96:	00 04 e0    	cp0.b     w0
    1a98:	0a 00 3a    	bra       NZ, 0x1aae <.L123>
                        BD[EP0IN].address[0] = 0;   // always send back 0 for bAlternateSetting
    1a9a:	30 50 80    	mov.w     0xa06, w0
    1a9c:	80 40 eb    	clr.b     w1
    1a9e:	01 48 78    	mov.b     w1, [w0]
                        BD[EP0IN].bytecount = 1;
    1aa0:	40 a0 20    	mov.w     #0xa04, w0
    1aa2:	11 c0 b3    	mov.b     #0x1, w1
    1aa4:	01 48 78    	mov.b     w1, [w0]
                        BD[EP0IN].status = UOWN | DTS | DTSEN;  // send packet as DATA1, set UOWN bit
    1aa6:	50 a0 20    	mov.w     #0xa05, w0
    1aa8:	81 cc b3    	mov.b     #0xc8, w1
    1aaa:	01 48 78    	mov.b     w1, [w0]
    1aac:	03 00 37    	bra       0x1ab4 <.L124>

00001aae <.L123>:
                    } else {
                        USB_error_flags |= REQUEST_ERROR;
    1aae:	0c c8 bf    	mov.b     0x80c, WREG
    1ab0:	00 04 a0    	bset.b    w0, #0x0
    1ab2:	0c e8 b7    	mov.b     WREG, 0x80c

00001ab4 <.L124>:
                    }
                    break;
    1ab4:	00 00 00    	nop       
                default:
                    USB_error_flags |= REQUEST_ERROR;
            }
            break;
    1ab6:	2a 00 37    	bra       0x1b0c <.L42>

00001ab8 <.L141>:
    1ab8:	0c c8 bf    	mov.b     0x80c, WREG
    1aba:	00 04 a0    	bset.b    w0, #0x0
    1abc:	0c e8 b7    	mov.b     WREG, 0x80c
    1abe:	26 00 37    	bra       0x1b0c <.L42>

00001ac0 <.L51>:
        case SET_INTERFACE:
            switch (USB_USWSTAT) {
    1ac0:	10 c8 bf    	mov.b     0x810, WREG
    1ac2:	00 80 fb    	ze        w0, w0
    1ac4:	e3 0f 50    	sub.w     w0, #0x3, [w15]
    1ac6:	19 00 3a    	bra       NZ, 0x1afa <.L142>
                case CONFIG_STATE:
                    if (USB_setup.wIndex.b[0] < NUM_INTERFACES) {
    1ac8:	40 80 20    	mov.w     #0x804, w0
    1aca:	40 40 90    	mov.b     [w0+4], w0
    1acc:	00 04 e0    	cp0.b     w0
    1ace:	10 00 3a    	bra       NZ, 0x1af0 <.L128>
                        switch (USB_setup.wValue.b[0]) {
    1ad0:	40 80 20    	mov.w     #0x804, w0
    1ad2:	20 40 90    	mov.b     [w0+2], w0
    1ad4:	00 80 fb    	ze        w0, w0
    1ad6:	00 00 e0    	cp0.w     w0
    1ad8:	07 00 3a    	bra       NZ, 0x1ae8 <.L143>
                            case 0:                 // currently support only bAlternateSetting of 0
                                BD[EP0IN].bytecount = 0;
    1ada:	40 a0 20    	mov.w     #0xa04, w0
    1adc:	80 40 eb    	clr.b     w1
    1ade:	01 48 78    	mov.b     w1, [w0]
                                BD[EP0IN].status = UOWN | DTS | DTSEN;  // send packet as DATA1, set UOWN bit
    1ae0:	50 a0 20    	mov.w     #0xa05, w0
    1ae2:	81 cc b3    	mov.b     #0xc8, w1
    1ae4:	01 48 78    	mov.b     w1, [w0]
                                break;
    1ae6:	07 00 37    	bra       0x1af6 <.L132>

00001ae8 <.L143>:
                            default:
                                USB_error_flags |= REQUEST_ERROR;
    1ae8:	0c c8 bf    	mov.b     0x80c, WREG
    1aea:	00 04 a0    	bset.b    w0, #0x0
    1aec:	0c e8 b7    	mov.b     WREG, 0x80c
    1aee:	03 00 37    	bra       0x1af6 <.L132>

00001af0 <.L128>:
                        }
                    } else {
                        USB_error_flags |= REQUEST_ERROR;
    1af0:	0c c8 bf    	mov.b     0x80c, WREG
    1af2:	00 04 a0    	bset.b    w0, #0x0
    1af4:	0c e8 b7    	mov.b     WREG, 0x80c

00001af6 <.L132>:
                    }
                    break;
    1af6:	00 00 00    	nop       
                default:
                    USB_error_flags |= REQUEST_ERROR;
            }
            break;
    1af8:	09 00 37    	bra       0x1b0c <.L42>

00001afa <.L142>:
    1afa:	0c c8 bf    	mov.b     0x80c, WREG
    1afc:	00 04 a0    	bset.b    w0, #0x0
    1afe:	0c e8 b7    	mov.b     WREG, 0x80c
    1b00:	05 00 37    	bra       0x1b0c <.L42>

00001b02 <.L43>:
        case SET_DESCRIPTOR:
        case SYNCH_FRAME:
        default:
            USB_error_flags |= REQUEST_ERROR;
    1b02:	0c c8 bf    	mov.b     0x80c, WREG
    1b04:	00 04 a0    	bset.b    w0, #0x0
    1b06:	0c e8 b7    	mov.b     WREG, 0x80c
    1b08:	01 00 37    	bra       0x1b0c <.L42>

00001b0a <.L144>:
    1b0a:	00 00 00    	nop       

00001b0c <.L42>:
    }
}
    1b0c:	00 80 fa    	ulnk      
    1b0e:	00 00 06    	return    

00001b10 <_usb_send_data_packet>:

void usb_send_data_packet(void) {
    1b10:	02 00 fa    	lnk       #0x2
    uint8_t packet_length, i;

    if (USB_request.bytes_left.w < MAX_PACKET_SIZE) {
    1b12:	21 45 80    	mov.w     0x8a4, w1
    1b14:	f0 03 20    	mov.w     #0x3f, w0
    1b16:	80 8f 50    	sub.w     w1, w0, [w15]
    1b18:	05 00 3e    	bra       GTU, 0x1b24 <.L146>
        packet_length = (uint8_t)USB_request.bytes_left.w;
    1b1a:	20 45 80    	mov.w     0x8a4, w0
    1b1c:	00 4f 78    	mov.b     w0, [w14]
        USB_request.bytes_left.w = 0;
    1b1e:	00 00 eb    	clr.w     w0
    1b20:	20 45 88    	mov.w     w0, 0x8a4
    1b22:	05 00 37    	bra       0x1b2e <.L147>

00001b24 <.L146>:
    } else {
        packet_length = MAX_PACKET_SIZE;
    1b24:	00 c4 b3    	mov.b     #0x40, w0
    1b26:	00 4f 78    	mov.b     w0, [w14]
        USB_request.bytes_left.w -= MAX_PACKET_SIZE;
    1b28:	20 45 80    	mov.w     0x8a4, w0
    1b2a:	00 04 b1    	sub.w     #0x40, w0
    1b2c:	20 45 88    	mov.w     w0, 0x8a4

00001b2e <.L147>:
    }
    for (i = 0; i < packet_length; i++) {
    1b2e:	00 40 eb    	clr.b     w0
    1b30:	10 47 98    	mov.b     w0, [w14+1]
    1b32:	0c 00 37    	bra       0x1b4c <.L148>

00001b34 <.L149>:
        BD[EP0IN].address[i] = *USB_request.data_ptr++;
    1b34:	31 50 80    	mov.w     0xa06, w1
    1b36:	1e 40 90    	mov.b     [w14+1], w0
    1b38:	00 80 fb    	ze        w0, w0
    1b3a:	80 80 40    	add.w     w1, w0, w1
    1b3c:	10 45 80    	mov.w     0x8a2, w0
    1b3e:	10 41 78    	mov.b     [w0], w2
    1b40:	82 48 78    	mov.b     w2, [w1]
    1b42:	00 00 e8    	inc.w     w0, w0
    1b44:	10 45 88    	mov.w     w0, 0x8a2
    1b46:	1e 40 90    	mov.b     [w14+1], w0
    1b48:	00 40 e8    	inc.b     w0, w0
    1b4a:	10 47 98    	mov.b     w0, [w14+1]

00001b4c <.L148>:
    1b4c:	1e 40 90    	mov.b     [w14+1], w0
    1b4e:	9e 4f 50    	sub.b     w0, [w14], [w15]
    1b50:	f1 ff 39    	bra       NC, 0x1b34 <.L149>
    }
    BD[EP0IN].bytecount = packet_length;
    1b52:	40 a0 20    	mov.w     #0xa04, w0
    1b54:	1e 48 78    	mov.b     [w14], [w0]
    BD[EP0IN].status = ((BD[EP0IN].status ^ DTS) & DTS) | UOWN | DTSEN; // toggle the DATA01 bit, clear the PIDs bits, and set the UOWN and DTS bits
    1b56:	50 a0 20    	mov.w     #0xa05, w0
    1b58:	10 40 78    	mov.b     [w0], w0
    1b5a:	00 c0 ea    	com.b     w0, w0
    1b5c:	02 c4 b3    	mov.b     #0x40, w2
    1b5e:	82 40 60    	and.b     w0, w2, w1
    1b60:	80 c8 b3    	mov.b     #0x88, w0
    1b62:	00 c0 70    	ior.b     w1, w0, w0
    1b64:	80 40 78    	mov.b     w0, w1
    1b66:	50 a0 20    	mov.w     #0xa05, w0
    1b68:	01 48 78    	mov.b     w1, [w0]
    if (USB_request.bytes_left.w == 0) {
    1b6a:	20 45 80    	mov.w     0x8a4, w0
    1b6c:	00 00 e0    	cp0.w     w0
    1b6e:	0f 00 3a    	bra       NZ, 0x1b8e <.L145>
        if (USB_request.done_callback)
    1b70:	30 45 80    	mov.w     0x8a6, w0
    1b72:	00 00 e0    	cp0.w     w0
    1b74:	02 00 32    	bra       Z, 0x1b7a <.L151>
            USB_request.done_callback();
    1b76:	30 45 80    	mov.w     0x8a6, w0
    1b78:	00 00 01    	call      w0

00001b7a <.L151>:
        USB_request.setup.bmRequestType = NO_REQUEST;    // sending a short packet, so clear device request
    1b7a:	a0 89 20    	mov.w     #0x89a, w0
    1b7c:	80 c0 eb    	setm.b    w1
    1b7e:	01 48 78    	mov.b     w1, [w0]
        USB_request.setup.bRequest = NO_REQUEST;
    1b80:	b0 89 20    	mov.w     #0x89b, w0
    1b82:	80 c0 eb    	setm.b    w1
    1b84:	01 48 78    	mov.b     w1, [w0]
        USB_request.done_callback = (USB_CALLBACK_T)NULL;
    1b86:	00 00 eb    	clr.w     w0
    1b88:	30 45 88    	mov.w     w0, 0x8a6
        USB_in_callbacks[0] = (USB_CALLBACK_T)NULL;
    1b8a:	00 00 eb    	clr.w     w0
    1b8c:	40 45 88    	mov.w     w0, 0x8a8

00001b8e <.L145>:
    }
}
    1b8e:	00 80 fa    	ulnk      
    1b90:	00 00 06    	return    

00001b92 <_usb_receive_data_packet>:

void usb_receive_data_packet(void) {
    1b92:	02 00 fa    	lnk       #0x2
    uint8_t i;

    for (i = 0; i < BD[EP0OUT].bytecount; i++) {
    1b94:	00 40 eb    	clr.b     w0
    1b96:	00 4f 78    	mov.b     w0, [w14]
    1b98:	09 00 37    	bra       0x1bac <.L153>

00001b9a <.L154>:
        *USB_request.data_ptr++ = BD[EP0OUT].address[i];
    1b9a:	10 45 80    	mov.w     0x8a2, w0
    1b9c:	12 50 80    	mov.w     0xa02, w2
    1b9e:	9e 80 fb    	ze        [w14], w1
    1ba0:	81 00 41    	add.w     w2, w1, w1
    1ba2:	91 40 78    	mov.b     [w1], w1
    1ba4:	01 48 78    	mov.b     w1, [w0]
    1ba6:	00 00 e8    	inc.w     w0, w0
    1ba8:	10 45 88    	mov.w     w0, 0x8a2
    1baa:	1e 4f e8    	inc.b     [w14], [w14]

00001bac <.L153>:
    1bac:	00 a0 20    	mov.w     #0xa00, w0
    1bae:	10 40 78    	mov.b     [w0], w0
    1bb0:	9e 4f 50    	sub.b     w0, [w14], [w15]
    1bb2:	f3 ff 3e    	bra       GTU, 0x1b9a <.L154>
    }
    USB_request.bytes_left.w -= BD[EP0OUT].bytecount;
    1bb4:	21 45 80    	mov.w     0x8a4, w1
    1bb6:	00 a0 20    	mov.w     #0xa00, w0
    1bb8:	10 40 78    	mov.b     [w0], w0
    1bba:	00 80 fb    	ze        w0, w0
    1bbc:	00 80 50    	sub.w     w1, w0, w0
    1bbe:	20 45 88    	mov.w     w0, 0x8a4
    if (USB_request.bytes_left.w > 0) {
    1bc0:	20 45 80    	mov.w     0x8a4, w0
    1bc2:	00 00 e0    	cp0.w     w0
    1bc4:	0e 00 32    	bra       Z, 0x1be2 <.L155>
        BD[EP0OUT].bytecount = MAX_PACKET_SIZE;
    1bc6:	00 a0 20    	mov.w     #0xa00, w0
    1bc8:	01 c4 b3    	mov.b     #0x40, w1
    1bca:	01 48 78    	mov.b     w1, [w0]
        BD[EP0OUT].status = ((BD[EP0OUT].status ^ DTS) & DTS) | UOWN | DTSEN;   // toggle the DATA01 bit, clear the PIDs bits, and set the UOWN and DTS bits
    1bcc:	10 a0 20    	mov.w     #0xa01, w0
    1bce:	10 40 78    	mov.b     [w0], w0
    1bd0:	00 c0 ea    	com.b     w0, w0
    1bd2:	02 c4 b3    	mov.b     #0x40, w2
    1bd4:	82 40 60    	and.b     w0, w2, w1
    1bd6:	80 c8 b3    	mov.b     #0x88, w0
    1bd8:	00 c0 70    	ior.b     w1, w0, w0
    1bda:	80 40 78    	mov.b     w0, w1
    1bdc:	10 a0 20    	mov.w     #0xa01, w0
    1bde:	01 48 78    	mov.b     w1, [w0]
    1be0:	0f 00 37    	bra       0x1c00 <.L152>

00001be2 <.L155>:
    } else {
        if (USB_request.done_callback)
    1be2:	30 45 80    	mov.w     0x8a6, w0
    1be4:	00 00 e0    	cp0.w     w0
    1be6:	02 00 32    	bra       Z, 0x1bec <.L157>
            USB_request.done_callback();
    1be8:	30 45 80    	mov.w     0x8a6, w0
    1bea:	00 00 01    	call      w0

00001bec <.L157>:
        USB_request.setup.bmRequestType = NO_REQUEST;    // all data received, so clear device request
    1bec:	a0 89 20    	mov.w     #0x89a, w0
    1bee:	80 c0 eb    	setm.b    w1
    1bf0:	01 48 78    	mov.b     w1, [w0]
        USB_request.setup.bRequest = NO_REQUEST;
    1bf2:	b0 89 20    	mov.w     #0x89b, w0
    1bf4:	80 c0 eb    	setm.b    w1
    1bf6:	01 48 78    	mov.b     w1, [w0]
        USB_request.done_callback = (USB_CALLBACK_T)NULL;
    1bf8:	00 00 eb    	clr.w     w0
    1bfa:	30 45 88    	mov.w     w0, 0x8a6
        USB_out_callbacks[0] = (USB_CALLBACK_T)NULL;
    1bfc:	00 00 eb    	clr.w     w0
    1bfe:	40 46 88    	mov.w     w0, 0x8c8

00001c00 <.L152>:
    }
}
    1c00:	00 80 fa    	ulnk      
    1c02:	00 00 06    	return    

00001c04 <_even_parity>:
    1c04:	02 00 fa    	lnk       #0x2
    1c06:	00 0f 78    	mov.w     w0, [w14]
    1c08:	1e 00 78    	mov.w     [w14], w0
    1c0a:	48 00 de    	lsr.w     w0, #0x8, w0
    1c0c:	1e 0f 68    	xor.w     w0, [w14], [w14]
    1c0e:	1e 00 78    	mov.w     [w14], w0
    1c10:	44 00 de    	lsr.w     w0, #0x4, w0
    1c12:	1e 0f 68    	xor.w     w0, [w14], [w14]
    1c14:	1e 00 78    	mov.w     [w14], w0
    1c16:	42 00 de    	lsr.w     w0, #0x2, w0
    1c18:	1e 0f 68    	xor.w     w0, [w14], [w14]
    1c1a:	1e 00 78    	mov.w     [w14], w0
    1c1c:	00 00 d1    	lsr.w     w0, w0
    1c1e:	1e 0f 68    	xor.w     w0, [w14], [w14]
    1c20:	9e 00 78    	mov.w     [w14], w1
    1c22:	61 80 60    	and.w     w1, #0x1, w0
    1c24:	00 80 fa    	ulnk      
    1c26:	00 00 06    	return    

00001c28 <_enc_readReg>:
    1c28:	08 00 fa    	lnk       #0x8
    1c2a:	88 9f be    	mov.d     w8, [w15++]
    1c2c:	00 04 78    	mov.w     w0, w8
    1c2e:	31 07 98    	mov.w     w1, [w14+6]
    1c30:	3e 00 90    	mov.w     [w14+6], w0
    1c32:	00 e0 a0    	bset.w    w0, #0xe
    1c34:	10 07 98    	mov.w     w0, [w14+2]
    1c36:	9e 04 90    	mov.w     [w14+2], w9
    1c38:	1e 00 90    	mov.w     [w14+2], w0
    1c3a:	e4 ff 07    	rcall     0x1c04 <_even_parity> <.L0> <.LFB0> <.LFE8> <.Letext0> <.Ltext0>
    1c3c:	4f 00 dd    	sl.w      w0, #0xf, w0
    1c3e:	09 00 70    	ior.w     w0, w9, w0
    1c40:	10 07 98    	mov.w     w0, [w14+2]
    1c42:	ea a2 a9    	bclr.b    0x2ea, #0x5
    1c44:	3e 40 90    	mov.b     [w14+3], w0
    1c46:	00 80 fb    	ze        w0, w0
    1c48:	40 13 88    	mov.w     w0, 0x268
    1c4a:	00 00 00    	nop       

00001c4c <.L3>:
    1c4c:	00 13 80    	mov.w     0x260, w0
    1c4e:	61 00 60    	and.w     w0, #0x1, w0
    1c50:	00 00 e0    	cp0.w     w0
    1c52:	fc ff 32    	bra       Z, 0x1c4c <.L3>
    1c54:	41 13 80    	mov.w     0x268, w1
    1c56:	01 0f 78    	mov.w     w1, [w14]
    1c58:	2e 40 90    	mov.b     [w14+2], w0
    1c5a:	00 80 fb    	ze        w0, w0
    1c5c:	40 13 88    	mov.w     w0, 0x268
    1c5e:	00 00 00    	nop       

00001c60 <.L4>:
    1c60:	00 13 80    	mov.w     0x260, w0
    1c62:	61 00 60    	and.w     w0, #0x1, w0
    1c64:	00 00 e0    	cp0.w     w0
    1c66:	fc ff 32    	bra       Z, 0x1c60 <.L4>
    1c68:	41 13 80    	mov.w     0x268, w1
    1c6a:	01 0f 78    	mov.w     w1, [w14]
    1c6c:	ea a2 a8    	bset.b    0x2ea, #0x5
	...
    1c76:	ea a2 a9    	bclr.b    0x2ea, #0x5
    1c78:	68 22 ef    	clr.w     0x268
    1c7a:	00 00 00    	nop       

00001c7c <.L5>:
    1c7c:	00 13 80    	mov.w     0x260, w0
    1c7e:	61 00 60    	and.w     w0, #0x1, w0
    1c80:	00 00 e0    	cp0.w     w0
    1c82:	fc ff 32    	bra       Z, 0x1c7c <.L5>
    1c84:	40 13 80    	mov.w     0x268, w0
    1c86:	00 40 78    	mov.b     w0, w0
    1c88:	50 47 98    	mov.b     w0, [w14+5]
    1c8a:	68 22 ef    	clr.w     0x268
    1c8c:	00 00 00    	nop       

00001c8e <.L6>:
    1c8e:	00 13 80    	mov.w     0x260, w0
    1c90:	61 00 60    	and.w     w0, #0x1, w0
    1c92:	00 00 e0    	cp0.w     w0
    1c94:	fc ff 32    	bra       Z, 0x1c8e <.L6>
    1c96:	40 13 80    	mov.w     0x268, w0
    1c98:	00 40 78    	mov.b     w0, w0
    1c9a:	40 47 98    	mov.b     w0, [w14+4]
    1c9c:	ea a2 a8    	bset.b    0x2ea, #0x5
    1c9e:	ae 00 90    	mov.w     [w14+4], w1
    1ca0:	01 0c 78    	mov.w     w1, [w8]
    1ca2:	08 00 78    	mov.w     w8, w0
    1ca4:	4f 04 be    	mov.d     [--w15], w8
    1ca6:	00 80 fa    	ulnk      
    1ca8:	00 00 06    	return    

00001caa <_vendor_requests>:
    1caa:	02 00 fa    	lnk       #0x2
    1cac:	40 80 20    	mov.w     #0x804, w0
    1cae:	10 40 90    	mov.b     [w0+1], w0
    1cb0:	00 80 fb    	ze        w0, w0
    1cb2:	e3 0f 50    	sub.w     w0, #0x3, [w15]
    1cb4:	52 00 32    	bra       Z, 0x1d5a <.L12>
    1cb6:	e3 0f 50    	sub.w     w0, #0x3, [w15]
    1cb8:	07 00 3c    	bra       GT, 0x1cc8 <.L16>
    1cba:	e1 0f 50    	sub.w     w0, #0x1, [w15]
    1cbc:	23 00 32    	bra       Z, 0x1d04 <.L10>
    1cbe:	e1 0f 50    	sub.w     w0, #0x1, [w15]
    1cc0:	36 00 3c    	bra       GT, 0x1d2e <.L11>
    1cc2:	00 00 e0    	cp0.w     w0
    1cc4:	08 00 32    	bra       Z, 0x1cd6 <.L9>
    1cc6:	89 00 37    	bra       0x1dda <.L8>

00001cc8 <.L16>:
    1cc8:	e5 0f 50    	sub.w     w0, #0x5, [w15]
    1cca:	64 00 32    	bra       Z, 0x1d94 <.L14>
    1ccc:	e5 0f 50    	sub.w     w0, #0x5, [w15]
    1cce:	51 00 35    	bra       LT, 0x1d72 <.L13>
    1cd0:	e6 0f 50    	sub.w     w0, #0x6, [w15]
    1cd2:	71 00 32    	bra       Z, 0x1db6 <.L15>
    1cd4:	82 00 37    	bra       0x1dda <.L8>

00001cd6 <.L9>:
    1cd6:	d1 16 80    	mov.w     0x2da, w1
    1cd8:	00 08 20    	mov.w     #0x80, w0
    1cda:	00 80 60    	and.w     w1, w0, w0
    1cdc:	00 f0 a7    	btsc.w    w0, #0xf
    1cde:	00 00 ea    	neg.w     w0, w0
    1ce0:	00 00 e9    	dec.w     w0, w0
    1ce2:	4f 00 de    	lsr.w     w0, #0xf, w0
    1ce4:	00 40 78    	mov.b     w0, w0
    1ce6:	00 80 fb    	ze        w0, w0
    1ce8:	61 00 60    	and.w     w0, #0x1, w0
    1cea:	47 00 dd    	sl.w      w0, #0x7, w0
    1cec:	d2 16 80    	mov.w     0x2da, w2
    1cee:	f1 f7 2f    	mov.w     #0xff7f, w1
    1cf0:	81 00 61    	and.w     w2, w1, w1
    1cf2:	01 00 70    	ior.w     w0, w1, w0
    1cf4:	d0 16 88    	mov.w     w0, 0x2da
    1cf6:	40 a0 20    	mov.w     #0xa04, w0
    1cf8:	80 40 eb    	clr.b     w1
    1cfa:	01 48 78    	mov.b     w1, [w0]
    1cfc:	50 a0 20    	mov.w     #0xa05, w0
    1cfe:	81 cc b3    	mov.b     #0xc8, w1
    1d00:	01 48 78    	mov.b     w1, [w0]
    1d02:	6e 00 37    	bra       0x1de0 <.L7>

00001d04 <.L10>:
    1d04:	50 17 80    	mov.w     0x2ea, w0
    1d06:	61 00 60    	and.w     w0, #0x1, w0
    1d08:	00 f0 a7    	btsc.w    w0, #0xf
    1d0a:	00 00 ea    	neg.w     w0, w0
    1d0c:	00 00 e9    	dec.w     w0, w0
    1d0e:	4f 00 de    	lsr.w     w0, #0xf, w0
    1d10:	00 40 78    	mov.b     w0, w0
    1d12:	00 80 fb    	ze        w0, w0
    1d14:	61 00 60    	and.w     w0, #0x1, w0
    1d16:	52 17 80    	mov.w     0x2ea, w2
    1d18:	e1 ff 2f    	mov.w     #0xfffe, w1
    1d1a:	81 00 61    	and.w     w2, w1, w1
    1d1c:	01 00 70    	ior.w     w0, w1, w0
    1d1e:	50 17 88    	mov.w     w0, 0x2ea
    1d20:	40 a0 20    	mov.w     #0xa04, w0
    1d22:	80 40 eb    	clr.b     w1
    1d24:	01 48 78    	mov.b     w1, [w0]
    1d26:	50 a0 20    	mov.w     #0xa05, w0
    1d28:	81 cc b3    	mov.b     #0xc8, w1
    1d2a:	01 48 78    	mov.b     w1, [w0]
    1d2c:	59 00 37    	bra       0x1de0 <.L7>

00001d2e <.L11>:
    1d2e:	50 17 80    	mov.w     0x2ea, w0
    1d30:	62 00 60    	and.w     w0, #0x2, w0
    1d32:	00 f0 a7    	btsc.w    w0, #0xf
    1d34:	00 00 ea    	neg.w     w0, w0
    1d36:	00 00 e9    	dec.w     w0, w0
    1d38:	4f 00 de    	lsr.w     w0, #0xf, w0
    1d3a:	00 40 78    	mov.b     w0, w0
    1d3c:	00 80 fb    	ze        w0, w0
    1d3e:	61 00 60    	and.w     w0, #0x1, w0
    1d40:	00 00 40    	add.w     w0, w0, w0
    1d42:	52 17 80    	mov.w     0x2ea, w2
    1d44:	d1 ff 2f    	mov.w     #0xfffd, w1
    1d46:	81 00 61    	and.w     w2, w1, w1
    1d48:	01 00 70    	ior.w     w0, w1, w0
    1d4a:	50 17 88    	mov.w     w0, 0x2ea
    1d4c:	40 a0 20    	mov.w     #0xa04, w0
    1d4e:	80 40 eb    	clr.b     w1
    1d50:	01 48 78    	mov.b     w1, [w0]
    1d52:	50 a0 20    	mov.w     #0xa05, w0
    1d54:	81 cc b3    	mov.b     #0xc8, w1
    1d56:	01 48 78    	mov.b     w1, [w0]
    1d58:	43 00 37    	bra       0x1de0 <.L7>

00001d5a <.L12>:
    1d5a:	30 50 80    	mov.w     0xa06, w0
    1d5c:	91 16 80    	mov.w     0x2d2, w1
    1d5e:	cf 08 de    	lsr.w     w1, #0xf, w1
    1d60:	81 40 78    	mov.b     w1, w1
    1d62:	01 48 78    	mov.b     w1, [w0]
    1d64:	40 a0 20    	mov.w     #0xa04, w0
    1d66:	11 c0 b3    	mov.b     #0x1, w1
    1d68:	01 48 78    	mov.b     w1, [w0]
    1d6a:	50 a0 20    	mov.w     #0xa05, w0
    1d6c:	81 cc b3    	mov.b     #0xc8, w1
    1d6e:	01 48 78    	mov.b     w1, [w0]
    1d70:	37 00 37    	bra       0x1de0 <.L7>

00001d72 <.L13>:
    1d72:	30 50 80    	mov.w     0xa06, w0
    1d74:	92 16 80    	mov.w     0x2d2, w2
    1d76:	01 00 21    	mov.w     #0x1000, w1
    1d78:	81 00 61    	and.w     w2, w1, w1
    1d7a:	01 f0 a7    	btsc.w    w1, #0xf
    1d7c:	81 00 ea    	neg.w     w1, w1
    1d7e:	81 00 ea    	neg.w     w1, w1
    1d80:	cf 08 de    	lsr.w     w1, #0xf, w1
    1d82:	81 40 78    	mov.b     w1, w1
    1d84:	01 48 78    	mov.b     w1, [w0]
    1d86:	40 a0 20    	mov.w     #0xa04, w0
    1d88:	11 c0 b3    	mov.b     #0x1, w1
    1d8a:	01 48 78    	mov.b     w1, [w0]
    1d8c:	50 a0 20    	mov.w     #0xa05, w0
    1d8e:	81 cc b3    	mov.b     #0xc8, w1
    1d90:	01 48 78    	mov.b     w1, [w0]
    1d92:	26 00 37    	bra       0x1de0 <.L7>

00001d94 <.L14>:
    1d94:	30 50 80    	mov.w     0xa06, w0
    1d96:	52 16 80    	mov.w     0x2ca, w2
    1d98:	01 00 21    	mov.w     #0x1000, w1
    1d9a:	81 00 61    	and.w     w2, w1, w1
    1d9c:	01 f0 a7    	btsc.w    w1, #0xf
    1d9e:	81 00 ea    	neg.w     w1, w1
    1da0:	81 00 ea    	neg.w     w1, w1
    1da2:	cf 08 de    	lsr.w     w1, #0xf, w1
    1da4:	81 40 78    	mov.b     w1, w1
    1da6:	01 48 78    	mov.b     w1, [w0]
    1da8:	40 a0 20    	mov.w     #0xa04, w0
    1daa:	11 c0 b3    	mov.b     #0x1, w1
            BD[EP0IN].status = UOWN | DTS | DTSEN;
            break;
        case READ_SW3:
            BD[EP0IN].address[0] = SW3 ? 1 : 0;
            BD[EP0IN].bytecount = 1;
    1dac:	01 48 78    	mov.b     w1, [w0]
            BD[EP0IN].status = UOWN | DTS | DTSEN;
    1dae:	50 a0 20    	mov.w     #0xa05, w0
    1db0:	81 cc b3    	mov.b     #0xc8, w1
    1db2:	01 48 78    	mov.b     w1, [w0]
            break;
    1db4:	15 00 37    	bra       0x1de0 <.L7>

00001db6 <.L15>:
        case ENC_READ_REG:
            temp = enc_readReg(USB_setup.wValue);
    1db6:	40 80 20    	mov.w     #0x804, w0
    1db8:	90 00 90    	mov.w     [w0+2], w1
    1dba:	0e 00 78    	mov.w     w14, w0
    1dbc:	35 ff 07    	rcall     0x1c28 <_enc_readReg> <.LFB1> <.LFE0>
            BD[EP0IN].address[0] = temp.b[0];
    1dbe:	30 50 80    	mov.w     0xa06, w0
    1dc0:	9e 40 78    	mov.b     [w14], w1
    1dc2:	01 48 78    	mov.b     w1, [w0]
            BD[EP0IN].address[1] = temp.b[1];
    1dc4:	30 50 80    	mov.w     0xa06, w0
    1dc6:	00 00 e8    	inc.w     w0, w0
    1dc8:	9e 40 90    	mov.b     [w14+1], w1
    1dca:	01 48 78    	mov.b     w1, [w0]
            BD[EP0IN].bytecount = 2;
    1dcc:	40 a0 20    	mov.w     #0xa04, w0
    1dce:	21 c0 b3    	mov.b     #0x2, w1
    1dd0:	01 48 78    	mov.b     w1, [w0]
            BD[EP0IN].status = UOWN | DTS | DTSEN;
    1dd2:	50 a0 20    	mov.w     #0xa05, w0
    1dd4:	81 cc b3    	mov.b     #0xc8, w1
    1dd6:	01 48 78    	mov.b     w1, [w0]
            break;
    1dd8:	03 00 37    	bra       0x1de0 <.L7>

00001dda <.L8>:
        default:
            USB_error_flags |= REQUEST_ERROR;
    1dda:	0c c8 bf    	mov.b     0x80c, WREG
    1ddc:	00 04 a0    	bset.b    w0, #0x0
    1dde:	0c e8 b7    	mov.b     WREG, 0x80c

00001de0 <.L7>:
    }
}
    1de0:	00 80 fa    	ulnk      
    1de2:	00 00 06    	return    

00001de4 <_main>:

int16_t main(void) {
    1de4:	04 00 fa    	lnk       #0x4
    uint8_t *RPOR, *RPINR;

    init_elecanisms();
    1de6:	36 00 07    	rcall     0x1e54 <_init_elecanisms> <.L0> <.LFB0> <.LFE3> <.Letext0> <.Ltext0>

    // Configure encoder pins and connect them to SPI2
    ENC_NCS_DIR = OUT; ENC_NCS = 1;
    1de8:	e8 a2 a9    	bclr.b    0x2e8, #0x5
    1dea:	ea a2 a8    	bset.b    0x2ea, #0x5
    ENC_SCK_DIR = OUT; ENC_SCK = 0;
    1dec:	e8 82 a9    	bclr.b    0x2e8, #0x4
    1dee:	ea 82 a9    	bclr.b    0x2ea, #0x4
    ENC_MOSI_DIR = OUT; ENC_MOSI = 0;
    1df0:	d8 a2 a9    	bclr.b    0x2d8, #0x5
    1df2:	da a2 a9    	bclr.b    0x2da, #0x5
    ENC_MISO_DIR = IN;
    1df4:	d8 82 a8    	bset.b    0x2d8, #0x4

    RPOR = (uint8_t *)&RPOR0;
    1df6:	00 6c 20    	mov.w     #0x6c0, w0
    1df8:	00 0f 78    	mov.w     w0, [w14]
    RPINR = (uint8_t *)&RPINR0;
    1dfa:	00 68 20    	mov.w     #0x680, w0
    1dfc:	10 07 98    	mov.w     w0, [w14+2]

    __builtin_write_OSCCONL(OSCCON & 0xBF);
    1dfe:	11 3a 80    	mov.w     0x742, w1
    1e00:	f0 0b 20    	mov.w     #0xbf, w0
    1e02:	00 81 60    	and.w     w1, w0, w2
    1e04:	60 04 20    	mov.w     #0x46, w0
    1e06:	71 05 20    	mov.w     #0x57, w1
    1e08:	23 74 20    	mov.w     #0x742, w3
    1e0a:	80 49 78    	mov.b     w0, [w3]
    1e0c:	81 49 78    	mov.b     w1, [w3]
    1e0e:	82 49 78    	mov.b     w2, [w3]
    RPINR[MISO2_RP] = ENC_MISO_RP;
    1e10:	1e 00 90    	mov.w     [w14+2], w0
    1e12:	c0 02 b0    	add.w     #0x2c, w0
    1e14:	91 c1 b3    	mov.b     #0x19, w1
    1e16:	01 48 78    	mov.b     w1, [w0]
    RPOR[ENC_MOSI_RP] = MOSI2_RP;
    1e18:	9e 00 78    	mov.w     [w14], w1
    1e1a:	74 80 40    	add.w     w1, #0x14, w0
    1e1c:	a1 c0 b3    	mov.b     #0xa, w1
    1e1e:	01 48 78    	mov.b     w1, [w0]
    RPOR[ENC_SCK_RP] = SCK2OUT_RP;
    1e20:	9e 00 78    	mov.w     [w14], w1
    1e22:	6a 80 40    	add.w     w1, #0xa, w0
    1e24:	b1 c0 b3    	mov.b     #0xb, w1
    1e26:	01 48 78    	mov.b     w1, [w0]
    __builtin_write_OSCCONL(OSCCON | 0x40);
    1e28:	10 3a 80    	mov.w     0x742, w0
    1e2a:	00 01 78    	mov.w     w0, w2
    1e2c:	02 60 a0    	bset.w    w2, #0x6
    1e2e:	60 04 20    	mov.w     #0x46, w0
    1e30:	71 05 20    	mov.w     #0x57, w1
    1e32:	23 74 20    	mov.w     #0x742, w3
    1e34:	80 49 78    	mov.b     w0, [w3]
    1e36:	81 49 78    	mov.b     w1, [w3]
    1e38:	82 49 78    	mov.b     w2, [w3]

    SPI2CON1 = 0x003A;              // SPI2 mode = 1, SCK freq = 2 MHz
    1e3a:	a0 03 20    	mov.w     #0x3a, w0
    1e3c:	10 13 88    	mov.w     w0, 0x262
    SPI2CON2 = 0;
    1e3e:	64 22 ef    	clr.w     0x264
    SPI2STAT = 0x8000;
    1e40:	00 00 28    	mov.w     #0x8000, w0
    1e42:	00 13 88    	mov.w     w0, 0x260

    USB_setup_vendor_callback = vendor_requests;
    1e44:	a0 ca 21    	mov.w     #0x1caa, w0
    1e46:	c0 40 88    	mov.w     w0, 0x818
    init_usb();
    1e48:	51 fa 07    	rcall     0x12ec <_init_usb> <.LFB3> <.LFE2>

    while (USB_USWSTAT != CONFIG_STATE) {
    1e4a:	00 00 00    	nop       

00001e4c <.L19>:
    1e4c:	10 c8 bf    	mov.b     0x810, WREG
    1e4e:	e3 4f 50    	sub.b     w0, #0x3, [w15]
    1e50:	fd ff 3a    	bra       NZ, 0x1e4c <.L19>

00001e52 <.L20>:
#ifndef USB_INTERRUPT
        usb_service();
#endif
    }
    while (1) {
#ifndef USB_INTERRUPT
        usb_service();
#endif
    }
    1e52:	ff ff 37    	bra       .

00001e54 <_init_elecanisms>:
*/

#include "elecanisms.h"

void init_elecanisms(void) {
    1e54:	00 00 fa    	lnk       #0x0
    CLKDIV = 0x0100;        // RCDIV = 001 (4MHz, div2), 
    1e56:	00 10 20    	mov.w     #0x100, w0
    1e58:	20 3a 88    	mov.w     w0, 0x744
                            // CPDIV = 00 (FOSC = 32MHz, FCY = 16MHz)

    // Configure all pins on the digital headers to be inputs
    D0_DIR = IN;
    1e5a:	d8 a2 a8    	bset.b    0x2d8, #0x5
    D1_DIR = IN;
    1e5c:	d8 82 a8    	bset.b    0x2d8, #0x4
    D2_DIR = IN;
    1e5e:	e8 82 a8    	bset.b    0x2e8, #0x4
    D3_DIR = IN;
    1e60:	e8 a2 a8    	bset.b    0x2e8, #0x5
    D4_DIR = IN;
    1e62:	c9 e2 a8    	bset.b    0x2c9, #0x7
    D5_DIR = IN;
    1e64:	e8 62 a8    	bset.b    0x2e8, #0x3
    D6_DIR = IN;
    1e66:	d9 02 a8    	bset.b    0x2d9, #0x0
    D7_DIR = IN;
    1e68:	d9 62 a8    	bset.b    0x2d9, #0x3
    D8_DIR = IN;
    1e6a:	d9 22 a8    	bset.b    0x2d9, #0x1
    D9_DIR = IN;
    1e6c:	d9 42 a8    	bset.b    0x2d9, #0x2
    D10_DIR = IN;
    1e6e:	d8 02 a8    	bset.b    0x2d8, #0x0
    D11_DIR = IN;
    1e70:	d8 22 a8    	bset.b    0x2d8, #0x1
    D12_DIR = IN;
    1e72:	d8 42 a8    	bset.b    0x2d8, #0x2
    D13_DIR = IN;
    1e74:	d8 62 a8    	bset.b    0x2d8, #0x3

    // Configure all pins on the analog header to be inputs
    A0_DIR = IN;
    1e76:	c8 a2 a8    	bset.b    0x2c8, #0x5
    A1_DIR = IN;
    1e78:	c8 82 a8    	bset.b    0x2c8, #0x4
    A2_DIR = IN;
    1e7a:	c8 62 a8    	bset.b    0x2c8, #0x3
    A3_DIR = IN;
    1e7c:	c8 42 a8    	bset.b    0x2c8, #0x2
    A4_DIR = IN;
    1e7e:	c8 22 a8    	bset.b    0x2c8, #0x1
    A5_DIR = IN;
    1e80:	c8 02 a8    	bset.b    0x2c8, #0x0

    // Make all pins digital I/Os except for A0,...,A5
    ANSB = 0x003F;
    1e82:	f0 03 20    	mov.w     #0x3f, w0
    1e84:	10 27 88    	mov.w     w0, 0x4e2
    ANSC = 0;
    1e86:	e4 24 ef    	clr.w     0x4e4
    ANSD = 0;
    1e88:	e6 24 ef    	clr.w     0x4e6
    ANSF = 0;
    1e8a:	ea 24 ef    	clr.w     0x4ea
    ANSG = 0;
    1e8c:	ec 24 ef    	clr.w     0x4ec

    // Configure and enable the ADC module: 
    //   set output data format to integer (FORM<1:0> = 0b00)
    //   set conversion trigger source select bits to internal counter 
    //     (SSRC<2:0> = 0b111)
    //   set auto-sample time bits to 12*TAD (SAMC<4:0> = 12)
    //   set conversion clock select bits to 64*TCY (ADCS<7:0> = 64)
    //   set initial channel selection to A0
    AD1CON1 = 0x00E0; 
    1e8e:	00 0e 20    	mov.w     #0xe0, w0
    1e90:	00 19 88    	mov.w     w0, 0x320
    AD1CON2 = 0;
    1e92:	22 23 ef    	clr.w     0x322
    AD1CON3 = 0x0C40;
    1e94:	00 c4 20    	mov.w     #0xc40, w0
    1e96:	20 19 88    	mov.w     w0, 0x324
    AD1CHS = A0_AN;
    1e98:	50 00 20    	mov.w     #0x5, w0
    1e9a:	40 19 88    	mov.w     w0, 0x328
    AD1CON1bits.ADON = 1;
    1e9c:	21 e3 a8    	bset.b    0x321, #0x7

    // Configure LED pins as outputs, set to low (off)
    LED1_DIR = OUT; LED1 = 0;
    1e9e:	d8 e2 a9    	bclr.b    0x2d8, #0x7
    1ea0:	da e2 a9    	bclr.b    0x2da, #0x7
    LED2_DIR = OUT; LED2 = 0;
    1ea2:	e8 02 a9    	bclr.b    0x2e8, #0x0
    1ea4:	ea 02 a9    	bclr.b    0x2ea, #0x0
    LED3_DIR = OUT; LED3 = 0;
    1ea6:	e8 22 a9    	bclr.b    0x2e8, #0x1
    1ea8:	ea 22 a9    	bclr.b    0x2ea, #0x1

    // Configure SW pins as inputs
    SW1_DIR = IN;
    1eaa:	d1 e2 a8    	bset.b    0x2d1, #0x7
    SW2_DIR = IN;
    1eac:	d1 82 a8    	bset.b    0x2d1, #0x4
    SW3_DIR = IN;
    1eae:	c9 82 a8    	bset.b    0x2c9, #0x4
}
    1eb0:	00 80 fa    	ulnk      
    1eb2:	00 00 06    	return    

00001eb4 <_read_analog>:

uint16_t read_analog(uint16_t pin_an) {
    1eb4:	02 00 fa    	lnk       #0x2
    1eb6:	00 0f 78    	mov.w     w0, [w14]
    AD1CHS = pin_an;
    1eb8:	9e 00 78    	mov.w     [w14], w1
    1eba:	41 19 88    	mov.w     w1, 0x328
    AD1CON1bits.SAMP = 1;
    1ebc:	20 23 a8    	bset.b    0x320, #0x1
    while (AD1CON1bits.DONE == 0) {}
    1ebe:	00 00 00    	nop       

00001ec0 <.L3>:
    1ec0:	00 19 80    	mov.w     0x320, w0
    1ec2:	61 00 60    	and.w     w0, #0x1, w0
    1ec4:	00 00 e0    	cp0.w     w0
    1ec6:	fc ff 32    	bra       Z, 0x1ec0 <.L3>
    return ADC1BUF0;
    1ec8:	00 18 80    	mov.w     0x300, w0
}
    1eca:	00 80 fa    	ulnk      
    1ecc:	00 00 06    	return    
Disassembly of section .isr.text:

00001ece <__USB1Interrupt>:
    1ece:	36 00 f8    	push      0x36
    1ed0:	80 9f be    	mov.d     w0, [w15++]
    1ed2:	82 9f be    	mov.d     w2, [w15++]
    1ed4:	84 9f be    	mov.d     w4, [w15++]
    1ed6:	86 9f be    	mov.d     w6, [w15++]
    1ed8:	32 00 f8    	push      0x32
    1eda:	34 00 f8    	push      0x34
    1edc:	10 00 20    	mov.w     #0x1, w0
    1ede:	a0 01 88    	mov.w     w0, 0x34
    1ee0:	00 20 20    	mov.w     #0x200, w0
    1ee2:	90 01 88    	mov.w     w0, 0x32
    1ee4:	00 00 fa    	lnk       #0x0
    1ee6:	3f fa 07    	rcall     0x1366 <_usb_service> <.LFB4> <.LFE3>
    1ee8:	00 80 fa    	ulnk      
    1eea:	34 00 f9    	pop       0x34
    1eec:	32 00 f9    	pop       0x32
    1eee:	4f 03 be    	mov.d     [--w15], w6
    1ef0:	4f 02 be    	mov.d     [--w15], w4
    1ef2:	4f 01 be    	mov.d     [--w15], w2
    1ef4:	4f 00 be    	mov.d     [--w15], w0
    1ef6:	36 00 f9    	pop       0x36
    1ef8:	00 40 06    	retfie    
Disassembly of section .dinit:

00001efa <.dinit>:
    1efa:	1a 08 00    	nop       
    1efc:	ce 00 00    	nop       
    1efe:	80 00 00    	nop       
    1f00:	00 0a 00    	nop       
    1f02:	80 00 00    	nop       
    1f04:	80 00 00    	nop       
    1f06:	00 08 00    	nop       
    1f08:	1a 00 00    	nop       
    1f0a:	80 00 00    	nop       
    1f0c:	00 00 00    	nop       
Disassembly of section .isr:

00001f0e <__DefaultInterrupt>:
    1f0e:	00 40 da    	break     
    1f10:	00 00 fe    	reset     
